ARM GAS  C:\Users\LAB_ME~1\AppData\Local\Temp\ccCMqEXH.s 			page 1


   1              		.syntax unified
   2              		.cpu cortex-m4
   3              		.fpu softvfp
   4              		.eabi_attribute 20, 1
   5              		.eabi_attribute 21, 1
   6              		.eabi_attribute 23, 3
   7              		.eabi_attribute 24, 1
   8              		.eabi_attribute 25, 1
   9              		.eabi_attribute 26, 1
  10              		.eabi_attribute 30, 2
  11              		.eabi_attribute 34, 1
  12              		.eabi_attribute 18, 4
  13              		.thumb
  14              		.file	"chmemcore.c"
  15              		.text
  16              	.Ltext0:
  17              		.cfi_sections	.debug_frame
  18              		.section	.text._core_init,"ax",%progbits
  19              		.align	2
  20              		.p2align 4,,15
  21              		.global	_core_init
  22              		.thumb
  23              		.thumb_func
  24              		.type	_core_init, %function
  25              	_core_init:
  26              	.LFB7:
  27              		.file 1 "../../os/kernel/src/chmemcore.c"
  28              		.loc 1 59 0
  29              		.cfi_startproc
  30              		@ args = 0, pretend = 0, frame = 0
  31              		@ frame_needed = 0, uses_anonymous_args = 0
  32              		@ link register save eliminated.
  33              		.loc 1 63 0
  34 0000 054A     		ldr	r2, .L2
  35 0002 064B     		ldr	r3, .L2+4
  36 0004 22F00702 		bic	r2, r2, #7
  37 0008 1A60     		str	r2, [r3, #0]
  38              		.loc 1 64 0
  39 000a 054A     		ldr	r2, .L2+8
  40 000c 054B     		ldr	r3, .L2+12
  41 000e 22F00702 		bic	r2, r2, #7
  42 0012 1A60     		str	r2, [r3, #0]
  43 0014 7047     		bx	lr
  44              	.L3:
  45 0016 00BF     		.align	2
  46              	.L2:
  47 0018 07000000 		.word	__heap_base__+7
  48 001c 00000000 		.word	.LANCHOR0
  49 0020 00000000 		.word	__heap_end__
  50 0024 00000000 		.word	.LANCHOR1
  51              		.cfi_endproc
  52              	.LFE7:
  53              		.size	_core_init, .-_core_init
  54 0028 AFF30080 		.section	.text.chCoreAlloc,"ax",%progbits
  54      AFF30080 
  55              		.align	2
  56              		.p2align 4,,15
ARM GAS  C:\Users\LAB_ME~1\AppData\Local\Temp\ccCMqEXH.s 			page 2


  57              		.global	chCoreAlloc
  58              		.thumb
  59              		.thumb_func
  60              		.type	chCoreAlloc, %function
  61              	chCoreAlloc:
  62              	.LFB8:
  63              		.loc 1 84 0
  64              		.cfi_startproc
  65              		@ args = 0, pretend = 0, frame = 0
  66              		@ frame_needed = 0, uses_anonymous_args = 0
  67              		@ link register save eliminated.
  68              	.LVL0:
  69              	.LBB6:
  70              		.loc 1 87 0
  71 0000 2023     		movs	r3, #32
  72              	.LVL1:
  73              	@ 87 "../../os/kernel/src/chmemcore.c" 1
  74 0002 83F31188 		msr     BASEPRI, r3
  75              	@ 0 "" 2
  76              	.LVL2:
  77              		.thumb
  78              	.LBE6:
  79              	.LBB7:
  80              	.LBB8:
  81              		.loc 1 111 0
  82 0006 094B     		ldr	r3, .L7
  83              	.LVL3:
  84 0008 0949     		ldr	r1, .L7+4
  85 000a 1A68     		ldr	r2, [r3, #0]
  86 000c 0968     		ldr	r1, [r1, #0]
  87              		.loc 1 110 0
  88 000e 0730     		adds	r0, r0, #7
  89              	.LVL4:
  90 0010 20F00700 		bic	r0, r0, #7
  91              	.LVL5:
  92              		.loc 1 111 0
  93 0014 891A     		subs	r1, r1, r2
  94 0016 8842     		cmp	r0, r1
  95              	.LVL6:
  96              		.loc 1 114 0
  97 0018 9ABF     		itte	ls
  98 001a 1018     		addls	r0, r2, r0
  99              	.LVL7:
 100 001c 1860     		strls	r0, [r3, #0]
 101              		.loc 1 112 0
 102 001e 0022     		movhi	r2, #0
 103              	.LVL8:
 104              	.LBE8:
 105              	.LBE7:
 106              	.LBB9:
 107              		.loc 1 89 0
 108 0020 0023     		movs	r3, #0
 109              	.LVL9:
 110              	@ 89 "../../os/kernel/src/chmemcore.c" 1
 111 0022 83F31188 		msr     BASEPRI, r3
 112              	@ 0 "" 2
 113              	.LVL10:
ARM GAS  C:\Users\LAB_ME~1\AppData\Local\Temp\ccCMqEXH.s 			page 3


 114              		.thumb
 115              	.LBE9:
 116              		.loc 1 91 0
 117 0026 1046     		mov	r0, r2
 118 0028 7047     		bx	lr
 119              	.L8:
 120 002a 00BF     		.align	2
 121              	.L7:
 122 002c 00000000 		.word	.LANCHOR0
 123 0030 00000000 		.word	.LANCHOR1
 124              		.cfi_endproc
 125              	.LFE8:
 126              		.size	chCoreAlloc, .-chCoreAlloc
 127 0034 AFF30080 		.section	.text.chCoreAllocI,"ax",%progbits
 127      AFF30080 
 127      AFF30080 
 128              		.align	2
 129              		.p2align 4,,15
 130              		.global	chCoreAllocI
 131              		.thumb
 132              		.thumb_func
 133              		.type	chCoreAllocI, %function
 134              	chCoreAllocI:
 135              	.LFB9:
 136              		.loc 1 105 0
 137              		.cfi_startproc
 138              		@ args = 0, pretend = 0, frame = 0
 139              		@ frame_needed = 0, uses_anonymous_args = 0
 140              		@ link register save eliminated.
 141              	.LVL11:
 142              		.loc 1 111 0
 143 0000 074A     		ldr	r2, .L12
 144 0002 0849     		ldr	r1, .L12+4
 145 0004 1368     		ldr	r3, [r2, #0]
 146 0006 0968     		ldr	r1, [r1, #0]
 147              		.loc 1 110 0
 148 0008 0730     		adds	r0, r0, #7
 149              	.LVL12:
 150 000a 20F00700 		bic	r0, r0, #7
 151              	.LVL13:
 152              		.loc 1 111 0
 153 000e C91A     		subs	r1, r1, r3
 154 0010 8842     		cmp	r0, r1
 155              	.LVL14:
 156              		.loc 1 114 0
 157 0012 9ABF     		itte	ls
 158 0014 1818     		addls	r0, r3, r0
 159              	.LVL15:
 160 0016 1060     		strls	r0, [r2, #0]
 161              		.loc 1 112 0
 162 0018 0023     		movhi	r3, #0
 163              	.LVL16:
 164              		.loc 1 116 0
 165 001a 1846     		mov	r0, r3
 166 001c 7047     		bx	lr
 167              	.L13:
 168 001e 00BF     		.align	2
ARM GAS  C:\Users\LAB_ME~1\AppData\Local\Temp\ccCMqEXH.s 			page 4


 169              	.L12:
 170 0020 00000000 		.word	.LANCHOR0
 171 0024 00000000 		.word	.LANCHOR1
 172              		.cfi_endproc
 173              	.LFE9:
 174              		.size	chCoreAllocI, .-chCoreAllocI
 175 0028 AFF30080 		.section	.text.chCoreStatus,"ax",%progbits
 175      AFF30080 
 176              		.align	2
 177              		.p2align 4,,15
 178              		.global	chCoreStatus
 179              		.thumb
 180              		.thumb_func
 181              		.type	chCoreStatus, %function
 182              	chCoreStatus:
 183              	.LFB10:
 184              		.loc 1 125 0
 185              		.cfi_startproc
 186              		@ args = 0, pretend = 0, frame = 0
 187              		@ frame_needed = 0, uses_anonymous_args = 0
 188              		@ link register save eliminated.
 189              		.loc 1 127 0
 190 0000 024B     		ldr	r3, .L15
 191 0002 1868     		ldr	r0, [r3, #0]
 192 0004 024B     		ldr	r3, .L15+4
 193 0006 1B68     		ldr	r3, [r3, #0]
 194              		.loc 1 128 0
 195 0008 C01A     		subs	r0, r0, r3
 196 000a 7047     		bx	lr
 197              	.L16:
 198              		.align	2
 199              	.L15:
 200 000c 00000000 		.word	.LANCHOR1
 201 0010 00000000 		.word	.LANCHOR0
 202              		.cfi_endproc
 203              	.LFE10:
 204              		.size	chCoreStatus, .-chCoreStatus
 205 0014 AFF30080 		.section	.bss.endmem,"aw",%nobits
 205      AFF30080 
 205      AFF30080 
 206              		.align	2
 207              		.set	.LANCHOR1,. + 0
 208              		.type	endmem, %object
 209              		.size	endmem, 4
 210              	endmem:
 211 0000 00000000 		.space	4
 212              		.section	.bss.nextmem,"aw",%nobits
 213              		.align	2
 214              		.set	.LANCHOR0,. + 0
 215              		.type	nextmem, %object
 216              		.size	nextmem, 4
 217              	nextmem:
 218 0000 00000000 		.space	4
 219              		.text
 220              	.Letext0:
 221              		.file 2 "c:\\program files (x86)\\codesourcery\\sourcery_codebench_lite_for_arm_eabi\\bin\\../lib/
 222              		.file 3 "c:\\program files (x86)\\codesourcery\\sourcery_codebench_lite_for_arm_eabi\\bin\\../lib/
ARM GAS  C:\Users\LAB_ME~1\AppData\Local\Temp\ccCMqEXH.s 			page 5

