ARM GAS  C:\Users\LAB_ME~1\AppData\Local\Temp\cc3uAqNG.s 			page 1


   1              		.syntax unified
   2              		.cpu cortex-m4
   3              		.fpu softvfp
   4              		.eabi_attribute 20, 1
   5              		.eabi_attribute 21, 1
   6              		.eabi_attribute 23, 3
   7              		.eabi_attribute 24, 1
   8              		.eabi_attribute 25, 1
   9              		.eabi_attribute 26, 1
  10              		.eabi_attribute 30, 2
  11              		.eabi_attribute 34, 1
  12              		.eabi_attribute 18, 4
  13              		.thumb
  14              		.file	"chsem.c"
  15              		.text
  16              	.Ltext0:
  17              		.cfi_sections	.debug_frame
  18              		.section	.text.chSemInit,"ax",%progbits
  19              		.align	2
  20              		.p2align 4,,15
  21              		.global	chSemInit
  22              		.thumb
  23              		.thumb_func
  24              		.type	chSemInit, %function
  25              	chSemInit:
  26              	.LFB7:
  27              		.file 1 "../../os/kernel/src/chsem.c"
  28              		.loc 1 79 0
  29              		.cfi_startproc
  30              		@ args = 0, pretend = 0, frame = 0
  31              		@ frame_needed = 0, uses_anonymous_args = 0
  32              		@ link register save eliminated.
  33              	.LVL0:
  34              		.loc 1 83 0
  35 0000 4060     		str	r0, [r0, #4]
  36 0002 0060     		str	r0, [r0, #0]
  37              		.loc 1 84 0
  38 0004 8160     		str	r1, [r0, #8]
  39 0006 7047     		bx	lr
  40              		.cfi_endproc
  41              	.LFE7:
  42              		.size	chSemInit, .-chSemInit
  43 0008 AFF30080 		.section	.text.chSemResetI,"ax",%progbits
  43      AFF30080 
  44              		.align	2
  45              		.p2align 4,,15
  46              		.global	chSemResetI
  47              		.thumb
  48              		.thumb_func
  49              		.type	chSemResetI, %function
  50              	chSemResetI:
  51              	.LFB9:
  52              		.loc 1 129 0
  53              		.cfi_startproc
  54              		@ args = 0, pretend = 0, frame = 0
  55              		@ frame_needed = 0, uses_anonymous_args = 0
  56              	.LVL1:
ARM GAS  C:\Users\LAB_ME~1\AppData\Local\Temp\cc3uAqNG.s 			page 2


  57 0000 70B5     		push	{r4, r5, r6, lr}
  58              	.LCFI0:
  59              		.cfi_def_cfa_offset 16
  60              		.cfi_offset 4, -16
  61              		.cfi_offset 5, -12
  62              		.cfi_offset 6, -8
  63              		.cfi_offset 14, -4
  64              		.loc 1 134 0
  65 0002 8568     		ldr	r5, [r0, #8]
  66              	.LVL2:
  67              		.loc 1 140 0
  68 0004 8160     		str	r1, [r0, #8]
  69              		.loc 1 141 0
  70 0006 0135     		adds	r5, r5, #1
  71              	.LVL3:
  72 0008 002D     		cmp	r5, #0
  73              		.loc 1 129 0
  74 000a 0446     		mov	r4, r0
  75              		.loc 1 141 0
  76 000c 0BDC     		bgt	.L2
  77              		.loc 1 142 0
  78 000e 6FF00106 		mvn	r6, #1
  79              	.LVL4:
  80              	.L6:
  81              	.LBB24:
  82              	.LBB25:
  83              		.file 2 "../../os/kernel/include/chinline.h"
  84              		.loc 2 60 0
  85 0012 6068     		ldr	r0, [r4, #4]
  86              	.LVL5:
  87              		.loc 2 62 0
  88 0014 4368     		ldr	r3, [r0, #4]
  89 0016 6360     		str	r3, [r4, #4]
  90 0018 1C60     		str	r4, [r3, #0]
  91              	.LBE25:
  92              	.LBE24:
  93              		.loc 1 142 0
  94 001a FFF7FEFF 		bl	chSchReadyI
  95              	.LVL6:
  96              		.loc 1 141 0
  97 001e 0135     		adds	r5, r5, #1
  98              	.LVL7:
  99 0020 012D     		cmp	r5, #1
 100              		.loc 1 142 0
 101 0022 4662     		str	r6, [r0, #36]
 102              	.LVL8:
 103              		.loc 1 141 0
 104 0024 F5D1     		bne	.L6
 105              	.LVL9:
 106              	.L2:
 107 0026 70BD     		pop	{r4, r5, r6, pc}
 108              		.cfi_endproc
 109              	.LFE9:
 110              		.size	chSemResetI, .-chSemResetI
 111 0028 AFF30080 		.section	.text.chSemReset,"ax",%progbits
 111      AFF30080 
 112              		.align	2
ARM GAS  C:\Users\LAB_ME~1\AppData\Local\Temp\cc3uAqNG.s 			page 3


 113              		.p2align 4,,15
 114              		.global	chSemReset
 115              		.thumb
 116              		.thumb_func
 117              		.type	chSemReset, %function
 118              	chSemReset:
 119              	.LFB8:
 120              		.loc 1 102 0
 121              		.cfi_startproc
 122              		@ args = 0, pretend = 0, frame = 0
 123              		@ frame_needed = 0, uses_anonymous_args = 0
 124              	.LVL10:
 125 0000 08B5     		push	{r3, lr}
 126              	.LCFI1:
 127              		.cfi_def_cfa_offset 8
 128              		.cfi_offset 3, -8
 129              		.cfi_offset 14, -4
 130              	.LBB26:
 131              		.loc 1 104 0
 132 0002 2023     		movs	r3, #32
 133              	.LVL11:
 134              	@ 104 "../../os/kernel/src/chsem.c" 1
 135 0004 83F31188 		msr     BASEPRI, r3
 136              	@ 0 "" 2
 137              	.LVL12:
 138              		.thumb
 139              	.LBE26:
 140              		.loc 1 105 0
 141 0008 FFF7FEFF 		bl	chSemResetI
 142              	.LVL13:
 143              		.loc 1 106 0
 144 000c FFF7FEFF 		bl	chSchRescheduleS
 145              	.LVL14:
 146              	.LBB27:
 147              		.loc 1 107 0
 148 0010 0023     		movs	r3, #0
 149              	.LVL15:
 150              	@ 107 "../../os/kernel/src/chsem.c" 1
 151 0012 83F31188 		msr     BASEPRI, r3
 152              	@ 0 "" 2
 153              	.LVL16:
 154              		.thumb
 155 0016 08BD     		pop	{r3, pc}
 156              	.LBE27:
 157              		.cfi_endproc
 158              	.LFE8:
 159              		.size	chSemReset, .-chSemReset
 160 0018 AFF30080 		.section	.text.chSemWaitS,"ax",%progbits
 160      AFF30080 
 161              		.align	2
 162              		.p2align 4,,15
 163              		.global	chSemWaitS
 164              		.thumb
 165              		.thumb_func
 166              		.type	chSemWaitS, %function
 167              	chSemWaitS:
 168              	.LFB11:
ARM GAS  C:\Users\LAB_ME~1\AppData\Local\Temp\cc3uAqNG.s 			page 4


 169              		.loc 1 178 0
 170              		.cfi_startproc
 171              		@ args = 0, pretend = 0, frame = 0
 172              		@ frame_needed = 0, uses_anonymous_args = 0
 173              	.LVL17:
 174              		.loc 1 187 0
 175 0000 8268     		ldr	r2, [r0, #8]
 176 0002 013A     		subs	r2, r2, #1
 177 0004 002A     		cmp	r2, #0
 178              		.loc 1 178 0
 179 0006 10B5     		push	{r4, lr}
 180              	.LCFI2:
 181              		.cfi_def_cfa_offset 8
 182              		.cfi_offset 4, -8
 183              		.cfi_offset 14, -4
 184              		.loc 1 178 0
 185 0008 0346     		mov	r3, r0
 186              		.loc 1 187 0
 187 000a 8260     		str	r2, [r0, #8]
 188 000c 01DB     		blt	.L13
 189              		.loc 1 193 0
 190 000e 0020     		movs	r0, #0
 191              	.LVL18:
 192              		.loc 1 194 0
 193 0010 10BD     		pop	{r4, pc}
 194              	.LVL19:
 195              	.L13:
 196              		.loc 1 188 0
 197 0012 074C     		ldr	r4, .L14
 198 0014 A269     		ldr	r2, [r4, #24]
 199 0016 5062     		str	r0, [r2, #36]
 200              	.LVL20:
 201              	.LBB28:
 202              	.LBB29:
 203              		.loc 2 48 0
 204 0018 4168     		ldr	r1, [r0, #4]
 205 001a 82E80300 		stmia	r2, {r0, r1}
 206              	.LBE29:
 207              	.LBE28:
 208              		.loc 1 190 0
 209 001e 0320     		movs	r0, #3
 210              	.LVL21:
 211              	.LBB31:
 212              	.LBB30:
 213              		.loc 2 49 0
 214 0020 5A60     		str	r2, [r3, #4]
 215 0022 0A60     		str	r2, [r1, #0]
 216              	.LBE30:
 217              	.LBE31:
 218              		.loc 1 190 0
 219 0024 FFF7FEFF 		bl	chSchGoSleepS
 220              	.LVL22:
 221              		.loc 1 191 0
 222 0028 A369     		ldr	r3, [r4, #24]
 223 002a 586A     		ldr	r0, [r3, #36]
 224 002c 10BD     		pop	{r4, pc}
 225              	.L15:
ARM GAS  C:\Users\LAB_ME~1\AppData\Local\Temp\cc3uAqNG.s 			page 5


 226 002e 00BF     		.align	2
 227              	.L14:
 228 0030 00000000 		.word	rlist
 229              		.cfi_endproc
 230              	.LFE11:
 231              		.size	chSemWaitS, .-chSemWaitS
 232 0034 AFF30080 		.section	.text.chSemWait,"ax",%progbits
 232      AFF30080 
 232      AFF30080 
 233              		.align	2
 234              		.p2align 4,,15
 235              		.global	chSemWait
 236              		.thumb
 237              		.thumb_func
 238              		.type	chSemWait, %function
 239              	chSemWait:
 240              	.LFB10:
 241              		.loc 1 157 0
 242              		.cfi_startproc
 243              		@ args = 0, pretend = 0, frame = 0
 244              		@ frame_needed = 0, uses_anonymous_args = 0
 245              	.LVL23:
 246 0000 08B5     		push	{r3, lr}
 247              	.LCFI3:
 248              		.cfi_def_cfa_offset 8
 249              		.cfi_offset 3, -8
 250              		.cfi_offset 14, -4
 251              	.LBB32:
 252              		.loc 1 160 0
 253 0002 2023     		movs	r3, #32
 254              	.LVL24:
 255              	@ 160 "../../os/kernel/src/chsem.c" 1
 256 0004 83F31188 		msr     BASEPRI, r3
 257              	@ 0 "" 2
 258              	.LVL25:
 259              		.thumb
 260              	.LBE32:
 261              		.loc 1 161 0
 262 0008 FFF7FEFF 		bl	chSemWaitS
 263              	.LVL26:
 264              	.LBB33:
 265              		.loc 1 162 0
 266 000c 0023     		movs	r3, #0
 267              	.LVL27:
 268              	@ 162 "../../os/kernel/src/chsem.c" 1
 269 000e 83F31188 		msr     BASEPRI, r3
 270              	@ 0 "" 2
 271              	.LVL28:
 272              		.thumb
 273              	.LBE33:
 274              		.loc 1 164 0
 275 0012 08BD     		pop	{r3, pc}
 276              		.cfi_endproc
 277              	.LFE10:
 278              		.size	chSemWait, .-chSemWait
 279 0014 AFF30080 		.section	.text.chSemWaitTimeoutS,"ax",%progbits
 279      AFF30080 
ARM GAS  C:\Users\LAB_ME~1\AppData\Local\Temp\cc3uAqNG.s 			page 6


 279      AFF30080 
 280              		.align	2
 281              		.p2align 4,,15
 282              		.global	chSemWaitTimeoutS
 283              		.thumb
 284              		.thumb_func
 285              		.type	chSemWaitTimeoutS, %function
 286              	chSemWaitTimeoutS:
 287              	.LFB13:
 288              		.loc 1 243 0
 289              		.cfi_startproc
 290              		@ args = 0, pretend = 0, frame = 0
 291              		@ frame_needed = 0, uses_anonymous_args = 0
 292              		@ link register save eliminated.
 293              	.LVL29:
 294 0000 0346     		mov	r3, r0
 295              		.loc 1 247 0
 296 0002 8068     		ldr	r0, [r0, #8]
 297              	.LVL30:
 298              		.loc 1 252 0
 299 0004 421E     		subs	r2, r0, #1
 300 0006 002A     		cmp	r2, #0
 301              		.loc 1 243 0
 302 0008 10B4     		push	{r4}
 303              	.LCFI4:
 304              		.cfi_def_cfa_offset 4
 305              		.cfi_offset 4, -4
 306              		.loc 1 243 0
 307 000a 0C46     		mov	r4, r1
 308              		.loc 1 252 0
 309 000c 9A60     		str	r2, [r3, #8]
 310 000e 02DB     		blt	.L21
 311              		.loc 1 261 0
 312 0010 0020     		movs	r0, #0
 313              	.L18:
 314              		.loc 1 262 0
 315 0012 10BC     		pop	{r4}
 316 0014 7047     		bx	lr
 317              	.L21:
 318              		.loc 1 253 0
 319 0016 59B1     		cbz	r1, .L22
 320              		.loc 1 257 0
 321 0018 074A     		ldr	r2, .L23
 322 001a 9269     		ldr	r2, [r2, #24]
 323 001c 5362     		str	r3, [r2, #36]
 324              	.LVL31:
 325              	.LBB34:
 326              	.LBB35:
 327              		.loc 2 48 0
 328 001e 5C68     		ldr	r4, [r3, #4]
 329              	.LBE35:
 330              	.LBE34:
 331              		.loc 1 259 0
 332 0020 0320     		movs	r0, #3
 333              	.LBB37:
 334              	.LBB36:
 335              		.loc 2 48 0
ARM GAS  C:\Users\LAB_ME~1\AppData\Local\Temp\cc3uAqNG.s 			page 7


 336 0022 82E81800 		stmia	r2, {r3, r4}
 337              		.loc 2 49 0
 338 0026 5A60     		str	r2, [r3, #4]
 339 0028 2260     		str	r2, [r4, #0]
 340              	.LBE36:
 341              	.LBE37:
 342              		.loc 1 262 0
 343 002a 10BC     		pop	{r4}
 344              		.loc 1 259 0
 345 002c FFF7FEBF 		b	chSchGoSleepTimeoutS
 346              	.LVL32:
 347              	.L22:
 348              		.loc 1 254 0
 349 0030 9860     		str	r0, [r3, #8]
 350              		.loc 1 255 0
 351 0032 4FF0FF30 		mov	r0, #-1
 352 0036 ECE7     		b	.L18
 353              	.L24:
 354              		.align	2
 355              	.L23:
 356 0038 00000000 		.word	rlist
 357              		.cfi_endproc
 358              	.LFE13:
 359              		.size	chSemWaitTimeoutS, .-chSemWaitTimeoutS
 360 003c AFF30080 		.section	.text.chSemWaitTimeout,"ax",%progbits
 361              		.align	2
 362              		.p2align 4,,15
 363              		.global	chSemWaitTimeout
 364              		.thumb
 365              		.thumb_func
 366              		.type	chSemWaitTimeout, %function
 367              	chSemWaitTimeout:
 368              	.LFB12:
 369              		.loc 1 215 0
 370              		.cfi_startproc
 371              		@ args = 0, pretend = 0, frame = 0
 372              		@ frame_needed = 0, uses_anonymous_args = 0
 373              	.LVL33:
 374 0000 08B5     		push	{r3, lr}
 375              	.LCFI5:
 376              		.cfi_def_cfa_offset 8
 377              		.cfi_offset 3, -8
 378              		.cfi_offset 14, -4
 379              	.LBB38:
 380              		.loc 1 218 0
 381 0002 2023     		movs	r3, #32
 382              	.LVL34:
 383              	@ 218 "../../os/kernel/src/chsem.c" 1
 384 0004 83F31188 		msr     BASEPRI, r3
 385              	@ 0 "" 2
 386              	.LVL35:
 387              		.thumb
 388              	.LBE38:
 389              		.loc 1 219 0
 390 0008 FFF7FEFF 		bl	chSemWaitTimeoutS
 391              	.LVL36:
 392              	.LBB39:
ARM GAS  C:\Users\LAB_ME~1\AppData\Local\Temp\cc3uAqNG.s 			page 8


 393              		.loc 1 220 0
 394 000c 0023     		movs	r3, #0
 395              	.LVL37:
 396              	@ 220 "../../os/kernel/src/chsem.c" 1
 397 000e 83F31188 		msr     BASEPRI, r3
 398              	@ 0 "" 2
 399              	.LVL38:
 400              		.thumb
 401              	.LBE39:
 402              		.loc 1 222 0
 403 0012 08BD     		pop	{r3, pc}
 404              		.cfi_endproc
 405              	.LFE12:
 406              		.size	chSemWaitTimeout, .-chSemWaitTimeout
 407 0014 AFF30080 		.section	.text.chSemSignal,"ax",%progbits
 407      AFF30080 
 407      AFF30080 
 408              		.align	2
 409              		.p2align 4,,15
 410              		.global	chSemSignal
 411              		.thumb
 412              		.thumb_func
 413              		.type	chSemSignal, %function
 414              	chSemSignal:
 415              	.LFB14:
 416              		.loc 1 271 0
 417              		.cfi_startproc
 418              		@ args = 0, pretend = 0, frame = 0
 419              		@ frame_needed = 0, uses_anonymous_args = 0
 420              	.LVL39:
 421 0000 08B5     		push	{r3, lr}
 422              	.LCFI6:
 423              		.cfi_def_cfa_offset 8
 424              		.cfi_offset 3, -8
 425              		.cfi_offset 14, -4
 426              		.loc 1 271 0
 427 0002 0246     		mov	r2, r0
 428              	.LBB40:
 429              		.loc 1 279 0
 430 0004 2023     		movs	r3, #32
 431              	.LVL40:
 432              	@ 279 "../../os/kernel/src/chsem.c" 1
 433 0006 83F31188 		msr     BASEPRI, r3
 434              	@ 0 "" 2
 435              	.LVL41:
 436              		.thumb
 437              	.LBE40:
 438              		.loc 1 280 0
 439 000a 8368     		ldr	r3, [r0, #8]
 440              	.LVL42:
 441 000c 0133     		adds	r3, r3, #1
 442 000e 002B     		cmp	r3, #0
 443 0010 8360     		str	r3, [r0, #8]
 444 0012 03DD     		ble	.L28
 445              	.LVL43:
 446              	.L27:
 447              	.LBB41:
ARM GAS  C:\Users\LAB_ME~1\AppData\Local\Temp\cc3uAqNG.s 			page 9


 448              		.loc 1 282 0
 449 0014 0023     		movs	r3, #0
 450              	.LVL44:
 451              	@ 282 "../../os/kernel/src/chsem.c" 1
 452 0016 83F31188 		msr     BASEPRI, r3
 453              	@ 0 "" 2
 454              	.LVL45:
 455              		.thumb
 456 001a 08BD     		pop	{r3, pc}
 457              	.LVL46:
 458              	.L28:
 459              	.LBE41:
 460              	.LBB42:
 461              	.LBB43:
 462              		.loc 2 53 0
 463 001c 0068     		ldr	r0, [r0, #0]
 464              	.LVL47:
 465              		.loc 2 55 0
 466 001e 0368     		ldr	r3, [r0, #0]
 467              	.LBE43:
 468              	.LBE42:
 469              		.loc 1 281 0
 470 0020 0021     		movs	r1, #0
 471              	.LBB45:
 472              	.LBB44:
 473              		.loc 2 55 0
 474 0022 1360     		str	r3, [r2, #0]
 475 0024 5A60     		str	r2, [r3, #4]
 476              	.LBE44:
 477              	.LBE45:
 478              		.loc 1 281 0
 479 0026 FFF7FEFF 		bl	chSchWakeupS
 480              	.LVL48:
 481 002a F3E7     		b	.L27
 482              		.cfi_endproc
 483              	.LFE14:
 484              		.size	chSemSignal, .-chSemSignal
 485 002c AFF30080 		.section	.text.chSemSignalI,"ax",%progbits
 486              		.align	2
 487              		.p2align 4,,15
 488              		.global	chSemSignalI
 489              		.thumb
 490              		.thumb_func
 491              		.type	chSemSignalI, %function
 492              	chSemSignalI:
 493              	.LFB15:
 494              		.loc 1 296 0
 495              		.cfi_startproc
 496              		@ args = 0, pretend = 0, frame = 0
 497              		@ frame_needed = 0, uses_anonymous_args = 0
 498              		@ link register save eliminated.
 499              	.LVL49:
 500              		.loc 1 305 0
 501 0000 8268     		ldr	r2, [r0, #8]
 502 0002 0132     		adds	r2, r2, #1
 503 0004 002A     		cmp	r2, #0
 504              		.loc 1 296 0
ARM GAS  C:\Users\LAB_ME~1\AppData\Local\Temp\cc3uAqNG.s 			page 10


 505 0006 0346     		mov	r3, r0
 506              		.loc 1 305 0
 507 0008 8260     		str	r2, [r0, #8]
 508 000a 00DD     		ble	.L31
 509 000c 7047     		bx	lr
 510              	.L31:
 511              	.LVL50:
 512              	.LBB46:
 513              	.LBB47:
 514              	.LBB48:
 515              		.loc 2 53 0
 516 000e 0268     		ldr	r2, [r0, #0]
 517              	.LVL51:
 518              		.loc 2 55 0
 519 0010 1168     		ldr	r1, [r2, #0]
 520 0012 0160     		str	r1, [r0, #0]
 521 0014 4B60     		str	r3, [r1, #4]
 522              	.LBE48:
 523              	.LBE47:
 524              		.loc 1 310 0
 525 0016 1046     		mov	r0, r2
 526              	.LVL52:
 527              		.loc 1 309 0
 528 0018 0023     		movs	r3, #0
 529              	.LVL53:
 530 001a 5362     		str	r3, [r2, #36]
 531              	.LBE46:
 532              		.loc 1 312 0
 533              	.LBB49:
 534              		.loc 1 310 0
 535 001c FFF7FEBF 		b	chSchReadyI
 536              	.LVL54:
 537              	.LBE49:
 538              		.cfi_endproc
 539              	.LFE15:
 540              		.size	chSemSignalI, .-chSemSignalI
 541              		.section	.text.chSemAddCounterI,"ax",%progbits
 542              		.align	2
 543              		.p2align 4,,15
 544              		.global	chSemAddCounterI
 545              		.thumb
 546              		.thumb_func
 547              		.type	chSemAddCounterI, %function
 548              	chSemAddCounterI:
 549              	.LFB16:
 550              		.loc 1 327 0
 551              		.cfi_startproc
 552              		@ args = 0, pretend = 0, frame = 0
 553              		@ frame_needed = 0, uses_anonymous_args = 0
 554              	.LVL55:
 555 0000 70B5     		push	{r4, r5, r6, lr}
 556              	.LCFI7:
 557              		.cfi_def_cfa_offset 16
 558              		.cfi_offset 4, -16
 559              		.cfi_offset 5, -12
 560              		.cfi_offset 6, -8
 561              		.cfi_offset 14, -4
ARM GAS  C:\Users\LAB_ME~1\AppData\Local\Temp\cc3uAqNG.s 			page 11


 562              		.loc 1 336 0
 563 0002 0C1E     		subs	r4, r1, #0
 564              		.loc 1 327 0
 565 0004 0546     		mov	r5, r0
 566              		.loc 1 336 0
 567 0006 11DD     		ble	.L32
 568              		.loc 1 338 0
 569 0008 0026     		movs	r6, #0
 570 000a 01E0     		b	.L37
 571              	.LVL56:
 572              	.L34:
 573              		.loc 1 336 0
 574 000c 013C     		subs	r4, r4, #1
 575              	.LVL57:
 576 000e 0DD0     		beq	.L32
 577              	.LVL58:
 578              	.L37:
 579              		.loc 1 337 0
 580 0010 AB68     		ldr	r3, [r5, #8]
 581 0012 0133     		adds	r3, r3, #1
 582 0014 002B     		cmp	r3, #0
 583 0016 AB60     		str	r3, [r5, #8]
 584 0018 F8DC     		bgt	.L34
 585              	.LVL59:
 586              	.LBB50:
 587              	.LBB51:
 588              		.loc 2 53 0
 589 001a 2868     		ldr	r0, [r5, #0]
 590              	.LVL60:
 591              		.loc 2 55 0
 592 001c 0368     		ldr	r3, [r0, #0]
 593 001e 2B60     		str	r3, [r5, #0]
 594 0020 5D60     		str	r5, [r3, #4]
 595              	.LBE51:
 596              	.LBE50:
 597              		.loc 1 338 0
 598 0022 FFF7FEFF 		bl	chSchReadyI
 599              	.LVL61:
 600              		.loc 1 336 0
 601 0026 013C     		subs	r4, r4, #1
 602              		.loc 1 338 0
 603 0028 4662     		str	r6, [r0, #36]
 604              		.loc 1 336 0
 605 002a F1D1     		bne	.L37
 606              	.LVL62:
 607              	.L32:
 608 002c 70BD     		pop	{r4, r5, r6, pc}
 609              		.cfi_endproc
 610              	.LFE16:
 611              		.size	chSemAddCounterI, .-chSemAddCounterI
 612 002e 00BF     		.section	.text.chSemSignalWait,"ax",%progbits
 613              		.align	2
 614              		.p2align 4,,15
 615              		.global	chSemSignalWait
 616              		.thumb
 617              		.thumb_func
 618              		.type	chSemSignalWait, %function
ARM GAS  C:\Users\LAB_ME~1\AppData\Local\Temp\cc3uAqNG.s 			page 12


 619              	chSemSignalWait:
 620              	.LFB17:
 621              		.loc 1 359 0
 622              		.cfi_startproc
 623              		@ args = 0, pretend = 0, frame = 8
 624              		@ frame_needed = 0, uses_anonymous_args = 0
 625              	.LVL63:
 626 0000 10B5     		push	{r4, lr}
 627              	.LCFI8:
 628              		.cfi_def_cfa_offset 8
 629              		.cfi_offset 4, -8
 630              		.cfi_offset 14, -4
 631 0002 0246     		mov	r2, r0
 632 0004 82B0     		sub	sp, sp, #8
 633              	.LCFI9:
 634              		.cfi_def_cfa_offset 16
 635              	.LBB52:
 636              		.loc 1 372 0
 637 0006 2023     		movs	r3, #32
 638              	.LVL64:
 639              	@ 372 "../../os/kernel/src/chsem.c" 1
 640 0008 83F31188 		msr     BASEPRI, r3
 641              	@ 0 "" 2
 642              	.LVL65:
 643              		.thumb
 644              	.LBE52:
 645              		.loc 1 373 0
 646 000c 8368     		ldr	r3, [r0, #8]
 647              	.LVL66:
 648 000e 0133     		adds	r3, r3, #1
 649 0010 002B     		cmp	r3, #0
 650 0012 8360     		str	r3, [r0, #8]
 651 0014 19DD     		ble	.L43
 652              	.LVL67:
 653              	.L40:
 654              		.loc 1 375 0
 655 0016 8B68     		ldr	r3, [r1, #8]
 656 0018 013B     		subs	r3, r3, #1
 657 001a 002B     		cmp	r3, #0
 658 001c 8B60     		str	r3, [r1, #8]
 659 001e 07DB     		blt	.L44
 660              		.loc 1 383 0
 661 0020 FFF7FEFF 		bl	chSchRescheduleS
 662              	.LVL68:
 663              		.loc 1 384 0
 664 0024 0020     		movs	r0, #0
 665              	.LVL69:
 666              	.L42:
 667              	.LBB53:
 668              		.loc 1 386 0
 669 0026 0023     		movs	r3, #0
 670              	.LVL70:
 671              	@ 386 "../../os/kernel/src/chsem.c" 1
 672 0028 83F31188 		msr     BASEPRI, r3
 673              	@ 0 "" 2
 674              	.LVL71:
 675              		.thumb
ARM GAS  C:\Users\LAB_ME~1\AppData\Local\Temp\cc3uAqNG.s 			page 13


 676              	.LBE53:
 677              		.loc 1 388 0
 678 002c 02B0     		add	sp, sp, #8
 679 002e 10BD     		pop	{r4, pc}
 680              	.LVL72:
 681              	.L44:
 682              	.LBB54:
 683              		.loc 1 376 0
 684 0030 0B4A     		ldr	r2, .L45
 685              	.LBB55:
 686              	.LBB56:
 687              		.loc 2 48 0
 688 0032 4B68     		ldr	r3, [r1, #4]
 689              	.LBE56:
 690              	.LBE55:
 691              		.loc 1 376 0
 692 0034 9469     		ldr	r4, [r2, #24]
 693              	.LVL73:
 694              		.loc 1 379 0
 695 0036 0320     		movs	r0, #3
 696              	.LBB58:
 697              	.LBB57:
 698              		.loc 2 48 0
 699 0038 84E80A00 		stmia	r4, {r1, r3}
 700              		.loc 2 49 0
 701 003c 4C60     		str	r4, [r1, #4]
 702 003e 1C60     		str	r4, [r3, #0]
 703              	.LBE57:
 704              	.LBE58:
 705              		.loc 1 378 0
 706 0040 6162     		str	r1, [r4, #36]
 707              		.loc 1 379 0
 708 0042 FFF7FEFF 		bl	chSchGoSleepS
 709              	.LVL74:
 710              		.loc 1 380 0
 711 0046 606A     		ldr	r0, [r4, #36]
 712              	.LVL75:
 713 0048 EDE7     		b	.L42
 714              	.LVL76:
 715              	.L43:
 716              	.LBE54:
 717              	.LBB59:
 718              	.LBB60:
 719              		.loc 2 53 0
 720 004a 0068     		ldr	r0, [r0, #0]
 721              	.LVL77:
 722              		.loc 2 55 0
 723 004c 0368     		ldr	r3, [r0, #0]
 724 004e 1360     		str	r3, [r2, #0]
 725 0050 5A60     		str	r2, [r3, #4]
 726              	.LBE60:
 727              	.LBE59:
 728              		.loc 1 374 0
 729 0052 0191     		str	r1, [sp, #4]
 730 0054 FFF7FEFF 		bl	chSchReadyI
 731              	.LVL78:
 732 0058 0023     		movs	r3, #0
ARM GAS  C:\Users\LAB_ME~1\AppData\Local\Temp\cc3uAqNG.s 			page 14


 733 005a 4362     		str	r3, [r0, #36]
 734 005c 0199     		ldr	r1, [sp, #4]
 735 005e DAE7     		b	.L40
 736              	.L46:
 737              		.align	2
 738              	.L45:
 739 0060 00000000 		.word	rlist
 740              		.cfi_endproc
 741              	.LFE17:
 742              		.size	chSemSignalWait, .-chSemSignalWait
 743 0064 AFF30080 		.text
 743      AFF30080 
 743      AFF30080 
 744              	.Letext0:
 745              		.file 3 "c:\\program files (x86)\\codesourcery\\sourcery_codebench_lite_for_arm_eabi\\bin\\../lib/
 746              		.file 4 "../../os/ports/GCC/ARMCMx/chtypes.h"
 747              		.file 5 "../../os/kernel/include/chlists.h"
 748              		.file 6 "../../os/kernel/include/chthreads.h"
 749              		.file 7 "../../os/ports/GCC/ARMCMx/chcore_v7m.h"
 750              		.file 8 "../../os/kernel/include/chschd.h"
 751              		.file 9 "../../os/kernel/include/chsem.h"
 752              		.file 10 "../../os/kernel/include/chmtx.h"
 753              		.section	.debug_info,"",%progbits
 754              	.Ldebug_info0:
 755 0000 4F0B0000 		.4byte	0xb4f
 756 0004 0200     		.2byte	0x2
 757 0006 00000000 		.4byte	.Ldebug_abbrev0
 758 000a 04       		.byte	0x4
 759 000b 01       		.uleb128 0x1
 760 000c C6010000 		.4byte	.LASF82
 761 0010 01       		.byte	0x1
 762 0011 A3000000 		.4byte	.LASF83
 763 0015 77030000 		.4byte	.LASF84
 764 0019 90000000 		.4byte	.Ldebug_ranges0+0x90
 765 001d 00000000 		.4byte	0
 766 0021 00000000 		.4byte	0
 767 0025 00000000 		.4byte	.Ldebug_line0
 768 0029 02       		.uleb128 0x2
 769 002a 04       		.byte	0x4
 770 002b 05       		.byte	0x5
 771 002c 696E7400 		.ascii	"int\000"
 772 0030 03       		.uleb128 0x3
 773 0031 04       		.byte	0x4
 774 0032 07       		.byte	0x7
 775 0033 15010000 		.4byte	.LASF0
 776 0037 03       		.uleb128 0x3
 777 0038 01       		.byte	0x1
 778 0039 06       		.byte	0x6
 779 003a 6D000000 		.4byte	.LASF1
 780 003e 04       		.uleb128 0x4
 781 003f 44030000 		.4byte	.LASF5
 782 0043 03       		.byte	0x3
 783 0044 2A       		.byte	0x2a
 784 0045 49000000 		.4byte	0x49
 785 0049 03       		.uleb128 0x3
 786 004a 01       		.byte	0x1
 787 004b 08       		.byte	0x8
ARM GAS  C:\Users\LAB_ME~1\AppData\Local\Temp\cc3uAqNG.s 			page 15


 788 004c 03020000 		.4byte	.LASF2
 789 0050 03       		.uleb128 0x3
 790 0051 02       		.byte	0x2
 791 0052 05       		.byte	0x5
 792 0053 1B020000 		.4byte	.LASF3
 793 0057 03       		.uleb128 0x3
 794 0058 02       		.byte	0x2
 795 0059 07       		.byte	0x7
 796 005a 53010000 		.4byte	.LASF4
 797 005e 04       		.uleb128 0x4
 798 005f FB010000 		.4byte	.LASF6
 799 0063 03       		.byte	0x3
 800 0064 4F       		.byte	0x4f
 801 0065 69000000 		.4byte	0x69
 802 0069 03       		.uleb128 0x3
 803 006a 04       		.byte	0x4
 804 006b 05       		.byte	0x5
 805 006c BF000000 		.4byte	.LASF7
 806 0070 04       		.uleb128 0x4
 807 0071 7F020000 		.4byte	.LASF8
 808 0075 03       		.byte	0x3
 809 0076 50       		.byte	0x50
 810 0077 7B000000 		.4byte	0x7b
 811 007b 03       		.uleb128 0x3
 812 007c 04       		.byte	0x4
 813 007d 07       		.byte	0x7
 814 007e 33010000 		.4byte	.LASF9
 815 0082 03       		.uleb128 0x3
 816 0083 08       		.byte	0x8
 817 0084 05       		.byte	0x5
 818 0085 5F000000 		.4byte	.LASF10
 819 0089 03       		.uleb128 0x3
 820 008a 08       		.byte	0x8
 821 008b 07       		.byte	0x7
 822 008c 27000000 		.4byte	.LASF11
 823 0090 04       		.uleb128 0x4
 824 0091 77010000 		.4byte	.LASF12
 825 0095 04       		.byte	0x4
 826 0096 28       		.byte	0x28
 827 0097 3E000000 		.4byte	0x3e
 828 009b 04       		.uleb128 0x4
 829 009c C8000000 		.4byte	.LASF13
 830 00a0 04       		.byte	0x4
 831 00a1 29       		.byte	0x29
 832 00a2 3E000000 		.4byte	0x3e
 833 00a6 04       		.uleb128 0x4
 834 00a7 E4010000 		.4byte	.LASF14
 835 00ab 04       		.byte	0x4
 836 00ac 2A       		.byte	0x2a
 837 00ad 3E000000 		.4byte	0x3e
 838 00b1 04       		.uleb128 0x4
 839 00b2 99000000 		.4byte	.LASF15
 840 00b6 04       		.byte	0x4
 841 00b7 2B       		.byte	0x2b
 842 00b8 3E000000 		.4byte	0x3e
 843 00bc 04       		.uleb128 0x4
 844 00bd F3010000 		.4byte	.LASF16
ARM GAS  C:\Users\LAB_ME~1\AppData\Local\Temp\cc3uAqNG.s 			page 16


 845 00c1 04       		.byte	0x4
 846 00c2 2C       		.byte	0x2c
 847 00c3 70000000 		.4byte	0x70
 848 00c7 04       		.uleb128 0x4
 849 00c8 71010000 		.4byte	.LASF17
 850 00cc 04       		.byte	0x4
 851 00cd 2D       		.byte	0x2d
 852 00ce 5E000000 		.4byte	0x5e
 853 00d2 04       		.uleb128 0x4
 854 00d3 8B010000 		.4byte	.LASF18
 855 00d7 04       		.byte	0x4
 856 00d8 2F       		.byte	0x2f
 857 00d9 70000000 		.4byte	0x70
 858 00dd 04       		.uleb128 0x4
 859 00de C6020000 		.4byte	.LASF19
 860 00e2 04       		.byte	0x4
 861 00e3 31       		.byte	0x31
 862 00e4 70000000 		.4byte	0x70
 863 00e8 04       		.uleb128 0x4
 864 00e9 0F010000 		.4byte	.LASF20
 865 00ed 04       		.byte	0x4
 866 00ee 32       		.byte	0x32
 867 00ef 5E000000 		.4byte	0x5e
 868 00f3 04       		.uleb128 0x4
 869 00f4 5F020000 		.4byte	.LASF21
 870 00f8 05       		.byte	0x5
 871 00f9 23       		.byte	0x23
 872 00fa FE000000 		.4byte	0xfe
 873 00fe 05       		.uleb128 0x5
 874 00ff 5F020000 		.4byte	.LASF21
 875 0103 48       		.byte	0x48
 876 0104 06       		.byte	0x6
 877 0105 57       		.byte	0x57
 878 0106 23020000 		.4byte	0x223
 879 010a 06       		.uleb128 0x6
 880 010b 45020000 		.4byte	.LASF22
 881 010f 06       		.byte	0x6
 882 0110 58       		.byte	0x58
 883 0111 48020000 		.4byte	0x248
 884 0115 02       		.byte	0x2
 885 0116 23       		.byte	0x23
 886 0117 00       		.uleb128 0
 887 0118 06       		.uleb128 0x6
 888 0119 EC010000 		.4byte	.LASF23
 889 011d 06       		.byte	0x6
 890 011e 5A       		.byte	0x5a
 891 011f 48020000 		.4byte	0x248
 892 0123 02       		.byte	0x2
 893 0124 23       		.byte	0x23
 894 0125 04       		.uleb128 0x4
 895 0126 06       		.uleb128 0x6
 896 0127 58000000 		.4byte	.LASF24
 897 012b 06       		.byte	0x6
 898 012c 5C       		.byte	0x5c
 899 012d BC000000 		.4byte	0xbc
 900 0131 02       		.byte	0x2
 901 0132 23       		.byte	0x23
ARM GAS  C:\Users\LAB_ME~1\AppData\Local\Temp\cc3uAqNG.s 			page 17


 902 0133 08       		.uleb128 0x8
 903 0134 06       		.uleb128 0x6
 904 0135 93030000 		.4byte	.LASF25
 905 0139 06       		.byte	0x6
 906 013a 5D       		.byte	0x5d
 907 013b 16030000 		.4byte	0x316
 908 013f 02       		.byte	0x2
 909 0140 23       		.byte	0x23
 910 0141 0C       		.uleb128 0xc
 911 0142 06       		.uleb128 0x6
 912 0143 DD000000 		.4byte	.LASF26
 913 0147 06       		.byte	0x6
 914 0148 5F       		.byte	0x5f
 915 0149 48020000 		.4byte	0x248
 916 014d 02       		.byte	0x2
 917 014e 23       		.byte	0x23
 918 014f 10       		.uleb128 0x10
 919 0150 06       		.uleb128 0x6
 920 0151 A6010000 		.4byte	.LASF27
 921 0155 06       		.byte	0x6
 922 0156 60       		.byte	0x60
 923 0157 48020000 		.4byte	0x248
 924 015b 02       		.byte	0x2
 925 015c 23       		.byte	0x23
 926 015d 14       		.uleb128 0x14
 927 015e 06       		.uleb128 0x6
 928 015f 53030000 		.4byte	.LASF28
 929 0163 06       		.byte	0x6
 930 0164 67       		.byte	0x67
 931 0165 5E040000 		.4byte	0x45e
 932 0169 02       		.byte	0x2
 933 016a 23       		.byte	0x23
 934 016b 18       		.uleb128 0x18
 935 016c 06       		.uleb128 0x6
 936 016d 25020000 		.4byte	.LASF29
 937 0171 06       		.byte	0x6
 938 0172 72       		.byte	0x72
 939 0173 9B000000 		.4byte	0x9b
 940 0177 02       		.byte	0x2
 941 0178 23       		.byte	0x23
 942 0179 1C       		.uleb128 0x1c
 943 017a 06       		.uleb128 0x6
 944 017b 4C020000 		.4byte	.LASF30
 945 017f 06       		.byte	0x6
 946 0180 76       		.byte	0x76
 947 0181 90000000 		.4byte	0x90
 948 0185 02       		.byte	0x2
 949 0186 23       		.byte	0x23
 950 0187 1D       		.uleb128 0x1d
 951 0188 06       		.uleb128 0x6
 952 0189 21030000 		.4byte	.LASF31
 953 018d 06       		.byte	0x6
 954 018e 7B       		.byte	0x7b
 955 018f A6000000 		.4byte	0xa6
 956 0193 02       		.byte	0x2
 957 0194 23       		.byte	0x23
 958 0195 1E       		.uleb128 0x1e
ARM GAS  C:\Users\LAB_ME~1\AppData\Local\Temp\cc3uAqNG.s 			page 18


 959 0196 06       		.uleb128 0x6
 960 0197 2D020000 		.4byte	.LASF32
 961 019b 06       		.byte	0x6
 962 019c 81       		.byte	0x81
 963 019d B1000000 		.4byte	0xb1
 964 01a1 02       		.byte	0x2
 965 01a2 23       		.byte	0x23
 966 01a3 1F       		.uleb128 0x1f
 967 01a4 06       		.uleb128 0x6
 968 01a5 E5020000 		.4byte	.LASF33
 969 01a9 06       		.byte	0x6
 970 01aa 88       		.byte	0x88
 971 01ab 40030000 		.4byte	0x340
 972 01af 02       		.byte	0x2
 973 01b0 23       		.byte	0x23
 974 01b1 20       		.uleb128 0x20
 975 01b2 07       		.uleb128 0x7
 976 01b3 705F7500 		.ascii	"p_u\000"
 977 01b7 06       		.byte	0x6
 978 01b8 AD       		.byte	0xad
 979 01b9 29040000 		.4byte	0x429
 980 01bd 02       		.byte	0x2
 981 01be 23       		.byte	0x23
 982 01bf 24       		.uleb128 0x24
 983 01c0 06       		.uleb128 0x6
 984 01c1 99030000 		.4byte	.LASF34
 985 01c5 06       		.byte	0x6
 986 01c6 B2       		.byte	0xb2
 987 01c7 70020000 		.4byte	0x270
 988 01cb 02       		.byte	0x2
 989 01cc 23       		.byte	0x23
 990 01cd 28       		.uleb128 0x28
 991 01ce 06       		.uleb128 0x6
 992 01cf FF020000 		.4byte	.LASF35
 993 01d3 06       		.byte	0x6
 994 01d4 B8       		.byte	0xb8
 995 01d5 4E020000 		.4byte	0x24e
 996 01d9 02       		.byte	0x2
 997 01da 23       		.byte	0x23
 998 01db 2C       		.uleb128 0x2c
 999 01dc 06       		.uleb128 0x6
 1000 01dd 00000000 		.4byte	.LASF36
 1001 01e1 06       		.byte	0x6
 1002 01e2 BC       		.byte	0xbc
 1003 01e3 C7000000 		.4byte	0xc7
 1004 01e7 02       		.byte	0x2
 1005 01e8 23       		.byte	0x23
 1006 01e9 34       		.uleb128 0x34
 1007 01ea 06       		.uleb128 0x6
 1008 01eb 74020000 		.4byte	.LASF37
 1009 01ef 06       		.byte	0x6
 1010 01f0 C2       		.byte	0xc2
 1011 01f1 D2000000 		.4byte	0xd2
 1012 01f5 02       		.byte	0x2
 1013 01f6 23       		.byte	0x23
 1014 01f7 38       		.uleb128 0x38
 1015 01f8 06       		.uleb128 0x6
ARM GAS  C:\Users\LAB_ME~1\AppData\Local\Temp\cc3uAqNG.s 			page 19


 1016 01f9 11020000 		.4byte	.LASF38
 1017 01fd 06       		.byte	0x6
 1018 01fe C9       		.byte	0xc9
 1019 01ff 70040000 		.4byte	0x470
 1020 0203 02       		.byte	0x2
 1021 0204 23       		.byte	0x23
 1022 0205 3C       		.uleb128 0x3c
 1023 0206 06       		.uleb128 0x6
 1024 0207 D0020000 		.4byte	.LASF39
 1025 020b 06       		.byte	0x6
 1026 020c CD       		.byte	0xcd
 1027 020d BC000000 		.4byte	0xbc
 1028 0211 02       		.byte	0x2
 1029 0212 23       		.byte	0x23
 1030 0213 40       		.uleb128 0x40
 1031 0214 06       		.uleb128 0x6
 1032 0215 89000000 		.4byte	.LASF40
 1033 0219 06       		.byte	0x6
 1034 021a D3       		.byte	0xd3
 1035 021b 86020000 		.4byte	0x286
 1036 021f 02       		.byte	0x2
 1037 0220 23       		.byte	0x23
 1038 0221 44       		.uleb128 0x44
 1039 0222 00       		.byte	0
 1040 0223 08       		.uleb128 0x8
 1041 0224 08       		.byte	0x8
 1042 0225 05       		.byte	0x5
 1043 0226 5A       		.byte	0x5a
 1044 0227 48020000 		.4byte	0x248
 1045 022b 06       		.uleb128 0x6
 1046 022c 45020000 		.4byte	.LASF22
 1047 0230 05       		.byte	0x5
 1048 0231 5B       		.byte	0x5b
 1049 0232 48020000 		.4byte	0x248
 1050 0236 02       		.byte	0x2
 1051 0237 23       		.byte	0x23
 1052 0238 00       		.uleb128 0
 1053 0239 06       		.uleb128 0x6
 1054 023a EC010000 		.4byte	.LASF23
 1055 023e 05       		.byte	0x5
 1056 023f 5D       		.byte	0x5d
 1057 0240 48020000 		.4byte	0x248
 1058 0244 02       		.byte	0x2
 1059 0245 23       		.byte	0x23
 1060 0246 04       		.uleb128 0x4
 1061 0247 00       		.byte	0
 1062 0248 09       		.uleb128 0x9
 1063 0249 04       		.byte	0x4
 1064 024a F3000000 		.4byte	0xf3
 1065 024e 04       		.uleb128 0x4
 1066 024f B4010000 		.4byte	.LASF41
 1067 0253 05       		.byte	0x5
 1068 0254 5F       		.byte	0x5f
 1069 0255 23020000 		.4byte	0x223
 1070 0259 08       		.uleb128 0x8
 1071 025a 04       		.byte	0x4
 1072 025b 05       		.byte	0x5
ARM GAS  C:\Users\LAB_ME~1\AppData\Local\Temp\cc3uAqNG.s 			page 20


 1073 025c 64       		.byte	0x64
 1074 025d 70020000 		.4byte	0x270
 1075 0261 06       		.uleb128 0x6
 1076 0262 45020000 		.4byte	.LASF22
 1077 0266 05       		.byte	0x5
 1078 0267 66       		.byte	0x66
 1079 0268 48020000 		.4byte	0x248
 1080 026c 02       		.byte	0x2
 1081 026d 23       		.byte	0x23
 1082 026e 00       		.uleb128 0
 1083 026f 00       		.byte	0
 1084 0270 04       		.uleb128 0x4
 1085 0271 7F010000 		.4byte	.LASF42
 1086 0275 05       		.byte	0x5
 1087 0276 69       		.byte	0x69
 1088 0277 59020000 		.4byte	0x259
 1089 027b 04       		.uleb128 0x4
 1090 027c 06010000 		.4byte	.LASF43
 1091 0280 07       		.byte	0x7
 1092 0281 DE       		.byte	0xde
 1093 0282 86020000 		.4byte	0x286
 1094 0286 0A       		.uleb128 0xa
 1095 0287 04       		.byte	0x4
 1096 0288 0B       		.uleb128 0xb
 1097 0289 F8020000 		.4byte	.LASF44
 1098 028d 24       		.byte	0x24
 1099 028e 07       		.byte	0x7
 1100 028f 0501     		.2byte	0x105
 1101 0291 16030000 		.4byte	0x316
 1102 0295 0C       		.uleb128 0xc
 1103 0296 723400   		.ascii	"r4\000"
 1104 0299 07       		.byte	0x7
 1105 029a 1801     		.2byte	0x118
 1106 029c 7B020000 		.4byte	0x27b
 1107 02a0 02       		.byte	0x2
 1108 02a1 23       		.byte	0x23
 1109 02a2 00       		.uleb128 0
 1110 02a3 0C       		.uleb128 0xc
 1111 02a4 723500   		.ascii	"r5\000"
 1112 02a7 07       		.byte	0x7
 1113 02a8 1901     		.2byte	0x119
 1114 02aa 7B020000 		.4byte	0x27b
 1115 02ae 02       		.byte	0x2
 1116 02af 23       		.byte	0x23
 1117 02b0 04       		.uleb128 0x4
 1118 02b1 0C       		.uleb128 0xc
 1119 02b2 723600   		.ascii	"r6\000"
 1120 02b5 07       		.byte	0x7
 1121 02b6 1A01     		.2byte	0x11a
 1122 02b8 7B020000 		.4byte	0x27b
 1123 02bc 02       		.byte	0x2
 1124 02bd 23       		.byte	0x23
 1125 02be 08       		.uleb128 0x8
 1126 02bf 0C       		.uleb128 0xc
 1127 02c0 723700   		.ascii	"r7\000"
 1128 02c3 07       		.byte	0x7
 1129 02c4 1B01     		.2byte	0x11b
ARM GAS  C:\Users\LAB_ME~1\AppData\Local\Temp\cc3uAqNG.s 			page 21


 1130 02c6 7B020000 		.4byte	0x27b
 1131 02ca 02       		.byte	0x2
 1132 02cb 23       		.byte	0x23
 1133 02cc 0C       		.uleb128 0xc
 1134 02cd 0C       		.uleb128 0xc
 1135 02ce 723800   		.ascii	"r8\000"
 1136 02d1 07       		.byte	0x7
 1137 02d2 1C01     		.2byte	0x11c
 1138 02d4 7B020000 		.4byte	0x27b
 1139 02d8 02       		.byte	0x2
 1140 02d9 23       		.byte	0x23
 1141 02da 10       		.uleb128 0x10
 1142 02db 0C       		.uleb128 0xc
 1143 02dc 723900   		.ascii	"r9\000"
 1144 02df 07       		.byte	0x7
 1145 02e0 1D01     		.2byte	0x11d
 1146 02e2 7B020000 		.4byte	0x27b
 1147 02e6 02       		.byte	0x2
 1148 02e7 23       		.byte	0x23
 1149 02e8 14       		.uleb128 0x14
 1150 02e9 0C       		.uleb128 0xc
 1151 02ea 72313000 		.ascii	"r10\000"
 1152 02ee 07       		.byte	0x7
 1153 02ef 1E01     		.2byte	0x11e
 1154 02f1 7B020000 		.4byte	0x27b
 1155 02f5 02       		.byte	0x2
 1156 02f6 23       		.byte	0x23
 1157 02f7 18       		.uleb128 0x18
 1158 02f8 0C       		.uleb128 0xc
 1159 02f9 72313100 		.ascii	"r11\000"
 1160 02fd 07       		.byte	0x7
 1161 02fe 1F01     		.2byte	0x11f
 1162 0300 7B020000 		.4byte	0x27b
 1163 0304 02       		.byte	0x2
 1164 0305 23       		.byte	0x23
 1165 0306 1C       		.uleb128 0x1c
 1166 0307 0C       		.uleb128 0xc
 1167 0308 6C7200   		.ascii	"lr\000"
 1168 030b 07       		.byte	0x7
 1169 030c 2001     		.2byte	0x120
 1170 030e 7B020000 		.4byte	0x27b
 1171 0312 02       		.byte	0x2
 1172 0313 23       		.byte	0x23
 1173 0314 20       		.uleb128 0x20
 1174 0315 00       		.byte	0
 1175 0316 0B       		.uleb128 0xb
 1176 0317 4B010000 		.4byte	.LASF45
 1177 031b 04       		.byte	0x4
 1178 031c 07       		.byte	0x7
 1179 031d 2A01     		.2byte	0x12a
 1180 031f 33030000 		.4byte	0x333
 1181 0323 0C       		.uleb128 0xc
 1182 0324 72313300 		.ascii	"r13\000"
 1183 0328 07       		.byte	0x7
 1184 0329 2B01     		.2byte	0x12b
 1185 032b 33030000 		.4byte	0x333
 1186 032f 02       		.byte	0x2
ARM GAS  C:\Users\LAB_ME~1\AppData\Local\Temp\cc3uAqNG.s 			page 22


 1187 0330 23       		.byte	0x23
 1188 0331 00       		.uleb128 0
 1189 0332 00       		.byte	0
 1190 0333 09       		.uleb128 0x9
 1191 0334 04       		.byte	0x4
 1192 0335 88020000 		.4byte	0x288
 1193 0339 03       		.uleb128 0x3
 1194 033a 04       		.byte	0x4
 1195 033b 07       		.byte	0x7
 1196 033c 9D010000 		.4byte	.LASF46
 1197 0340 0D       		.uleb128 0xd
 1198 0341 DD000000 		.4byte	0xdd
 1199 0345 08       		.uleb128 0x8
 1200 0346 1C       		.byte	0x1c
 1201 0347 08       		.byte	0x8
 1202 0348 57       		.byte	0x57
 1203 0349 A2030000 		.4byte	0x3a2
 1204 034d 06       		.uleb128 0x6
 1205 034e 88020000 		.4byte	.LASF47
 1206 0352 08       		.byte	0x8
 1207 0353 58       		.byte	0x58
 1208 0354 4E020000 		.4byte	0x24e
 1209 0358 02       		.byte	0x2
 1210 0359 23       		.byte	0x23
 1211 035a 00       		.uleb128 0
 1212 035b 06       		.uleb128 0x6
 1213 035c 37020000 		.4byte	.LASF48
 1214 0360 08       		.byte	0x8
 1215 0361 59       		.byte	0x59
 1216 0362 BC000000 		.4byte	0xbc
 1217 0366 02       		.byte	0x2
 1218 0367 23       		.byte	0x23
 1219 0368 08       		.uleb128 0x8
 1220 0369 06       		.uleb128 0x6
 1221 036a AE010000 		.4byte	.LASF49
 1222 036e 08       		.byte	0x8
 1223 036f 5B       		.byte	0x5b
 1224 0370 16030000 		.4byte	0x316
 1225 0374 02       		.byte	0x2
 1226 0375 23       		.byte	0x23
 1227 0376 0C       		.uleb128 0xc
 1228 0377 06       		.uleb128 0x6
 1229 0378 FE000000 		.4byte	.LASF50
 1230 037c 08       		.byte	0x8
 1231 037d 5E       		.byte	0x5e
 1232 037e 48020000 		.4byte	0x248
 1233 0382 02       		.byte	0x2
 1234 0383 23       		.byte	0x23
 1235 0384 10       		.uleb128 0x10
 1236 0385 06       		.uleb128 0x6
 1237 0386 DC010000 		.4byte	.LASF51
 1238 038a 08       		.byte	0x8
 1239 038b 5F       		.byte	0x5f
 1240 038c 48020000 		.4byte	0x248
 1241 0390 02       		.byte	0x2
 1242 0391 23       		.byte	0x23
 1243 0392 14       		.uleb128 0x14
ARM GAS  C:\Users\LAB_ME~1\AppData\Local\Temp\cc3uAqNG.s 			page 23


 1244 0393 06       		.uleb128 0x6
 1245 0394 D2010000 		.4byte	.LASF52
 1246 0398 08       		.byte	0x8
 1247 0399 62       		.byte	0x62
 1248 039a 48020000 		.4byte	0x248
 1249 039e 02       		.byte	0x2
 1250 039f 23       		.byte	0x23
 1251 03a0 18       		.uleb128 0x18
 1252 03a1 00       		.byte	0
 1253 03a2 04       		.uleb128 0x4
 1254 03a3 28030000 		.4byte	.LASF53
 1255 03a7 08       		.byte	0x8
 1256 03a8 64       		.byte	0x64
 1257 03a9 45030000 		.4byte	0x345
 1258 03ad 05       		.uleb128 0x5
 1259 03ae 17030000 		.4byte	.LASF54
 1260 03b2 0C       		.byte	0xc
 1261 03b3 09       		.byte	0x9
 1262 03b4 25       		.byte	0x25
 1263 03b5 D6030000 		.4byte	0x3d6
 1264 03b9 06       		.uleb128 0x6
 1265 03ba E5000000 		.4byte	.LASF55
 1266 03be 09       		.byte	0x9
 1267 03bf 26       		.byte	0x26
 1268 03c0 4E020000 		.4byte	0x24e
 1269 03c4 02       		.byte	0x2
 1270 03c5 23       		.byte	0x23
 1271 03c6 00       		.uleb128 0
 1272 03c7 06       		.uleb128 0x6
 1273 03c8 45010000 		.4byte	.LASF56
 1274 03cc 09       		.byte	0x9
 1275 03cd 28       		.byte	0x28
 1276 03ce E8000000 		.4byte	0xe8
 1277 03d2 02       		.byte	0x2
 1278 03d3 23       		.byte	0x23
 1279 03d4 08       		.uleb128 0x8
 1280 03d5 00       		.byte	0
 1281 03d6 04       		.uleb128 0x4
 1282 03d7 17030000 		.4byte	.LASF54
 1283 03db 09       		.byte	0x9
 1284 03dc 29       		.byte	0x29
 1285 03dd AD030000 		.4byte	0x3ad
 1286 03e1 05       		.uleb128 0x5
 1287 03e2 97010000 		.4byte	.LASF57
 1288 03e6 10       		.byte	0x10
 1289 03e7 0A       		.byte	0xa
 1290 03e8 25       		.byte	0x25
 1291 03e9 18040000 		.4byte	0x418
 1292 03ed 06       		.uleb128 0x6
 1293 03ee 91000000 		.4byte	.LASF58
 1294 03f2 0A       		.byte	0xa
 1295 03f3 26       		.byte	0x26
 1296 03f4 4E020000 		.4byte	0x24e
 1297 03f8 02       		.byte	0x2
 1298 03f9 23       		.byte	0x23
 1299 03fa 00       		.uleb128 0
 1300 03fb 06       		.uleb128 0x6
ARM GAS  C:\Users\LAB_ME~1\AppData\Local\Temp\cc3uAqNG.s 			page 24


 1301 03fc 6F030000 		.4byte	.LASF59
 1302 0400 0A       		.byte	0xa
 1303 0401 28       		.byte	0x28
 1304 0402 48020000 		.4byte	0x248
 1305 0406 02       		.byte	0x2
 1306 0407 23       		.byte	0x23
 1307 0408 08       		.uleb128 0x8
 1308 0409 06       		.uleb128 0x6
 1309 040a BF020000 		.4byte	.LASF60
 1310 040e 0A       		.byte	0xa
 1311 040f 2A       		.byte	0x2a
 1312 0410 18040000 		.4byte	0x418
 1313 0414 02       		.byte	0x2
 1314 0415 23       		.byte	0x23
 1315 0416 0C       		.uleb128 0xc
 1316 0417 00       		.byte	0
 1317 0418 09       		.uleb128 0x9
 1318 0419 04       		.byte	0x4
 1319 041a E1030000 		.4byte	0x3e1
 1320 041e 04       		.uleb128 0x4
 1321 041f 97010000 		.4byte	.LASF57
 1322 0423 0A       		.byte	0xa
 1323 0424 2C       		.byte	0x2c
 1324 0425 E1030000 		.4byte	0x3e1
 1325 0429 0E       		.uleb128 0xe
 1326 042a 04       		.byte	0x4
 1327 042b 06       		.byte	0x6
 1328 042c 8F       		.byte	0x8f
 1329 042d 5E040000 		.4byte	0x45e
 1330 0431 0F       		.uleb128 0xf
 1331 0432 20000000 		.4byte	.LASF61
 1332 0436 06       		.byte	0x6
 1333 0437 96       		.byte	0x96
 1334 0438 C7000000 		.4byte	0xc7
 1335 043c 0F       		.uleb128 0xf
 1336 043d 3E000000 		.4byte	.LASF62
 1337 0441 06       		.byte	0x6
 1338 0442 9D       		.byte	0x9d
 1339 0443 C7000000 		.4byte	0xc7
 1340 0447 0F       		.uleb128 0xf
 1341 0448 4C030000 		.4byte	.LASF63
 1342 044c 06       		.byte	0x6
 1343 044d A4       		.byte	0xa4
 1344 044e 86020000 		.4byte	0x286
 1345 0452 0F       		.uleb128 0xf
 1346 0453 3E020000 		.4byte	.LASF64
 1347 0457 06       		.byte	0x6
 1348 0458 AB       		.byte	0xab
 1349 0459 D2000000 		.4byte	0xd2
 1350 045d 00       		.byte	0
 1351 045e 09       		.uleb128 0x9
 1352 045f 04       		.byte	0x4
 1353 0460 64040000 		.4byte	0x464
 1354 0464 10       		.uleb128 0x10
 1355 0465 69040000 		.4byte	0x469
 1356 0469 03       		.uleb128 0x3
 1357 046a 01       		.byte	0x1
ARM GAS  C:\Users\LAB_ME~1\AppData\Local\Temp\cc3uAqNG.s 			page 25


 1358 046b 08       		.byte	0x8
 1359 046c 9C020000 		.4byte	.LASF65
 1360 0470 09       		.uleb128 0x9
 1361 0471 04       		.byte	0x4
 1362 0472 1E040000 		.4byte	0x41e
 1363 0476 11       		.uleb128 0x11
 1364 0477 EC020000 		.4byte	.LASF66
 1365 047b 02       		.byte	0x2
 1366 047c 3B       		.byte	0x3b
 1367 047d 01       		.byte	0x1
 1368 047e 48020000 		.4byte	0x248
 1369 0482 03       		.byte	0x3
 1370 0483 9D040000 		.4byte	0x49d
 1371 0487 12       		.uleb128 0x12
 1372 0488 74717000 		.ascii	"tqp\000"
 1373 048c 02       		.byte	0x2
 1374 048d 3B       		.byte	0x3b
 1375 048e 9D040000 		.4byte	0x49d
 1376 0492 13       		.uleb128 0x13
 1377 0493 747000   		.ascii	"tp\000"
 1378 0496 02       		.byte	0x2
 1379 0497 3C       		.byte	0x3c
 1380 0498 48020000 		.4byte	0x248
 1381 049c 00       		.byte	0
 1382 049d 09       		.uleb128 0x9
 1383 049e 04       		.byte	0x4
 1384 049f 4E020000 		.4byte	0x24e
 1385 04a3 14       		.uleb128 0x14
 1386 04a4 06000000 		.4byte	.LASF85
 1387 04a8 02       		.byte	0x2
 1388 04a9 2D       		.byte	0x2d
 1389 04aa 01       		.byte	0x1
 1390 04ab 03       		.byte	0x3
 1391 04ac C6040000 		.4byte	0x4c6
 1392 04b0 12       		.uleb128 0x12
 1393 04b1 747000   		.ascii	"tp\000"
 1394 04b4 02       		.byte	0x2
 1395 04b5 2D       		.byte	0x2d
 1396 04b6 48020000 		.4byte	0x248
 1397 04ba 12       		.uleb128 0x12
 1398 04bb 74717000 		.ascii	"tqp\000"
 1399 04bf 02       		.byte	0x2
 1400 04c0 2D       		.byte	0x2d
 1401 04c1 9D040000 		.4byte	0x49d
 1402 04c5 00       		.byte	0
 1403 04c6 11       		.uleb128 0x11
 1404 04c7 A1020000 		.4byte	.LASF67
 1405 04cb 02       		.byte	0x2
 1406 04cc 34       		.byte	0x34
 1407 04cd 01       		.byte	0x1
 1408 04ce 48020000 		.4byte	0x248
 1409 04d2 03       		.byte	0x3
 1410 04d3 ED040000 		.4byte	0x4ed
 1411 04d7 12       		.uleb128 0x12
 1412 04d8 74717000 		.ascii	"tqp\000"
 1413 04dc 02       		.byte	0x2
 1414 04dd 34       		.byte	0x34
ARM GAS  C:\Users\LAB_ME~1\AppData\Local\Temp\cc3uAqNG.s 			page 26


 1415 04de 9D040000 		.4byte	0x49d
 1416 04e2 13       		.uleb128 0x13
 1417 04e3 747000   		.ascii	"tp\000"
 1418 04e6 02       		.byte	0x2
 1419 04e7 35       		.byte	0x35
 1420 04e8 48020000 		.4byte	0x248
 1421 04ec 00       		.byte	0
 1422 04ed 15       		.uleb128 0x15
 1423 04ee 01       		.byte	0x1
 1424 04ef A3030000 		.4byte	.LASF68
 1425 04f3 01       		.byte	0x1
 1426 04f4 4F       		.byte	0x4f
 1427 04f5 01       		.byte	0x1
 1428 04f6 00000000 		.4byte	.LFB7
 1429 04fa 08000000 		.4byte	.LFE7
 1430 04fe 02       		.byte	0x2
 1431 04ff 7D       		.byte	0x7d
 1432 0500 00       		.sleb128 0
 1433 0501 01       		.byte	0x1
 1434 0502 1E050000 		.4byte	0x51e
 1435 0506 16       		.uleb128 0x16
 1436 0507 737000   		.ascii	"sp\000"
 1437 050a 01       		.byte	0x1
 1438 050b 4F       		.byte	0x4f
 1439 050c 1E050000 		.4byte	0x51e
 1440 0510 01       		.byte	0x1
 1441 0511 50       		.byte	0x50
 1442 0512 16       		.uleb128 0x16
 1443 0513 6E00     		.ascii	"n\000"
 1444 0515 01       		.byte	0x1
 1445 0516 4F       		.byte	0x4f
 1446 0517 E8000000 		.4byte	0xe8
 1447 051b 01       		.byte	0x1
 1448 051c 51       		.byte	0x51
 1449 051d 00       		.byte	0
 1450 051e 09       		.uleb128 0x9
 1451 051f 04       		.byte	0x4
 1452 0520 D6030000 		.4byte	0x3d6
 1453 0524 17       		.uleb128 0x17
 1454 0525 01       		.byte	0x1
 1455 0526 32030000 		.4byte	.LASF69
 1456 052a 01       		.byte	0x1
 1457 052b 81       		.byte	0x81
 1458 052c 01       		.byte	0x1
 1459 052d 00000000 		.4byte	.LFB9
 1460 0531 28000000 		.4byte	.LFE9
 1461 0535 00000000 		.4byte	.LLST0
 1462 0539 01       		.byte	0x1
 1463 053a A2050000 		.4byte	0x5a2
 1464 053e 18       		.uleb128 0x18
 1465 053f 737000   		.ascii	"sp\000"
 1466 0542 01       		.byte	0x1
 1467 0543 81       		.byte	0x81
 1468 0544 1E050000 		.4byte	0x51e
 1469 0548 20000000 		.4byte	.LLST1
 1470 054c 18       		.uleb128 0x18
 1471 054d 6E00     		.ascii	"n\000"
ARM GAS  C:\Users\LAB_ME~1\AppData\Local\Temp\cc3uAqNG.s 			page 27


 1472 054f 01       		.byte	0x1
 1473 0550 81       		.byte	0x81
 1474 0551 E8000000 		.4byte	0xe8
 1475 0555 3E000000 		.4byte	.LLST2
 1476 0559 19       		.uleb128 0x19
 1477 055a 636E7400 		.ascii	"cnt\000"
 1478 055e 01       		.byte	0x1
 1479 055f 82       		.byte	0x82
 1480 0560 E8000000 		.4byte	0xe8
 1481 0564 5F000000 		.4byte	.LLST3
 1482 0568 1A       		.uleb128 0x1a
 1483 0569 76040000 		.4byte	0x476
 1484 056d 12000000 		.4byte	.LBB24
 1485 0571 1A000000 		.4byte	.LBE24
 1486 0575 01       		.byte	0x1
 1487 0576 8E       		.byte	0x8e
 1488 0577 98050000 		.4byte	0x598
 1489 057b 1B       		.uleb128 0x1b
 1490 057c 87040000 		.4byte	0x487
 1491 0580 8A000000 		.4byte	.LLST4
 1492 0584 1C       		.uleb128 0x1c
 1493 0585 12000000 		.4byte	.LBB25
 1494 0589 1A000000 		.4byte	.LBE25
 1495 058d 1D       		.uleb128 0x1d
 1496 058e 92040000 		.4byte	0x492
 1497 0592 9D000000 		.4byte	.LLST5
 1498 0596 00       		.byte	0
 1499 0597 00       		.byte	0
 1500 0598 1E       		.uleb128 0x1e
 1501 0599 1E000000 		.4byte	.LVL6
 1502 059d EA0A0000 		.4byte	0xaea
 1503 05a1 00       		.byte	0
 1504 05a2 17       		.uleb128 0x17
 1505 05a3 01       		.byte	0x1
 1506 05a4 66010000 		.4byte	.LASF70
 1507 05a8 01       		.byte	0x1
 1508 05a9 66       		.byte	0x66
 1509 05aa 01       		.byte	0x1
 1510 05ab 00000000 		.4byte	.LFB8
 1511 05af 18000000 		.4byte	.LFE8
 1512 05b3 B0000000 		.4byte	.LLST6
 1513 05b7 01       		.byte	0x1
 1514 05b8 37060000 		.4byte	0x637
 1515 05bc 18       		.uleb128 0x18
 1516 05bd 737000   		.ascii	"sp\000"
 1517 05c0 01       		.byte	0x1
 1518 05c1 66       		.byte	0x66
 1519 05c2 1E050000 		.4byte	0x51e
 1520 05c6 D0000000 		.4byte	.LLST7
 1521 05ca 18       		.uleb128 0x18
 1522 05cb 6E00     		.ascii	"n\000"
 1523 05cd 01       		.byte	0x1
 1524 05ce 66       		.byte	0x66
 1525 05cf E8000000 		.4byte	0xe8
 1526 05d3 F1000000 		.4byte	.LLST8
 1527 05d7 1F       		.uleb128 0x1f
 1528 05d8 02000000 		.4byte	.LBB26
ARM GAS  C:\Users\LAB_ME~1\AppData\Local\Temp\cc3uAqNG.s 			page 28


 1529 05dc 08000000 		.4byte	.LBE26
 1530 05e0 F4050000 		.4byte	0x5f4
 1531 05e4 19       		.uleb128 0x19
 1532 05e5 746D7000 		.ascii	"tmp\000"
 1533 05e9 01       		.byte	0x1
 1534 05ea 68       		.byte	0x68
 1535 05eb 70000000 		.4byte	0x70
 1536 05ef 12010000 		.4byte	.LLST9
 1537 05f3 00       		.byte	0
 1538 05f4 1F       		.uleb128 0x1f
 1539 05f5 10000000 		.4byte	.LBB27
 1540 05f9 18000000 		.4byte	.LBE27
 1541 05fd 11060000 		.4byte	0x611
 1542 0601 19       		.uleb128 0x19
 1543 0602 746D7000 		.ascii	"tmp\000"
 1544 0606 01       		.byte	0x1
 1545 0607 6B       		.byte	0x6b
 1546 0608 70000000 		.4byte	0x70
 1547 060c 25010000 		.4byte	.LLST10
 1548 0610 00       		.byte	0
 1549 0611 20       		.uleb128 0x20
 1550 0612 0C000000 		.4byte	.LVL13
 1551 0616 24050000 		.4byte	0x524
 1552 061a 2D060000 		.4byte	0x62d
 1553 061e 21       		.uleb128 0x21
 1554 061f 01       		.byte	0x1
 1555 0620 51       		.byte	0x51
 1556 0621 03       		.byte	0x3
 1557 0622 F3       		.byte	0xf3
 1558 0623 01       		.uleb128 0x1
 1559 0624 51       		.byte	0x51
 1560 0625 21       		.uleb128 0x21
 1561 0626 01       		.byte	0x1
 1562 0627 50       		.byte	0x50
 1563 0628 03       		.byte	0x3
 1564 0629 F3       		.byte	0xf3
 1565 062a 01       		.uleb128 0x1
 1566 062b 50       		.byte	0x50
 1567 062c 00       		.byte	0
 1568 062d 1E       		.uleb128 0x1e
 1569 062e 10000000 		.4byte	.LVL14
 1570 0632 020B0000 		.4byte	0xb02
 1571 0636 00       		.byte	0
 1572 0637 22       		.uleb128 0x22
 1573 0638 01       		.byte	0x1
 1574 0639 54020000 		.4byte	.LASF71
 1575 063d 01       		.byte	0x1
 1576 063e B2       		.byte	0xb2
 1577 063f 01       		.byte	0x1
 1578 0640 C7000000 		.4byte	0xc7
 1579 0644 00000000 		.4byte	.LFB11
 1580 0648 34000000 		.4byte	.LFE11
 1581 064c 38010000 		.4byte	.LLST11
 1582 0650 01       		.byte	0x1
 1583 0651 99060000 		.4byte	0x699
 1584 0655 18       		.uleb128 0x18
 1585 0656 737000   		.ascii	"sp\000"
ARM GAS  C:\Users\LAB_ME~1\AppData\Local\Temp\cc3uAqNG.s 			page 29


 1586 0659 01       		.byte	0x1
 1587 065a B2       		.byte	0xb2
 1588 065b 1E050000 		.4byte	0x51e
 1589 065f 58010000 		.4byte	.LLST12
 1590 0663 23       		.uleb128 0x23
 1591 0664 A3040000 		.4byte	0x4a3
 1592 0668 18000000 		.4byte	.LBB28
 1593 066c 00000000 		.4byte	.Ldebug_ranges0+0
 1594 0670 01       		.byte	0x1
 1595 0671 BD       		.byte	0xbd
 1596 0672 89060000 		.4byte	0x689
 1597 0676 1B       		.uleb128 0x1b
 1598 0677 BA040000 		.4byte	0x4ba
 1599 067b 9A010000 		.4byte	.LLST13
 1600 067f 1B       		.uleb128 0x1b
 1601 0680 B0040000 		.4byte	0x4b0
 1602 0684 BC010000 		.4byte	.LLST14
 1603 0688 00       		.byte	0
 1604 0689 24       		.uleb128 0x24
 1605 068a 28000000 		.4byte	.LVL22
 1606 068e 0C0B0000 		.4byte	0xb0c
 1607 0692 21       		.uleb128 0x21
 1608 0693 01       		.byte	0x1
 1609 0694 50       		.byte	0x50
 1610 0695 01       		.byte	0x1
 1611 0696 33       		.byte	0x33
 1612 0697 00       		.byte	0
 1613 0698 00       		.byte	0
 1614 0699 22       		.uleb128 0x22
 1615 069a 01       		.byte	0x1
 1616 069b DB020000 		.4byte	.LASF72
 1617 069f 01       		.byte	0x1
 1618 06a0 9D       		.byte	0x9d
 1619 06a1 01       		.byte	0x1
 1620 06a2 C7000000 		.4byte	0xc7
 1621 06a6 00000000 		.4byte	.LFB10
 1622 06aa 14000000 		.4byte	.LFE10
 1623 06ae CF010000 		.4byte	.LLST15
 1624 06b2 01       		.byte	0x1
 1625 06b3 1E070000 		.4byte	0x71e
 1626 06b7 18       		.uleb128 0x18
 1627 06b8 737000   		.ascii	"sp\000"
 1628 06bb 01       		.byte	0x1
 1629 06bc 9D       		.byte	0x9d
 1630 06bd 1E050000 		.4byte	0x51e
 1631 06c1 EF010000 		.4byte	.LLST16
 1632 06c5 25       		.uleb128 0x25
 1633 06c6 6D736700 		.ascii	"msg\000"
 1634 06ca 01       		.byte	0x1
 1635 06cb 9E       		.byte	0x9e
 1636 06cc C7000000 		.4byte	0xc7
 1637 06d0 01       		.byte	0x1
 1638 06d1 50       		.byte	0x50
 1639 06d2 1F       		.uleb128 0x1f
 1640 06d3 02000000 		.4byte	.LBB32
 1641 06d7 08000000 		.4byte	.LBE32
 1642 06db EF060000 		.4byte	0x6ef
ARM GAS  C:\Users\LAB_ME~1\AppData\Local\Temp\cc3uAqNG.s 			page 30


 1643 06df 19       		.uleb128 0x19
 1644 06e0 746D7000 		.ascii	"tmp\000"
 1645 06e4 01       		.byte	0x1
 1646 06e5 A0       		.byte	0xa0
 1647 06e6 70000000 		.4byte	0x70
 1648 06ea 10020000 		.4byte	.LLST17
 1649 06ee 00       		.byte	0
 1650 06ef 1F       		.uleb128 0x1f
 1651 06f0 0C000000 		.4byte	.LBB33
 1652 06f4 12000000 		.4byte	.LBE33
 1653 06f8 0C070000 		.4byte	0x70c
 1654 06fc 19       		.uleb128 0x19
 1655 06fd 746D7000 		.ascii	"tmp\000"
 1656 0701 01       		.byte	0x1
 1657 0702 A2       		.byte	0xa2
 1658 0703 70000000 		.4byte	0x70
 1659 0707 23020000 		.4byte	.LLST18
 1660 070b 00       		.byte	0
 1661 070c 24       		.uleb128 0x24
 1662 070d 0C000000 		.4byte	.LVL26
 1663 0711 37060000 		.4byte	0x637
 1664 0715 21       		.uleb128 0x21
 1665 0716 01       		.byte	0x1
 1666 0717 50       		.byte	0x50
 1667 0718 03       		.byte	0x3
 1668 0719 F3       		.byte	0xf3
 1669 071a 01       		.uleb128 0x1
 1670 071b 50       		.byte	0x50
 1671 071c 00       		.byte	0
 1672 071d 00       		.byte	0
 1673 071e 22       		.uleb128 0x22
 1674 071f 01       		.byte	0x1
 1675 0720 AD020000 		.4byte	.LASF73
 1676 0724 01       		.byte	0x1
 1677 0725 F3       		.byte	0xf3
 1678 0726 01       		.byte	0x1
 1679 0727 C7000000 		.4byte	0xc7
 1680 072b 00000000 		.4byte	.LFB13
 1681 072f 3C000000 		.4byte	.LFE13
 1682 0733 36020000 		.4byte	.LLST19
 1683 0737 01       		.byte	0x1
 1684 0738 91070000 		.4byte	0x791
 1685 073c 18       		.uleb128 0x18
 1686 073d 737000   		.ascii	"sp\000"
 1687 0740 01       		.byte	0x1
 1688 0741 F3       		.byte	0xf3
 1689 0742 1E050000 		.4byte	0x51e
 1690 0746 56020000 		.4byte	.LLST20
 1691 074a 26       		.uleb128 0x26
 1692 074b C1010000 		.4byte	.LASF74
 1693 074f 01       		.byte	0x1
 1694 0750 F3       		.byte	0xf3
 1695 0751 DD000000 		.4byte	0xdd
 1696 0755 8D020000 		.4byte	.LLST21
 1697 0759 27       		.uleb128 0x27
 1698 075a A3040000 		.4byte	0x4a3
 1699 075e 1E000000 		.4byte	.LBB34
ARM GAS  C:\Users\LAB_ME~1\AppData\Local\Temp\cc3uAqNG.s 			page 31


 1700 0762 18000000 		.4byte	.Ldebug_ranges0+0x18
 1701 0766 01       		.byte	0x1
 1702 0767 0201     		.2byte	0x102
 1703 0769 80070000 		.4byte	0x780
 1704 076d 1B       		.uleb128 0x1b
 1705 076e BA040000 		.4byte	0x4ba
 1706 0772 B9020000 		.4byte	.LLST22
 1707 0776 1B       		.uleb128 0x1b
 1708 0777 B0040000 		.4byte	0x4b0
 1709 077b DB020000 		.4byte	.LLST23
 1710 077f 00       		.byte	0
 1711 0780 28       		.uleb128 0x28
 1712 0781 30000000 		.4byte	.LVL32
 1713 0785 01       		.byte	0x1
 1714 0786 200B0000 		.4byte	0xb20
 1715 078a 21       		.uleb128 0x21
 1716 078b 01       		.byte	0x1
 1717 078c 50       		.byte	0x50
 1718 078d 01       		.byte	0x1
 1719 078e 33       		.byte	0x33
 1720 078f 00       		.byte	0
 1721 0790 00       		.byte	0
 1722 0791 22       		.uleb128 0x22
 1723 0792 01       		.byte	0x1
 1724 0793 22010000 		.4byte	.LASF75
 1725 0797 01       		.byte	0x1
 1726 0798 D7       		.byte	0xd7
 1727 0799 01       		.byte	0x1
 1728 079a C7000000 		.4byte	0xc7
 1729 079e 00000000 		.4byte	.LFB12
 1730 07a2 14000000 		.4byte	.LFE12
 1731 07a6 EE020000 		.4byte	.LLST24
 1732 07aa 01       		.byte	0x1
 1733 07ab 2C080000 		.4byte	0x82c
 1734 07af 18       		.uleb128 0x18
 1735 07b0 737000   		.ascii	"sp\000"
 1736 07b3 01       		.byte	0x1
 1737 07b4 D7       		.byte	0xd7
 1738 07b5 1E050000 		.4byte	0x51e
 1739 07b9 0E030000 		.4byte	.LLST25
 1740 07bd 26       		.uleb128 0x26
 1741 07be C1010000 		.4byte	.LASF74
 1742 07c2 01       		.byte	0x1
 1743 07c3 D7       		.byte	0xd7
 1744 07c4 DD000000 		.4byte	0xdd
 1745 07c8 2F030000 		.4byte	.LLST26
 1746 07cc 25       		.uleb128 0x25
 1747 07cd 6D736700 		.ascii	"msg\000"
 1748 07d1 01       		.byte	0x1
 1749 07d2 D8       		.byte	0xd8
 1750 07d3 C7000000 		.4byte	0xc7
 1751 07d7 01       		.byte	0x1
 1752 07d8 50       		.byte	0x50
 1753 07d9 1F       		.uleb128 0x1f
 1754 07da 02000000 		.4byte	.LBB38
 1755 07de 08000000 		.4byte	.LBE38
 1756 07e2 F6070000 		.4byte	0x7f6
ARM GAS  C:\Users\LAB_ME~1\AppData\Local\Temp\cc3uAqNG.s 			page 32


 1757 07e6 19       		.uleb128 0x19
 1758 07e7 746D7000 		.ascii	"tmp\000"
 1759 07eb 01       		.byte	0x1
 1760 07ec DA       		.byte	0xda
 1761 07ed 70000000 		.4byte	0x70
 1762 07f1 50030000 		.4byte	.LLST27
 1763 07f5 00       		.byte	0
 1764 07f6 1F       		.uleb128 0x1f
 1765 07f7 0C000000 		.4byte	.LBB39
 1766 07fb 12000000 		.4byte	.LBE39
 1767 07ff 13080000 		.4byte	0x813
 1768 0803 19       		.uleb128 0x19
 1769 0804 746D7000 		.ascii	"tmp\000"
 1770 0808 01       		.byte	0x1
 1771 0809 DC       		.byte	0xdc
 1772 080a 70000000 		.4byte	0x70
 1773 080e 63030000 		.4byte	.LLST28
 1774 0812 00       		.byte	0
 1775 0813 24       		.uleb128 0x24
 1776 0814 0C000000 		.4byte	.LVL36
 1777 0818 1E070000 		.4byte	0x71e
 1778 081c 21       		.uleb128 0x21
 1779 081d 01       		.byte	0x1
 1780 081e 51       		.byte	0x51
 1781 081f 03       		.byte	0x3
 1782 0820 F3       		.byte	0xf3
 1783 0821 01       		.uleb128 0x1
 1784 0822 51       		.byte	0x51
 1785 0823 21       		.uleb128 0x21
 1786 0824 01       		.byte	0x1
 1787 0825 50       		.byte	0x50
 1788 0826 03       		.byte	0x3
 1789 0827 F3       		.byte	0xf3
 1790 0828 01       		.uleb128 0x1
 1791 0829 50       		.byte	0x50
 1792 082a 00       		.byte	0
 1793 082b 00       		.byte	0
 1794 082c 29       		.uleb128 0x29
 1795 082d 01       		.byte	0x1
 1796 082e D1000000 		.4byte	.LASF76
 1797 0832 01       		.byte	0x1
 1798 0833 0F01     		.2byte	0x10f
 1799 0835 01       		.byte	0x1
 1800 0836 00000000 		.4byte	.LFB14
 1801 083a 2C000000 		.4byte	.LFE14
 1802 083e 76030000 		.4byte	.LLST29
 1803 0842 01       		.byte	0x1
 1804 0843 CF080000 		.4byte	0x8cf
 1805 0847 2A       		.uleb128 0x2a
 1806 0848 737000   		.ascii	"sp\000"
 1807 084b 01       		.byte	0x1
 1808 084c 0F01     		.2byte	0x10f
 1809 084e 1E050000 		.4byte	0x51e
 1810 0852 96030000 		.4byte	.LLST30
 1811 0856 1F       		.uleb128 0x1f
 1812 0857 04000000 		.4byte	.LBB40
 1813 085b 0A000000 		.4byte	.LBE40
ARM GAS  C:\Users\LAB_ME~1\AppData\Local\Temp\cc3uAqNG.s 			page 33


 1814 085f 74080000 		.4byte	0x874
 1815 0863 2B       		.uleb128 0x2b
 1816 0864 746D7000 		.ascii	"tmp\000"
 1817 0868 01       		.byte	0x1
 1818 0869 1701     		.2byte	0x117
 1819 086b 70000000 		.4byte	0x70
 1820 086f DB030000 		.4byte	.LLST31
 1821 0873 00       		.byte	0
 1822 0874 1F       		.uleb128 0x1f
 1823 0875 14000000 		.4byte	.LBB41
 1824 0879 1C000000 		.4byte	.LBE41
 1825 087d 92080000 		.4byte	0x892
 1826 0881 2B       		.uleb128 0x2b
 1827 0882 746D7000 		.ascii	"tmp\000"
 1828 0886 01       		.byte	0x1
 1829 0887 1A01     		.2byte	0x11a
 1830 0889 70000000 		.4byte	0x70
 1831 088d EE030000 		.4byte	.LLST32
 1832 0891 00       		.byte	0
 1833 0892 27       		.uleb128 0x27
 1834 0893 C6040000 		.4byte	0x4c6
 1835 0897 1C000000 		.4byte	.LBB42
 1836 089b 30000000 		.4byte	.Ldebug_ranges0+0x30
 1837 089f 01       		.byte	0x1
 1838 08a0 1901     		.2byte	0x119
 1839 08a2 BF080000 		.4byte	0x8bf
 1840 08a6 1B       		.uleb128 0x1b
 1841 08a7 D7040000 		.4byte	0x4d7
 1842 08ab 01040000 		.4byte	.LLST33
 1843 08af 2C       		.uleb128 0x2c
 1844 08b0 48000000 		.4byte	.Ldebug_ranges0+0x48
 1845 08b4 1D       		.uleb128 0x1d
 1846 08b5 E2040000 		.4byte	0x4e2
 1847 08b9 2D040000 		.4byte	.LLST34
 1848 08bd 00       		.byte	0
 1849 08be 00       		.byte	0
 1850 08bf 24       		.uleb128 0x24
 1851 08c0 2A000000 		.4byte	.LVL48
 1852 08c4 3D0B0000 		.4byte	0xb3d
 1853 08c8 21       		.uleb128 0x21
 1854 08c9 01       		.byte	0x1
 1855 08ca 51       		.byte	0x51
 1856 08cb 01       		.byte	0x1
 1857 08cc 30       		.byte	0x30
 1858 08cd 00       		.byte	0
 1859 08ce 00       		.byte	0
 1860 08cf 2D       		.uleb128 0x2d
 1861 08d0 01       		.byte	0x1
 1862 08d1 13000000 		.4byte	.LASF77
 1863 08d5 01       		.byte	0x1
 1864 08d6 2801     		.2byte	0x128
 1865 08d8 01       		.byte	0x1
 1866 08d9 00000000 		.4byte	.LFB15
 1867 08dd 20000000 		.4byte	.LFE15
 1868 08e1 02       		.byte	0x2
 1869 08e2 7D       		.byte	0x7d
 1870 08e3 00       		.sleb128 0
ARM GAS  C:\Users\LAB_ME~1\AppData\Local\Temp\cc3uAqNG.s 			page 34


 1871 08e4 01       		.byte	0x1
 1872 08e5 47090000 		.4byte	0x947
 1873 08e9 2A       		.uleb128 0x2a
 1874 08ea 737000   		.ascii	"sp\000"
 1875 08ed 01       		.byte	0x1
 1876 08ee 2801     		.2byte	0x128
 1877 08f0 1E050000 		.4byte	0x51e
 1878 08f4 40040000 		.4byte	.LLST35
 1879 08f8 2C       		.uleb128 0x2c
 1880 08f9 60000000 		.4byte	.Ldebug_ranges0+0x60
 1881 08fd 2E       		.uleb128 0x2e
 1882 08fe 747000   		.ascii	"tp\000"
 1883 0901 01       		.byte	0x1
 1884 0902 3401     		.2byte	0x134
 1885 0904 48020000 		.4byte	0x248
 1886 0908 01       		.byte	0x1
 1887 0909 52       		.byte	0x52
 1888 090a 2F       		.uleb128 0x2f
 1889 090b C6040000 		.4byte	0x4c6
 1890 090f 0E000000 		.4byte	.LBB47
 1891 0913 16000000 		.4byte	.LBE47
 1892 0917 01       		.byte	0x1
 1893 0918 3401     		.2byte	0x134
 1894 091a 3B090000 		.4byte	0x93b
 1895 091e 1B       		.uleb128 0x1b
 1896 091f D7040000 		.4byte	0x4d7
 1897 0923 78040000 		.4byte	.LLST36
 1898 0927 1C       		.uleb128 0x1c
 1899 0928 0E000000 		.4byte	.LBB48
 1900 092c 16000000 		.4byte	.LBE48
 1901 0930 1D       		.uleb128 0x1d
 1902 0931 E2040000 		.4byte	0x4e2
 1903 0935 B0040000 		.4byte	.LLST37
 1904 0939 00       		.byte	0
 1905 093a 00       		.byte	0
 1906 093b 30       		.uleb128 0x30
 1907 093c 20000000 		.4byte	.LVL54
 1908 0940 01       		.byte	0x1
 1909 0941 EA0A0000 		.4byte	0xaea
 1910 0945 00       		.byte	0
 1911 0946 00       		.byte	0
 1912 0947 29       		.uleb128 0x29
 1913 0948 01       		.byte	0x1
 1914 0949 47000000 		.4byte	.LASF78
 1915 094d 01       		.byte	0x1
 1916 094e 4701     		.2byte	0x147
 1917 0950 01       		.byte	0x1
 1918 0951 00000000 		.4byte	.LFB16
 1919 0955 2E000000 		.4byte	.LFE16
 1920 0959 C3040000 		.4byte	.LLST38
 1921 095d 01       		.byte	0x1
 1922 095e BA090000 		.4byte	0x9ba
 1923 0962 2A       		.uleb128 0x2a
 1924 0963 737000   		.ascii	"sp\000"
 1925 0966 01       		.byte	0x1
 1926 0967 4701     		.2byte	0x147
 1927 0969 1E050000 		.4byte	0x51e
ARM GAS  C:\Users\LAB_ME~1\AppData\Local\Temp\cc3uAqNG.s 			page 35


 1928 096d E3040000 		.4byte	.LLST39
 1929 0971 2A       		.uleb128 0x2a
 1930 0972 6E00     		.ascii	"n\000"
 1931 0974 01       		.byte	0x1
 1932 0975 4701     		.2byte	0x147
 1933 0977 E8000000 		.4byte	0xe8
 1934 097b 01050000 		.4byte	.LLST40
 1935 097f 2F       		.uleb128 0x2f
 1936 0980 C6040000 		.4byte	0x4c6
 1937 0984 1A000000 		.4byte	.LBB50
 1938 0988 22000000 		.4byte	.LBE50
 1939 098c 01       		.byte	0x1
 1940 098d 5201     		.2byte	0x152
 1941 098f B0090000 		.4byte	0x9b0
 1942 0993 1B       		.uleb128 0x1b
 1943 0994 D7040000 		.4byte	0x4d7
 1944 0998 2C050000 		.4byte	.LLST41
 1945 099c 1C       		.uleb128 0x1c
 1946 099d 1A000000 		.4byte	.LBB51
 1947 09a1 22000000 		.4byte	.LBE51
 1948 09a5 1D       		.uleb128 0x1d
 1949 09a6 E2040000 		.4byte	0x4e2
 1950 09aa 3F050000 		.4byte	.LLST42
 1951 09ae 00       		.byte	0
 1952 09af 00       		.byte	0
 1953 09b0 1E       		.uleb128 0x1e
 1954 09b1 26000000 		.4byte	.LVL61
 1955 09b5 EA0A0000 		.4byte	0xaea
 1956 09b9 00       		.byte	0
 1957 09ba 31       		.uleb128 0x31
 1958 09bb 01       		.byte	0x1
 1959 09bc 79000000 		.4byte	.LASF79
 1960 09c0 01       		.byte	0x1
 1961 09c1 6701     		.2byte	0x167
 1962 09c3 01       		.byte	0x1
 1963 09c4 C7000000 		.4byte	0xc7
 1964 09c8 00000000 		.4byte	.LFB17
 1965 09cc 64000000 		.4byte	.LFE17
 1966 09d0 52050000 		.4byte	.LLST43
 1967 09d4 01       		.byte	0x1
 1968 09d5 DD0A0000 		.4byte	0xadd
 1969 09d9 2A       		.uleb128 0x2a
 1970 09da 73707300 		.ascii	"sps\000"
 1971 09de 01       		.byte	0x1
 1972 09df 6701     		.2byte	0x167
 1973 09e1 1E050000 		.4byte	0x51e
 1974 09e5 7E050000 		.4byte	.LLST44
 1975 09e9 2A       		.uleb128 0x2a
 1976 09ea 73707700 		.ascii	"spw\000"
 1977 09ee 01       		.byte	0x1
 1978 09ef 6701     		.2byte	0x167
 1979 09f1 1E050000 		.4byte	0x51e
 1980 09f5 C3050000 		.4byte	.LLST45
 1981 09f9 2B       		.uleb128 0x2b
 1982 09fa 6D736700 		.ascii	"msg\000"
 1983 09fe 01       		.byte	0x1
 1984 09ff 6801     		.2byte	0x168
ARM GAS  C:\Users\LAB_ME~1\AppData\Local\Temp\cc3uAqNG.s 			page 36


 1985 0a01 C7000000 		.4byte	0xc7
 1986 0a05 FD050000 		.4byte	.LLST46
 1987 0a09 1F       		.uleb128 0x1f
 1988 0a0a 06000000 		.4byte	.LBB52
 1989 0a0e 0C000000 		.4byte	.LBE52
 1990 0a12 270A0000 		.4byte	0xa27
 1991 0a16 2B       		.uleb128 0x2b
 1992 0a17 746D7000 		.ascii	"tmp\000"
 1993 0a1b 01       		.byte	0x1
 1994 0a1c 7401     		.2byte	0x174
 1995 0a1e 70000000 		.4byte	0x70
 1996 0a22 27060000 		.4byte	.LLST47
 1997 0a26 00       		.byte	0
 1998 0a27 1F       		.uleb128 0x1f
 1999 0a28 26000000 		.4byte	.LBB53
 2000 0a2c 2C000000 		.4byte	.LBE53
 2001 0a30 450A0000 		.4byte	0xa45
 2002 0a34 2B       		.uleb128 0x2b
 2003 0a35 746D7000 		.ascii	"tmp\000"
 2004 0a39 01       		.byte	0x1
 2005 0a3a 8201     		.2byte	0x182
 2006 0a3c 70000000 		.4byte	0x70
 2007 0a40 3A060000 		.4byte	.LLST48
 2008 0a44 00       		.byte	0
 2009 0a45 1F       		.uleb128 0x1f
 2010 0a46 30000000 		.4byte	.LBB54
 2011 0a4a 4A000000 		.4byte	.LBE54
 2012 0a4e 990A0000 		.4byte	0xa99
 2013 0a52 2B       		.uleb128 0x2b
 2014 0a53 63747000 		.ascii	"ctp\000"
 2015 0a57 01       		.byte	0x1
 2016 0a58 7801     		.2byte	0x178
 2017 0a5a 48020000 		.4byte	0x248
 2018 0a5e 4D060000 		.4byte	.LLST49
 2019 0a62 27       		.uleb128 0x27
 2020 0a63 A3040000 		.4byte	0x4a3
 2021 0a67 32000000 		.4byte	.LBB55
 2022 0a6b 78000000 		.4byte	.Ldebug_ranges0+0x78
 2023 0a6f 01       		.byte	0x1
 2024 0a70 7901     		.2byte	0x179
 2025 0a72 890A0000 		.4byte	0xa89
 2026 0a76 1B       		.uleb128 0x1b
 2027 0a77 BA040000 		.4byte	0x4ba
 2028 0a7b 60060000 		.4byte	.LLST50
 2029 0a7f 1B       		.uleb128 0x1b
 2030 0a80 B0040000 		.4byte	0x4b0
 2031 0a84 4D060000 		.4byte	.LLST49
 2032 0a88 00       		.byte	0
 2033 0a89 24       		.uleb128 0x24
 2034 0a8a 46000000 		.4byte	.LVL74
 2035 0a8e 0C0B0000 		.4byte	0xb0c
 2036 0a92 21       		.uleb128 0x21
 2037 0a93 01       		.byte	0x1
 2038 0a94 50       		.byte	0x50
 2039 0a95 01       		.byte	0x1
 2040 0a96 33       		.byte	0x33
 2041 0a97 00       		.byte	0
ARM GAS  C:\Users\LAB_ME~1\AppData\Local\Temp\cc3uAqNG.s 			page 37


 2042 0a98 00       		.byte	0
 2043 0a99 2F       		.uleb128 0x2f
 2044 0a9a C6040000 		.4byte	0x4c6
 2045 0a9e 4A000000 		.4byte	.LBB59
 2046 0aa2 52000000 		.4byte	.LBE59
 2047 0aa6 01       		.byte	0x1
 2048 0aa7 7601     		.2byte	0x176
 2049 0aa9 CA0A0000 		.4byte	0xaca
 2050 0aad 1B       		.uleb128 0x1b
 2051 0aae D7040000 		.4byte	0x4d7
 2052 0ab2 73060000 		.4byte	.LLST52
 2053 0ab6 1C       		.uleb128 0x1c
 2054 0ab7 4A000000 		.4byte	.LBB60
 2055 0abb 52000000 		.4byte	.LBE60
 2056 0abf 1D       		.uleb128 0x1d
 2057 0ac0 E2040000 		.4byte	0x4e2
 2058 0ac4 9F060000 		.4byte	.LLST53
 2059 0ac8 00       		.byte	0
 2060 0ac9 00       		.byte	0
 2061 0aca 1E       		.uleb128 0x1e
 2062 0acb 24000000 		.4byte	.LVL68
 2063 0acf 020B0000 		.4byte	0xb02
 2064 0ad3 1E       		.uleb128 0x1e
 2065 0ad4 58000000 		.4byte	.LVL78
 2066 0ad8 EA0A0000 		.4byte	0xaea
 2067 0adc 00       		.byte	0
 2068 0add 32       		.uleb128 0x32
 2069 0ade 3E030000 		.4byte	.LASF86
 2070 0ae2 08       		.byte	0x8
 2071 0ae3 68       		.byte	0x68
 2072 0ae4 A2030000 		.4byte	0x3a2
 2073 0ae8 01       		.byte	0x1
 2074 0ae9 01       		.byte	0x1
 2075 0aea 33       		.uleb128 0x33
 2076 0aeb 01       		.byte	0x1
 2077 0aec 90020000 		.4byte	.LASF80
 2078 0af0 08       		.byte	0x8
 2079 0af1 89       		.byte	0x89
 2080 0af2 01       		.byte	0x1
 2081 0af3 48020000 		.4byte	0x248
 2082 0af7 01       		.byte	0x1
 2083 0af8 020B0000 		.4byte	0xb02
 2084 0afc 34       		.uleb128 0x34
 2085 0afd 48020000 		.4byte	0x248
 2086 0b01 00       		.byte	0
 2087 0b02 35       		.uleb128 0x35
 2088 0b03 01       		.byte	0x1
 2089 0b04 ED000000 		.4byte	.LASF87
 2090 0b08 08       		.byte	0x8
 2091 0b09 95       		.byte	0x95
 2092 0b0a 01       		.byte	0x1
 2093 0b0b 01       		.byte	0x1
 2094 0b0c 36       		.uleb128 0x36
 2095 0b0d 01       		.byte	0x1
 2096 0b0e 66020000 		.4byte	.LASF88
 2097 0b12 08       		.byte	0x8
 2098 0b13 8C       		.byte	0x8c
ARM GAS  C:\Users\LAB_ME~1\AppData\Local\Temp\cc3uAqNG.s 			page 38


 2099 0b14 01       		.byte	0x1
 2100 0b15 01       		.byte	0x1
 2101 0b16 200B0000 		.4byte	0xb20
 2102 0b1a 34       		.uleb128 0x34
 2103 0b1b 9B000000 		.4byte	0x9b
 2104 0b1f 00       		.byte	0
 2105 0b20 33       		.uleb128 0x33
 2106 0b21 01       		.byte	0x1
 2107 0b22 5A030000 		.4byte	.LASF81
 2108 0b26 08       		.byte	0x8
 2109 0b27 8F       		.byte	0x8f
 2110 0b28 01       		.byte	0x1
 2111 0b29 C7000000 		.4byte	0xc7
 2112 0b2d 01       		.byte	0x1
 2113 0b2e 3D0B0000 		.4byte	0xb3d
 2114 0b32 34       		.uleb128 0x34
 2115 0b33 9B000000 		.4byte	0x9b
 2116 0b37 34       		.uleb128 0x34
 2117 0b38 DD000000 		.4byte	0xdd
 2118 0b3c 00       		.byte	0
 2119 0b3d 37       		.uleb128 0x37
 2120 0b3e 01       		.byte	0x1
 2121 0b3f 0A030000 		.4byte	.LASF89
 2122 0b43 08       		.byte	0x8
 2123 0b44 92       		.byte	0x92
 2124 0b45 01       		.byte	0x1
 2125 0b46 01       		.byte	0x1
 2126 0b47 34       		.uleb128 0x34
 2127 0b48 48020000 		.4byte	0x248
 2128 0b4c 34       		.uleb128 0x34
 2129 0b4d C7000000 		.4byte	0xc7
 2130 0b51 00       		.byte	0
 2131 0b52 00       		.byte	0
 2132              		.section	.debug_abbrev,"",%progbits
 2133              	.Ldebug_abbrev0:
 2134 0000 01       		.uleb128 0x1
 2135 0001 11       		.uleb128 0x11
 2136 0002 01       		.byte	0x1
 2137 0003 25       		.uleb128 0x25
 2138 0004 0E       		.uleb128 0xe
 2139 0005 13       		.uleb128 0x13
 2140 0006 0B       		.uleb128 0xb
 2141 0007 03       		.uleb128 0x3
 2142 0008 0E       		.uleb128 0xe
 2143 0009 1B       		.uleb128 0x1b
 2144 000a 0E       		.uleb128 0xe
 2145 000b 55       		.uleb128 0x55
 2146 000c 06       		.uleb128 0x6
 2147 000d 11       		.uleb128 0x11
 2148 000e 01       		.uleb128 0x1
 2149 000f 52       		.uleb128 0x52
 2150 0010 01       		.uleb128 0x1
 2151 0011 10       		.uleb128 0x10
 2152 0012 06       		.uleb128 0x6
 2153 0013 00       		.byte	0
 2154 0014 00       		.byte	0
 2155 0015 02       		.uleb128 0x2
ARM GAS  C:\Users\LAB_ME~1\AppData\Local\Temp\cc3uAqNG.s 			page 39


 2156 0016 24       		.uleb128 0x24
 2157 0017 00       		.byte	0
 2158 0018 0B       		.uleb128 0xb
 2159 0019 0B       		.uleb128 0xb
 2160 001a 3E       		.uleb128 0x3e
 2161 001b 0B       		.uleb128 0xb
 2162 001c 03       		.uleb128 0x3
 2163 001d 08       		.uleb128 0x8
 2164 001e 00       		.byte	0
 2165 001f 00       		.byte	0
 2166 0020 03       		.uleb128 0x3
 2167 0021 24       		.uleb128 0x24
 2168 0022 00       		.byte	0
 2169 0023 0B       		.uleb128 0xb
 2170 0024 0B       		.uleb128 0xb
 2171 0025 3E       		.uleb128 0x3e
 2172 0026 0B       		.uleb128 0xb
 2173 0027 03       		.uleb128 0x3
 2174 0028 0E       		.uleb128 0xe
 2175 0029 00       		.byte	0
 2176 002a 00       		.byte	0
 2177 002b 04       		.uleb128 0x4
 2178 002c 16       		.uleb128 0x16
 2179 002d 00       		.byte	0
 2180 002e 03       		.uleb128 0x3
 2181 002f 0E       		.uleb128 0xe
 2182 0030 3A       		.uleb128 0x3a
 2183 0031 0B       		.uleb128 0xb
 2184 0032 3B       		.uleb128 0x3b
 2185 0033 0B       		.uleb128 0xb
 2186 0034 49       		.uleb128 0x49
 2187 0035 13       		.uleb128 0x13
 2188 0036 00       		.byte	0
 2189 0037 00       		.byte	0
 2190 0038 05       		.uleb128 0x5
 2191 0039 13       		.uleb128 0x13
 2192 003a 01       		.byte	0x1
 2193 003b 03       		.uleb128 0x3
 2194 003c 0E       		.uleb128 0xe
 2195 003d 0B       		.uleb128 0xb
 2196 003e 0B       		.uleb128 0xb
 2197 003f 3A       		.uleb128 0x3a
 2198 0040 0B       		.uleb128 0xb
 2199 0041 3B       		.uleb128 0x3b
 2200 0042 0B       		.uleb128 0xb
 2201 0043 01       		.uleb128 0x1
 2202 0044 13       		.uleb128 0x13
 2203 0045 00       		.byte	0
 2204 0046 00       		.byte	0
 2205 0047 06       		.uleb128 0x6
 2206 0048 0D       		.uleb128 0xd
 2207 0049 00       		.byte	0
 2208 004a 03       		.uleb128 0x3
 2209 004b 0E       		.uleb128 0xe
 2210 004c 3A       		.uleb128 0x3a
 2211 004d 0B       		.uleb128 0xb
 2212 004e 3B       		.uleb128 0x3b
ARM GAS  C:\Users\LAB_ME~1\AppData\Local\Temp\cc3uAqNG.s 			page 40


 2213 004f 0B       		.uleb128 0xb
 2214 0050 49       		.uleb128 0x49
 2215 0051 13       		.uleb128 0x13
 2216 0052 38       		.uleb128 0x38
 2217 0053 0A       		.uleb128 0xa
 2218 0054 00       		.byte	0
 2219 0055 00       		.byte	0
 2220 0056 07       		.uleb128 0x7
 2221 0057 0D       		.uleb128 0xd
 2222 0058 00       		.byte	0
 2223 0059 03       		.uleb128 0x3
 2224 005a 08       		.uleb128 0x8
 2225 005b 3A       		.uleb128 0x3a
 2226 005c 0B       		.uleb128 0xb
 2227 005d 3B       		.uleb128 0x3b
 2228 005e 0B       		.uleb128 0xb
 2229 005f 49       		.uleb128 0x49
 2230 0060 13       		.uleb128 0x13
 2231 0061 38       		.uleb128 0x38
 2232 0062 0A       		.uleb128 0xa
 2233 0063 00       		.byte	0
 2234 0064 00       		.byte	0
 2235 0065 08       		.uleb128 0x8
 2236 0066 13       		.uleb128 0x13
 2237 0067 01       		.byte	0x1
 2238 0068 0B       		.uleb128 0xb
 2239 0069 0B       		.uleb128 0xb
 2240 006a 3A       		.uleb128 0x3a
 2241 006b 0B       		.uleb128 0xb
 2242 006c 3B       		.uleb128 0x3b
 2243 006d 0B       		.uleb128 0xb
 2244 006e 01       		.uleb128 0x1
 2245 006f 13       		.uleb128 0x13
 2246 0070 00       		.byte	0
 2247 0071 00       		.byte	0
 2248 0072 09       		.uleb128 0x9
 2249 0073 0F       		.uleb128 0xf
 2250 0074 00       		.byte	0
 2251 0075 0B       		.uleb128 0xb
 2252 0076 0B       		.uleb128 0xb
 2253 0077 49       		.uleb128 0x49
 2254 0078 13       		.uleb128 0x13
 2255 0079 00       		.byte	0
 2256 007a 00       		.byte	0
 2257 007b 0A       		.uleb128 0xa
 2258 007c 0F       		.uleb128 0xf
 2259 007d 00       		.byte	0
 2260 007e 0B       		.uleb128 0xb
 2261 007f 0B       		.uleb128 0xb
 2262 0080 00       		.byte	0
 2263 0081 00       		.byte	0
 2264 0082 0B       		.uleb128 0xb
 2265 0083 13       		.uleb128 0x13
 2266 0084 01       		.byte	0x1
 2267 0085 03       		.uleb128 0x3
 2268 0086 0E       		.uleb128 0xe
 2269 0087 0B       		.uleb128 0xb
ARM GAS  C:\Users\LAB_ME~1\AppData\Local\Temp\cc3uAqNG.s 			page 41


 2270 0088 0B       		.uleb128 0xb
 2271 0089 3A       		.uleb128 0x3a
 2272 008a 0B       		.uleb128 0xb
 2273 008b 3B       		.uleb128 0x3b
 2274 008c 05       		.uleb128 0x5
 2275 008d 01       		.uleb128 0x1
 2276 008e 13       		.uleb128 0x13
 2277 008f 00       		.byte	0
 2278 0090 00       		.byte	0
 2279 0091 0C       		.uleb128 0xc
 2280 0092 0D       		.uleb128 0xd
 2281 0093 00       		.byte	0
 2282 0094 03       		.uleb128 0x3
 2283 0095 08       		.uleb128 0x8
 2284 0096 3A       		.uleb128 0x3a
 2285 0097 0B       		.uleb128 0xb
 2286 0098 3B       		.uleb128 0x3b
 2287 0099 05       		.uleb128 0x5
 2288 009a 49       		.uleb128 0x49
 2289 009b 13       		.uleb128 0x13
 2290 009c 38       		.uleb128 0x38
 2291 009d 0A       		.uleb128 0xa
 2292 009e 00       		.byte	0
 2293 009f 00       		.byte	0
 2294 00a0 0D       		.uleb128 0xd
 2295 00a1 35       		.uleb128 0x35
 2296 00a2 00       		.byte	0
 2297 00a3 49       		.uleb128 0x49
 2298 00a4 13       		.uleb128 0x13
 2299 00a5 00       		.byte	0
 2300 00a6 00       		.byte	0
 2301 00a7 0E       		.uleb128 0xe
 2302 00a8 17       		.uleb128 0x17
 2303 00a9 01       		.byte	0x1
 2304 00aa 0B       		.uleb128 0xb
 2305 00ab 0B       		.uleb128 0xb
 2306 00ac 3A       		.uleb128 0x3a
 2307 00ad 0B       		.uleb128 0xb
 2308 00ae 3B       		.uleb128 0x3b
 2309 00af 0B       		.uleb128 0xb
 2310 00b0 01       		.uleb128 0x1
 2311 00b1 13       		.uleb128 0x13
 2312 00b2 00       		.byte	0
 2313 00b3 00       		.byte	0
 2314 00b4 0F       		.uleb128 0xf
 2315 00b5 0D       		.uleb128 0xd
 2316 00b6 00       		.byte	0
 2317 00b7 03       		.uleb128 0x3
 2318 00b8 0E       		.uleb128 0xe
 2319 00b9 3A       		.uleb128 0x3a
 2320 00ba 0B       		.uleb128 0xb
 2321 00bb 3B       		.uleb128 0x3b
 2322 00bc 0B       		.uleb128 0xb
 2323 00bd 49       		.uleb128 0x49
 2324 00be 13       		.uleb128 0x13
 2325 00bf 00       		.byte	0
 2326 00c0 00       		.byte	0
ARM GAS  C:\Users\LAB_ME~1\AppData\Local\Temp\cc3uAqNG.s 			page 42


 2327 00c1 10       		.uleb128 0x10
 2328 00c2 26       		.uleb128 0x26
 2329 00c3 00       		.byte	0
 2330 00c4 49       		.uleb128 0x49
 2331 00c5 13       		.uleb128 0x13
 2332 00c6 00       		.byte	0
 2333 00c7 00       		.byte	0
 2334 00c8 11       		.uleb128 0x11
 2335 00c9 2E       		.uleb128 0x2e
 2336 00ca 01       		.byte	0x1
 2337 00cb 03       		.uleb128 0x3
 2338 00cc 0E       		.uleb128 0xe
 2339 00cd 3A       		.uleb128 0x3a
 2340 00ce 0B       		.uleb128 0xb
 2341 00cf 3B       		.uleb128 0x3b
 2342 00d0 0B       		.uleb128 0xb
 2343 00d1 27       		.uleb128 0x27
 2344 00d2 0C       		.uleb128 0xc
 2345 00d3 49       		.uleb128 0x49
 2346 00d4 13       		.uleb128 0x13
 2347 00d5 20       		.uleb128 0x20
 2348 00d6 0B       		.uleb128 0xb
 2349 00d7 01       		.uleb128 0x1
 2350 00d8 13       		.uleb128 0x13
 2351 00d9 00       		.byte	0
 2352 00da 00       		.byte	0
 2353 00db 12       		.uleb128 0x12
 2354 00dc 05       		.uleb128 0x5
 2355 00dd 00       		.byte	0
 2356 00de 03       		.uleb128 0x3
 2357 00df 08       		.uleb128 0x8
 2358 00e0 3A       		.uleb128 0x3a
 2359 00e1 0B       		.uleb128 0xb
 2360 00e2 3B       		.uleb128 0x3b
 2361 00e3 0B       		.uleb128 0xb
 2362 00e4 49       		.uleb128 0x49
 2363 00e5 13       		.uleb128 0x13
 2364 00e6 00       		.byte	0
 2365 00e7 00       		.byte	0
 2366 00e8 13       		.uleb128 0x13
 2367 00e9 34       		.uleb128 0x34
 2368 00ea 00       		.byte	0
 2369 00eb 03       		.uleb128 0x3
 2370 00ec 08       		.uleb128 0x8
 2371 00ed 3A       		.uleb128 0x3a
 2372 00ee 0B       		.uleb128 0xb
 2373 00ef 3B       		.uleb128 0x3b
 2374 00f0 0B       		.uleb128 0xb
 2375 00f1 49       		.uleb128 0x49
 2376 00f2 13       		.uleb128 0x13
 2377 00f3 00       		.byte	0
 2378 00f4 00       		.byte	0
 2379 00f5 14       		.uleb128 0x14
 2380 00f6 2E       		.uleb128 0x2e
 2381 00f7 01       		.byte	0x1
 2382 00f8 03       		.uleb128 0x3
 2383 00f9 0E       		.uleb128 0xe
ARM GAS  C:\Users\LAB_ME~1\AppData\Local\Temp\cc3uAqNG.s 			page 43


 2384 00fa 3A       		.uleb128 0x3a
 2385 00fb 0B       		.uleb128 0xb
 2386 00fc 3B       		.uleb128 0x3b
 2387 00fd 0B       		.uleb128 0xb
 2388 00fe 27       		.uleb128 0x27
 2389 00ff 0C       		.uleb128 0xc
 2390 0100 20       		.uleb128 0x20
 2391 0101 0B       		.uleb128 0xb
 2392 0102 01       		.uleb128 0x1
 2393 0103 13       		.uleb128 0x13
 2394 0104 00       		.byte	0
 2395 0105 00       		.byte	0
 2396 0106 15       		.uleb128 0x15
 2397 0107 2E       		.uleb128 0x2e
 2398 0108 01       		.byte	0x1
 2399 0109 3F       		.uleb128 0x3f
 2400 010a 0C       		.uleb128 0xc
 2401 010b 03       		.uleb128 0x3
 2402 010c 0E       		.uleb128 0xe
 2403 010d 3A       		.uleb128 0x3a
 2404 010e 0B       		.uleb128 0xb
 2405 010f 3B       		.uleb128 0x3b
 2406 0110 0B       		.uleb128 0xb
 2407 0111 27       		.uleb128 0x27
 2408 0112 0C       		.uleb128 0xc
 2409 0113 11       		.uleb128 0x11
 2410 0114 01       		.uleb128 0x1
 2411 0115 12       		.uleb128 0x12
 2412 0116 01       		.uleb128 0x1
 2413 0117 40       		.uleb128 0x40
 2414 0118 0A       		.uleb128 0xa
 2415 0119 9742     		.uleb128 0x2117
 2416 011b 0C       		.uleb128 0xc
 2417 011c 01       		.uleb128 0x1
 2418 011d 13       		.uleb128 0x13
 2419 011e 00       		.byte	0
 2420 011f 00       		.byte	0
 2421 0120 16       		.uleb128 0x16
 2422 0121 05       		.uleb128 0x5
 2423 0122 00       		.byte	0
 2424 0123 03       		.uleb128 0x3
 2425 0124 08       		.uleb128 0x8
 2426 0125 3A       		.uleb128 0x3a
 2427 0126 0B       		.uleb128 0xb
 2428 0127 3B       		.uleb128 0x3b
 2429 0128 0B       		.uleb128 0xb
 2430 0129 49       		.uleb128 0x49
 2431 012a 13       		.uleb128 0x13
 2432 012b 02       		.uleb128 0x2
 2433 012c 0A       		.uleb128 0xa
 2434 012d 00       		.byte	0
 2435 012e 00       		.byte	0
 2436 012f 17       		.uleb128 0x17
 2437 0130 2E       		.uleb128 0x2e
 2438 0131 01       		.byte	0x1
 2439 0132 3F       		.uleb128 0x3f
 2440 0133 0C       		.uleb128 0xc
ARM GAS  C:\Users\LAB_ME~1\AppData\Local\Temp\cc3uAqNG.s 			page 44


 2441 0134 03       		.uleb128 0x3
 2442 0135 0E       		.uleb128 0xe
 2443 0136 3A       		.uleb128 0x3a
 2444 0137 0B       		.uleb128 0xb
 2445 0138 3B       		.uleb128 0x3b
 2446 0139 0B       		.uleb128 0xb
 2447 013a 27       		.uleb128 0x27
 2448 013b 0C       		.uleb128 0xc
 2449 013c 11       		.uleb128 0x11
 2450 013d 01       		.uleb128 0x1
 2451 013e 12       		.uleb128 0x12
 2452 013f 01       		.uleb128 0x1
 2453 0140 40       		.uleb128 0x40
 2454 0141 06       		.uleb128 0x6
 2455 0142 9742     		.uleb128 0x2117
 2456 0144 0C       		.uleb128 0xc
 2457 0145 01       		.uleb128 0x1
 2458 0146 13       		.uleb128 0x13
 2459 0147 00       		.byte	0
 2460 0148 00       		.byte	0
 2461 0149 18       		.uleb128 0x18
 2462 014a 05       		.uleb128 0x5
 2463 014b 00       		.byte	0
 2464 014c 03       		.uleb128 0x3
 2465 014d 08       		.uleb128 0x8
 2466 014e 3A       		.uleb128 0x3a
 2467 014f 0B       		.uleb128 0xb
 2468 0150 3B       		.uleb128 0x3b
 2469 0151 0B       		.uleb128 0xb
 2470 0152 49       		.uleb128 0x49
 2471 0153 13       		.uleb128 0x13
 2472 0154 02       		.uleb128 0x2
 2473 0155 06       		.uleb128 0x6
 2474 0156 00       		.byte	0
 2475 0157 00       		.byte	0
 2476 0158 19       		.uleb128 0x19
 2477 0159 34       		.uleb128 0x34
 2478 015a 00       		.byte	0
 2479 015b 03       		.uleb128 0x3
 2480 015c 08       		.uleb128 0x8
 2481 015d 3A       		.uleb128 0x3a
 2482 015e 0B       		.uleb128 0xb
 2483 015f 3B       		.uleb128 0x3b
 2484 0160 0B       		.uleb128 0xb
 2485 0161 49       		.uleb128 0x49
 2486 0162 13       		.uleb128 0x13
 2487 0163 02       		.uleb128 0x2
 2488 0164 06       		.uleb128 0x6
 2489 0165 00       		.byte	0
 2490 0166 00       		.byte	0
 2491 0167 1A       		.uleb128 0x1a
 2492 0168 1D       		.uleb128 0x1d
 2493 0169 01       		.byte	0x1
 2494 016a 31       		.uleb128 0x31
 2495 016b 13       		.uleb128 0x13
 2496 016c 11       		.uleb128 0x11
 2497 016d 01       		.uleb128 0x1
ARM GAS  C:\Users\LAB_ME~1\AppData\Local\Temp\cc3uAqNG.s 			page 45


 2498 016e 12       		.uleb128 0x12
 2499 016f 01       		.uleb128 0x1
 2500 0170 58       		.uleb128 0x58
 2501 0171 0B       		.uleb128 0xb
 2502 0172 59       		.uleb128 0x59
 2503 0173 0B       		.uleb128 0xb
 2504 0174 01       		.uleb128 0x1
 2505 0175 13       		.uleb128 0x13
 2506 0176 00       		.byte	0
 2507 0177 00       		.byte	0
 2508 0178 1B       		.uleb128 0x1b
 2509 0179 05       		.uleb128 0x5
 2510 017a 00       		.byte	0
 2511 017b 31       		.uleb128 0x31
 2512 017c 13       		.uleb128 0x13
 2513 017d 02       		.uleb128 0x2
 2514 017e 06       		.uleb128 0x6
 2515 017f 00       		.byte	0
 2516 0180 00       		.byte	0
 2517 0181 1C       		.uleb128 0x1c
 2518 0182 0B       		.uleb128 0xb
 2519 0183 01       		.byte	0x1
 2520 0184 11       		.uleb128 0x11
 2521 0185 01       		.uleb128 0x1
 2522 0186 12       		.uleb128 0x12
 2523 0187 01       		.uleb128 0x1
 2524 0188 00       		.byte	0
 2525 0189 00       		.byte	0
 2526 018a 1D       		.uleb128 0x1d
 2527 018b 34       		.uleb128 0x34
 2528 018c 00       		.byte	0
 2529 018d 31       		.uleb128 0x31
 2530 018e 13       		.uleb128 0x13
 2531 018f 02       		.uleb128 0x2
 2532 0190 06       		.uleb128 0x6
 2533 0191 00       		.byte	0
 2534 0192 00       		.byte	0
 2535 0193 1E       		.uleb128 0x1e
 2536 0194 898201   		.uleb128 0x4109
 2537 0197 00       		.byte	0
 2538 0198 11       		.uleb128 0x11
 2539 0199 01       		.uleb128 0x1
 2540 019a 31       		.uleb128 0x31
 2541 019b 13       		.uleb128 0x13
 2542 019c 00       		.byte	0
 2543 019d 00       		.byte	0
 2544 019e 1F       		.uleb128 0x1f
 2545 019f 0B       		.uleb128 0xb
 2546 01a0 01       		.byte	0x1
 2547 01a1 11       		.uleb128 0x11
 2548 01a2 01       		.uleb128 0x1
 2549 01a3 12       		.uleb128 0x12
 2550 01a4 01       		.uleb128 0x1
 2551 01a5 01       		.uleb128 0x1
 2552 01a6 13       		.uleb128 0x13
 2553 01a7 00       		.byte	0
 2554 01a8 00       		.byte	0
ARM GAS  C:\Users\LAB_ME~1\AppData\Local\Temp\cc3uAqNG.s 			page 46


 2555 01a9 20       		.uleb128 0x20
 2556 01aa 898201   		.uleb128 0x4109
 2557 01ad 01       		.byte	0x1
 2558 01ae 11       		.uleb128 0x11
 2559 01af 01       		.uleb128 0x1
 2560 01b0 31       		.uleb128 0x31
 2561 01b1 13       		.uleb128 0x13
 2562 01b2 01       		.uleb128 0x1
 2563 01b3 13       		.uleb128 0x13
 2564 01b4 00       		.byte	0
 2565 01b5 00       		.byte	0
 2566 01b6 21       		.uleb128 0x21
 2567 01b7 8A8201   		.uleb128 0x410a
 2568 01ba 00       		.byte	0
 2569 01bb 02       		.uleb128 0x2
 2570 01bc 0A       		.uleb128 0xa
 2571 01bd 9142     		.uleb128 0x2111
 2572 01bf 0A       		.uleb128 0xa
 2573 01c0 00       		.byte	0
 2574 01c1 00       		.byte	0
 2575 01c2 22       		.uleb128 0x22
 2576 01c3 2E       		.uleb128 0x2e
 2577 01c4 01       		.byte	0x1
 2578 01c5 3F       		.uleb128 0x3f
 2579 01c6 0C       		.uleb128 0xc
 2580 01c7 03       		.uleb128 0x3
 2581 01c8 0E       		.uleb128 0xe
 2582 01c9 3A       		.uleb128 0x3a
 2583 01ca 0B       		.uleb128 0xb
 2584 01cb 3B       		.uleb128 0x3b
 2585 01cc 0B       		.uleb128 0xb
 2586 01cd 27       		.uleb128 0x27
 2587 01ce 0C       		.uleb128 0xc
 2588 01cf 49       		.uleb128 0x49
 2589 01d0 13       		.uleb128 0x13
 2590 01d1 11       		.uleb128 0x11
 2591 01d2 01       		.uleb128 0x1
 2592 01d3 12       		.uleb128 0x12
 2593 01d4 01       		.uleb128 0x1
 2594 01d5 40       		.uleb128 0x40
 2595 01d6 06       		.uleb128 0x6
 2596 01d7 9742     		.uleb128 0x2117
 2597 01d9 0C       		.uleb128 0xc
 2598 01da 01       		.uleb128 0x1
 2599 01db 13       		.uleb128 0x13
 2600 01dc 00       		.byte	0
 2601 01dd 00       		.byte	0
 2602 01de 23       		.uleb128 0x23
 2603 01df 1D       		.uleb128 0x1d
 2604 01e0 01       		.byte	0x1
 2605 01e1 31       		.uleb128 0x31
 2606 01e2 13       		.uleb128 0x13
 2607 01e3 52       		.uleb128 0x52
 2608 01e4 01       		.uleb128 0x1
 2609 01e5 55       		.uleb128 0x55
 2610 01e6 06       		.uleb128 0x6
 2611 01e7 58       		.uleb128 0x58
ARM GAS  C:\Users\LAB_ME~1\AppData\Local\Temp\cc3uAqNG.s 			page 47


 2612 01e8 0B       		.uleb128 0xb
 2613 01e9 59       		.uleb128 0x59
 2614 01ea 0B       		.uleb128 0xb
 2615 01eb 01       		.uleb128 0x1
 2616 01ec 13       		.uleb128 0x13
 2617 01ed 00       		.byte	0
 2618 01ee 00       		.byte	0
 2619 01ef 24       		.uleb128 0x24
 2620 01f0 898201   		.uleb128 0x4109
 2621 01f3 01       		.byte	0x1
 2622 01f4 11       		.uleb128 0x11
 2623 01f5 01       		.uleb128 0x1
 2624 01f6 31       		.uleb128 0x31
 2625 01f7 13       		.uleb128 0x13
 2626 01f8 00       		.byte	0
 2627 01f9 00       		.byte	0
 2628 01fa 25       		.uleb128 0x25
 2629 01fb 34       		.uleb128 0x34
 2630 01fc 00       		.byte	0
 2631 01fd 03       		.uleb128 0x3
 2632 01fe 08       		.uleb128 0x8
 2633 01ff 3A       		.uleb128 0x3a
 2634 0200 0B       		.uleb128 0xb
 2635 0201 3B       		.uleb128 0x3b
 2636 0202 0B       		.uleb128 0xb
 2637 0203 49       		.uleb128 0x49
 2638 0204 13       		.uleb128 0x13
 2639 0205 02       		.uleb128 0x2
 2640 0206 0A       		.uleb128 0xa
 2641 0207 00       		.byte	0
 2642 0208 00       		.byte	0
 2643 0209 26       		.uleb128 0x26
 2644 020a 05       		.uleb128 0x5
 2645 020b 00       		.byte	0
 2646 020c 03       		.uleb128 0x3
 2647 020d 0E       		.uleb128 0xe
 2648 020e 3A       		.uleb128 0x3a
 2649 020f 0B       		.uleb128 0xb
 2650 0210 3B       		.uleb128 0x3b
 2651 0211 0B       		.uleb128 0xb
 2652 0212 49       		.uleb128 0x49
 2653 0213 13       		.uleb128 0x13
 2654 0214 02       		.uleb128 0x2
 2655 0215 06       		.uleb128 0x6
 2656 0216 00       		.byte	0
 2657 0217 00       		.byte	0
 2658 0218 27       		.uleb128 0x27
 2659 0219 1D       		.uleb128 0x1d
 2660 021a 01       		.byte	0x1
 2661 021b 31       		.uleb128 0x31
 2662 021c 13       		.uleb128 0x13
 2663 021d 52       		.uleb128 0x52
 2664 021e 01       		.uleb128 0x1
 2665 021f 55       		.uleb128 0x55
 2666 0220 06       		.uleb128 0x6
 2667 0221 58       		.uleb128 0x58
 2668 0222 0B       		.uleb128 0xb
ARM GAS  C:\Users\LAB_ME~1\AppData\Local\Temp\cc3uAqNG.s 			page 48


 2669 0223 59       		.uleb128 0x59
 2670 0224 05       		.uleb128 0x5
 2671 0225 01       		.uleb128 0x1
 2672 0226 13       		.uleb128 0x13
 2673 0227 00       		.byte	0
 2674 0228 00       		.byte	0
 2675 0229 28       		.uleb128 0x28
 2676 022a 898201   		.uleb128 0x4109
 2677 022d 01       		.byte	0x1
 2678 022e 11       		.uleb128 0x11
 2679 022f 01       		.uleb128 0x1
 2680 0230 9542     		.uleb128 0x2115
 2681 0232 0C       		.uleb128 0xc
 2682 0233 31       		.uleb128 0x31
 2683 0234 13       		.uleb128 0x13
 2684 0235 00       		.byte	0
 2685 0236 00       		.byte	0
 2686 0237 29       		.uleb128 0x29
 2687 0238 2E       		.uleb128 0x2e
 2688 0239 01       		.byte	0x1
 2689 023a 3F       		.uleb128 0x3f
 2690 023b 0C       		.uleb128 0xc
 2691 023c 03       		.uleb128 0x3
 2692 023d 0E       		.uleb128 0xe
 2693 023e 3A       		.uleb128 0x3a
 2694 023f 0B       		.uleb128 0xb
 2695 0240 3B       		.uleb128 0x3b
 2696 0241 05       		.uleb128 0x5
 2697 0242 27       		.uleb128 0x27
 2698 0243 0C       		.uleb128 0xc
 2699 0244 11       		.uleb128 0x11
 2700 0245 01       		.uleb128 0x1
 2701 0246 12       		.uleb128 0x12
 2702 0247 01       		.uleb128 0x1
 2703 0248 40       		.uleb128 0x40
 2704 0249 06       		.uleb128 0x6
 2705 024a 9742     		.uleb128 0x2117
 2706 024c 0C       		.uleb128 0xc
 2707 024d 01       		.uleb128 0x1
 2708 024e 13       		.uleb128 0x13
 2709 024f 00       		.byte	0
 2710 0250 00       		.byte	0
 2711 0251 2A       		.uleb128 0x2a
 2712 0252 05       		.uleb128 0x5
 2713 0253 00       		.byte	0
 2714 0254 03       		.uleb128 0x3
 2715 0255 08       		.uleb128 0x8
 2716 0256 3A       		.uleb128 0x3a
 2717 0257 0B       		.uleb128 0xb
 2718 0258 3B       		.uleb128 0x3b
 2719 0259 05       		.uleb128 0x5
 2720 025a 49       		.uleb128 0x49
 2721 025b 13       		.uleb128 0x13
 2722 025c 02       		.uleb128 0x2
 2723 025d 06       		.uleb128 0x6
 2724 025e 00       		.byte	0
 2725 025f 00       		.byte	0
ARM GAS  C:\Users\LAB_ME~1\AppData\Local\Temp\cc3uAqNG.s 			page 49


 2726 0260 2B       		.uleb128 0x2b
 2727 0261 34       		.uleb128 0x34
 2728 0262 00       		.byte	0
 2729 0263 03       		.uleb128 0x3
 2730 0264 08       		.uleb128 0x8
 2731 0265 3A       		.uleb128 0x3a
 2732 0266 0B       		.uleb128 0xb
 2733 0267 3B       		.uleb128 0x3b
 2734 0268 05       		.uleb128 0x5
 2735 0269 49       		.uleb128 0x49
 2736 026a 13       		.uleb128 0x13
 2737 026b 02       		.uleb128 0x2
 2738 026c 06       		.uleb128 0x6
 2739 026d 00       		.byte	0
 2740 026e 00       		.byte	0
 2741 026f 2C       		.uleb128 0x2c
 2742 0270 0B       		.uleb128 0xb
 2743 0271 01       		.byte	0x1
 2744 0272 55       		.uleb128 0x55
 2745 0273 06       		.uleb128 0x6
 2746 0274 00       		.byte	0
 2747 0275 00       		.byte	0
 2748 0276 2D       		.uleb128 0x2d
 2749 0277 2E       		.uleb128 0x2e
 2750 0278 01       		.byte	0x1
 2751 0279 3F       		.uleb128 0x3f
 2752 027a 0C       		.uleb128 0xc
 2753 027b 03       		.uleb128 0x3
 2754 027c 0E       		.uleb128 0xe
 2755 027d 3A       		.uleb128 0x3a
 2756 027e 0B       		.uleb128 0xb
 2757 027f 3B       		.uleb128 0x3b
 2758 0280 05       		.uleb128 0x5
 2759 0281 27       		.uleb128 0x27
 2760 0282 0C       		.uleb128 0xc
 2761 0283 11       		.uleb128 0x11
 2762 0284 01       		.uleb128 0x1
 2763 0285 12       		.uleb128 0x12
 2764 0286 01       		.uleb128 0x1
 2765 0287 40       		.uleb128 0x40
 2766 0288 0A       		.uleb128 0xa
 2767 0289 9742     		.uleb128 0x2117
 2768 028b 0C       		.uleb128 0xc
 2769 028c 01       		.uleb128 0x1
 2770 028d 13       		.uleb128 0x13
 2771 028e 00       		.byte	0
 2772 028f 00       		.byte	0
 2773 0290 2E       		.uleb128 0x2e
 2774 0291 34       		.uleb128 0x34
 2775 0292 00       		.byte	0
 2776 0293 03       		.uleb128 0x3
 2777 0294 08       		.uleb128 0x8
 2778 0295 3A       		.uleb128 0x3a
 2779 0296 0B       		.uleb128 0xb
 2780 0297 3B       		.uleb128 0x3b
 2781 0298 05       		.uleb128 0x5
 2782 0299 49       		.uleb128 0x49
ARM GAS  C:\Users\LAB_ME~1\AppData\Local\Temp\cc3uAqNG.s 			page 50


 2783 029a 13       		.uleb128 0x13
 2784 029b 02       		.uleb128 0x2
 2785 029c 0A       		.uleb128 0xa
 2786 029d 00       		.byte	0
 2787 029e 00       		.byte	0
 2788 029f 2F       		.uleb128 0x2f
 2789 02a0 1D       		.uleb128 0x1d
 2790 02a1 01       		.byte	0x1
 2791 02a2 31       		.uleb128 0x31
 2792 02a3 13       		.uleb128 0x13
 2793 02a4 11       		.uleb128 0x11
 2794 02a5 01       		.uleb128 0x1
 2795 02a6 12       		.uleb128 0x12
 2796 02a7 01       		.uleb128 0x1
 2797 02a8 58       		.uleb128 0x58
 2798 02a9 0B       		.uleb128 0xb
 2799 02aa 59       		.uleb128 0x59
 2800 02ab 05       		.uleb128 0x5
 2801 02ac 01       		.uleb128 0x1
 2802 02ad 13       		.uleb128 0x13
 2803 02ae 00       		.byte	0
 2804 02af 00       		.byte	0
 2805 02b0 30       		.uleb128 0x30
 2806 02b1 898201   		.uleb128 0x4109
 2807 02b4 00       		.byte	0
 2808 02b5 11       		.uleb128 0x11
 2809 02b6 01       		.uleb128 0x1
 2810 02b7 9542     		.uleb128 0x2115
 2811 02b9 0C       		.uleb128 0xc
 2812 02ba 31       		.uleb128 0x31
 2813 02bb 13       		.uleb128 0x13
 2814 02bc 00       		.byte	0
 2815 02bd 00       		.byte	0
 2816 02be 31       		.uleb128 0x31
 2817 02bf 2E       		.uleb128 0x2e
 2818 02c0 01       		.byte	0x1
 2819 02c1 3F       		.uleb128 0x3f
 2820 02c2 0C       		.uleb128 0xc
 2821 02c3 03       		.uleb128 0x3
 2822 02c4 0E       		.uleb128 0xe
 2823 02c5 3A       		.uleb128 0x3a
 2824 02c6 0B       		.uleb128 0xb
 2825 02c7 3B       		.uleb128 0x3b
 2826 02c8 05       		.uleb128 0x5
 2827 02c9 27       		.uleb128 0x27
 2828 02ca 0C       		.uleb128 0xc
 2829 02cb 49       		.uleb128 0x49
 2830 02cc 13       		.uleb128 0x13
 2831 02cd 11       		.uleb128 0x11
 2832 02ce 01       		.uleb128 0x1
 2833 02cf 12       		.uleb128 0x12
 2834 02d0 01       		.uleb128 0x1
 2835 02d1 40       		.uleb128 0x40
 2836 02d2 06       		.uleb128 0x6
 2837 02d3 9742     		.uleb128 0x2117
 2838 02d5 0C       		.uleb128 0xc
 2839 02d6 01       		.uleb128 0x1
ARM GAS  C:\Users\LAB_ME~1\AppData\Local\Temp\cc3uAqNG.s 			page 51


 2840 02d7 13       		.uleb128 0x13
 2841 02d8 00       		.byte	0
 2842 02d9 00       		.byte	0
 2843 02da 32       		.uleb128 0x32
 2844 02db 34       		.uleb128 0x34
 2845 02dc 00       		.byte	0
 2846 02dd 03       		.uleb128 0x3
 2847 02de 0E       		.uleb128 0xe
 2848 02df 3A       		.uleb128 0x3a
 2849 02e0 0B       		.uleb128 0xb
 2850 02e1 3B       		.uleb128 0x3b
 2851 02e2 0B       		.uleb128 0xb
 2852 02e3 49       		.uleb128 0x49
 2853 02e4 13       		.uleb128 0x13
 2854 02e5 3F       		.uleb128 0x3f
 2855 02e6 0C       		.uleb128 0xc
 2856 02e7 3C       		.uleb128 0x3c
 2857 02e8 0C       		.uleb128 0xc
 2858 02e9 00       		.byte	0
 2859 02ea 00       		.byte	0
 2860 02eb 33       		.uleb128 0x33
 2861 02ec 2E       		.uleb128 0x2e
 2862 02ed 01       		.byte	0x1
 2863 02ee 3F       		.uleb128 0x3f
 2864 02ef 0C       		.uleb128 0xc
 2865 02f0 03       		.uleb128 0x3
 2866 02f1 0E       		.uleb128 0xe
 2867 02f2 3A       		.uleb128 0x3a
 2868 02f3 0B       		.uleb128 0xb
 2869 02f4 3B       		.uleb128 0x3b
 2870 02f5 0B       		.uleb128 0xb
 2871 02f6 27       		.uleb128 0x27
 2872 02f7 0C       		.uleb128 0xc
 2873 02f8 49       		.uleb128 0x49
 2874 02f9 13       		.uleb128 0x13
 2875 02fa 3C       		.uleb128 0x3c
 2876 02fb 0C       		.uleb128 0xc
 2877 02fc 01       		.uleb128 0x1
 2878 02fd 13       		.uleb128 0x13
 2879 02fe 00       		.byte	0
 2880 02ff 00       		.byte	0
 2881 0300 34       		.uleb128 0x34
 2882 0301 05       		.uleb128 0x5
 2883 0302 00       		.byte	0
 2884 0303 49       		.uleb128 0x49
 2885 0304 13       		.uleb128 0x13
 2886 0305 00       		.byte	0
 2887 0306 00       		.byte	0
 2888 0307 35       		.uleb128 0x35
 2889 0308 2E       		.uleb128 0x2e
 2890 0309 00       		.byte	0
 2891 030a 3F       		.uleb128 0x3f
 2892 030b 0C       		.uleb128 0xc
 2893 030c 03       		.uleb128 0x3
 2894 030d 0E       		.uleb128 0xe
 2895 030e 3A       		.uleb128 0x3a
 2896 030f 0B       		.uleb128 0xb
ARM GAS  C:\Users\LAB_ME~1\AppData\Local\Temp\cc3uAqNG.s 			page 52


 2897 0310 3B       		.uleb128 0x3b
 2898 0311 0B       		.uleb128 0xb
 2899 0312 27       		.uleb128 0x27
 2900 0313 0C       		.uleb128 0xc
 2901 0314 3C       		.uleb128 0x3c
 2902 0315 0C       		.uleb128 0xc
 2903 0316 00       		.byte	0
 2904 0317 00       		.byte	0
 2905 0318 36       		.uleb128 0x36
 2906 0319 2E       		.uleb128 0x2e
 2907 031a 01       		.byte	0x1
 2908 031b 3F       		.uleb128 0x3f
 2909 031c 0C       		.uleb128 0xc
 2910 031d 03       		.uleb128 0x3
 2911 031e 0E       		.uleb128 0xe
 2912 031f 3A       		.uleb128 0x3a
 2913 0320 0B       		.uleb128 0xb
 2914 0321 3B       		.uleb128 0x3b
 2915 0322 0B       		.uleb128 0xb
 2916 0323 27       		.uleb128 0x27
 2917 0324 0C       		.uleb128 0xc
 2918 0325 3C       		.uleb128 0x3c
 2919 0326 0C       		.uleb128 0xc
 2920 0327 01       		.uleb128 0x1
 2921 0328 13       		.uleb128 0x13
 2922 0329 00       		.byte	0
 2923 032a 00       		.byte	0
 2924 032b 37       		.uleb128 0x37
 2925 032c 2E       		.uleb128 0x2e
 2926 032d 01       		.byte	0x1
 2927 032e 3F       		.uleb128 0x3f
 2928 032f 0C       		.uleb128 0xc
 2929 0330 03       		.uleb128 0x3
 2930 0331 0E       		.uleb128 0xe
 2931 0332 3A       		.uleb128 0x3a
 2932 0333 0B       		.uleb128 0xb
 2933 0334 3B       		.uleb128 0x3b
 2934 0335 0B       		.uleb128 0xb
 2935 0336 27       		.uleb128 0x27
 2936 0337 0C       		.uleb128 0xc
 2937 0338 3C       		.uleb128 0x3c
 2938 0339 0C       		.uleb128 0xc
 2939 033a 00       		.byte	0
 2940 033b 00       		.byte	0
 2941 033c 00       		.byte	0
 2942              		.section	.debug_loc,"",%progbits
 2943              	.Ldebug_loc0:
 2944              	.LLST0:
 2945 0000 00000000 		.4byte	.LFB9
 2946 0004 02000000 		.4byte	.LCFI0
 2947 0008 0200     		.2byte	0x2
 2948 000a 7D       		.byte	0x7d
 2949 000b 00       		.sleb128 0
 2950 000c 02000000 		.4byte	.LCFI0
 2951 0010 28000000 		.4byte	.LFE9
 2952 0014 0200     		.2byte	0x2
 2953 0016 7D       		.byte	0x7d
ARM GAS  C:\Users\LAB_ME~1\AppData\Local\Temp\cc3uAqNG.s 			page 53


 2954 0017 10       		.sleb128 16
 2955 0018 00000000 		.4byte	0
 2956 001c 00000000 		.4byte	0
 2957              	.LLST1:
 2958 0020 00000000 		.4byte	.LVL1
 2959 0024 12000000 		.4byte	.LVL4
 2960 0028 0100     		.2byte	0x1
 2961 002a 50       		.byte	0x50
 2962 002b 12000000 		.4byte	.LVL4
 2963 002f 28000000 		.4byte	.LFE9
 2964 0033 0100     		.2byte	0x1
 2965 0035 54       		.byte	0x54
 2966 0036 00000000 		.4byte	0
 2967 003a 00000000 		.4byte	0
 2968              	.LLST2:
 2969 003e 00000000 		.4byte	.LVL1
 2970 0042 12000000 		.4byte	.LVL4
 2971 0046 0100     		.2byte	0x1
 2972 0048 51       		.byte	0x51
 2973 0049 12000000 		.4byte	.LVL4
 2974 004d 28000000 		.4byte	.LFE9
 2975 0051 0400     		.2byte	0x4
 2976 0053 F3       		.byte	0xf3
 2977 0054 01       		.uleb128 0x1
 2978 0055 51       		.byte	0x51
 2979 0056 9F       		.byte	0x9f
 2980 0057 00000000 		.4byte	0
 2981 005b 00000000 		.4byte	0
 2982              	.LLST3:
 2983 005f 04000000 		.4byte	.LVL2
 2984 0063 20000000 		.4byte	.LVL7
 2985 0067 0100     		.2byte	0x1
 2986 0069 55       		.byte	0x55
 2987 006a 20000000 		.4byte	.LVL7
 2988 006e 24000000 		.4byte	.LVL8
 2989 0072 0300     		.2byte	0x3
 2990 0074 75       		.byte	0x75
 2991 0075 7F       		.sleb128 -1
 2992 0076 9F       		.byte	0x9f
 2993 0077 24000000 		.4byte	.LVL8
 2994 007b 28000000 		.4byte	.LFE9
 2995 007f 0100     		.2byte	0x1
 2996 0081 55       		.byte	0x55
 2997 0082 00000000 		.4byte	0
 2998 0086 00000000 		.4byte	0
 2999              	.LLST4:
 3000 008a 12000000 		.4byte	.LVL4
 3001 008e 26000000 		.4byte	.LVL9
 3002 0092 0100     		.2byte	0x1
 3003 0094 54       		.byte	0x54
 3004 0095 00000000 		.4byte	0
 3005 0099 00000000 		.4byte	0
 3006              	.LLST5:
 3007 009d 14000000 		.4byte	.LVL5
 3008 00a1 1D000000 		.4byte	.LVL6-1
 3009 00a5 0100     		.2byte	0x1
 3010 00a7 50       		.byte	0x50
ARM GAS  C:\Users\LAB_ME~1\AppData\Local\Temp\cc3uAqNG.s 			page 54


 3011 00a8 00000000 		.4byte	0
 3012 00ac 00000000 		.4byte	0
 3013              	.LLST6:
 3014 00b0 00000000 		.4byte	.LFB8
 3015 00b4 02000000 		.4byte	.LCFI1
 3016 00b8 0200     		.2byte	0x2
 3017 00ba 7D       		.byte	0x7d
 3018 00bb 00       		.sleb128 0
 3019 00bc 02000000 		.4byte	.LCFI1
 3020 00c0 18000000 		.4byte	.LFE8
 3021 00c4 0200     		.2byte	0x2
 3022 00c6 7D       		.byte	0x7d
 3023 00c7 08       		.sleb128 8
 3024 00c8 00000000 		.4byte	0
 3025 00cc 00000000 		.4byte	0
 3026              	.LLST7:
 3027 00d0 00000000 		.4byte	.LVL10
 3028 00d4 0B000000 		.4byte	.LVL13-1
 3029 00d8 0100     		.2byte	0x1
 3030 00da 50       		.byte	0x50
 3031 00db 0B000000 		.4byte	.LVL13-1
 3032 00df 18000000 		.4byte	.LFE8
 3033 00e3 0400     		.2byte	0x4
 3034 00e5 F3       		.byte	0xf3
 3035 00e6 01       		.uleb128 0x1
 3036 00e7 50       		.byte	0x50
 3037 00e8 9F       		.byte	0x9f
 3038 00e9 00000000 		.4byte	0
 3039 00ed 00000000 		.4byte	0
 3040              	.LLST8:
 3041 00f1 00000000 		.4byte	.LVL10
 3042 00f5 0B000000 		.4byte	.LVL13-1
 3043 00f9 0100     		.2byte	0x1
 3044 00fb 51       		.byte	0x51
 3045 00fc 0B000000 		.4byte	.LVL13-1
 3046 0100 18000000 		.4byte	.LFE8
 3047 0104 0400     		.2byte	0x4
 3048 0106 F3       		.byte	0xf3
 3049 0107 01       		.uleb128 0x1
 3050 0108 51       		.byte	0x51
 3051 0109 9F       		.byte	0x9f
 3052 010a 00000000 		.4byte	0
 3053 010e 00000000 		.4byte	0
 3054              	.LLST9:
 3055 0112 08000000 		.4byte	.LVL12
 3056 0116 0B000000 		.4byte	.LVL13-1
 3057 011a 0100     		.2byte	0x1
 3058 011c 53       		.byte	0x53
 3059 011d 00000000 		.4byte	0
 3060 0121 00000000 		.4byte	0
 3061              	.LLST10:
 3062 0125 16000000 		.4byte	.LVL16
 3063 0129 18000000 		.4byte	.LFE8
 3064 012d 0100     		.2byte	0x1
 3065 012f 53       		.byte	0x53
 3066 0130 00000000 		.4byte	0
 3067 0134 00000000 		.4byte	0
ARM GAS  C:\Users\LAB_ME~1\AppData\Local\Temp\cc3uAqNG.s 			page 55


 3068              	.LLST11:
 3069 0138 00000000 		.4byte	.LFB11
 3070 013c 08000000 		.4byte	.LCFI2
 3071 0140 0200     		.2byte	0x2
 3072 0142 7D       		.byte	0x7d
 3073 0143 00       		.sleb128 0
 3074 0144 08000000 		.4byte	.LCFI2
 3075 0148 34000000 		.4byte	.LFE11
 3076 014c 0200     		.2byte	0x2
 3077 014e 7D       		.byte	0x7d
 3078 014f 08       		.sleb128 8
 3079 0150 00000000 		.4byte	0
 3080 0154 00000000 		.4byte	0
 3081              	.LLST12:
 3082 0158 00000000 		.4byte	.LVL17
 3083 015c 10000000 		.4byte	.LVL18
 3084 0160 0100     		.2byte	0x1
 3085 0162 50       		.byte	0x50
 3086 0163 10000000 		.4byte	.LVL18
 3087 0167 12000000 		.4byte	.LVL19
 3088 016b 0100     		.2byte	0x1
 3089 016d 53       		.byte	0x53
 3090 016e 12000000 		.4byte	.LVL19
 3091 0172 20000000 		.4byte	.LVL21
 3092 0176 0100     		.2byte	0x1
 3093 0178 50       		.byte	0x50
 3094 0179 20000000 		.4byte	.LVL21
 3095 017d 27000000 		.4byte	.LVL22-1
 3096 0181 0100     		.2byte	0x1
 3097 0183 53       		.byte	0x53
 3098 0184 27000000 		.4byte	.LVL22-1
 3099 0188 34000000 		.4byte	.LFE11
 3100 018c 0400     		.2byte	0x4
 3101 018e F3       		.byte	0xf3
 3102 018f 01       		.uleb128 0x1
 3103 0190 50       		.byte	0x50
 3104 0191 9F       		.byte	0x9f
 3105 0192 00000000 		.4byte	0
 3106 0196 00000000 		.4byte	0
 3107              	.LLST13:
 3108 019a 18000000 		.4byte	.LVL20
 3109 019e 27000000 		.4byte	.LVL22-1
 3110 01a2 0200     		.2byte	0x2
 3111 01a4 72       		.byte	0x72
 3112 01a5 24       		.sleb128 36
 3113 01a6 27000000 		.4byte	.LVL22-1
 3114 01aa 34000000 		.4byte	.LFE11
 3115 01ae 0400     		.2byte	0x4
 3116 01b0 F3       		.byte	0xf3
 3117 01b1 01       		.uleb128 0x1
 3118 01b2 50       		.byte	0x50
 3119 01b3 9F       		.byte	0x9f
 3120 01b4 00000000 		.4byte	0
 3121 01b8 00000000 		.4byte	0
 3122              	.LLST14:
 3123 01bc 18000000 		.4byte	.LVL20
 3124 01c0 27000000 		.4byte	.LVL22-1
ARM GAS  C:\Users\LAB_ME~1\AppData\Local\Temp\cc3uAqNG.s 			page 56


 3125 01c4 0100     		.2byte	0x1
 3126 01c6 52       		.byte	0x52
 3127 01c7 00000000 		.4byte	0
 3128 01cb 00000000 		.4byte	0
 3129              	.LLST15:
 3130 01cf 00000000 		.4byte	.LFB10
 3131 01d3 02000000 		.4byte	.LCFI3
 3132 01d7 0200     		.2byte	0x2
 3133 01d9 7D       		.byte	0x7d
 3134 01da 00       		.sleb128 0
 3135 01db 02000000 		.4byte	.LCFI3
 3136 01df 14000000 		.4byte	.LFE10
 3137 01e3 0200     		.2byte	0x2
 3138 01e5 7D       		.byte	0x7d
 3139 01e6 08       		.sleb128 8
 3140 01e7 00000000 		.4byte	0
 3141 01eb 00000000 		.4byte	0
 3142              	.LLST16:
 3143 01ef 00000000 		.4byte	.LVL23
 3144 01f3 0B000000 		.4byte	.LVL26-1
 3145 01f7 0100     		.2byte	0x1
 3146 01f9 50       		.byte	0x50
 3147 01fa 0B000000 		.4byte	.LVL26-1
 3148 01fe 14000000 		.4byte	.LFE10
 3149 0202 0400     		.2byte	0x4
 3150 0204 F3       		.byte	0xf3
 3151 0205 01       		.uleb128 0x1
 3152 0206 50       		.byte	0x50
 3153 0207 9F       		.byte	0x9f
 3154 0208 00000000 		.4byte	0
 3155 020c 00000000 		.4byte	0
 3156              	.LLST17:
 3157 0210 08000000 		.4byte	.LVL25
 3158 0214 0B000000 		.4byte	.LVL26-1
 3159 0218 0100     		.2byte	0x1
 3160 021a 53       		.byte	0x53
 3161 021b 00000000 		.4byte	0
 3162 021f 00000000 		.4byte	0
 3163              	.LLST18:
 3164 0223 12000000 		.4byte	.LVL28
 3165 0227 14000000 		.4byte	.LFE10
 3166 022b 0100     		.2byte	0x1
 3167 022d 53       		.byte	0x53
 3168 022e 00000000 		.4byte	0
 3169 0232 00000000 		.4byte	0
 3170              	.LLST19:
 3171 0236 00000000 		.4byte	.LFB13
 3172 023a 0A000000 		.4byte	.LCFI4
 3173 023e 0200     		.2byte	0x2
 3174 0240 7D       		.byte	0x7d
 3175 0241 00       		.sleb128 0
 3176 0242 0A000000 		.4byte	.LCFI4
 3177 0246 3C000000 		.4byte	.LFE13
 3178 024a 0200     		.2byte	0x2
 3179 024c 7D       		.byte	0x7d
 3180 024d 04       		.sleb128 4
 3181 024e 00000000 		.4byte	0
ARM GAS  C:\Users\LAB_ME~1\AppData\Local\Temp\cc3uAqNG.s 			page 57


 3182 0252 00000000 		.4byte	0
 3183              	.LLST20:
 3184 0256 00000000 		.4byte	.LVL29
 3185 025a 04000000 		.4byte	.LVL30
 3186 025e 0100     		.2byte	0x1
 3187 0260 50       		.byte	0x50
 3188 0261 04000000 		.4byte	.LVL30
 3189 0265 2F000000 		.4byte	.LVL32-1
 3190 0269 0100     		.2byte	0x1
 3191 026b 53       		.byte	0x53
 3192 026c 2F000000 		.4byte	.LVL32-1
 3193 0270 30000000 		.4byte	.LVL32
 3194 0274 0400     		.2byte	0x4
 3195 0276 F3       		.byte	0xf3
 3196 0277 01       		.uleb128 0x1
 3197 0278 50       		.byte	0x50
 3198 0279 9F       		.byte	0x9f
 3199 027a 30000000 		.4byte	.LVL32
 3200 027e 3C000000 		.4byte	.LFE13
 3201 0282 0100     		.2byte	0x1
 3202 0284 53       		.byte	0x53
 3203 0285 00000000 		.4byte	0
 3204 0289 00000000 		.4byte	0
 3205              	.LLST21:
 3206 028d 00000000 		.4byte	.LVL29
 3207 0291 2F000000 		.4byte	.LVL32-1
 3208 0295 0100     		.2byte	0x1
 3209 0297 51       		.byte	0x51
 3210 0298 2F000000 		.4byte	.LVL32-1
 3211 029c 30000000 		.4byte	.LVL32
 3212 02a0 0400     		.2byte	0x4
 3213 02a2 F3       		.byte	0xf3
 3214 02a3 01       		.uleb128 0x1
 3215 02a4 51       		.byte	0x51
 3216 02a5 9F       		.byte	0x9f
 3217 02a6 30000000 		.4byte	.LVL32
 3218 02aa 3C000000 		.4byte	.LFE13
 3219 02ae 0100     		.2byte	0x1
 3220 02b0 51       		.byte	0x51
 3221 02b1 00000000 		.4byte	0
 3222 02b5 00000000 		.4byte	0
 3223              	.LLST22:
 3224 02b9 1E000000 		.4byte	.LVL31
 3225 02bd 2F000000 		.4byte	.LVL32-1
 3226 02c1 0200     		.2byte	0x2
 3227 02c3 72       		.byte	0x72
 3228 02c4 24       		.sleb128 36
 3229 02c5 2F000000 		.4byte	.LVL32-1
 3230 02c9 30000000 		.4byte	.LVL32
 3231 02cd 0400     		.2byte	0x4
 3232 02cf F3       		.byte	0xf3
 3233 02d0 01       		.uleb128 0x1
 3234 02d1 50       		.byte	0x50
 3235 02d2 9F       		.byte	0x9f
 3236 02d3 00000000 		.4byte	0
 3237 02d7 00000000 		.4byte	0
 3238              	.LLST23:
ARM GAS  C:\Users\LAB_ME~1\AppData\Local\Temp\cc3uAqNG.s 			page 58


 3239 02db 1E000000 		.4byte	.LVL31
 3240 02df 2F000000 		.4byte	.LVL32-1
 3241 02e3 0100     		.2byte	0x1
 3242 02e5 52       		.byte	0x52
 3243 02e6 00000000 		.4byte	0
 3244 02ea 00000000 		.4byte	0
 3245              	.LLST24:
 3246 02ee 00000000 		.4byte	.LFB12
 3247 02f2 02000000 		.4byte	.LCFI5
 3248 02f6 0200     		.2byte	0x2
 3249 02f8 7D       		.byte	0x7d
 3250 02f9 00       		.sleb128 0
 3251 02fa 02000000 		.4byte	.LCFI5
 3252 02fe 14000000 		.4byte	.LFE12
 3253 0302 0200     		.2byte	0x2
 3254 0304 7D       		.byte	0x7d
 3255 0305 08       		.sleb128 8
 3256 0306 00000000 		.4byte	0
 3257 030a 00000000 		.4byte	0
 3258              	.LLST25:
 3259 030e 00000000 		.4byte	.LVL33
 3260 0312 0B000000 		.4byte	.LVL36-1
 3261 0316 0100     		.2byte	0x1
 3262 0318 50       		.byte	0x50
 3263 0319 0B000000 		.4byte	.LVL36-1
 3264 031d 14000000 		.4byte	.LFE12
 3265 0321 0400     		.2byte	0x4
 3266 0323 F3       		.byte	0xf3
 3267 0324 01       		.uleb128 0x1
 3268 0325 50       		.byte	0x50
 3269 0326 9F       		.byte	0x9f
 3270 0327 00000000 		.4byte	0
 3271 032b 00000000 		.4byte	0
 3272              	.LLST26:
 3273 032f 00000000 		.4byte	.LVL33
 3274 0333 0B000000 		.4byte	.LVL36-1
 3275 0337 0100     		.2byte	0x1
 3276 0339 51       		.byte	0x51
 3277 033a 0B000000 		.4byte	.LVL36-1
 3278 033e 14000000 		.4byte	.LFE12
 3279 0342 0400     		.2byte	0x4
 3280 0344 F3       		.byte	0xf3
 3281 0345 01       		.uleb128 0x1
 3282 0346 51       		.byte	0x51
 3283 0347 9F       		.byte	0x9f
 3284 0348 00000000 		.4byte	0
 3285 034c 00000000 		.4byte	0
 3286              	.LLST27:
 3287 0350 08000000 		.4byte	.LVL35
 3288 0354 0B000000 		.4byte	.LVL36-1
 3289 0358 0100     		.2byte	0x1
 3290 035a 53       		.byte	0x53
 3291 035b 00000000 		.4byte	0
 3292 035f 00000000 		.4byte	0
 3293              	.LLST28:
 3294 0363 12000000 		.4byte	.LVL38
 3295 0367 14000000 		.4byte	.LFE12
ARM GAS  C:\Users\LAB_ME~1\AppData\Local\Temp\cc3uAqNG.s 			page 59


 3296 036b 0100     		.2byte	0x1
 3297 036d 53       		.byte	0x53
 3298 036e 00000000 		.4byte	0
 3299 0372 00000000 		.4byte	0
 3300              	.LLST29:
 3301 0376 00000000 		.4byte	.LFB14
 3302 037a 02000000 		.4byte	.LCFI6
 3303 037e 0200     		.2byte	0x2
 3304 0380 7D       		.byte	0x7d
 3305 0381 00       		.sleb128 0
 3306 0382 02000000 		.4byte	.LCFI6
 3307 0386 2C000000 		.4byte	.LFE14
 3308 038a 0200     		.2byte	0x2
 3309 038c 7D       		.byte	0x7d
 3310 038d 08       		.sleb128 8
 3311 038e 00000000 		.4byte	0
 3312 0392 00000000 		.4byte	0
 3313              	.LLST30:
 3314 0396 00000000 		.4byte	.LVL39
 3315 039a 14000000 		.4byte	.LVL43
 3316 039e 0100     		.2byte	0x1
 3317 03a0 50       		.byte	0x50
 3318 03a1 14000000 		.4byte	.LVL43
 3319 03a5 1C000000 		.4byte	.LVL46
 3320 03a9 0400     		.2byte	0x4
 3321 03ab F3       		.byte	0xf3
 3322 03ac 01       		.uleb128 0x1
 3323 03ad 50       		.byte	0x50
 3324 03ae 9F       		.byte	0x9f
 3325 03af 1C000000 		.4byte	.LVL46
 3326 03b3 1E000000 		.4byte	.LVL47
 3327 03b7 0100     		.2byte	0x1
 3328 03b9 50       		.byte	0x50
 3329 03ba 1E000000 		.4byte	.LVL47
 3330 03be 29000000 		.4byte	.LVL48-1
 3331 03c2 0100     		.2byte	0x1
 3332 03c4 52       		.byte	0x52
 3333 03c5 29000000 		.4byte	.LVL48-1
 3334 03c9 2C000000 		.4byte	.LFE14
 3335 03cd 0400     		.2byte	0x4
 3336 03cf F3       		.byte	0xf3
 3337 03d0 01       		.uleb128 0x1
 3338 03d1 50       		.byte	0x50
 3339 03d2 9F       		.byte	0x9f
 3340 03d3 00000000 		.4byte	0
 3341 03d7 00000000 		.4byte	0
 3342              	.LLST31:
 3343 03db 0A000000 		.4byte	.LVL41
 3344 03df 0C000000 		.4byte	.LVL42
 3345 03e3 0100     		.2byte	0x1
 3346 03e5 53       		.byte	0x53
 3347 03e6 00000000 		.4byte	0
 3348 03ea 00000000 		.4byte	0
 3349              	.LLST32:
 3350 03ee 1A000000 		.4byte	.LVL45
 3351 03f2 1C000000 		.4byte	.LVL46
 3352 03f6 0100     		.2byte	0x1
ARM GAS  C:\Users\LAB_ME~1\AppData\Local\Temp\cc3uAqNG.s 			page 60


 3353 03f8 53       		.byte	0x53
 3354 03f9 00000000 		.4byte	0
 3355 03fd 00000000 		.4byte	0
 3356              	.LLST33:
 3357 0401 1C000000 		.4byte	.LVL46
 3358 0405 1E000000 		.4byte	.LVL47
 3359 0409 0100     		.2byte	0x1
 3360 040b 50       		.byte	0x50
 3361 040c 1E000000 		.4byte	.LVL47
 3362 0410 29000000 		.4byte	.LVL48-1
 3363 0414 0100     		.2byte	0x1
 3364 0416 52       		.byte	0x52
 3365 0417 29000000 		.4byte	.LVL48-1
 3366 041b 2C000000 		.4byte	.LFE14
 3367 041f 0400     		.2byte	0x4
 3368 0421 F3       		.byte	0xf3
 3369 0422 01       		.uleb128 0x1
 3370 0423 50       		.byte	0x50
 3371 0424 9F       		.byte	0x9f
 3372 0425 00000000 		.4byte	0
 3373 0429 00000000 		.4byte	0
 3374              	.LLST34:
 3375 042d 1E000000 		.4byte	.LVL47
 3376 0431 29000000 		.4byte	.LVL48-1
 3377 0435 0100     		.2byte	0x1
 3378 0437 50       		.byte	0x50
 3379 0438 00000000 		.4byte	0
 3380 043c 00000000 		.4byte	0
 3381              	.LLST35:
 3382 0440 00000000 		.4byte	.LVL49
 3383 0444 18000000 		.4byte	.LVL52
 3384 0448 0100     		.2byte	0x1
 3385 044a 50       		.byte	0x50
 3386 044b 18000000 		.4byte	.LVL52
 3387 044f 1A000000 		.4byte	.LVL53
 3388 0453 0100     		.2byte	0x1
 3389 0455 53       		.byte	0x53
 3390 0456 1A000000 		.4byte	.LVL53
 3391 045a 1F000000 		.4byte	.LVL54-1
 3392 045e 0200     		.2byte	0x2
 3393 0460 71       		.byte	0x71
 3394 0461 04       		.sleb128 4
 3395 0462 1F000000 		.4byte	.LVL54-1
 3396 0466 20000000 		.4byte	.LFE15
 3397 046a 0400     		.2byte	0x4
 3398 046c F3       		.byte	0xf3
 3399 046d 01       		.uleb128 0x1
 3400 046e 50       		.byte	0x50
 3401 046f 9F       		.byte	0x9f
 3402 0470 00000000 		.4byte	0
 3403 0474 00000000 		.4byte	0
 3404              	.LLST36:
 3405 0478 0E000000 		.4byte	.LVL50
 3406 047c 18000000 		.4byte	.LVL52
 3407 0480 0100     		.2byte	0x1
 3408 0482 50       		.byte	0x50
 3409 0483 18000000 		.4byte	.LVL52
ARM GAS  C:\Users\LAB_ME~1\AppData\Local\Temp\cc3uAqNG.s 			page 61


 3410 0487 1A000000 		.4byte	.LVL53
 3411 048b 0100     		.2byte	0x1
 3412 048d 53       		.byte	0x53
 3413 048e 1A000000 		.4byte	.LVL53
 3414 0492 1F000000 		.4byte	.LVL54-1
 3415 0496 0200     		.2byte	0x2
 3416 0498 71       		.byte	0x71
 3417 0499 04       		.sleb128 4
 3418 049a 1F000000 		.4byte	.LVL54-1
 3419 049e 20000000 		.4byte	.LFE15
 3420 04a2 0400     		.2byte	0x4
 3421 04a4 F3       		.byte	0xf3
 3422 04a5 01       		.uleb128 0x1
 3423 04a6 50       		.byte	0x50
 3424 04a7 9F       		.byte	0x9f
 3425 04a8 00000000 		.4byte	0
 3426 04ac 00000000 		.4byte	0
 3427              	.LLST37:
 3428 04b0 10000000 		.4byte	.LVL51
 3429 04b4 1F000000 		.4byte	.LVL54-1
 3430 04b8 0100     		.2byte	0x1
 3431 04ba 52       		.byte	0x52
 3432 04bb 00000000 		.4byte	0
 3433 04bf 00000000 		.4byte	0
 3434              	.LLST38:
 3435 04c3 00000000 		.4byte	.LFB16
 3436 04c7 02000000 		.4byte	.LCFI7
 3437 04cb 0200     		.2byte	0x2
 3438 04cd 7D       		.byte	0x7d
 3439 04ce 00       		.sleb128 0
 3440 04cf 02000000 		.4byte	.LCFI7
 3441 04d3 2E000000 		.4byte	.LFE16
 3442 04d7 0200     		.2byte	0x2
 3443 04d9 7D       		.byte	0x7d
 3444 04da 10       		.sleb128 16
 3445 04db 00000000 		.4byte	0
 3446 04df 00000000 		.4byte	0
 3447              	.LLST39:
 3448 04e3 00000000 		.4byte	.LVL55
 3449 04e7 0C000000 		.4byte	.LVL56
 3450 04eb 0100     		.2byte	0x1
 3451 04ed 50       		.byte	0x50
 3452 04ee 0C000000 		.4byte	.LVL56
 3453 04f2 2E000000 		.4byte	.LFE16
 3454 04f6 0100     		.2byte	0x1
 3455 04f8 55       		.byte	0x55
 3456 04f9 00000000 		.4byte	0
 3457 04fd 00000000 		.4byte	0
 3458              	.LLST40:
 3459 0501 00000000 		.4byte	.LVL55
 3460 0505 0C000000 		.4byte	.LVL56
 3461 0509 0100     		.2byte	0x1
 3462 050b 51       		.byte	0x51
 3463 050c 0C000000 		.4byte	.LVL56
 3464 0510 0E000000 		.4byte	.LVL57
 3465 0514 0300     		.2byte	0x3
 3466 0516 74       		.byte	0x74
ARM GAS  C:\Users\LAB_ME~1\AppData\Local\Temp\cc3uAqNG.s 			page 62


 3467 0517 7F       		.sleb128 -1
 3468 0518 9F       		.byte	0x9f
 3469 0519 0E000000 		.4byte	.LVL57
 3470 051d 10000000 		.4byte	.LVL58
 3471 0521 0100     		.2byte	0x1
 3472 0523 54       		.byte	0x54
 3473 0524 00000000 		.4byte	0
 3474 0528 00000000 		.4byte	0
 3475              	.LLST41:
 3476 052c 1A000000 		.4byte	.LVL59
 3477 0530 2C000000 		.4byte	.LVL62
 3478 0534 0100     		.2byte	0x1
 3479 0536 55       		.byte	0x55
 3480 0537 00000000 		.4byte	0
 3481 053b 00000000 		.4byte	0
 3482              	.LLST42:
 3483 053f 1C000000 		.4byte	.LVL60
 3484 0543 25000000 		.4byte	.LVL61-1
 3485 0547 0100     		.2byte	0x1
 3486 0549 50       		.byte	0x50
 3487 054a 00000000 		.4byte	0
 3488 054e 00000000 		.4byte	0
 3489              	.LLST43:
 3490 0552 00000000 		.4byte	.LFB17
 3491 0556 02000000 		.4byte	.LCFI8
 3492 055a 0200     		.2byte	0x2
 3493 055c 7D       		.byte	0x7d
 3494 055d 00       		.sleb128 0
 3495 055e 02000000 		.4byte	.LCFI8
 3496 0562 06000000 		.4byte	.LCFI9
 3497 0566 0200     		.2byte	0x2
 3498 0568 7D       		.byte	0x7d
 3499 0569 08       		.sleb128 8
 3500 056a 06000000 		.4byte	.LCFI9
 3501 056e 64000000 		.4byte	.LFE17
 3502 0572 0200     		.2byte	0x2
 3503 0574 7D       		.byte	0x7d
 3504 0575 10       		.sleb128 16
 3505 0576 00000000 		.4byte	0
 3506 057a 00000000 		.4byte	0
 3507              	.LLST44:
 3508 057e 00000000 		.4byte	.LVL63
 3509 0582 16000000 		.4byte	.LVL67
 3510 0586 0100     		.2byte	0x1
 3511 0588 50       		.byte	0x50
 3512 0589 16000000 		.4byte	.LVL67
 3513 058d 4A000000 		.4byte	.LVL76
 3514 0591 0400     		.2byte	0x4
 3515 0593 F3       		.byte	0xf3
 3516 0594 01       		.uleb128 0x1
 3517 0595 50       		.byte	0x50
 3518 0596 9F       		.byte	0x9f
 3519 0597 4A000000 		.4byte	.LVL76
 3520 059b 4C000000 		.4byte	.LVL77
 3521 059f 0100     		.2byte	0x1
 3522 05a1 50       		.byte	0x50
 3523 05a2 4C000000 		.4byte	.LVL77
ARM GAS  C:\Users\LAB_ME~1\AppData\Local\Temp\cc3uAqNG.s 			page 63


 3524 05a6 57000000 		.4byte	.LVL78-1
 3525 05aa 0100     		.2byte	0x1
 3526 05ac 52       		.byte	0x52
 3527 05ad 57000000 		.4byte	.LVL78-1
 3528 05b1 64000000 		.4byte	.LFE17
 3529 05b5 0400     		.2byte	0x4
 3530 05b7 F3       		.byte	0xf3
 3531 05b8 01       		.uleb128 0x1
 3532 05b9 50       		.byte	0x50
 3533 05ba 9F       		.byte	0x9f
 3534 05bb 00000000 		.4byte	0
 3535 05bf 00000000 		.4byte	0
 3536              	.LLST45:
 3537 05c3 00000000 		.4byte	.LVL63
 3538 05c7 16000000 		.4byte	.LVL67
 3539 05cb 0100     		.2byte	0x1
 3540 05cd 51       		.byte	0x51
 3541 05ce 16000000 		.4byte	.LVL67
 3542 05d2 4A000000 		.4byte	.LVL76
 3543 05d6 0400     		.2byte	0x4
 3544 05d8 F3       		.byte	0xf3
 3545 05d9 01       		.uleb128 0x1
 3546 05da 51       		.byte	0x51
 3547 05db 9F       		.byte	0x9f
 3548 05dc 4A000000 		.4byte	.LVL76
 3549 05e0 57000000 		.4byte	.LVL78-1
 3550 05e4 0100     		.2byte	0x1
 3551 05e6 51       		.byte	0x51
 3552 05e7 57000000 		.4byte	.LVL78-1
 3553 05eb 64000000 		.4byte	.LFE17
 3554 05ef 0400     		.2byte	0x4
 3555 05f1 F3       		.byte	0xf3
 3556 05f2 01       		.uleb128 0x1
 3557 05f3 51       		.byte	0x51
 3558 05f4 9F       		.byte	0x9f
 3559 05f5 00000000 		.4byte	0
 3560 05f9 00000000 		.4byte	0
 3561              	.LLST46:
 3562 05fd 24000000 		.4byte	.LVL68
 3563 0601 26000000 		.4byte	.LVL69
 3564 0605 0200     		.2byte	0x2
 3565 0607 30       		.byte	0x30
 3566 0608 9F       		.byte	0x9f
 3567 0609 26000000 		.4byte	.LVL69
 3568 060d 30000000 		.4byte	.LVL72
 3569 0611 0100     		.2byte	0x1
 3570 0613 50       		.byte	0x50
 3571 0614 48000000 		.4byte	.LVL75
 3572 0618 4A000000 		.4byte	.LVL76
 3573 061c 0100     		.2byte	0x1
 3574 061e 50       		.byte	0x50
 3575 061f 00000000 		.4byte	0
 3576 0623 00000000 		.4byte	0
 3577              	.LLST47:
 3578 0627 0C000000 		.4byte	.LVL65
 3579 062b 0E000000 		.4byte	.LVL66
 3580 062f 0100     		.2byte	0x1
ARM GAS  C:\Users\LAB_ME~1\AppData\Local\Temp\cc3uAqNG.s 			page 64


 3581 0631 53       		.byte	0x53
 3582 0632 00000000 		.4byte	0
 3583 0636 00000000 		.4byte	0
 3584              	.LLST48:
 3585 063a 2C000000 		.4byte	.LVL71
 3586 063e 30000000 		.4byte	.LVL72
 3587 0642 0100     		.2byte	0x1
 3588 0644 53       		.byte	0x53
 3589 0645 00000000 		.4byte	0
 3590 0649 00000000 		.4byte	0
 3591              	.LLST49:
 3592 064d 36000000 		.4byte	.LVL73
 3593 0651 4A000000 		.4byte	.LVL76
 3594 0655 0100     		.2byte	0x1
 3595 0657 54       		.byte	0x54
 3596 0658 00000000 		.4byte	0
 3597 065c 00000000 		.4byte	0
 3598              	.LLST50:
 3599 0660 36000000 		.4byte	.LVL73
 3600 0664 45000000 		.4byte	.LVL74-1
 3601 0668 0100     		.2byte	0x1
 3602 066a 51       		.byte	0x51
 3603 066b 00000000 		.4byte	0
 3604 066f 00000000 		.4byte	0
 3605              	.LLST52:
 3606 0673 4A000000 		.4byte	.LVL76
 3607 0677 4C000000 		.4byte	.LVL77
 3608 067b 0100     		.2byte	0x1
 3609 067d 50       		.byte	0x50
 3610 067e 4C000000 		.4byte	.LVL77
 3611 0682 57000000 		.4byte	.LVL78-1
 3612 0686 0100     		.2byte	0x1
 3613 0688 52       		.byte	0x52
 3614 0689 57000000 		.4byte	.LVL78-1
 3615 068d 64000000 		.4byte	.LFE17
 3616 0691 0400     		.2byte	0x4
 3617 0693 F3       		.byte	0xf3
 3618 0694 01       		.uleb128 0x1
 3619 0695 50       		.byte	0x50
 3620 0696 9F       		.byte	0x9f
 3621 0697 00000000 		.4byte	0
 3622 069b 00000000 		.4byte	0
 3623              	.LLST53:
 3624 069f 4C000000 		.4byte	.LVL77
 3625 06a3 57000000 		.4byte	.LVL78-1
 3626 06a7 0100     		.2byte	0x1
 3627 06a9 50       		.byte	0x50
 3628 06aa 00000000 		.4byte	0
 3629 06ae 00000000 		.4byte	0
 3630              		.section	.debug_aranges,"",%progbits
 3631 0000 6C000000 		.4byte	0x6c
 3632 0004 0200     		.2byte	0x2
 3633 0006 00000000 		.4byte	.Ldebug_info0
 3634 000a 04       		.byte	0x4
 3635 000b 00       		.byte	0
 3636 000c 0000     		.2byte	0
 3637 000e 0000     		.2byte	0
ARM GAS  C:\Users\LAB_ME~1\AppData\Local\Temp\cc3uAqNG.s 			page 65


 3638 0010 00000000 		.4byte	.LFB7
 3639 0014 08000000 		.4byte	.LFE7-.LFB7
 3640 0018 00000000 		.4byte	.LFB9
 3641 001c 28000000 		.4byte	.LFE9-.LFB9
 3642 0020 00000000 		.4byte	.LFB8
 3643 0024 18000000 		.4byte	.LFE8-.LFB8
 3644 0028 00000000 		.4byte	.LFB11
 3645 002c 34000000 		.4byte	.LFE11-.LFB11
 3646 0030 00000000 		.4byte	.LFB10
 3647 0034 14000000 		.4byte	.LFE10-.LFB10
 3648 0038 00000000 		.4byte	.LFB13
 3649 003c 3C000000 		.4byte	.LFE13-.LFB13
 3650 0040 00000000 		.4byte	.LFB12
 3651 0044 14000000 		.4byte	.LFE12-.LFB12
 3652 0048 00000000 		.4byte	.LFB14
 3653 004c 2C000000 		.4byte	.LFE14-.LFB14
 3654 0050 00000000 		.4byte	.LFB15
 3655 0054 20000000 		.4byte	.LFE15-.LFB15
 3656 0058 00000000 		.4byte	.LFB16
 3657 005c 2E000000 		.4byte	.LFE16-.LFB16
 3658 0060 00000000 		.4byte	.LFB17
 3659 0064 64000000 		.4byte	.LFE17-.LFB17
 3660 0068 00000000 		.4byte	0
 3661 006c 00000000 		.4byte	0
 3662              		.section	.debug_ranges,"",%progbits
 3663              	.Ldebug_ranges0:
 3664 0000 18000000 		.4byte	.LBB28
 3665 0004 1E000000 		.4byte	.LBE28
 3666 0008 20000000 		.4byte	.LBB31
 3667 000c 24000000 		.4byte	.LBE31
 3668 0010 00000000 		.4byte	0
 3669 0014 00000000 		.4byte	0
 3670 0018 1E000000 		.4byte	.LBB34
 3671 001c 20000000 		.4byte	.LBE34
 3672 0020 22000000 		.4byte	.LBB37
 3673 0024 2A000000 		.4byte	.LBE37
 3674 0028 00000000 		.4byte	0
 3675 002c 00000000 		.4byte	0
 3676 0030 1C000000 		.4byte	.LBB42
 3677 0034 20000000 		.4byte	.LBE42
 3678 0038 22000000 		.4byte	.LBB45
 3679 003c 26000000 		.4byte	.LBE45
 3680 0040 00000000 		.4byte	0
 3681 0044 00000000 		.4byte	0
 3682 0048 1C000000 		.4byte	.LBB43
 3683 004c 20000000 		.4byte	.LBE43
 3684 0050 22000000 		.4byte	.LBB44
 3685 0054 26000000 		.4byte	.LBE44
 3686 0058 00000000 		.4byte	0
 3687 005c 00000000 		.4byte	0
 3688 0060 0E000000 		.4byte	.LBB46
 3689 0064 1C000000 		.4byte	.LBE46
 3690 0068 1C000000 		.4byte	.LBB49
 3691 006c 20000000 		.4byte	.LBE49
 3692 0070 00000000 		.4byte	0
 3693 0074 00000000 		.4byte	0
 3694 0078 32000000 		.4byte	.LBB55
ARM GAS  C:\Users\LAB_ME~1\AppData\Local\Temp\cc3uAqNG.s 			page 66


 3695 007c 34000000 		.4byte	.LBE55
 3696 0080 38000000 		.4byte	.LBB58
 3697 0084 40000000 		.4byte	.LBE58
 3698 0088 00000000 		.4byte	0
 3699 008c 00000000 		.4byte	0
 3700 0090 00000000 		.4byte	.LFB7
 3701 0094 08000000 		.4byte	.LFE7
 3702 0098 00000000 		.4byte	.LFB9
 3703 009c 28000000 		.4byte	.LFE9
 3704 00a0 00000000 		.4byte	.LFB8
 3705 00a4 18000000 		.4byte	.LFE8
 3706 00a8 00000000 		.4byte	.LFB11
 3707 00ac 34000000 		.4byte	.LFE11
 3708 00b0 00000000 		.4byte	.LFB10
 3709 00b4 14000000 		.4byte	.LFE10
 3710 00b8 00000000 		.4byte	.LFB13
 3711 00bc 3C000000 		.4byte	.LFE13
 3712 00c0 00000000 		.4byte	.LFB12
 3713 00c4 14000000 		.4byte	.LFE12
 3714 00c8 00000000 		.4byte	.LFB14
 3715 00cc 2C000000 		.4byte	.LFE14
 3716 00d0 00000000 		.4byte	.LFB15
 3717 00d4 20000000 		.4byte	.LFE15
 3718 00d8 00000000 		.4byte	.LFB16
 3719 00dc 2E000000 		.4byte	.LFE16
 3720 00e0 00000000 		.4byte	.LFB17
 3721 00e4 64000000 		.4byte	.LFE17
 3722 00e8 00000000 		.4byte	0
 3723 00ec 00000000 		.4byte	0
 3724              		.section	.debug_line,"",%progbits
 3725              	.Ldebug_line0:
 3726 0000 21030000 		.section	.debug_str,"MS",%progbits,1
 3726      02006701 
 3726      00000201 
 3726      FB0E0D00 
 3726      01010101 
 3727              	.LASF36:
 3728 0000 705F6D73 		.ascii	"p_msg\000"
 3728      6700
 3729              	.LASF85:
 3730 0006 71756575 		.ascii	"queue_insert\000"
 3730      655F696E 
 3730      73657274 
 3730      00
 3731              	.LASF77:
 3732 0013 63685365 		.ascii	"chSemSignalI\000"
 3732      6D536967 
 3732      6E616C49 
 3732      00
 3733              	.LASF61:
 3734 0020 7264796D 		.ascii	"rdymsg\000"
 3734      736700
 3735              	.LASF11:
 3736 0027 6C6F6E67 		.ascii	"long long unsigned int\000"
 3736      206C6F6E 
 3736      6720756E 
 3736      7369676E 
ARM GAS  C:\Users\LAB_ME~1\AppData\Local\Temp\cc3uAqNG.s 			page 67


 3736      65642069 
 3737              	.LASF62:
 3738 003e 65786974 		.ascii	"exitcode\000"
 3738      636F6465 
 3738      00
 3739              	.LASF78:
 3740 0047 63685365 		.ascii	"chSemAddCounterI\000"
 3740      6D416464 
 3740      436F756E 
 3740      74657249 
 3740      00
 3741              	.LASF24:
 3742 0058 705F7072 		.ascii	"p_prio\000"
 3742      696F00
 3743              	.LASF10:
 3744 005f 6C6F6E67 		.ascii	"long long int\000"
 3744      206C6F6E 
 3744      6720696E 
 3744      7400
 3745              	.LASF1:
 3746 006d 7369676E 		.ascii	"signed char\000"
 3746      65642063 
 3746      68617200 
 3747              	.LASF79:
 3748 0079 63685365 		.ascii	"chSemSignalWait\000"
 3748      6D536967 
 3748      6E616C57 
 3748      61697400 
 3749              	.LASF40:
 3750 0089 705F6D70 		.ascii	"p_mpool\000"
 3750      6F6F6C00 
 3751              	.LASF58:
 3752 0091 6D5F7175 		.ascii	"m_queue\000"
 3752      65756500 
 3753              	.LASF15:
 3754 0099 74736C69 		.ascii	"tslices_t\000"
 3754      6365735F 
 3754      7400
 3755              	.LASF83:
 3756 00a3 2E2E2F2E 		.ascii	"../../os/kernel/src/chsem.c\000"
 3756      2E2F6F73 
 3756      2F6B6572 
 3756      6E656C2F 
 3756      7372632F 
 3757              	.LASF7:
 3758 00bf 6C6F6E67 		.ascii	"long int\000"
 3758      20696E74 
 3758      00
 3759              	.LASF13:
 3760 00c8 74737461 		.ascii	"tstate_t\000"
 3760      74655F74 
 3760      00
 3761              	.LASF76:
 3762 00d1 63685365 		.ascii	"chSemSignal\000"
 3762      6D536967 
 3762      6E616C00 
 3763              	.LASF26:
ARM GAS  C:\Users\LAB_ME~1\AppData\Local\Temp\cc3uAqNG.s 			page 68


 3764 00dd 705F6E65 		.ascii	"p_newer\000"
 3764      77657200 
 3765              	.LASF55:
 3766 00e5 735F7175 		.ascii	"s_queue\000"
 3766      65756500 
 3767              	.LASF87:
 3768 00ed 63685363 		.ascii	"chSchRescheduleS\000"
 3768      68526573 
 3768      63686564 
 3768      756C6553 
 3768      00
 3769              	.LASF50:
 3770 00fe 725F6E65 		.ascii	"r_newer\000"
 3770      77657200 
 3771              	.LASF43:
 3772 0106 72656761 		.ascii	"regarm_t\000"
 3772      726D5F74 
 3772      00
 3773              	.LASF20:
 3774 010f 636E745F 		.ascii	"cnt_t\000"
 3774      7400
 3775              	.LASF0:
 3776 0115 756E7369 		.ascii	"unsigned int\000"
 3776      676E6564 
 3776      20696E74 
 3776      00
 3777              	.LASF75:
 3778 0122 63685365 		.ascii	"chSemWaitTimeout\000"
 3778      6D576169 
 3778      7454696D 
 3778      656F7574 
 3778      00
 3779              	.LASF9:
 3780 0133 6C6F6E67 		.ascii	"long unsigned int\000"
 3780      20756E73 
 3780      69676E65 
 3780      6420696E 
 3780      7400
 3781              	.LASF56:
 3782 0145 735F636E 		.ascii	"s_cnt\000"
 3782      7400
 3783              	.LASF45:
 3784 014b 636F6E74 		.ascii	"context\000"
 3784      65787400 
 3785              	.LASF4:
 3786 0153 73686F72 		.ascii	"short unsigned int\000"
 3786      7420756E 
 3786      7369676E 
 3786      65642069 
 3786      6E7400
 3787              	.LASF70:
 3788 0166 63685365 		.ascii	"chSemReset\000"
 3788      6D526573 
 3788      657400
 3789              	.LASF17:
 3790 0171 6D73675F 		.ascii	"msg_t\000"
 3790      7400
ARM GAS  C:\Users\LAB_ME~1\AppData\Local\Temp\cc3uAqNG.s 			page 69


 3791              	.LASF12:
 3792 0177 746D6F64 		.ascii	"tmode_t\000"
 3792      655F7400 
 3793              	.LASF42:
 3794 017f 54687265 		.ascii	"ThreadsList\000"
 3794      6164734C 
 3794      69737400 
 3795              	.LASF18:
 3796 018b 6576656E 		.ascii	"eventmask_t\000"
 3796      746D6173 
 3796      6B5F7400 
 3797              	.LASF57:
 3798 0197 4D757465 		.ascii	"Mutex\000"
 3798      7800
 3799              	.LASF46:
 3800 019d 73697A65 		.ascii	"sizetype\000"
 3800      74797065 
 3800      00
 3801              	.LASF27:
 3802 01a6 705F6F6C 		.ascii	"p_older\000"
 3802      64657200 
 3803              	.LASF49:
 3804 01ae 725F6374 		.ascii	"r_ctx\000"
 3804      7800
 3805              	.LASF41:
 3806 01b4 54687265 		.ascii	"ThreadsQueue\000"
 3806      61647351 
 3806      75657565 
 3806      00
 3807              	.LASF74:
 3808 01c1 74696D65 		.ascii	"time\000"
 3808      00
 3809              	.LASF82:
 3810 01c6 474E5520 		.ascii	"GNU C 4.7.2\000"
 3810      4320342E 
 3810      372E3200 
 3811              	.LASF52:
 3812 01d2 725F6375 		.ascii	"r_current\000"
 3812      7272656E 
 3812      7400
 3813              	.LASF51:
 3814 01dc 725F6F6C 		.ascii	"r_older\000"
 3814      64657200 
 3815              	.LASF14:
 3816 01e4 74726566 		.ascii	"trefs_t\000"
 3816      735F7400 
 3817              	.LASF23:
 3818 01ec 705F7072 		.ascii	"p_prev\000"
 3818      657600
 3819              	.LASF16:
 3820 01f3 74707269 		.ascii	"tprio_t\000"
 3820      6F5F7400 
 3821              	.LASF6:
 3822 01fb 696E7433 		.ascii	"int32_t\000"
 3822      325F7400 
 3823              	.LASF2:
 3824 0203 756E7369 		.ascii	"unsigned char\000"
ARM GAS  C:\Users\LAB_ME~1\AppData\Local\Temp\cc3uAqNG.s 			page 70


 3824      676E6564 
 3824      20636861 
 3824      7200
 3825              	.LASF38:
 3826 0211 705F6D74 		.ascii	"p_mtxlist\000"
 3826      786C6973 
 3826      7400
 3827              	.LASF3:
 3828 021b 73686F72 		.ascii	"short int\000"
 3828      7420696E 
 3828      7400
 3829              	.LASF29:
 3830 0225 705F7374 		.ascii	"p_state\000"
 3830      61746500 
 3831              	.LASF32:
 3832 022d 705F7072 		.ascii	"p_preempt\000"
 3832      65656D70 
 3832      7400
 3833              	.LASF48:
 3834 0237 725F7072 		.ascii	"r_prio\000"
 3834      696F00
 3835              	.LASF64:
 3836 023e 65776D61 		.ascii	"ewmask\000"
 3836      736B00
 3837              	.LASF22:
 3838 0245 705F6E65 		.ascii	"p_next\000"
 3838      787400
 3839              	.LASF30:
 3840 024c 705F666C 		.ascii	"p_flags\000"
 3840      61677300 
 3841              	.LASF71:
 3842 0254 63685365 		.ascii	"chSemWaitS\000"
 3842      6D576169 
 3842      745300
 3843              	.LASF21:
 3844 025f 54687265 		.ascii	"Thread\000"
 3844      616400
 3845              	.LASF88:
 3846 0266 63685363 		.ascii	"chSchGoSleepS\000"
 3846      68476F53 
 3846      6C656570 
 3846      5300
 3847              	.LASF37:
 3848 0274 705F6570 		.ascii	"p_epending\000"
 3848      656E6469 
 3848      6E6700
 3849              	.LASF8:
 3850 027f 75696E74 		.ascii	"uint32_t\000"
 3850      33325F74 
 3850      00
 3851              	.LASF47:
 3852 0288 725F7175 		.ascii	"r_queue\000"
 3852      65756500 
 3853              	.LASF80:
 3854 0290 63685363 		.ascii	"chSchReadyI\000"
 3854      68526561 
 3854      64794900 
ARM GAS  C:\Users\LAB_ME~1\AppData\Local\Temp\cc3uAqNG.s 			page 71


 3855              	.LASF65:
 3856 029c 63686172 		.ascii	"char\000"
 3856      00
 3857              	.LASF67:
 3858 02a1 6669666F 		.ascii	"fifo_remove\000"
 3858      5F72656D 
 3858      6F766500 
 3859              	.LASF73:
 3860 02ad 63685365 		.ascii	"chSemWaitTimeoutS\000"
 3860      6D576169 
 3860      7454696D 
 3860      656F7574 
 3860      5300
 3861              	.LASF60:
 3862 02bf 6D5F6E65 		.ascii	"m_next\000"
 3862      787400
 3863              	.LASF19:
 3864 02c6 73797374 		.ascii	"systime_t\000"
 3864      696D655F 
 3864      7400
 3865              	.LASF39:
 3866 02d0 705F7265 		.ascii	"p_realprio\000"
 3866      616C7072 
 3866      696F00
 3867              	.LASF72:
 3868 02db 63685365 		.ascii	"chSemWait\000"
 3868      6D576169 
 3868      7400
 3869              	.LASF33:
 3870 02e5 705F7469 		.ascii	"p_time\000"
 3870      6D6500
 3871              	.LASF66:
 3872 02ec 6C69666F 		.ascii	"lifo_remove\000"
 3872      5F72656D 
 3872      6F766500 
 3873              	.LASF44:
 3874 02f8 696E7463 		.ascii	"intctx\000"
 3874      747800
 3875              	.LASF35:
 3876 02ff 705F6D73 		.ascii	"p_msgqueue\000"
 3876      67717565 
 3876      756500
 3877              	.LASF89:
 3878 030a 63685363 		.ascii	"chSchWakeupS\000"
 3878      6857616B 
 3878      65757053 
 3878      00
 3879              	.LASF54:
 3880 0317 53656D61 		.ascii	"Semaphore\000"
 3880      70686F72 
 3880      6500
 3881              	.LASF31:
 3882 0321 705F7265 		.ascii	"p_refs\000"
 3882      667300
 3883              	.LASF53:
 3884 0328 52656164 		.ascii	"ReadyList\000"
 3884      794C6973 
ARM GAS  C:\Users\LAB_ME~1\AppData\Local\Temp\cc3uAqNG.s 			page 72


 3884      7400
 3885              	.LASF69:
 3886 0332 63685365 		.ascii	"chSemResetI\000"
 3886      6D526573 
 3886      65744900 
 3887              	.LASF86:
 3888 033e 726C6973 		.ascii	"rlist\000"
 3888      7400
 3889              	.LASF5:
 3890 0344 75696E74 		.ascii	"uint8_t\000"
 3890      385F7400 
 3891              	.LASF63:
 3892 034c 77746F62 		.ascii	"wtobjp\000"
 3892      6A7000
 3893              	.LASF28:
 3894 0353 705F6E61 		.ascii	"p_name\000"
 3894      6D6500
 3895              	.LASF81:
 3896 035a 63685363 		.ascii	"chSchGoSleepTimeoutS\000"
 3896      68476F53 
 3896      6C656570 
 3896      54696D65 
 3896      6F757453 
 3897              	.LASF59:
 3898 036f 6D5F6F77 		.ascii	"m_owner\000"
 3898      6E657200 
 3899              	.LASF84:
 3900 0377 433A5C43 		.ascii	"C:\\Chibios\\demos\\FirmwareV2\000"
 3900      68696269 
 3900      6F735C64 
 3900      656D6F73 
 3900      5C466972 
 3901              	.LASF25:
 3902 0393 705F6374 		.ascii	"p_ctx\000"
 3902      7800
 3903              	.LASF34:
 3904 0399 705F7761 		.ascii	"p_waiting\000"
 3904      6974696E 
 3904      6700
 3905              	.LASF68:
 3906 03a3 63685365 		.ascii	"chSemInit\000"
 3906      6D496E69 
 3906      7400
 3907              		.ident	"GCC: (Sourcery CodeBench Lite 2012.09-63) 4.7.2"
ARM GAS  C:\Users\LAB_ME~1\AppData\Local\Temp\cc3uAqNG.s 			page 73


DEFINED SYMBOLS
                            *ABS*:00000000 chsem.c
C:\Users\LAB_ME~1\AppData\Local\Temp\cc3uAqNG.s:19     .text.chSemInit:00000000 $t
C:\Users\LAB_ME~1\AppData\Local\Temp\cc3uAqNG.s:25     .text.chSemInit:00000000 chSemInit
C:\Users\LAB_ME~1\AppData\Local\Temp\cc3uAqNG.s:44     .text.chSemResetI:00000000 $t
C:\Users\LAB_ME~1\AppData\Local\Temp\cc3uAqNG.s:50     .text.chSemResetI:00000000 chSemResetI
C:\Users\LAB_ME~1\AppData\Local\Temp\cc3uAqNG.s:112    .text.chSemReset:00000000 $t
C:\Users\LAB_ME~1\AppData\Local\Temp\cc3uAqNG.s:118    .text.chSemReset:00000000 chSemReset
C:\Users\LAB_ME~1\AppData\Local\Temp\cc3uAqNG.s:161    .text.chSemWaitS:00000000 $t
C:\Users\LAB_ME~1\AppData\Local\Temp\cc3uAqNG.s:167    .text.chSemWaitS:00000000 chSemWaitS
C:\Users\LAB_ME~1\AppData\Local\Temp\cc3uAqNG.s:228    .text.chSemWaitS:00000030 $d
C:\Users\LAB_ME~1\AppData\Local\Temp\cc3uAqNG.s:233    .text.chSemWait:00000000 $t
C:\Users\LAB_ME~1\AppData\Local\Temp\cc3uAqNG.s:239    .text.chSemWait:00000000 chSemWait
C:\Users\LAB_ME~1\AppData\Local\Temp\cc3uAqNG.s:280    .text.chSemWaitTimeoutS:00000000 $t
C:\Users\LAB_ME~1\AppData\Local\Temp\cc3uAqNG.s:286    .text.chSemWaitTimeoutS:00000000 chSemWaitTimeoutS
C:\Users\LAB_ME~1\AppData\Local\Temp\cc3uAqNG.s:356    .text.chSemWaitTimeoutS:00000038 $d
C:\Users\LAB_ME~1\AppData\Local\Temp\cc3uAqNG.s:361    .text.chSemWaitTimeout:00000000 $t
C:\Users\LAB_ME~1\AppData\Local\Temp\cc3uAqNG.s:367    .text.chSemWaitTimeout:00000000 chSemWaitTimeout
C:\Users\LAB_ME~1\AppData\Local\Temp\cc3uAqNG.s:408    .text.chSemSignal:00000000 $t
C:\Users\LAB_ME~1\AppData\Local\Temp\cc3uAqNG.s:414    .text.chSemSignal:00000000 chSemSignal
C:\Users\LAB_ME~1\AppData\Local\Temp\cc3uAqNG.s:486    .text.chSemSignalI:00000000 $t
C:\Users\LAB_ME~1\AppData\Local\Temp\cc3uAqNG.s:492    .text.chSemSignalI:00000000 chSemSignalI
C:\Users\LAB_ME~1\AppData\Local\Temp\cc3uAqNG.s:542    .text.chSemAddCounterI:00000000 $t
C:\Users\LAB_ME~1\AppData\Local\Temp\cc3uAqNG.s:548    .text.chSemAddCounterI:00000000 chSemAddCounterI
C:\Users\LAB_ME~1\AppData\Local\Temp\cc3uAqNG.s:613    .text.chSemSignalWait:00000000 $t
C:\Users\LAB_ME~1\AppData\Local\Temp\cc3uAqNG.s:619    .text.chSemSignalWait:00000000 chSemSignalWait
C:\Users\LAB_ME~1\AppData\Local\Temp\cc3uAqNG.s:739    .text.chSemSignalWait:00000060 $d
                     .debug_frame:00000010 $d
C:\Users\LAB_ME~1\AppData\Local\Temp\cc3uAqNG.s:232    .text.chSemWaitS:00000034 $t
C:\Users\LAB_ME~1\AppData\Local\Temp\cc3uAqNG.s:360    .text.chSemWaitTimeoutS:0000003c $t
C:\Users\LAB_ME~1\AppData\Local\Temp\cc3uAqNG.s:743    .text.chSemSignalWait:00000064 $t

UNDEFINED SYMBOLS
chSchReadyI
chSchRescheduleS
chSchGoSleepS
rlist
chSchGoSleepTimeoutS
chSchWakeupS
