ARM GAS  C:\Users\LAB_ME~1\AppData\Local\Temp\cc3uAqNG.s 			page 1


   1              		.syntax unified
   2              		.cpu cortex-m4
   3              		.fpu softvfp
   4              		.eabi_attribute 20, 1
   5              		.eabi_attribute 21, 1
   6              		.eabi_attribute 23, 3
   7              		.eabi_attribute 24, 1
   8              		.eabi_attribute 25, 1
   9              		.eabi_attribute 26, 1
  10              		.eabi_attribute 30, 2
  11              		.eabi_attribute 34, 1
  12              		.eabi_attribute 18, 4
  13              		.thumb
  14              		.file	"chsem.c"
  15              		.text
  16              	.Ltext0:
  17              		.cfi_sections	.debug_frame
  18              		.section	.text.chSemInit,"ax",%progbits
  19              		.align	2
  20              		.p2align 4,,15
  21              		.global	chSemInit
  22              		.thumb
  23              		.thumb_func
  24              		.type	chSemInit, %function
  25              	chSemInit:
  26              	.LFB7:
  27              		.file 1 "../../os/kernel/src/chsem.c"
  28              		.loc 1 79 0
  29              		.cfi_startproc
  30              		@ args = 0, pretend = 0, frame = 0
  31              		@ frame_needed = 0, uses_anonymous_args = 0
  32              		@ link register save eliminated.
  33              	.LVL0:
  34              		.loc 1 83 0
  35 0000 4060     		str	r0, [r0, #4]
  36 0002 0060     		str	r0, [r0, #0]
  37              		.loc 1 84 0
  38 0004 8160     		str	r1, [r0, #8]
  39 0006 7047     		bx	lr
  40              		.cfi_endproc
  41              	.LFE7:
  42              		.size	chSemInit, .-chSemInit
  43 0008 AFF30080 		.section	.text.chSemResetI,"ax",%progbits
  43      AFF30080 
  44              		.align	2
  45              		.p2align 4,,15
  46              		.global	chSemResetI
  47              		.thumb
  48              		.thumb_func
  49              		.type	chSemResetI, %function
  50              	chSemResetI:
  51              	.LFB9:
  52              		.loc 1 129 0
  53              		.cfi_startproc
  54              		@ args = 0, pretend = 0, frame = 0
  55              		@ frame_needed = 0, uses_anonymous_args = 0
  56              	.LVL1:
ARM GAS  C:\Users\LAB_ME~1\AppData\Local\Temp\cc3uAqNG.s 			page 2


  57 0000 70B5     		push	{r4, r5, r6, lr}
  58              	.LCFI0:
  59              		.cfi_def_cfa_offset 16
  60              		.cfi_offset 4, -16
  61              		.cfi_offset 5, -12
  62              		.cfi_offset 6, -8
  63              		.cfi_offset 14, -4
  64              		.loc 1 134 0
  65 0002 8568     		ldr	r5, [r0, #8]
  66              	.LVL2:
  67              		.loc 1 140 0
  68 0004 8160     		str	r1, [r0, #8]
  69              		.loc 1 141 0
  70 0006 0135     		adds	r5, r5, #1
  71              	.LVL3:
  72 0008 002D     		cmp	r5, #0
  73              		.loc 1 129 0
  74 000a 0446     		mov	r4, r0
  75              		.loc 1 141 0
  76 000c 0BDC     		bgt	.L2
  77              		.loc 1 142 0
  78 000e 6FF00106 		mvn	r6, #1
  79              	.LVL4:
  80              	.L6:
  81              	.LBB24:
  82              	.LBB25:
  83              		.file 2 "../../os/kernel/include/chinline.h"
  84              		.loc 2 60 0
  85 0012 6068     		ldr	r0, [r4, #4]
  86              	.LVL5:
  87              		.loc 2 62 0
  88 0014 4368     		ldr	r3, [r0, #4]
  89 0016 6360     		str	r3, [r4, #4]
  90 0018 1C60     		str	r4, [r3, #0]
  91              	.LBE25:
  92              	.LBE24:
  93              		.loc 1 142 0
  94 001a FFF7FEFF 		bl	chSchReadyI
  95              	.LVL6:
  96              		.loc 1 141 0
  97 001e 0135     		adds	r5, r5, #1
  98              	.LVL7:
  99 0020 012D     		cmp	r5, #1
 100              		.loc 1 142 0
 101 0022 4662     		str	r6, [r0, #36]
 102              	.LVL8:
 103              		.loc 1 141 0
 104 0024 F5D1     		bne	.L6
 105              	.LVL9:
 106              	.L2:
 107 0026 70BD     		pop	{r4, r5, r6, pc}
 108              		.cfi_endproc
 109              	.LFE9:
 110              		.size	chSemResetI, .-chSemResetI
 111 0028 AFF30080 		.section	.text.chSemReset,"ax",%progbits
 111      AFF30080 
 112              		.align	2
ARM GAS  C:\Users\LAB_ME~1\AppData\Local\Temp\cc3uAqNG.s 			page 3


 113              		.p2align 4,,15
 114              		.global	chSemReset
 115              		.thumb
 116              		.thumb_func
 117              		.type	chSemReset, %function
 118              	chSemReset:
 119              	.LFB8:
 120              		.loc 1 102 0
 121              		.cfi_startproc
 122              		@ args = 0, pretend = 0, frame = 0
 123              		@ frame_needed = 0, uses_anonymous_args = 0
 124              	.LVL10:
 125 0000 08B5     		push	{r3, lr}
 126              	.LCFI1:
 127              		.cfi_def_cfa_offset 8
 128              		.cfi_offset 3, -8
 129              		.cfi_offset 14, -4
 130              	.LBB26:
 131              		.loc 1 104 0
 132 0002 2023     		movs	r3, #32
 133              	.LVL11:
 134              	@ 104 "../../os/kernel/src/chsem.c" 1
 135 0004 83F31188 		msr     BASEPRI, r3
 136              	@ 0 "" 2
 137              	.LVL12:
 138              		.thumb
 139              	.LBE26:
 140              		.loc 1 105 0
 141 0008 FFF7FEFF 		bl	chSemResetI
 142              	.LVL13:
 143              		.loc 1 106 0
 144 000c FFF7FEFF 		bl	chSchRescheduleS
 145              	.LVL14:
 146              	.LBB27:
 147              		.loc 1 107 0
 148 0010 0023     		movs	r3, #0
 149              	.LVL15:
 150              	@ 107 "../../os/kernel/src/chsem.c" 1
 151 0012 83F31188 		msr     BASEPRI, r3
 152              	@ 0 "" 2
 153              	.LVL16:
 154              		.thumb
 155 0016 08BD     		pop	{r3, pc}
 156              	.LBE27:
 157              		.cfi_endproc
 158              	.LFE8:
 159              		.size	chSemReset, .-chSemReset
 160 0018 AFF30080 		.section	.text.chSemWaitS,"ax",%progbits
 160      AFF30080 
 161              		.align	2
 162              		.p2align 4,,15
 163              		.global	chSemWaitS
 164              		.thumb
 165              		.thumb_func
 166              		.type	chSemWaitS, %function
 167              	chSemWaitS:
 168              	.LFB11:
ARM GAS  C:\Users\LAB_ME~1\AppData\Local\Temp\cc3uAqNG.s 			page 4


 169              		.loc 1 178 0
 170              		.cfi_startproc
 171              		@ args = 0, pretend = 0, frame = 0
 172              		@ frame_needed = 0, uses_anonymous_args = 0
 173              	.LVL17:
 174              		.loc 1 187 0
 175 0000 8268     		ldr	r2, [r0, #8]
 176 0002 013A     		subs	r2, r2, #1
 177 0004 002A     		cmp	r2, #0
 178              		.loc 1 178 0
 179 0006 10B5     		push	{r4, lr}
 180              	.LCFI2:
 181              		.cfi_def_cfa_offset 8
 182              		.cfi_offset 4, -8
 183              		.cfi_offset 14, -4
 184              		.loc 1 178 0
 185 0008 0346     		mov	r3, r0
 186              		.loc 1 187 0
 187 000a 8260     		str	r2, [r0, #8]
 188 000c 01DB     		blt	.L13
 189              		.loc 1 193 0
 190 000e 0020     		movs	r0, #0
 191              	.LVL18:
 192              		.loc 1 194 0
 193 0010 10BD     		pop	{r4, pc}
 194              	.LVL19:
 195              	.L13:
 196              		.loc 1 188 0
 197 0012 074C     		ldr	r4, .L14
 198 0014 A269     		ldr	r2, [r4, #24]
 199 0016 5062     		str	r0, [r2, #36]
 200              	.LVL20:
 201              	.LBB28:
 202              	.LBB29:
 203              		.loc 2 48 0
 204 0018 4168     		ldr	r1, [r0, #4]
 205 001a 82E80300 		stmia	r2, {r0, r1}
 206              	.LBE29:
 207              	.LBE28:
 208              		.loc 1 190 0
 209 001e 0320     		movs	r0, #3
 210              	.LVL21:
 211              	.LBB31:
 212              	.LBB30:
 213              		.loc 2 49 0
 214 0020 5A60     		str	r2, [r3, #4]
 215 0022 0A60     		str	r2, [r1, #0]
 216              	.LBE30:
 217              	.LBE31:
 218              		.loc 1 190 0
 219 0024 FFF7FEFF 		bl	chSchGoSleepS
 220              	.LVL22:
 221              		.loc 1 191 0
 222 0028 A369     		ldr	r3, [r4, #24]
 223 002a 586A     		ldr	r0, [r3, #36]
 224 002c 10BD     		pop	{r4, pc}
 225              	.L15:
ARM GAS  C:\Users\LAB_ME~1\AppData\Local\Temp\cc3uAqNG.s 			page 5


 226 002e 00BF     		.align	2
 227              	.L14:
 228 0030 00000000 		.word	rlist
 229              		.cfi_endproc
 230              	.LFE11:
 231              		.size	chSemWaitS, .-chSemWaitS
 232 0034 AFF30080 		.section	.text.chSemWait,"ax",%progbits
 232      AFF30080 
 232      AFF30080 
 233              		.align	2
 234              		.p2align 4,,15
 235              		.global	chSemWait
 236              		.thumb
 237              		.thumb_func
 238              		.type	chSemWait, %function
 239              	chSemWait:
 240              	.LFB10:
 241              		.loc 1 157 0
 242              		.cfi_startproc
 243              		@ args = 0, pretend = 0, frame = 0
 244              		@ frame_needed = 0, uses_anonymous_args = 0
 245              	.LVL23:
 246 0000 08B5     		push	{r3, lr}
 247              	.LCFI3:
 248              		.cfi_def_cfa_offset 8
 249              		.cfi_offset 3, -8
 250              		.cfi_offset 14, -4
 251              	.LBB32:
 252              		.loc 1 160 0
 253 0002 2023     		movs	r3, #32
 254              	.LVL24:
 255              	@ 160 "../../os/kernel/src/chsem.c" 1
 256 0004 83F31188 		msr     BASEPRI, r3
 257              	@ 0 "" 2
 258              	.LVL25:
 259              		.thumb
 260              	.LBE32:
 261              		.loc 1 161 0
 262 0008 FFF7FEFF 		bl	chSemWaitS
 263              	.LVL26:
 264              	.LBB33:
 265              		.loc 1 162 0
 266 000c 0023     		movs	r3, #0
 267              	.LVL27:
 268              	@ 162 "../../os/kernel/src/chsem.c" 1
 269 000e 83F31188 		msr     BASEPRI, r3
 270              	@ 0 "" 2
 271              	.LVL28:
 272              		.thumb
 273              	.LBE33:
 274              		.loc 1 164 0
 275 0012 08BD     		pop	{r3, pc}
 276              		.cfi_endproc
 277              	.LFE10:
 278              		.size	chSemWait, .-chSemWait
 279 0014 AFF30080 		.section	.text.chSemWaitTimeoutS,"ax",%progbits
 279      AFF30080 
ARM GAS  C:\Users\LAB_ME~1\AppData\Local\Temp\cc3uAqNG.s 			page 6


 279      AFF30080 
 280              		.align	2
 281              		.p2align 4,,15
 282              		.global	chSemWaitTimeoutS
 283              		.thumb
 284              		.thumb_func
 285              		.type	chSemWaitTimeoutS, %function
 286              	chSemWaitTimeoutS:
 287              	.LFB13:
 288              		.loc 1 243 0
 289              		.cfi_startproc
 290              		@ args = 0, pretend = 0, frame = 0
 291              		@ frame_needed = 0, uses_anonymous_args = 0
 292              		@ link register save eliminated.
 293              	.LVL29:
 294 0000 0346     		mov	r3, r0
 295              		.loc 1 247 0
 296 0002 8068     		ldr	r0, [r0, #8]
 297              	.LVL30:
 298              		.loc 1 252 0
 299 0004 421E     		subs	r2, r0, #1
 300 0006 002A     		cmp	r2, #0
 301              		.loc 1 243 0
 302 0008 10B4     		push	{r4}
 303              	.LCFI4:
 304              		.cfi_def_cfa_offset 4
 305              		.cfi_offset 4, -4
 306              		.loc 1 243 0
 307 000a 0C46     		mov	r4, r1
 308              		.loc 1 252 0
 309 000c 9A60     		str	r2, [r3, #8]
 310 000e 02DB     		blt	.L21
 311              		.loc 1 261 0
 312 0010 0020     		movs	r0, #0
 313              	.L18:
 314              		.loc 1 262 0
 315 0012 10BC     		pop	{r4}
 316 0014 7047     		bx	lr
 317              	.L21:
 318              		.loc 1 253 0
 319 0016 59B1     		cbz	r1, .L22
 320              		.loc 1 257 0
 321 0018 074A     		ldr	r2, .L23
 322 001a 9269     		ldr	r2, [r2, #24]
 323 001c 5362     		str	r3, [r2, #36]
 324              	.LVL31:
 325              	.LBB34:
 326              	.LBB35:
 327              		.loc 2 48 0
 328 001e 5C68     		ldr	r4, [r3, #4]
 329              	.LBE35:
 330              	.LBE34:
 331              		.loc 1 259 0
 332 0020 0320     		movs	r0, #3
 333              	.LBB37:
 334              	.LBB36:
 335              		.loc 2 48 0
ARM GAS  C:\Users\LAB_ME~1\AppData\Local\Temp\cc3uAqNG.s 			page 7


 336 0022 82E81800 		stmia	r2, {r3, r4}
 337              		.loc 2 49 0
 338 0026 5A60     		str	r2, [r3, #4]
 339 0028 2260     		str	r2, [r4, #0]
 340              	.LBE36:
 341              	.LBE37:
 342              		.loc 1 262 0
 343 002a 10BC     		pop	{r4}
 344              		.loc 1 259 0
 345 002c FFF7FEBF 		b	chSchGoSleepTimeoutS
 346              	.LVL32:
 347              	.L22:
 348              		.loc 1 254 0
 349 0030 9860     		str	r0, [r3, #8]
 350              		.loc 1 255 0
 351 0032 4FF0FF30 		mov	r0, #-1
 352 0036 ECE7     		b	.L18
 353              	.L24:
 354              		.align	2
 355              	.L23:
 356 0038 00000000 		.word	rlist
 357              		.cfi_endproc
 358              	.LFE13:
 359              		.size	chSemWaitTimeoutS, .-chSemWaitTimeoutS
 360 003c AFF30080 		.section	.text.chSemWaitTimeout,"ax",%progbits
 361              		.align	2
 362              		.p2align 4,,15
 363              		.global	chSemWaitTimeout
 364              		.thumb
 365              		.thumb_func
 366              		.type	chSemWaitTimeout, %function
 367              	chSemWaitTimeout:
 368              	.LFB12:
 369              		.loc 1 215 0
 370              		.cfi_startproc
 371              		@ args = 0, pretend = 0, frame = 0
 372              		@ frame_needed = 0, uses_anonymous_args = 0
 373              	.LVL33:
 374 0000 08B5     		push	{r3, lr}
 375              	.LCFI5:
 376              		.cfi_def_cfa_offset 8
 377              		.cfi_offset 3, -8
 378              		.cfi_offset 14, -4
 379              	.LBB38:
 380              		.loc 1 218 0
 381 0002 2023     		movs	r3, #32
 382              	.LVL34:
 383              	@ 218 "../../os/kernel/src/chsem.c" 1
 384 0004 83F31188 		msr     BASEPRI, r3
 385              	@ 0 "" 2
 386              	.LVL35:
 387              		.thumb
 388              	.LBE38:
 389              		.loc 1 219 0
 390 0008 FFF7FEFF 		bl	chSemWaitTimeoutS
 391              	.LVL36:
 392              	.LBB39:
ARM GAS  C:\Users\LAB_ME~1\AppData\Local\Temp\cc3uAqNG.s 			page 8


 393              		.loc 1 220 0
 394 000c 0023     		movs	r3, #0
 395              	.LVL37:
 396              	@ 220 "../../os/kernel/src/chsem.c" 1
 397 000e 83F31188 		msr     BASEPRI, r3
 398              	@ 0 "" 2
 399              	.LVL38:
 400              		.thumb
 401              	.LBE39:
 402              		.loc 1 222 0
 403 0012 08BD     		pop	{r3, pc}
 404              		.cfi_endproc
 405              	.LFE12:
 406              		.size	chSemWaitTimeout, .-chSemWaitTimeout
 407 0014 AFF30080 		.section	.text.chSemSignal,"ax",%progbits
 407      AFF30080 
 407      AFF30080 
 408              		.align	2
 409              		.p2align 4,,15
 410              		.global	chSemSignal
 411              		.thumb
 412              		.thumb_func
 413              		.type	chSemSignal, %function
 414              	chSemSignal:
 415              	.LFB14:
 416              		.loc 1 271 0
 417              		.cfi_startproc
 418              		@ args = 0, pretend = 0, frame = 0
 419              		@ frame_needed = 0, uses_anonymous_args = 0
 420              	.LVL39:
 421 0000 08B5     		push	{r3, lr}
 422              	.LCFI6:
 423              		.cfi_def_cfa_offset 8
 424              		.cfi_offset 3, -8
 425              		.cfi_offset 14, -4
 426              		.loc 1 271 0
 427 0002 0246     		mov	r2, r0
 428              	.LBB40:
 429              		.loc 1 279 0
 430 0004 2023     		movs	r3, #32
 431              	.LVL40:
 432              	@ 279 "../../os/kernel/src/chsem.c" 1
 433 0006 83F31188 		msr     BASEPRI, r3
 434              	@ 0 "" 2
 435              	.LVL41:
 436              		.thumb
 437              	.LBE40:
 438              		.loc 1 280 0
 439 000a 8368     		ldr	r3, [r0, #8]
 440              	.LVL42:
 441 000c 0133     		adds	r3, r3, #1
 442 000e 002B     		cmp	r3, #0
 443 0010 8360     		str	r3, [r0, #8]
 444 0012 03DD     		ble	.L28
 445              	.LVL43:
 446              	.L27:
 447              	.LBB41:
ARM GAS  C:\Users\LAB_ME~1\AppData\Local\Temp\cc3uAqNG.s 			page 9


 448              		.loc 1 282 0
 449 0014 0023     		movs	r3, #0
 450              	.LVL44:
 451              	@ 282 "../../os/kernel/src/chsem.c" 1
 452 0016 83F31188 		msr     BASEPRI, r3
 453              	@ 0 "" 2
 454              	.LVL45:
 455              		.thumb
 456 001a 08BD     		pop	{r3, pc}
 457              	.LVL46:
 458              	.L28:
 459              	.LBE41:
 460              	.LBB42:
 461              	.LBB43:
 462              		.loc 2 53 0
 463 001c 0068     		ldr	r0, [r0, #0]
 464              	.LVL47:
 465              		.loc 2 55 0
 466 001e 0368     		ldr	r3, [r0, #0]
 467              	.LBE43:
 468              	.LBE42:
 469              		.loc 1 281 0
 470 0020 0021     		movs	r1, #0
 471              	.LBB45:
 472              	.LBB44:
 473              		.loc 2 55 0
 474 0022 1360     		str	r3, [r2, #0]
 475 0024 5A60     		str	r2, [r3, #4]
 476              	.LBE44:
 477              	.LBE45:
 478              		.loc 1 281 0
 479 0026 FFF7FEFF 		bl	chSchWakeupS
 480              	.LVL48:
 481 002a F3E7     		b	.L27
 482              		.cfi_endproc
 483              	.LFE14:
 484              		.size	chSemSignal, .-chSemSignal
 485 002c AFF30080 		.section	.text.chSemSignalI,"ax",%progbits
 486              		.align	2
 487              		.p2align 4,,15
 488              		.global	chSemSignalI
 489              		.thumb
 490              		.thumb_func
 491              		.type	chSemSignalI, %function
 492              	chSemSignalI:
 493              	.LFB15:
 494              		.loc 1 296 0
 495              		.cfi_startproc
 496              		@ args = 0, pretend = 0, frame = 0
 497              		@ frame_needed = 0, uses_anonymous_args = 0
 498              		@ link register save eliminated.
 499              	.LVL49:
 500              		.loc 1 305 0
 501 0000 8268     		ldr	r2, [r0, #8]
 502 0002 0132     		adds	r2, r2, #1
 503 0004 002A     		cmp	r2, #0
 504              		.loc 1 296 0
ARM GAS  C:\Users\LAB_ME~1\AppData\Local\Temp\cc3uAqNG.s 			page 10


 505 0006 0346     		mov	r3, r0
 506              		.loc 1 305 0
 507 0008 8260     		str	r2, [r0, #8]
 508 000a 00DD     		ble	.L31
 509 000c 7047     		bx	lr
 510              	.L31:
 511              	.LVL50:
 512              	.LBB46:
 513              	.LBB47:
 514              	.LBB48:
 515              		.loc 2 53 0
 516 000e 0268     		ldr	r2, [r0, #0]
 517              	.LVL51:
 518              		.loc 2 55 0
 519 0010 1168     		ldr	r1, [r2, #0]
 520 0012 0160     		str	r1, [r0, #0]
 521 0014 4B60     		str	r3, [r1, #4]
 522              	.LBE48:
 523              	.LBE47:
 524              		.loc 1 310 0
 525 0016 1046     		mov	r0, r2
 526              	.LVL52:
 527              		.loc 1 309 0
 528 0018 0023     		movs	r3, #0
 529              	.LVL53:
 530 001a 5362     		str	r3, [r2, #36]
 531              	.LBE46:
 532              		.loc 1 312 0
 533              	.LBB49:
 534              		.loc 1 310 0
 535 001c FFF7FEBF 		b	chSchReadyI
 536              	.LVL54:
 537              	.LBE49:
 538              		.cfi_endproc
 539              	.LFE15:
 540              		.size	chSemSignalI, .-chSemSignalI
 541              		.section	.text.chSemAddCounterI,"ax",%progbits
 542              		.align	2
 543              		.p2align 4,,15
 544              		.global	chSemAddCounterI
 545              		.thumb
 546              		.thumb_func
 547              		.type	chSemAddCounterI, %function
 548              	chSemAddCounterI:
 549              	.LFB16:
 550              		.loc 1 327 0
 551              		.cfi_startproc
 552              		@ args = 0, pretend = 0, frame = 0
 553              		@ frame_needed = 0, uses_anonymous_args = 0
 554              	.LVL55:
 555 0000 70B5     		push	{r4, r5, r6, lr}
 556              	.LCFI7:
 557              		.cfi_def_cfa_offset 16
 558              		.cfi_offset 4, -16
 559              		.cfi_offset 5, -12
 560              		.cfi_offset 6, -8
 561              		.cfi_offset 14, -4
ARM GAS  C:\Users\LAB_ME~1\AppData\Local\Temp\cc3uAqNG.s 			page 11


 562              		.loc 1 336 0
 563 0002 0C1E     		subs	r4, r1, #0
 564              		.loc 1 327 0
 565 0004 0546     		mov	r5, r0
 566              		.loc 1 336 0
 567 0006 11DD     		ble	.L32
 568              		.loc 1 338 0
 569 0008 0026     		movs	r6, #0
 570 000a 01E0     		b	.L37
 571              	.LVL56:
 572              	.L34:
 573              		.loc 1 336 0
 574 000c 013C     		subs	r4, r4, #1
 575              	.LVL57:
 576 000e 0DD0     		beq	.L32
 577              	.LVL58:
 578              	.L37:
 579              		.loc 1 337 0
 580 0010 AB68     		ldr	r3, [r5, #8]
 581 0012 0133     		adds	r3, r3, #1
 582 0014 002B     		cmp	r3, #0
 583 0016 AB60     		str	r3, [r5, #8]
 584 0018 F8DC     		bgt	.L34
 585              	.LVL59:
 586              	.LBB50:
 587              	.LBB51:
 588              		.loc 2 53 0
 589 001a 2868     		ldr	r0, [r5, #0]
 590              	.LVL60:
 591              		.loc 2 55 0
 592 001c 0368     		ldr	r3, [r0, #0]
 593 001e 2B60     		str	r3, [r5, #0]
 594 0020 5D60     		str	r5, [r3, #4]
 595              	.LBE51:
 596              	.LBE50:
 597              		.loc 1 338 0
 598 0022 FFF7FEFF 		bl	chSchReadyI
 599              	.LVL61:
 600              		.loc 1 336 0
 601 0026 013C     		subs	r4, r4, #1
 602              		.loc 1 338 0
 603 0028 4662     		str	r6, [r0, #36]
 604              		.loc 1 336 0
 605 002a F1D1     		bne	.L37
 606              	.LVL62:
 607              	.L32:
 608 002c 70BD     		pop	{r4, r5, r6, pc}
 609              		.cfi_endproc
 610              	.LFE16:
 611              		.size	chSemAddCounterI, .-chSemAddCounterI
 612 002e 00BF     		.section	.text.chSemSignalWait,"ax",%progbits
 613              		.align	2
 614              		.p2align 4,,15
 615              		.global	chSemSignalWait
 616              		.thumb
 617              		.thumb_func
 618              		.type	chSemSignalWait, %function
ARM GAS  C:\Users\LAB_ME~1\AppData\Local\Temp\cc3uAqNG.s 			page 12


 619              	chSemSignalWait:
 620              	.LFB17:
 621              		.loc 1 359 0
 622              		.cfi_startproc
 623              		@ args = 0, pretend = 0, frame = 8
 624              		@ frame_needed = 0, uses_anonymous_args = 0
 625              	.LVL63:
 626 0000 10B5     		push	{r4, lr}
 627              	.LCFI8:
 628              		.cfi_def_cfa_offset 8
 629              		.cfi_offset 4, -8
 630              		.cfi_offset 14, -4
 631 0002 0246     		mov	r2, r0
 632 0004 82B0     		sub	sp, sp, #8
 633              	.LCFI9:
 634              		.cfi_def_cfa_offset 16
 635              	.LBB52:
 636              		.loc 1 372 0
 637 0006 2023     		movs	r3, #32
 638              	.LVL64:
 639              	@ 372 "../../os/kernel/src/chsem.c" 1
 640 0008 83F31188 		msr     BASEPRI, r3
 641              	@ 0 "" 2
 642              	.LVL65:
 643              		.thumb
 644              	.LBE52:
 645              		.loc 1 373 0
 646 000c 8368     		ldr	r3, [r0, #8]
 647              	.LVL66:
 648 000e 0133     		adds	r3, r3, #1
 649 0010 002B     		cmp	r3, #0
 650 0012 8360     		str	r3, [r0, #8]
 651 0014 19DD     		ble	.L43
 652              	.LVL67:
 653              	.L40:
 654              		.loc 1 375 0
 655 0016 8B68     		ldr	r3, [r1, #8]
 656 0018 013B     		subs	r3, r3, #1
 657 001a 002B     		cmp	r3, #0
 658 001c 8B60     		str	r3, [r1, #8]
 659 001e 07DB     		blt	.L44
 660              		.loc 1 383 0
 661 0020 FFF7FEFF 		bl	chSchRescheduleS
 662              	.LVL68:
 663              		.loc 1 384 0
 664 0024 0020     		movs	r0, #0
 665              	.LVL69:
 666              	.L42:
 667              	.LBB53:
 668              		.loc 1 386 0
 669 0026 0023     		movs	r3, #0
 670              	.LVL70:
 671              	@ 386 "../../os/kernel/src/chsem.c" 1
 672 0028 83F31188 		msr     BASEPRI, r3
 673              	@ 0 "" 2
 674              	.LVL71:
 675              		.thumb
ARM GAS  C:\Users\LAB_ME~1\AppData\Local\Temp\cc3uAqNG.s 			page 13


 676              	.LBE53:
 677              		.loc 1 388 0
 678 002c 02B0     		add	sp, sp, #8
 679 002e 10BD     		pop	{r4, pc}
 680              	.LVL72:
 681              	.L44:
 682              	.LBB54:
 683              		.loc 1 376 0
 684 0030 0B4A     		ldr	r2, .L45
 685              	.LBB55:
 686              	.LBB56:
 687              		.loc 2 48 0
 688 0032 4B68     		ldr	r3, [r1, #4]
 689              	.LBE56:
 690              	.LBE55:
 691              		.loc 1 376 0
 692 0034 9469     		ldr	r4, [r2, #24]
 693              	.LVL73:
 694              		.loc 1 379 0
 695 0036 0320     		movs	r0, #3
 696              	.LBB58:
 697              	.LBB57:
 698              		.loc 2 48 0
 699 0038 84E80A00 		stmia	r4, {r1, r3}
 700              		.loc 2 49 0
 701 003c 4C60     		str	r4, [r1, #4]
 702 003e 1C60     		str	r4, [r3, #0]
 703              	.LBE57:
 704              	.LBE58:
 705              		.loc 1 378 0
 706 0040 6162     		str	r1, [r4, #36]
 707              		.loc 1 379 0
 708 0042 FFF7FEFF 		bl	chSchGoSleepS
 709              	.LVL74:
 710              		.loc 1 380 0
 711 0046 606A     		ldr	r0, [r4, #36]
 712              	.LVL75:
 713 0048 EDE7     		b	.L42
 714              	.LVL76:
 715              	.L43:
 716              	.LBE54:
 717              	.LBB59:
 718              	.LBB60:
 719              		.loc 2 53 0
 720 004a 0068     		ldr	r0, [r0, #0]
 721              	.LVL77:
 722              		.loc 2 55 0
 723 004c 0368     		ldr	r3, [r0, #0]
 724 004e 1360     		str	r3, [r2, #0]
 725 0050 5A60     		str	r2, [r3, #4]
 726              	.LBE60:
 727              	.LBE59:
 728              		.loc 1 374 0
 729 0052 0191     		str	r1, [sp, #4]
 730 0054 FFF7FEFF 		bl	chSchReadyI
 731              	.LVL78:
 732 0058 0023     		movs	r3, #0
ARM GAS  C:\Users\LAB_ME~1\AppData\Local\Temp\cc3uAqNG.s 			page 14


 733 005a 4362     		str	r3, [r0, #36]
 734 005c 0199     		ldr	r1, [sp, #4]
 735 005e DAE7     		b	.L40
 736              	.L46:
 737              		.align	2
 738              	.L45:
 739 0060 00000000 		.word	rlist
 740              		.cfi_endproc
 741              	.LFE17:
 742              		.size	chSemSignalWait, .-chSemSignalWait
 743 0064 AFF30080 		.text
 743      AFF30080 
 743      AFF30080 
 744              	.Letext0:
 745              		.file 3 "c:\\program files (x86)\\codesourcery\\sourcery_codebench_lite_for_arm_eabi\\bin\\../lib/
 746              		.file 4 "../../os/ports/GCC/ARMCMx/chtypes.h"
 747              		.file 5 "../../os/kernel/include/chlists.h"
 748              		.file 6 "../../os/kernel/include/chthreads.h"
 749              		.file 7 "../../os/ports/GCC/ARMCMx/chcore_v7m.h"
 750              		.file 8 "../../os/kernel/include/chschd.h"
 751              		.file 9 "../../os/kernel/include/chsem.h"
 752              		.file 10 "../../os/kernel/include/chmtx.h"