ARM GAS  C:\Users\LAB_ME~1\AppData\Local\Temp\cco2FdIK.s 			page 1


   1              		.syntax unified
   2              		.cpu cortex-m4
   3              		.fpu softvfp
   4              		.eabi_attribute 20, 1
   5              		.eabi_attribute 21, 1
   6              		.eabi_attribute 23, 3
   7              		.eabi_attribute 24, 1
   8              		.eabi_attribute 25, 1
   9              		.eabi_attribute 26, 1
  10              		.eabi_attribute 30, 2
  11              		.eabi_attribute 34, 1
  12              		.eabi_attribute 18, 4
  13              		.thumb
  14              		.file	"chsys.c"
  15              		.text
  16              	.Ltext0:
  17              		.cfi_sections	.debug_frame
  18              		.section	.text._idle_thread,"ax",%progbits
  19              		.align	2
  20              		.p2align 4,,15
  21              		.global	_idle_thread
  22              		.thumb
  23              		.thumb_func
  24              		.type	_idle_thread, %function
  25              	_idle_thread:
  26              	.LFB7:
  27              		.file 1 "../../os/kernel/src/chsys.c"
  28              		.loc 1 54 0
  29              		.cfi_startproc
  30              		@ args = 0, pretend = 0, frame = 0
  31              		@ frame_needed = 0, uses_anonymous_args = 0
  32              		@ link register save eliminated.
  33              	.LVL0:
  34              		.loc 1 57 0
  35 0000 024B     		ldr	r3, .L4
  36 0002 034A     		ldr	r2, .L4+4
  37 0004 9B69     		ldr	r3, [r3, #24]
  38 0006 9A61     		str	r2, [r3, #24]
  39              	.L2:
  40 0008 FEE7     		b	.L2
  41              	.L5:
  42 000a 00BF     		.align	2
  43              	.L4:
  44 000c 00000000 		.word	rlist
  45 0010 00000000 		.word	.LC0
  46              		.cfi_endproc
  47              	.LFE7:
  48              		.size	_idle_thread, .-_idle_thread
  49 0014 AFF30080 		.section	.text.chSysInit,"ax",%progbits
  49      AFF30080 
  49      AFF30080 
  50              		.align	2
  51              		.p2align 4,,15
  52              		.global	chSysInit
  53              		.thumb
  54              		.thumb_func
  55              		.type	chSysInit, %function
ARM GAS  C:\Users\LAB_ME~1\AppData\Local\Temp\cco2FdIK.s 			page 2


  56              	chSysInit:
  57              	.LFB8:
  58              		.loc 1 77 0
  59              		.cfi_startproc
  60              		@ args = 0, pretend = 0, frame = 0
  61              		@ frame_needed = 0, uses_anonymous_args = 0
  62 0000 10B5     		push	{r4, lr}
  63              	.LCFI0:
  64              		.cfi_def_cfa_offset 8
  65              		.cfi_offset 4, -8
  66              		.cfi_offset 14, -4
  67 0002 82B0     		sub	sp, sp, #8
  68              	.LCFI1:
  69              		.cfi_def_cfa_offset 16
  70              		.loc 1 83 0
  71 0004 FFF7FEFF 		bl	_port_init
  72              	.LVL1:
  73              		.loc 1 84 0
  74 0008 FFF7FEFF 		bl	_scheduler_init
  75              	.LVL2:
  76              		.loc 1 85 0
  77 000c FFF7FEFF 		bl	_vt_init
  78              	.LVL3:
  79              		.loc 1 87 0
  80 0010 FFF7FEFF 		bl	_core_init
  81              	.LVL4:
  82              		.loc 1 90 0
  83 0014 FFF7FEFF 		bl	_heap_init
  84              	.LVL5:
  85              		.loc 1 97 0
  86 0018 4021     		movs	r1, #64
  87 001a 0B48     		ldr	r0, .L7
  88 001c FFF7FEFF 		bl	_thread_init
  89              	.LVL6:
  90 0020 0A49     		ldr	r1, .L7+4
  91              		.loc 1 98 0
  92 0022 0122     		movs	r2, #1
  93              		.loc 1 97 0
  94 0024 8861     		str	r0, [r1, #24]
  95              		.loc 1 98 0
  96 0026 0277     		strb	r2, [r0, #28]
  97              	.LBB2:
  98              		.loc 1 104 0
  99 0028 0023     		movs	r3, #0
 100              	.LVL7:
 101              	@ 104 "../../os/kernel/src/chsys.c" 1
 102 002a 83F31188 		msr     BASEPRI, r3                    
 103 002e 62B6     		cpsie   i
 104              	@ 0 "" 2
 105              	.LVL8:
 106              		.thumb
 107              	.LBE2:
 108              		.loc 1 108 0
 109 0030 074C     		ldr	r4, .L7+8
 110 0032 8969     		ldr	r1, [r1, #24]
 111              		.loc 1 114 0
 112 0034 0748     		ldr	r0, .L7+12
ARM GAS  C:\Users\LAB_ME~1\AppData\Local\Temp\cco2FdIK.s 			page 3


 113              		.loc 1 108 0
 114 0036 8C61     		str	r4, [r1, #24]
 115              		.loc 1 114 0
 116 0038 0093     		str	r3, [sp, #0]
 117 003a C021     		movs	r1, #192
 118 003c 064B     		ldr	r3, .L7+16
 119              	.LVL9:
 120 003e FFF7FEFF 		bl	chThdCreateStatic
 121              	.LVL10:
 122              		.loc 1 117 0
 123 0042 02B0     		add	sp, sp, #8
 124 0044 10BD     		pop	{r4, pc}
 125              	.L8:
 126 0046 00BF     		.align	2
 127              	.L7:
 128 0048 00000000 		.word	.LANCHOR0
 129 004c 00000000 		.word	rlist
 130 0050 00000000 		.word	ch_debug
 131 0054 00000000 		.word	.LANCHOR1
 132 0058 00000000 		.word	_idle_thread
 133              		.cfi_endproc
 134              	.LFE8:
 135              		.size	chSysInit, .-chSysInit
 136 005c AFF30080 		.section	.text.chSysTimerHandlerI,"ax",%progbits
 137              		.align	2
 138              		.p2align 4,,15
 139              		.global	chSysTimerHandlerI
 140              		.thumb
 141              		.thumb_func
 142              		.type	chSysTimerHandlerI, %function
 143              	chSysTimerHandlerI:
 144              	.LFB9:
 145              		.loc 1 130 0
 146              		.cfi_startproc
 147              		@ args = 0, pretend = 0, frame = 0
 148              		@ frame_needed = 0, uses_anonymous_args = 0
 149 0000 38B5     		push	{r3, r4, r5, lr}
 150              	.LCFI2:
 151              		.cfi_def_cfa_offset 16
 152              		.cfi_offset 3, -16
 153              		.cfi_offset 4, -12
 154              		.cfi_offset 5, -8
 155              		.cfi_offset 14, -4
 156              		.loc 1 136 0
 157 0002 134B     		ldr	r3, .L22
 158 0004 9B69     		ldr	r3, [r3, #24]
 159 0006 DA7F     		ldrb	r2, [r3, #31]	@ zero_extendqisi2
 160 0008 0AB1     		cbz	r2, .L10
 161              		.loc 1 138 0
 162 000a 013A     		subs	r2, r2, #1
 163 000c DA77     		strb	r2, [r3, #31]
 164              	.L10:
 165              		.loc 1 141 0
 166 000e 1A6A     		ldr	r2, [r3, #32]
 167              		.loc 1 143 0
 168 0010 104C     		ldr	r4, .L22+4
 169              		.loc 1 141 0
ARM GAS  C:\Users\LAB_ME~1\AppData\Local\Temp\cco2FdIK.s 			page 4


 170 0012 0132     		adds	r2, r2, #1
 171 0014 1A62     		str	r2, [r3, #32]
 172              		.loc 1 143 0
 173 0016 E368     		ldr	r3, [r4, #12]
 174 0018 2268     		ldr	r2, [r4, #0]
 175 001a 0133     		adds	r3, r3, #1
 176 001c A242     		cmp	r2, r4
 177 001e E360     		str	r3, [r4, #12]
 178 0020 14D0     		beq	.L9
 179              	.LBB3:
 180              		.loc 1 143 0 is_stmt 0 discriminator 1
 181 0022 9568     		ldr	r5, [r2, #8]
 182 0024 013D     		subs	r5, r5, #1
 183 0026 9560     		str	r5, [r2, #8]
 184              	.LVL11:
 185 0028 85B9     		cbnz	r5, .L9
 186              	.L18:
 187              	.LBB4:
 188              		.loc 1 143 0 discriminator 3
 189 002a 1368     		ldr	r3, [r2, #0]
 190 002c D168     		ldr	r1, [r2, #12]
 191              	.LVL12:
 192 002e 5C60     		str	r4, [r3, #4]
 193 0030 2360     		str	r3, [r4, #0]
 194 0032 D560     		str	r5, [r2, #12]
 195              	.LBB5:
 196 0034 0023     		movs	r3, #0
 197              	.LVL13:
 198              	@ 143 "../../os/kernel/src/chsys.c" 1
 199 0036 83F31188 		msr     BASEPRI, r3
 200              	@ 0 "" 2
 201              	.LVL14:
 202              		.thumb
 203              	.LBE5:
 204 003a 1069     		ldr	r0, [r2, #16]
 205 003c 8847     		blx	r1
 206              	.LVL15:
 207              	.LBB6:
 208 003e 2023     		movs	r3, #32
 209              	.LVL16:
 210              	@ 143 "../../os/kernel/src/chsys.c" 1
 211 0040 83F31188 		msr     BASEPRI, r3
 212              	@ 0 "" 2
 213              	.LVL17:
 214              		.thumb
 215              	.LBE6:
 216              	.LBE4:
 217 0044 2268     		ldr	r2, [r4, #0]
 218              	.LVL18:
 219 0046 9368     		ldr	r3, [r2, #8]
 220              	.LVL19:
 221 0048 002B     		cmp	r3, #0
 222 004a EED0     		beq	.L18
 223              	.LVL20:
 224              	.L9:
 225 004c 38BD     		pop	{r3, r4, r5, pc}
 226              	.L23:
ARM GAS  C:\Users\LAB_ME~1\AppData\Local\Temp\cco2FdIK.s 			page 5


 227 004e 00BF     		.align	2
 228              	.L22:
 229 0050 00000000 		.word	rlist
 230 0054 00000000 		.word	vtlist
 231              	.LBE3:
 232              		.cfi_endproc
 233              	.LFE9:
 234              		.size	chSysTimerHandlerI, .-chSysTimerHandlerI
 235              		.global	_idle_thread_wa
 236 0058 AFF30080 		.section	.bss.mainthread.4778,"aw",%nobits
 236      AFF30080 
 237              		.align	2
 238              		.set	.LANCHOR0,. + 0
 239              		.type	mainthread.4778, %object
 240              		.size	mainthread.4778, 72
 241              	mainthread.4778:
 242 0000 00000000 		.space	72
 242      00000000 
 242      00000000 
 242      00000000 
 242      00000000 
 243              		.section	.rodata.str1.4,"aMS",%progbits,1
 244              		.align	2
 245              	.LC0:
 246 0000 69646C65 		.ascii	"idle\000"
 246      00
 247 0005 000000   		.section	.bss._idle_thread_wa,"aw",%nobits
 248              		.align	3
 249              		.set	.LANCHOR1,. + 0
 250              		.type	_idle_thread_wa, %object
 251              		.size	_idle_thread_wa, 192
 252              	_idle_thread_wa:
 253 0000 00000000 		.space	192
 253      00000000 
 253      00000000 
 253      00000000 
 253      00000000 
 254              		.text
 255              	.Letext0:
 256              		.file 2 "c:\\program files (x86)\\codesourcery\\sourcery_codebench_lite_for_arm_eabi\\bin\\../lib/
 257              		.file 3 "c:\\program files (x86)\\codesourcery\\sourcery_codebench_lite_for_arm_eabi\\bin\\../lib/
 258              		.file 4 "../../os/ports/GCC/ARMCMx/chtypes.h"
 259              		.file 5 "../../os/kernel/include/chlists.h"
 260              		.file 6 "../../os/kernel/include/chthreads.h"
 261              		.file 7 "../../os/ports/GCC/ARMCMx/chcore_v7m.h"
 262              		.file 8 "../../os/kernel/include/chvt.h"
 263              		.file 9 "../../os/kernel/include/chschd.h"
 264              		.file 10 "../../os/kernel/include/chmtx.h"
 265              		.file 11 "../../os/kernel/include/chregistry.h"
 266              		.file 12 "../../os/kernel/include/chmemcore.h"
 267              		.file 13 "../../os/kernel/include/chheap.h"
 268              		.section	.debug_info,"",%progbits
 269              	.Ldebug_info0:
 270 0000 9D080000 		.4byte	0x89d
 271 0004 0200     		.2byte	0x2
 272 0006 00000000 		.4byte	.Ldebug_abbrev0
 273 000a 04       		.byte	0x4
ARM GAS  C:\Users\LAB_ME~1\AppData\Local\Temp\cco2FdIK.s 			page 6


 274 000b 01       		.uleb128 0x1
 275 000c 7C020000 		.4byte	.LASF108
 276 0010 01       		.byte	0x1
 277 0011 06040000 		.4byte	.LASF109
 278 0015 68040000 		.4byte	.LASF110
 279 0019 00000000 		.4byte	.Ldebug_ranges0+0
 280 001d 00000000 		.4byte	0
 281 0021 00000000 		.4byte	0
 282 0025 00000000 		.4byte	.Ldebug_line0
 283 0029 02       		.uleb128 0x2
 284 002a 04       		.byte	0x4
 285 002b 05       		.byte	0x5
 286 002c 696E7400 		.ascii	"int\000"
 287 0030 03       		.uleb128 0x3
 288 0031 1B000000 		.4byte	.LASF2
 289 0035 02       		.byte	0x2
 290 0036 D5       		.byte	0xd5
 291 0037 3B000000 		.4byte	0x3b
 292 003b 04       		.uleb128 0x4
 293 003c 04       		.byte	0x4
 294 003d 07       		.byte	0x7
 295 003e 65010000 		.4byte	.LASF0
 296 0042 04       		.uleb128 0x4
 297 0043 01       		.byte	0x1
 298 0044 06       		.byte	0x6
 299 0045 B7000000 		.4byte	.LASF1
 300 0049 03       		.uleb128 0x3
 301 004a 22040000 		.4byte	.LASF3
 302 004e 03       		.byte	0x3
 303 004f 2A       		.byte	0x2a
 304 0050 54000000 		.4byte	0x54
 305 0054 04       		.uleb128 0x4
 306 0055 01       		.byte	0x1
 307 0056 08       		.byte	0x8
 308 0057 D1020000 		.4byte	.LASF4
 309 005b 04       		.uleb128 0x4
 310 005c 02       		.byte	0x2
 311 005d 05       		.byte	0x5
 312 005e F4020000 		.4byte	.LASF5
 313 0062 03       		.uleb128 0x3
 314 0063 0C010000 		.4byte	.LASF6
 315 0067 03       		.byte	0x3
 316 0068 36       		.byte	0x36
 317 0069 6D000000 		.4byte	0x6d
 318 006d 04       		.uleb128 0x4
 319 006e 02       		.byte	0x2
 320 006f 07       		.byte	0x7
 321 0070 B8010000 		.4byte	.LASF7
 322 0074 03       		.uleb128 0x3
 323 0075 C9020000 		.4byte	.LASF8
 324 0079 03       		.byte	0x3
 325 007a 4F       		.byte	0x4f
 326 007b 7F000000 		.4byte	0x7f
 327 007f 04       		.uleb128 0x4
 328 0080 04       		.byte	0x4
 329 0081 05       		.byte	0x5
 330 0082 FA000000 		.4byte	.LASF9
ARM GAS  C:\Users\LAB_ME~1\AppData\Local\Temp\cco2FdIK.s 			page 7


 331 0086 03       		.uleb128 0x3
 332 0087 67030000 		.4byte	.LASF10
 333 008b 03       		.byte	0x3
 334 008c 50       		.byte	0x50
 335 008d 91000000 		.4byte	0x91
 336 0091 04       		.uleb128 0x4
 337 0092 04       		.byte	0x4
 338 0093 07       		.byte	0x7
 339 0094 87010000 		.4byte	.LASF11
 340 0098 04       		.uleb128 0x4
 341 0099 08       		.byte	0x8
 342 009a 05       		.byte	0x5
 343 009b A9000000 		.4byte	.LASF12
 344 009f 03       		.uleb128 0x3
 345 00a0 29000000 		.4byte	.LASF13
 346 00a4 03       		.byte	0x3
 347 00a5 78       		.byte	0x78
 348 00a6 AA000000 		.4byte	0xaa
 349 00aa 04       		.uleb128 0x4
 350 00ab 08       		.byte	0x8
 351 00ac 07       		.byte	0x7
 352 00ad 4C000000 		.4byte	.LASF14
 353 00b1 03       		.uleb128 0x3
 354 00b2 D1010000 		.4byte	.LASF15
 355 00b6 04       		.byte	0x4
 356 00b7 28       		.byte	0x28
 357 00b8 49000000 		.4byte	0x49
 358 00bc 03       		.uleb128 0x3
 359 00bd 03010000 		.4byte	.LASF16
 360 00c1 04       		.byte	0x4
 361 00c2 29       		.byte	0x29
 362 00c3 49000000 		.4byte	0x49
 363 00c7 03       		.uleb128 0x3
 364 00c8 A7020000 		.4byte	.LASF17
 365 00cc 04       		.byte	0x4
 366 00cd 2A       		.byte	0x2a
 367 00ce 49000000 		.4byte	0x49
 368 00d2 03       		.uleb128 0x3
 369 00d3 F0000000 		.4byte	.LASF18
 370 00d7 04       		.byte	0x4
 371 00d8 2B       		.byte	0x2b
 372 00d9 49000000 		.4byte	0x49
 373 00dd 03       		.uleb128 0x3
 374 00de C1020000 		.4byte	.LASF19
 375 00e2 04       		.byte	0x4
 376 00e3 2C       		.byte	0x2c
 377 00e4 86000000 		.4byte	0x86
 378 00e8 03       		.uleb128 0x3
 379 00e9 CB010000 		.4byte	.LASF20
 380 00ed 04       		.byte	0x4
 381 00ee 2D       		.byte	0x2d
 382 00ef 74000000 		.4byte	0x74
 383 00f3 03       		.uleb128 0x3
 384 00f4 E5010000 		.4byte	.LASF21
 385 00f8 04       		.byte	0x4
 386 00f9 2F       		.byte	0x2f
 387 00fa 86000000 		.4byte	0x86
ARM GAS  C:\Users\LAB_ME~1\AppData\Local\Temp\cco2FdIK.s 			page 8


 388 00fe 03       		.uleb128 0x3
 389 00ff 9D030000 		.4byte	.LASF22
 390 0103 04       		.byte	0x4
 391 0104 31       		.byte	0x31
 392 0105 86000000 		.4byte	0x86
 393 0109 03       		.uleb128 0x3
 394 010a 48030000 		.4byte	.LASF23
 395 010e 05       		.byte	0x5
 396 010f 23       		.byte	0x23
 397 0110 14010000 		.4byte	0x114
 398 0114 05       		.uleb128 0x5
 399 0115 48030000 		.4byte	.LASF23
 400 0119 48       		.byte	0x48
 401 011a 06       		.byte	0x6
 402 011b 57       		.byte	0x57
 403 011c 39020000 		.4byte	0x239
 404 0120 06       		.uleb128 0x6
 405 0121 2A030000 		.4byte	.LASF24
 406 0125 06       		.byte	0x6
 407 0126 58       		.byte	0x58
 408 0127 5E020000 		.4byte	0x25e
 409 012b 02       		.byte	0x2
 410 012c 23       		.byte	0x23
 411 012d 00       		.uleb128 0
 412 012e 06       		.uleb128 0x6
 413 012f BA020000 		.4byte	.LASF25
 414 0133 06       		.byte	0x6
 415 0134 5A       		.byte	0x5a
 416 0135 5E020000 		.4byte	0x25e
 417 0139 02       		.byte	0x2
 418 013a 23       		.byte	0x23
 419 013b 04       		.uleb128 0x4
 420 013c 06       		.uleb128 0x6
 421 013d 85000000 		.4byte	.LASF26
 422 0141 06       		.byte	0x6
 423 0142 5C       		.byte	0x5c
 424 0143 DD000000 		.4byte	0xdd
 425 0147 02       		.byte	0x2
 426 0148 23       		.byte	0x23
 427 0149 08       		.uleb128 0x8
 428 014a 06       		.uleb128 0x6
 429 014b 84040000 		.4byte	.LASF27
 430 014f 06       		.byte	0x6
 431 0150 5D       		.byte	0x5d
 432 0151 37030000 		.4byte	0x337
 433 0155 02       		.byte	0x2
 434 0156 23       		.byte	0x23
 435 0157 0C       		.uleb128 0xc
 436 0158 06       		.uleb128 0x6
 437 0159 1F010000 		.4byte	.LASF28
 438 015d 06       		.byte	0x6
 439 015e 5F       		.byte	0x5f
 440 015f 5E020000 		.4byte	0x25e
 441 0163 02       		.byte	0x2
 442 0164 23       		.byte	0x23
 443 0165 10       		.uleb128 0x10
 444 0166 06       		.uleb128 0x6
ARM GAS  C:\Users\LAB_ME~1\AppData\Local\Temp\cco2FdIK.s 			page 9


 445 0167 59020000 		.4byte	.LASF29
 446 016b 06       		.byte	0x6
 447 016c 60       		.byte	0x60
 448 016d 5E020000 		.4byte	0x25e
 449 0171 02       		.byte	0x2
 450 0172 23       		.byte	0x23
 451 0173 14       		.uleb128 0x14
 452 0174 06       		.uleb128 0x6
 453 0175 3C040000 		.4byte	.LASF30
 454 0179 06       		.byte	0x6
 455 017a 67       		.byte	0x67
 456 017b 18050000 		.4byte	0x518
 457 017f 02       		.byte	0x2
 458 0180 23       		.byte	0x23
 459 0181 18       		.uleb128 0x18
 460 0182 06       		.uleb128 0x6
 461 0183 FE020000 		.4byte	.LASF31
 462 0187 06       		.byte	0x6
 463 0188 72       		.byte	0x72
 464 0189 BC000000 		.4byte	0xbc
 465 018d 02       		.byte	0x2
 466 018e 23       		.byte	0x23
 467 018f 1C       		.uleb128 0x1c
 468 0190 06       		.uleb128 0x6
 469 0191 40030000 		.4byte	.LASF32
 470 0195 06       		.byte	0x6
 471 0196 76       		.byte	0x76
 472 0197 B1000000 		.4byte	0xb1
 473 019b 02       		.byte	0x2
 474 019c 23       		.byte	0x23
 475 019d 1D       		.uleb128 0x1d
 476 019e 06       		.uleb128 0x6
 477 019f EF030000 		.4byte	.LASF33
 478 01a3 06       		.byte	0x6
 479 01a4 7B       		.byte	0x7b
 480 01a5 C7000000 		.4byte	0xc7
 481 01a9 02       		.byte	0x2
 482 01aa 23       		.byte	0x23
 483 01ab 1E       		.uleb128 0x1e
 484 01ac 06       		.uleb128 0x6
 485 01ad 06030000 		.4byte	.LASF34
 486 01b1 06       		.byte	0x6
 487 01b2 81       		.byte	0x81
 488 01b3 D2000000 		.4byte	0xd2
 489 01b7 02       		.byte	0x2
 490 01b8 23       		.byte	0x23
 491 01b9 1F       		.uleb128 0x1f
 492 01ba 06       		.uleb128 0x6
 493 01bb C4030000 		.4byte	.LASF35
 494 01bf 06       		.byte	0x6
 495 01c0 88       		.byte	0x88
 496 01c1 23040000 		.4byte	0x423
 497 01c5 02       		.byte	0x2
 498 01c6 23       		.byte	0x23
 499 01c7 20       		.uleb128 0x20
 500 01c8 07       		.uleb128 0x7
 501 01c9 705F7500 		.ascii	"p_u\000"
ARM GAS  C:\Users\LAB_ME~1\AppData\Local\Temp\cco2FdIK.s 			page 10


 502 01cd 06       		.byte	0x6
 503 01ce AD       		.byte	0xad
 504 01cf E3040000 		.4byte	0x4e3
 505 01d3 02       		.byte	0x2
 506 01d4 23       		.byte	0x23
 507 01d5 24       		.uleb128 0x24
 508 01d6 06       		.uleb128 0x6
 509 01d7 8A040000 		.4byte	.LASF36
 510 01db 06       		.byte	0x6
 511 01dc B2       		.byte	0xb2
 512 01dd 86020000 		.4byte	0x286
 513 01e1 02       		.byte	0x2
 514 01e2 23       		.byte	0x23
 515 01e3 28       		.uleb128 0x28
 516 01e4 06       		.uleb128 0x6
 517 01e5 D2030000 		.4byte	.LASF37
 518 01e9 06       		.byte	0x6
 519 01ea B8       		.byte	0xb8
 520 01eb 64020000 		.4byte	0x264
 521 01ef 02       		.byte	0x2
 522 01f0 23       		.byte	0x23
 523 01f1 2C       		.uleb128 0x2c
 524 01f2 06       		.uleb128 0x6
 525 01f3 15000000 		.4byte	.LASF38
 526 01f7 06       		.byte	0x6
 527 01f8 BC       		.byte	0xbc
 528 01f9 E8000000 		.4byte	0xe8
 529 01fd 02       		.byte	0x2
 530 01fe 23       		.byte	0x23
 531 01ff 34       		.uleb128 0x34
 532 0200 06       		.uleb128 0x6
 533 0201 5C030000 		.4byte	.LASF39
 534 0205 06       		.byte	0x6
 535 0206 C2       		.byte	0xc2
 536 0207 F3000000 		.4byte	0xf3
 537 020b 02       		.byte	0x2
 538 020c 23       		.byte	0x23
 539 020d 38       		.uleb128 0x38
 540 020e 06       		.uleb128 0x6
 541 020f EA020000 		.4byte	.LASF40
 542 0213 06       		.byte	0x6
 543 0214 C9       		.byte	0xc9
 544 0215 2A050000 		.4byte	0x52a
 545 0219 02       		.byte	0x2
 546 021a 23       		.byte	0x23
 547 021b 3C       		.uleb128 0x3c
 548 021c 06       		.uleb128 0x6
 549 021d A7030000 		.4byte	.LASF41
 550 0221 06       		.byte	0x6
 551 0222 CD       		.byte	0xcd
 552 0223 DD000000 		.4byte	0xdd
 553 0227 02       		.byte	0x2
 554 0228 23       		.byte	0x23
 555 0229 40       		.uleb128 0x40
 556 022a 06       		.uleb128 0x6
 557 022b E0000000 		.4byte	.LASF42
 558 022f 06       		.byte	0x6
ARM GAS  C:\Users\LAB_ME~1\AppData\Local\Temp\cco2FdIK.s 			page 11


 559 0230 D3       		.byte	0xd3
 560 0231 9C020000 		.4byte	0x29c
 561 0235 02       		.byte	0x2
 562 0236 23       		.byte	0x23
 563 0237 44       		.uleb128 0x44
 564 0238 00       		.byte	0
 565 0239 08       		.uleb128 0x8
 566 023a 08       		.byte	0x8
 567 023b 05       		.byte	0x5
 568 023c 5A       		.byte	0x5a
 569 023d 5E020000 		.4byte	0x25e
 570 0241 06       		.uleb128 0x6
 571 0242 2A030000 		.4byte	.LASF24
 572 0246 05       		.byte	0x5
 573 0247 5B       		.byte	0x5b
 574 0248 5E020000 		.4byte	0x25e
 575 024c 02       		.byte	0x2
 576 024d 23       		.byte	0x23
 577 024e 00       		.uleb128 0
 578 024f 06       		.uleb128 0x6
 579 0250 BA020000 		.4byte	.LASF25
 580 0254 05       		.byte	0x5
 581 0255 5D       		.byte	0x5d
 582 0256 5E020000 		.4byte	0x25e
 583 025a 02       		.byte	0x2
 584 025b 23       		.byte	0x23
 585 025c 04       		.uleb128 0x4
 586 025d 00       		.byte	0
 587 025e 09       		.uleb128 0x9
 588 025f 04       		.byte	0x4
 589 0260 09010000 		.4byte	0x109
 590 0264 03       		.uleb128 0x3
 591 0265 67020000 		.4byte	.LASF43
 592 0269 05       		.byte	0x5
 593 026a 5F       		.byte	0x5f
 594 026b 39020000 		.4byte	0x239
 595 026f 08       		.uleb128 0x8
 596 0270 04       		.byte	0x4
 597 0271 05       		.byte	0x5
 598 0272 64       		.byte	0x64
 599 0273 86020000 		.4byte	0x286
 600 0277 06       		.uleb128 0x6
 601 0278 2A030000 		.4byte	.LASF24
 602 027c 05       		.byte	0x5
 603 027d 66       		.byte	0x66
 604 027e 5E020000 		.4byte	0x25e
 605 0282 02       		.byte	0x2
 606 0283 23       		.byte	0x23
 607 0284 00       		.uleb128 0
 608 0285 00       		.byte	0
 609 0286 03       		.uleb128 0x3
 610 0287 D9010000 		.4byte	.LASF44
 611 028b 05       		.byte	0x5
 612 028c 69       		.byte	0x69
 613 028d 6F020000 		.4byte	0x26f
 614 0291 03       		.uleb128 0x3
 615 0292 3F010000 		.4byte	.LASF45
ARM GAS  C:\Users\LAB_ME~1\AppData\Local\Temp\cco2FdIK.s 			page 12


 616 0296 07       		.byte	0x7
 617 0297 DE       		.byte	0xde
 618 0298 9C020000 		.4byte	0x29c
 619 029c 0A       		.uleb128 0xa
 620 029d 04       		.byte	0x4
 621 029e 03       		.uleb128 0x3
 622 029f F7010000 		.4byte	.LASF46
 623 02a3 07       		.byte	0x7
 624 02a4 E4       		.byte	0xe4
 625 02a5 9F000000 		.4byte	0x9f
 626 02a9 0B       		.uleb128 0xb
 627 02aa CB030000 		.4byte	.LASF47
 628 02ae 24       		.byte	0x24
 629 02af 07       		.byte	0x7
 630 02b0 0501     		.2byte	0x105
 631 02b2 37030000 		.4byte	0x337
 632 02b6 0C       		.uleb128 0xc
 633 02b7 723400   		.ascii	"r4\000"
 634 02ba 07       		.byte	0x7
 635 02bb 1801     		.2byte	0x118
 636 02bd 91020000 		.4byte	0x291
 637 02c1 02       		.byte	0x2
 638 02c2 23       		.byte	0x23
 639 02c3 00       		.uleb128 0
 640 02c4 0C       		.uleb128 0xc
 641 02c5 723500   		.ascii	"r5\000"
 642 02c8 07       		.byte	0x7
 643 02c9 1901     		.2byte	0x119
 644 02cb 91020000 		.4byte	0x291
 645 02cf 02       		.byte	0x2
 646 02d0 23       		.byte	0x23
 647 02d1 04       		.uleb128 0x4
 648 02d2 0C       		.uleb128 0xc
 649 02d3 723600   		.ascii	"r6\000"
 650 02d6 07       		.byte	0x7
 651 02d7 1A01     		.2byte	0x11a
 652 02d9 91020000 		.4byte	0x291
 653 02dd 02       		.byte	0x2
 654 02de 23       		.byte	0x23
 655 02df 08       		.uleb128 0x8
 656 02e0 0C       		.uleb128 0xc
 657 02e1 723700   		.ascii	"r7\000"
 658 02e4 07       		.byte	0x7
 659 02e5 1B01     		.2byte	0x11b
 660 02e7 91020000 		.4byte	0x291
 661 02eb 02       		.byte	0x2
 662 02ec 23       		.byte	0x23
 663 02ed 0C       		.uleb128 0xc
 664 02ee 0C       		.uleb128 0xc
 665 02ef 723800   		.ascii	"r8\000"
 666 02f2 07       		.byte	0x7
 667 02f3 1C01     		.2byte	0x11c
 668 02f5 91020000 		.4byte	0x291
 669 02f9 02       		.byte	0x2
 670 02fa 23       		.byte	0x23
 671 02fb 10       		.uleb128 0x10
 672 02fc 0C       		.uleb128 0xc
ARM GAS  C:\Users\LAB_ME~1\AppData\Local\Temp\cco2FdIK.s 			page 13


 673 02fd 723900   		.ascii	"r9\000"
 674 0300 07       		.byte	0x7
 675 0301 1D01     		.2byte	0x11d
 676 0303 91020000 		.4byte	0x291
 677 0307 02       		.byte	0x2
 678 0308 23       		.byte	0x23
 679 0309 14       		.uleb128 0x14
 680 030a 0C       		.uleb128 0xc
 681 030b 72313000 		.ascii	"r10\000"
 682 030f 07       		.byte	0x7
 683 0310 1E01     		.2byte	0x11e
 684 0312 91020000 		.4byte	0x291
 685 0316 02       		.byte	0x2
 686 0317 23       		.byte	0x23
 687 0318 18       		.uleb128 0x18
 688 0319 0C       		.uleb128 0xc
 689 031a 72313100 		.ascii	"r11\000"
 690 031e 07       		.byte	0x7
 691 031f 1F01     		.2byte	0x11f
 692 0321 91020000 		.4byte	0x291
 693 0325 02       		.byte	0x2
 694 0326 23       		.byte	0x23
 695 0327 1C       		.uleb128 0x1c
 696 0328 0C       		.uleb128 0xc
 697 0329 6C7200   		.ascii	"lr\000"
 698 032c 07       		.byte	0x7
 699 032d 2001     		.2byte	0x120
 700 032f 91020000 		.4byte	0x291
 701 0333 02       		.byte	0x2
 702 0334 23       		.byte	0x23
 703 0335 20       		.uleb128 0x20
 704 0336 00       		.byte	0
 705 0337 0B       		.uleb128 0xb
 706 0338 B0010000 		.4byte	.LASF48
 707 033c 04       		.byte	0x4
 708 033d 07       		.byte	0x7
 709 033e 2A01     		.2byte	0x12a
 710 0340 54030000 		.4byte	0x354
 711 0344 0C       		.uleb128 0xc
 712 0345 72313300 		.ascii	"r13\000"
 713 0349 07       		.byte	0x7
 714 034a 2B01     		.2byte	0x12b
 715 034c 54030000 		.4byte	0x354
 716 0350 02       		.byte	0x2
 717 0351 23       		.byte	0x23
 718 0352 00       		.uleb128 0
 719 0353 00       		.byte	0
 720 0354 09       		.uleb128 0x9
 721 0355 04       		.byte	0x4
 722 0356 A9020000 		.4byte	0x2a9
 723 035a 04       		.uleb128 0x4
 724 035b 04       		.byte	0x4
 725 035c 07       		.byte	0x7
 726 035d 30020000 		.4byte	.LASF49
 727 0361 03       		.uleb128 0x3
 728 0362 B2030000 		.4byte	.LASF50
 729 0366 08       		.byte	0x8
ARM GAS  C:\Users\LAB_ME~1\AppData\Local\Temp\cco2FdIK.s 			page 14


 730 0367 4E       		.byte	0x4e
 731 0368 6C030000 		.4byte	0x36c
 732 036c 09       		.uleb128 0x9
 733 036d 04       		.byte	0x4
 734 036e 72030000 		.4byte	0x372
 735 0372 0D       		.uleb128 0xd
 736 0373 01       		.byte	0x1
 737 0374 7E030000 		.4byte	0x37e
 738 0378 0E       		.uleb128 0xe
 739 0379 9C020000 		.4byte	0x29c
 740 037d 00       		.byte	0
 741 037e 03       		.uleb128 0x3
 742 037f 84030000 		.4byte	.LASF51
 743 0383 08       		.byte	0x8
 744 0384 53       		.byte	0x53
 745 0385 89030000 		.4byte	0x389
 746 0389 05       		.uleb128 0x5
 747 038a 84030000 		.4byte	.LASF51
 748 038e 14       		.byte	0x14
 749 038f 08       		.byte	0x8
 750 0390 5A       		.byte	0x5a
 751 0391 DC030000 		.4byte	0x3dc
 752 0395 06       		.uleb128 0x6
 753 0396 7F010000 		.4byte	.LASF52
 754 039a 08       		.byte	0x8
 755 039b 5B       		.byte	0x5b
 756 039c DC030000 		.4byte	0x3dc
 757 03a0 02       		.byte	0x2
 758 03a1 23       		.byte	0x23
 759 03a2 00       		.uleb128 0
 760 03a3 06       		.uleb128 0x6
 761 03a4 48010000 		.4byte	.LASF53
 762 03a8 08       		.byte	0x8
 763 03a9 5D       		.byte	0x5d
 764 03aa DC030000 		.4byte	0x3dc
 765 03ae 02       		.byte	0x2
 766 03af 23       		.byte	0x23
 767 03b0 04       		.uleb128 0x4
 768 03b1 06       		.uleb128 0x6
 769 03b2 28020000 		.4byte	.LASF54
 770 03b6 08       		.byte	0x8
 771 03b7 5F       		.byte	0x5f
 772 03b8 FE000000 		.4byte	0xfe
 773 03bc 02       		.byte	0x2
 774 03bd 23       		.byte	0x23
 775 03be 08       		.uleb128 0x8
 776 03bf 06       		.uleb128 0x6
 777 03c0 39020000 		.4byte	.LASF55
 778 03c4 08       		.byte	0x8
 779 03c5 60       		.byte	0x60
 780 03c6 61030000 		.4byte	0x361
 781 03ca 02       		.byte	0x2
 782 03cb 23       		.byte	0x23
 783 03cc 0C       		.uleb128 0xc
 784 03cd 06       		.uleb128 0x6
 785 03ce DD030000 		.4byte	.LASF56
 786 03d2 08       		.byte	0x8
ARM GAS  C:\Users\LAB_ME~1\AppData\Local\Temp\cco2FdIK.s 			page 15


 787 03d3 62       		.byte	0x62
 788 03d4 9C020000 		.4byte	0x29c
 789 03d8 02       		.byte	0x2
 790 03d9 23       		.byte	0x23
 791 03da 10       		.uleb128 0x10
 792 03db 00       		.byte	0
 793 03dc 09       		.uleb128 0x9
 794 03dd 04       		.byte	0x4
 795 03de 7E030000 		.4byte	0x37e
 796 03e2 08       		.uleb128 0x8
 797 03e3 10       		.byte	0x10
 798 03e4 08       		.byte	0x8
 799 03e5 6C       		.byte	0x6c
 800 03e6 23040000 		.4byte	0x423
 801 03ea 06       		.uleb128 0x6
 802 03eb 7F010000 		.4byte	.LASF52
 803 03ef 08       		.byte	0x8
 804 03f0 6D       		.byte	0x6d
 805 03f1 DC030000 		.4byte	0x3dc
 806 03f5 02       		.byte	0x2
 807 03f6 23       		.byte	0x23
 808 03f7 00       		.uleb128 0
 809 03f8 06       		.uleb128 0x6
 810 03f9 48010000 		.4byte	.LASF53
 811 03fd 08       		.byte	0x8
 812 03fe 6F       		.byte	0x6f
 813 03ff DC030000 		.4byte	0x3dc
 814 0403 02       		.byte	0x2
 815 0404 23       		.byte	0x23
 816 0405 04       		.uleb128 0x4
 817 0406 06       		.uleb128 0x6
 818 0407 28020000 		.4byte	.LASF54
 819 040b 08       		.byte	0x8
 820 040c 71       		.byte	0x71
 821 040d FE000000 		.4byte	0xfe
 822 0411 02       		.byte	0x2
 823 0412 23       		.byte	0x23
 824 0413 08       		.uleb128 0x8
 825 0414 06       		.uleb128 0x6
 826 0415 43040000 		.4byte	.LASF57
 827 0419 08       		.byte	0x8
 828 041a 72       		.byte	0x72
 829 041b 23040000 		.4byte	0x423
 830 041f 02       		.byte	0x2
 831 0420 23       		.byte	0x23
 832 0421 0C       		.uleb128 0xc
 833 0422 00       		.byte	0
 834 0423 0F       		.uleb128 0xf
 835 0424 FE000000 		.4byte	0xfe
 836 0428 03       		.uleb128 0x3
 837 0429 59040000 		.4byte	.LASF58
 838 042d 08       		.byte	0x8
 839 042e 73       		.byte	0x73
 840 042f E2030000 		.4byte	0x3e2
 841 0433 08       		.uleb128 0x8
 842 0434 1C       		.byte	0x1c
 843 0435 09       		.byte	0x9
ARM GAS  C:\Users\LAB_ME~1\AppData\Local\Temp\cco2FdIK.s 			page 16


 844 0436 57       		.byte	0x57
 845 0437 90040000 		.4byte	0x490
 846 043b 06       		.uleb128 0x6
 847 043c 7C030000 		.4byte	.LASF59
 848 0440 09       		.byte	0x9
 849 0441 58       		.byte	0x58
 850 0442 64020000 		.4byte	0x264
 851 0446 02       		.byte	0x2
 852 0447 23       		.byte	0x23
 853 0448 00       		.uleb128 0
 854 0449 06       		.uleb128 0x6
 855 044a 1C030000 		.4byte	.LASF60
 856 044e 09       		.byte	0x9
 857 044f 59       		.byte	0x59
 858 0450 DD000000 		.4byte	0xdd
 859 0454 02       		.byte	0x2
 860 0455 23       		.byte	0x23
 861 0456 08       		.uleb128 0x8
 862 0457 06       		.uleb128 0x6
 863 0458 61020000 		.4byte	.LASF61
 864 045c 09       		.byte	0x9
 865 045d 5B       		.byte	0x5b
 866 045e 37030000 		.4byte	0x337
 867 0462 02       		.byte	0x2
 868 0463 23       		.byte	0x23
 869 0464 0C       		.uleb128 0xc
 870 0465 06       		.uleb128 0x6
 871 0466 37010000 		.4byte	.LASF62
 872 046a 09       		.byte	0x9
 873 046b 5E       		.byte	0x5e
 874 046c 5E020000 		.4byte	0x25e
 875 0470 02       		.byte	0x2
 876 0471 23       		.byte	0x23
 877 0472 10       		.uleb128 0x10
 878 0473 06       		.uleb128 0x6
 879 0474 92020000 		.4byte	.LASF63
 880 0478 09       		.byte	0x9
 881 0479 5F       		.byte	0x5f
 882 047a 5E020000 		.4byte	0x25e
 883 047e 02       		.byte	0x2
 884 047f 23       		.byte	0x23
 885 0480 14       		.uleb128 0x14
 886 0481 06       		.uleb128 0x6
 887 0482 88020000 		.4byte	.LASF64
 888 0486 09       		.byte	0x9
 889 0487 62       		.byte	0x62
 890 0488 5E020000 		.4byte	0x25e
 891 048c 02       		.byte	0x2
 892 048d 23       		.byte	0x23
 893 048e 18       		.uleb128 0x18
 894 048f 00       		.byte	0
 895 0490 03       		.uleb128 0x3
 896 0491 F6030000 		.4byte	.LASF65
 897 0495 09       		.byte	0x9
 898 0496 64       		.byte	0x64
 899 0497 33040000 		.4byte	0x433
 900 049b 05       		.uleb128 0x5
ARM GAS  C:\Users\LAB_ME~1\AppData\Local\Temp\cco2FdIK.s 			page 17


 901 049c F1010000 		.4byte	.LASF66
 902 04a0 10       		.byte	0x10
 903 04a1 0A       		.byte	0xa
 904 04a2 25       		.byte	0x25
 905 04a3 D2040000 		.4byte	0x4d2
 906 04a7 06       		.uleb128 0x6
 907 04a8 E8000000 		.4byte	.LASF67
 908 04ac 0A       		.byte	0xa
 909 04ad 26       		.byte	0x26
 910 04ae 64020000 		.4byte	0x264
 911 04b2 02       		.byte	0x2
 912 04b3 23       		.byte	0x23
 913 04b4 00       		.uleb128 0
 914 04b5 06       		.uleb128 0x6
 915 04b6 60040000 		.4byte	.LASF68
 916 04ba 0A       		.byte	0xa
 917 04bb 28       		.byte	0x28
 918 04bc 5E020000 		.4byte	0x25e
 919 04c0 02       		.byte	0x2
 920 04c1 23       		.byte	0x23
 921 04c2 08       		.uleb128 0x8
 922 04c3 06       		.uleb128 0x6
 923 04c4 96030000 		.4byte	.LASF69
 924 04c8 0A       		.byte	0xa
 925 04c9 2A       		.byte	0x2a
 926 04ca D2040000 		.4byte	0x4d2
 927 04ce 02       		.byte	0x2
 928 04cf 23       		.byte	0x23
 929 04d0 0C       		.uleb128 0xc
 930 04d1 00       		.byte	0
 931 04d2 09       		.uleb128 0x9
 932 04d3 04       		.byte	0x4
 933 04d4 9B040000 		.4byte	0x49b
 934 04d8 03       		.uleb128 0x3
 935 04d9 F1010000 		.4byte	.LASF66
 936 04dd 0A       		.byte	0xa
 937 04de 2C       		.byte	0x2c
 938 04df 9B040000 		.4byte	0x49b
 939 04e3 10       		.uleb128 0x10
 940 04e4 04       		.byte	0x4
 941 04e5 06       		.byte	0x6
 942 04e6 8F       		.byte	0x8f
 943 04e7 18050000 		.4byte	0x518
 944 04eb 11       		.uleb128 0x11
 945 04ec 22000000 		.4byte	.LASF70
 946 04f0 06       		.byte	0x6
 947 04f1 96       		.byte	0x96
 948 04f2 E8000000 		.4byte	0xe8
 949 04f6 11       		.uleb128 0x11
 950 04f7 71000000 		.4byte	.LASF71
 951 04fb 06       		.byte	0x6
 952 04fc 9D       		.byte	0x9d
 953 04fd E8000000 		.4byte	0xe8
 954 0501 11       		.uleb128 0x11
 955 0502 35040000 		.4byte	.LASF72
 956 0506 06       		.byte	0x6
 957 0507 A4       		.byte	0xa4
ARM GAS  C:\Users\LAB_ME~1\AppData\Local\Temp\cco2FdIK.s 			page 18


 958 0508 9C020000 		.4byte	0x29c
 959 050c 11       		.uleb128 0x11
 960 050d 23030000 		.4byte	.LASF73
 961 0511 06       		.byte	0x6
 962 0512 AB       		.byte	0xab
 963 0513 F3000000 		.4byte	0xf3
 964 0517 00       		.byte	0
 965 0518 09       		.uleb128 0x9
 966 0519 04       		.byte	0x4
 967 051a 1E050000 		.4byte	0x51e
 968 051e 12       		.uleb128 0x12
 969 051f 23050000 		.4byte	0x523
 970 0523 04       		.uleb128 0x4
 971 0524 01       		.byte	0x1
 972 0525 08       		.byte	0x8
 973 0526 91030000 		.4byte	.LASF74
 974 052a 09       		.uleb128 0x9
 975 052b 04       		.byte	0x4
 976 052c D8040000 		.4byte	0x4d8
 977 0530 03       		.uleb128 0x3
 978 0531 00000000 		.4byte	.LASF75
 979 0535 06       		.byte	0x6
 980 0536 DE       		.byte	0xde
 981 0537 3B050000 		.4byte	0x53b
 982 053b 09       		.uleb128 0x9
 983 053c 04       		.byte	0x4
 984 053d 41050000 		.4byte	0x541
 985 0541 13       		.uleb128 0x13
 986 0542 01       		.byte	0x1
 987 0543 E8000000 		.4byte	0xe8
 988 0547 51050000 		.4byte	0x551
 989 054b 0E       		.uleb128 0xe
 990 054c 9C020000 		.4byte	0x29c
 991 0550 00       		.byte	0
 992 0551 08       		.uleb128 0x8
 993 0552 16       		.byte	0x16
 994 0553 0B       		.byte	0xb
 995 0554 25       		.byte	0x25
 996 0555 56060000 		.4byte	0x656
 997 0559 06       		.uleb128 0x6
 998 055a A2010000 		.4byte	.LASF76
 999 055e 0B       		.byte	0xb
 1000 055f 26       		.byte	0x26
 1001 0560 56060000 		.4byte	0x656
 1002 0564 02       		.byte	0x2
 1003 0565 23       		.byte	0x23
 1004 0566 00       		.uleb128 0
 1005 0567 06       		.uleb128 0x6
 1006 0568 14020000 		.4byte	.LASF77
 1007 056c 0B       		.byte	0xb
 1008 056d 27       		.byte	0x27
 1009 056e 49000000 		.4byte	0x49
 1010 0572 02       		.byte	0x2
 1011 0573 23       		.byte	0x23
 1012 0574 04       		.uleb128 0x4
 1013 0575 06       		.uleb128 0x6
 1014 0576 74020000 		.4byte	.LASF78
ARM GAS  C:\Users\LAB_ME~1\AppData\Local\Temp\cco2FdIK.s 			page 19


 1015 057a 0B       		.byte	0xb
 1016 057b 28       		.byte	0x28
 1017 057c 49000000 		.4byte	0x49
 1018 0580 02       		.byte	0x2
 1019 0581 23       		.byte	0x23
 1020 0582 05       		.uleb128 0x5
 1021 0583 06       		.uleb128 0x6
 1022 0584 4E040000 		.4byte	.LASF79
 1023 0588 0B       		.byte	0xb
 1024 0589 29       		.byte	0x29
 1025 058a 62000000 		.4byte	0x62
 1026 058e 02       		.byte	0x2
 1027 058f 23       		.byte	0x23
 1028 0590 06       		.uleb128 0x6
 1029 0591 06       		.uleb128 0x6
 1030 0592 AF020000 		.4byte	.LASF80
 1031 0596 0B       		.byte	0xb
 1032 0597 2A       		.byte	0x2a
 1033 0598 49000000 		.4byte	0x49
 1034 059c 02       		.byte	0x2
 1035 059d 23       		.byte	0x23
 1036 059e 08       		.uleb128 0x8
 1037 059f 06       		.uleb128 0x6
 1038 05a0 41020000 		.4byte	.LASF81
 1039 05a4 0B       		.byte	0xb
 1040 05a5 2B       		.byte	0x2b
 1041 05a6 49000000 		.4byte	0x49
 1042 05aa 02       		.byte	0x2
 1043 05ab 23       		.byte	0x23
 1044 05ac 09       		.uleb128 0x9
 1045 05ad 06       		.uleb128 0x6
 1046 05ae 63000000 		.4byte	.LASF82
 1047 05b2 0B       		.byte	0xb
 1048 05b3 2C       		.byte	0x2c
 1049 05b4 49000000 		.4byte	0x49
 1050 05b8 02       		.byte	0x2
 1051 05b9 23       		.byte	0x23
 1052 05ba 0A       		.uleb128 0xa
 1053 05bb 06       		.uleb128 0x6
 1054 05bc 70030000 		.4byte	.LASF83
 1055 05c0 0B       		.byte	0xb
 1056 05c1 2D       		.byte	0x2d
 1057 05c2 49000000 		.4byte	0x49
 1058 05c6 02       		.byte	0x2
 1059 05c7 23       		.byte	0x23
 1060 05c8 0B       		.uleb128 0xb
 1061 05c9 06       		.uleb128 0x6
 1062 05ca E4030000 		.4byte	.LASF84
 1063 05ce 0B       		.byte	0xb
 1064 05cf 2E       		.byte	0x2e
 1065 05d0 49000000 		.4byte	0x49
 1066 05d4 02       		.byte	0x2
 1067 05d5 23       		.byte	0x23
 1068 05d6 0C       		.uleb128 0xc
 1069 05d7 06       		.uleb128 0x6
 1070 05d8 4F030000 		.4byte	.LASF85
 1071 05dc 0B       		.byte	0xb
ARM GAS  C:\Users\LAB_ME~1\AppData\Local\Temp\cco2FdIK.s 			page 20


 1072 05dd 2F       		.byte	0x2f
 1073 05de 49000000 		.4byte	0x49
 1074 05e2 02       		.byte	0x2
 1075 05e3 23       		.byte	0x23
 1076 05e4 0D       		.uleb128 0xd
 1077 05e5 06       		.uleb128 0x6
 1078 05e6 08000000 		.4byte	.LASF86
 1079 05ea 0B       		.byte	0xb
 1080 05eb 30       		.byte	0x30
 1081 05ec 49000000 		.4byte	0x49
 1082 05f0 02       		.byte	0x2
 1083 05f1 23       		.byte	0x23
 1084 05f2 0E       		.uleb128 0xe
 1085 05f3 06       		.uleb128 0x6
 1086 05f4 4D020000 		.4byte	.LASF87
 1087 05f8 0B       		.byte	0xb
 1088 05f9 31       		.byte	0x31
 1089 05fa 49000000 		.4byte	0x49
 1090 05fe 02       		.byte	0x2
 1091 05ff 23       		.byte	0x23
 1092 0600 0F       		.uleb128 0xf
 1093 0601 06       		.uleb128 0x6
 1094 0602 C3000000 		.4byte	.LASF88
 1095 0606 0B       		.byte	0xb
 1096 0607 32       		.byte	0x32
 1097 0608 49000000 		.4byte	0x49
 1098 060c 02       		.byte	0x2
 1099 060d 23       		.byte	0x23
 1100 060e 10       		.uleb128 0x10
 1101 060f 06       		.uleb128 0x6
 1102 0610 8C000000 		.4byte	.LASF89
 1103 0614 0B       		.byte	0xb
 1104 0615 34       		.byte	0x34
 1105 0616 49000000 		.4byte	0x49
 1106 061a 02       		.byte	0x2
 1107 061b 23       		.byte	0x23
 1108 061c 11       		.uleb128 0x11
 1109 061d 06       		.uleb128 0x6
 1110 061e D3000000 		.4byte	.LASF90
 1111 0622 0B       		.byte	0xb
 1112 0623 35       		.byte	0x35
 1113 0624 49000000 		.4byte	0x49
 1114 0628 02       		.byte	0x2
 1115 0629 23       		.byte	0x23
 1116 062a 12       		.uleb128 0x12
 1117 062b 06       		.uleb128 0x6
 1118 062c 1C020000 		.4byte	.LASF91
 1119 0630 0B       		.byte	0xb
 1120 0631 36       		.byte	0x36
 1121 0632 49000000 		.4byte	0x49
 1122 0636 02       		.byte	0x2
 1123 0637 23       		.byte	0x23
 1124 0638 13       		.uleb128 0x13
 1125 0639 06       		.uleb128 0x6
 1126 063a 31030000 		.4byte	.LASF92
 1127 063e 0B       		.byte	0xb
 1128 063f 37       		.byte	0x37
ARM GAS  C:\Users\LAB_ME~1\AppData\Local\Temp\cco2FdIK.s 			page 21


 1129 0640 49000000 		.4byte	0x49
 1130 0644 02       		.byte	0x2
 1131 0645 23       		.byte	0x23
 1132 0646 14       		.uleb128 0x14
 1133 0647 06       		.uleb128 0x6
 1134 0648 10030000 		.4byte	.LASF93
 1135 064c 0B       		.byte	0xb
 1136 064d 39       		.byte	0x39
 1137 064e 49000000 		.4byte	0x49
 1138 0652 02       		.byte	0x2
 1139 0653 23       		.byte	0x23
 1140 0654 15       		.uleb128 0x15
 1141 0655 00       		.byte	0
 1142 0656 14       		.uleb128 0x14
 1143 0657 23050000 		.4byte	0x523
 1144 065b 66060000 		.4byte	0x666
 1145 065f 15       		.uleb128 0x15
 1146 0660 5A030000 		.4byte	0x35a
 1147 0664 03       		.byte	0x3
 1148 0665 00       		.byte	0
 1149 0666 03       		.uleb128 0x3
 1150 0667 15010000 		.4byte	.LASF94
 1151 066b 0B       		.byte	0xb
 1152 066c 3A       		.byte	0x3a
 1153 066d 51050000 		.4byte	0x551
 1154 0671 16       		.uleb128 0x16
 1155 0672 01       		.byte	0x1
 1156 0673 9A020000 		.4byte	.LASF95
 1157 0677 01       		.byte	0x1
 1158 0678 36       		.byte	0x36
 1159 0679 01       		.byte	0x1
 1160 067a 00000000 		.4byte	.LFB7
 1161 067e 14000000 		.4byte	.LFE7
 1162 0682 02       		.byte	0x2
 1163 0683 7D       		.byte	0x7d
 1164 0684 00       		.sleb128 0
 1165 0685 01       		.byte	0x1
 1166 0686 96060000 		.4byte	0x696
 1167 068a 17       		.uleb128 0x17
 1168 068b 7000     		.ascii	"p\000"
 1169 068d 01       		.byte	0x1
 1170 068e 36       		.byte	0x36
 1171 068f 9C020000 		.4byte	0x29c
 1172 0693 01       		.byte	0x1
 1173 0694 50       		.byte	0x50
 1174 0695 00       		.byte	0
 1175 0696 18       		.uleb128 0x18
 1176 0697 01       		.byte	0x1
 1177 0698 50010000 		.4byte	.LASF96
 1178 069c 01       		.byte	0x1
 1179 069d 4D       		.byte	0x4d
 1180 069e 01       		.byte	0x1
 1181 069f 00000000 		.4byte	.LFB8
 1182 06a3 5C000000 		.4byte	.LFE8
 1183 06a7 00000000 		.4byte	.LLST0
 1184 06ab 01       		.byte	0x1
 1185 06ac 56070000 		.4byte	0x756
ARM GAS  C:\Users\LAB_ME~1\AppData\Local\Temp\cco2FdIK.s 			page 22


 1186 06b0 19       		.uleb128 0x19
 1187 06b1 7A000000 		.4byte	.LASF97
 1188 06b5 01       		.byte	0x1
 1189 06b6 4E       		.byte	0x4e
 1190 06b7 09010000 		.4byte	0x109
 1191 06bb 05       		.byte	0x5
 1192 06bc 03       		.byte	0x3
 1193 06bd 00000000 		.4byte	mainthread.4778
 1194 06c1 1A       		.uleb128 0x1a
 1195 06c2 28000000 		.4byte	.LBB2
 1196 06c6 30000000 		.4byte	.LBE2
 1197 06ca DE060000 		.4byte	0x6de
 1198 06ce 1B       		.uleb128 0x1b
 1199 06cf 746D7000 		.ascii	"tmp\000"
 1200 06d3 01       		.byte	0x1
 1201 06d4 68       		.byte	0x68
 1202 06d5 86000000 		.4byte	0x86
 1203 06d9 2C000000 		.4byte	.LLST1
 1204 06dd 00       		.byte	0
 1205 06de 1C       		.uleb128 0x1c
 1206 06df 08000000 		.4byte	.LVL1
 1207 06e3 26080000 		.4byte	0x826
 1208 06e7 1C       		.uleb128 0x1c
 1209 06e8 0C000000 		.4byte	.LVL2
 1210 06ec 31080000 		.4byte	0x831
 1211 06f0 1C       		.uleb128 0x1c
 1212 06f1 10000000 		.4byte	.LVL3
 1213 06f5 3B080000 		.4byte	0x83b
 1214 06f9 1C       		.uleb128 0x1c
 1215 06fa 14000000 		.4byte	.LVL4
 1216 06fe 45080000 		.4byte	0x845
 1217 0702 1C       		.uleb128 0x1c
 1218 0703 18000000 		.4byte	.LVL5
 1219 0707 4F080000 		.4byte	0x84f
 1220 070b 1D       		.uleb128 0x1d
 1221 070c 20000000 		.4byte	.LVL6
 1222 0710 59080000 		.4byte	0x859
 1223 0714 28070000 		.4byte	0x728
 1224 0718 1E       		.uleb128 0x1e
 1225 0719 01       		.byte	0x1
 1226 071a 51       		.byte	0x51
 1227 071b 02       		.byte	0x2
 1228 071c 08       		.byte	0x8
 1229 071d 40       		.byte	0x40
 1230 071e 1E       		.uleb128 0x1e
 1231 071f 01       		.byte	0x1
 1232 0720 50       		.byte	0x50
 1233 0721 05       		.byte	0x5
 1234 0722 03       		.byte	0x3
 1235 0723 00000000 		.4byte	.LANCHOR0
 1236 0727 00       		.byte	0
 1237 0728 1F       		.uleb128 0x1f
 1238 0729 42000000 		.4byte	.LVL10
 1239 072d 77080000 		.4byte	0x877
 1240 0731 1E       		.uleb128 0x1e
 1241 0732 01       		.byte	0x1
 1242 0733 53       		.byte	0x53
ARM GAS  C:\Users\LAB_ME~1\AppData\Local\Temp\cco2FdIK.s 			page 23


 1243 0734 05       		.byte	0x5
 1244 0735 03       		.byte	0x3
 1245 0736 00000000 		.4byte	_idle_thread
 1246 073a 1E       		.uleb128 0x1e
 1247 073b 01       		.byte	0x1
 1248 073c 52       		.byte	0x52
 1249 073d 01       		.byte	0x1
 1250 073e 31       		.byte	0x31
 1251 073f 1E       		.uleb128 0x1e
 1252 0740 01       		.byte	0x1
 1253 0741 51       		.byte	0x51
 1254 0742 02       		.byte	0x2
 1255 0743 08       		.byte	0x8
 1256 0744 C0       		.byte	0xc0
 1257 0745 1E       		.uleb128 0x1e
 1258 0746 01       		.byte	0x1
 1259 0747 50       		.byte	0x50
 1260 0748 05       		.byte	0x5
 1261 0749 03       		.byte	0x3
 1262 074a 00000000 		.4byte	.LANCHOR1
 1263 074e 1E       		.uleb128 0x1e
 1264 074f 02       		.byte	0x2
 1265 0750 7D       		.byte	0x7d
 1266 0751 00       		.sleb128 0
 1267 0752 01       		.byte	0x1
 1268 0753 30       		.byte	0x30
 1269 0754 00       		.byte	0
 1270 0755 00       		.byte	0
 1271 0756 20       		.uleb128 0x20
 1272 0757 01       		.byte	0x1
 1273 0758 39000000 		.4byte	.LASF98
 1274 075c 01       		.byte	0x1
 1275 075d 82       		.byte	0x82
 1276 075e 01       		.byte	0x1
 1277 075f 00000000 		.4byte	.LFB9
 1278 0763 58000000 		.4byte	.LFE9
 1279 0767 3F000000 		.4byte	.LLST2
 1280 076b 01       		.byte	0x1
 1281 076c D8070000 		.4byte	0x7d8
 1282 0770 21       		.uleb128 0x21
 1283 0771 22000000 		.4byte	.LBB3
 1284 0775 58000000 		.4byte	.LBE3
 1285 0779 1B       		.uleb128 0x1b
 1286 077a 76747000 		.ascii	"vtp\000"
 1287 077e 01       		.byte	0x1
 1288 077f 8F       		.byte	0x8f
 1289 0780 DC030000 		.4byte	0x3dc
 1290 0784 5F000000 		.4byte	.LLST3
 1291 0788 21       		.uleb128 0x21
 1292 0789 2A000000 		.4byte	.LBB4
 1293 078d 44000000 		.4byte	.LBE4
 1294 0791 1B       		.uleb128 0x1b
 1295 0792 666E00   		.ascii	"fn\000"
 1296 0795 01       		.byte	0x1
 1297 0796 8F       		.byte	0x8f
 1298 0797 61030000 		.4byte	0x361
 1299 079b 7D000000 		.4byte	.LLST4
ARM GAS  C:\Users\LAB_ME~1\AppData\Local\Temp\cco2FdIK.s 			page 24


 1300 079f 1A       		.uleb128 0x1a
 1301 07a0 34000000 		.4byte	.LBB5
 1302 07a4 3A000000 		.4byte	.LBE5
 1303 07a8 BC070000 		.4byte	0x7bc
 1304 07ac 1B       		.uleb128 0x1b
 1305 07ad 746D7000 		.ascii	"tmp\000"
 1306 07b1 01       		.byte	0x1
 1307 07b2 8F       		.byte	0x8f
 1308 07b3 86000000 		.4byte	0x86
 1309 07b7 90000000 		.4byte	.LLST5
 1310 07bb 00       		.byte	0
 1311 07bc 21       		.uleb128 0x21
 1312 07bd 3E000000 		.4byte	.LBB6
 1313 07c1 44000000 		.4byte	.LBE6
 1314 07c5 1B       		.uleb128 0x1b
 1315 07c6 746D7000 		.ascii	"tmp\000"
 1316 07ca 01       		.byte	0x1
 1317 07cb 8F       		.byte	0x8f
 1318 07cc 86000000 		.4byte	0x86
 1319 07d0 A3000000 		.4byte	.LLST6
 1320 07d4 00       		.byte	0
 1321 07d5 00       		.byte	0
 1322 07d6 00       		.byte	0
 1323 07d7 00       		.byte	0
 1324 07d8 22       		.uleb128 0x22
 1325 07d9 32000000 		.4byte	.LASF99
 1326 07dd 08       		.byte	0x8
 1327 07de D1       		.byte	0xd1
 1328 07df 28040000 		.4byte	0x428
 1329 07e3 01       		.byte	0x1
 1330 07e4 01       		.byte	0x1
 1331 07e5 22       		.uleb128 0x22
 1332 07e6 00040000 		.4byte	.LASF100
 1333 07ea 09       		.byte	0x9
 1334 07eb 68       		.byte	0x68
 1335 07ec 90040000 		.4byte	0x490
 1336 07f0 01       		.byte	0x1
 1337 07f1 01       		.byte	0x1
 1338 07f2 22       		.uleb128 0x22
 1339 07f3 99010000 		.4byte	.LASF101
 1340 07f7 0B       		.byte	0xb
 1341 07f8 77       		.byte	0x77
 1342 07f9 FF070000 		.4byte	0x7ff
 1343 07fd 01       		.byte	0x1
 1344 07fe 01       		.byte	0x1
 1345 07ff 12       		.uleb128 0x12
 1346 0800 66060000 		.4byte	0x666
 1347 0804 14       		.uleb128 0x14
 1348 0805 9E020000 		.4byte	0x29e
 1349 0809 14080000 		.4byte	0x814
 1350 080d 15       		.uleb128 0x15
 1351 080e 5A030000 		.4byte	0x35a
 1352 0812 17       		.byte	0x17
 1353 0813 00       		.byte	0
 1354 0814 23       		.uleb128 0x23
 1355 0815 27010000 		.4byte	.LASF102
 1356 0819 01       		.byte	0x1
ARM GAS  C:\Users\LAB_ME~1\AppData\Local\Temp\cco2FdIK.s 			page 25


 1357 081a 2A       		.byte	0x2a
 1358 081b 04080000 		.4byte	0x804
 1359 081f 01       		.byte	0x1
 1360 0820 05       		.byte	0x5
 1361 0821 03       		.byte	0x3
 1362 0822 00000000 		.4byte	_idle_thread_wa
 1363 0826 24       		.uleb128 0x24
 1364 0827 01       		.byte	0x1
 1365 0828 2A040000 		.4byte	.LASF103
 1366 082c 07       		.byte	0x7
 1367 082d FB01     		.2byte	0x1fb
 1368 082f 01       		.byte	0x1
 1369 0830 01       		.byte	0x1
 1370 0831 25       		.uleb128 0x25
 1371 0832 01       		.byte	0x1
 1372 0833 99000000 		.4byte	.LASF104
 1373 0837 09       		.byte	0x9
 1374 0838 87       		.byte	0x87
 1375 0839 01       		.byte	0x1
 1376 083a 01       		.byte	0x1
 1377 083b 25       		.uleb128 0x25
 1378 083c 01       		.byte	0x1
 1379 083d BB030000 		.4byte	.LASF105
 1380 0841 08       		.byte	0x8
 1381 0842 D9       		.byte	0xd9
 1382 0843 01       		.byte	0x1
 1383 0844 01       		.byte	0x1
 1384 0845 25       		.uleb128 0x25
 1385 0846 01       		.byte	0x1
 1386 0847 DF020000 		.4byte	.LASF106
 1387 084b 0C       		.byte	0xc
 1388 084c 4A       		.byte	0x4a
 1389 084d 01       		.byte	0x1
 1390 084e 01       		.byte	0x1
 1391 084f 25       		.uleb128 0x25
 1392 0850 01       		.byte	0x1
 1393 0851 5A010000 		.4byte	.LASF107
 1394 0855 0D       		.byte	0xd
 1395 0856 4E       		.byte	0x4e
 1396 0857 01       		.byte	0x1
 1397 0858 01       		.byte	0x1
 1398 0859 26       		.uleb128 0x26
 1399 085a 01       		.byte	0x1
 1400 085b 72010000 		.4byte	.LASF111
 1401 085f 06       		.byte	0x6
 1402 0860 6301     		.2byte	0x163
 1403 0862 01       		.byte	0x1
 1404 0863 5E020000 		.4byte	0x25e
 1405 0867 01       		.byte	0x1
 1406 0868 77080000 		.4byte	0x877
 1407 086c 0E       		.uleb128 0xe
 1408 086d 5E020000 		.4byte	0x25e
 1409 0871 0E       		.uleb128 0xe
 1410 0872 DD000000 		.4byte	0xdd
 1411 0876 00       		.byte	0
 1412 0877 27       		.uleb128 0x27
 1413 0878 01       		.byte	0x1
ARM GAS  C:\Users\LAB_ME~1\AppData\Local\Temp\cco2FdIK.s 			page 26


 1414 0879 02020000 		.4byte	.LASF112
 1415 087d 06       		.byte	0x6
 1416 087e 6901     		.2byte	0x169
 1417 0880 01       		.byte	0x1
 1418 0881 5E020000 		.4byte	0x25e
 1419 0885 01       		.byte	0x1
 1420 0886 0E       		.uleb128 0xe
 1421 0887 9C020000 		.4byte	0x29c
 1422 088b 0E       		.uleb128 0xe
 1423 088c 30000000 		.4byte	0x30
 1424 0890 0E       		.uleb128 0xe
 1425 0891 DD000000 		.4byte	0xdd
 1426 0895 0E       		.uleb128 0xe
 1427 0896 30050000 		.4byte	0x530
 1428 089a 0E       		.uleb128 0xe
 1429 089b 9C020000 		.4byte	0x29c
 1430 089f 00       		.byte	0
 1431 08a0 00       		.byte	0
 1432              		.section	.debug_abbrev,"",%progbits
 1433              	.Ldebug_abbrev0:
 1434 0000 01       		.uleb128 0x1
 1435 0001 11       		.uleb128 0x11
 1436 0002 01       		.byte	0x1
 1437 0003 25       		.uleb128 0x25
 1438 0004 0E       		.uleb128 0xe
 1439 0005 13       		.uleb128 0x13
 1440 0006 0B       		.uleb128 0xb
 1441 0007 03       		.uleb128 0x3
 1442 0008 0E       		.uleb128 0xe
 1443 0009 1B       		.uleb128 0x1b
 1444 000a 0E       		.uleb128 0xe
 1445 000b 55       		.uleb128 0x55
 1446 000c 06       		.uleb128 0x6
 1447 000d 11       		.uleb128 0x11
 1448 000e 01       		.uleb128 0x1
 1449 000f 52       		.uleb128 0x52
 1450 0010 01       		.uleb128 0x1
 1451 0011 10       		.uleb128 0x10
 1452 0012 06       		.uleb128 0x6
 1453 0013 00       		.byte	0
 1454 0014 00       		.byte	0
 1455 0015 02       		.uleb128 0x2
 1456 0016 24       		.uleb128 0x24
 1457 0017 00       		.byte	0
 1458 0018 0B       		.uleb128 0xb
 1459 0019 0B       		.uleb128 0xb
 1460 001a 3E       		.uleb128 0x3e
 1461 001b 0B       		.uleb128 0xb
 1462 001c 03       		.uleb128 0x3
 1463 001d 08       		.uleb128 0x8
 1464 001e 00       		.byte	0
 1465 001f 00       		.byte	0
 1466 0020 03       		.uleb128 0x3
 1467 0021 16       		.uleb128 0x16
 1468 0022 00       		.byte	0
 1469 0023 03       		.uleb128 0x3
 1470 0024 0E       		.uleb128 0xe
ARM GAS  C:\Users\LAB_ME~1\AppData\Local\Temp\cco2FdIK.s 			page 27


 1471 0025 3A       		.uleb128 0x3a
 1472 0026 0B       		.uleb128 0xb
 1473 0027 3B       		.uleb128 0x3b
 1474 0028 0B       		.uleb128 0xb
 1475 0029 49       		.uleb128 0x49
 1476 002a 13       		.uleb128 0x13
 1477 002b 00       		.byte	0
 1478 002c 00       		.byte	0
 1479 002d 04       		.uleb128 0x4
 1480 002e 24       		.uleb128 0x24
 1481 002f 00       		.byte	0
 1482 0030 0B       		.uleb128 0xb
 1483 0031 0B       		.uleb128 0xb
 1484 0032 3E       		.uleb128 0x3e
 1485 0033 0B       		.uleb128 0xb
 1486 0034 03       		.uleb128 0x3
 1487 0035 0E       		.uleb128 0xe
 1488 0036 00       		.byte	0
 1489 0037 00       		.byte	0
 1490 0038 05       		.uleb128 0x5
 1491 0039 13       		.uleb128 0x13
 1492 003a 01       		.byte	0x1
 1493 003b 03       		.uleb128 0x3
 1494 003c 0E       		.uleb128 0xe
 1495 003d 0B       		.uleb128 0xb
 1496 003e 0B       		.uleb128 0xb
 1497 003f 3A       		.uleb128 0x3a
 1498 0040 0B       		.uleb128 0xb
 1499 0041 3B       		.uleb128 0x3b
 1500 0042 0B       		.uleb128 0xb
 1501 0043 01       		.uleb128 0x1
 1502 0044 13       		.uleb128 0x13
 1503 0045 00       		.byte	0
 1504 0046 00       		.byte	0
 1505 0047 06       		.uleb128 0x6
 1506 0048 0D       		.uleb128 0xd
 1507 0049 00       		.byte	0
 1508 004a 03       		.uleb128 0x3
 1509 004b 0E       		.uleb128 0xe
 1510 004c 3A       		.uleb128 0x3a
 1511 004d 0B       		.uleb128 0xb
 1512 004e 3B       		.uleb128 0x3b
 1513 004f 0B       		.uleb128 0xb
 1514 0050 49       		.uleb128 0x49
 1515 0051 13       		.uleb128 0x13
 1516 0052 38       		.uleb128 0x38
 1517 0053 0A       		.uleb128 0xa
 1518 0054 00       		.byte	0
 1519 0055 00       		.byte	0
 1520 0056 07       		.uleb128 0x7
 1521 0057 0D       		.uleb128 0xd
 1522 0058 00       		.byte	0
 1523 0059 03       		.uleb128 0x3
 1524 005a 08       		.uleb128 0x8
 1525 005b 3A       		.uleb128 0x3a
 1526 005c 0B       		.uleb128 0xb
 1527 005d 3B       		.uleb128 0x3b
ARM GAS  C:\Users\LAB_ME~1\AppData\Local\Temp\cco2FdIK.s 			page 28


 1528 005e 0B       		.uleb128 0xb
 1529 005f 49       		.uleb128 0x49
 1530 0060 13       		.uleb128 0x13
 1531 0061 38       		.uleb128 0x38
 1532 0062 0A       		.uleb128 0xa
 1533 0063 00       		.byte	0
 1534 0064 00       		.byte	0
 1535 0065 08       		.uleb128 0x8
 1536 0066 13       		.uleb128 0x13
 1537 0067 01       		.byte	0x1
 1538 0068 0B       		.uleb128 0xb
 1539 0069 0B       		.uleb128 0xb
 1540 006a 3A       		.uleb128 0x3a
 1541 006b 0B       		.uleb128 0xb
 1542 006c 3B       		.uleb128 0x3b
 1543 006d 0B       		.uleb128 0xb
 1544 006e 01       		.uleb128 0x1
 1545 006f 13       		.uleb128 0x13
 1546 0070 00       		.byte	0
 1547 0071 00       		.byte	0
 1548 0072 09       		.uleb128 0x9
 1549 0073 0F       		.uleb128 0xf
 1550 0074 00       		.byte	0
 1551 0075 0B       		.uleb128 0xb
 1552 0076 0B       		.uleb128 0xb
 1553 0077 49       		.uleb128 0x49
 1554 0078 13       		.uleb128 0x13
 1555 0079 00       		.byte	0
 1556 007a 00       		.byte	0
 1557 007b 0A       		.uleb128 0xa
 1558 007c 0F       		.uleb128 0xf
 1559 007d 00       		.byte	0
 1560 007e 0B       		.uleb128 0xb
 1561 007f 0B       		.uleb128 0xb
 1562 0080 00       		.byte	0
 1563 0081 00       		.byte	0
 1564 0082 0B       		.uleb128 0xb
 1565 0083 13       		.uleb128 0x13
 1566 0084 01       		.byte	0x1
 1567 0085 03       		.uleb128 0x3
 1568 0086 0E       		.uleb128 0xe
 1569 0087 0B       		.uleb128 0xb
 1570 0088 0B       		.uleb128 0xb
 1571 0089 3A       		.uleb128 0x3a
 1572 008a 0B       		.uleb128 0xb
 1573 008b 3B       		.uleb128 0x3b
 1574 008c 05       		.uleb128 0x5
 1575 008d 01       		.uleb128 0x1
 1576 008e 13       		.uleb128 0x13
 1577 008f 00       		.byte	0
 1578 0090 00       		.byte	0
 1579 0091 0C       		.uleb128 0xc
 1580 0092 0D       		.uleb128 0xd
 1581 0093 00       		.byte	0
 1582 0094 03       		.uleb128 0x3
 1583 0095 08       		.uleb128 0x8
 1584 0096 3A       		.uleb128 0x3a
ARM GAS  C:\Users\LAB_ME~1\AppData\Local\Temp\cco2FdIK.s 			page 29


 1585 0097 0B       		.uleb128 0xb
 1586 0098 3B       		.uleb128 0x3b
 1587 0099 05       		.uleb128 0x5
 1588 009a 49       		.uleb128 0x49
 1589 009b 13       		.uleb128 0x13
 1590 009c 38       		.uleb128 0x38
 1591 009d 0A       		.uleb128 0xa
 1592 009e 00       		.byte	0
 1593 009f 00       		.byte	0
 1594 00a0 0D       		.uleb128 0xd
 1595 00a1 15       		.uleb128 0x15
 1596 00a2 01       		.byte	0x1
 1597 00a3 27       		.uleb128 0x27
 1598 00a4 0C       		.uleb128 0xc
 1599 00a5 01       		.uleb128 0x1
 1600 00a6 13       		.uleb128 0x13
 1601 00a7 00       		.byte	0
 1602 00a8 00       		.byte	0
 1603 00a9 0E       		.uleb128 0xe
 1604 00aa 05       		.uleb128 0x5
 1605 00ab 00       		.byte	0
 1606 00ac 49       		.uleb128 0x49
 1607 00ad 13       		.uleb128 0x13
 1608 00ae 00       		.byte	0
 1609 00af 00       		.byte	0
 1610 00b0 0F       		.uleb128 0xf
 1611 00b1 35       		.uleb128 0x35
 1612 00b2 00       		.byte	0
 1613 00b3 49       		.uleb128 0x49
 1614 00b4 13       		.uleb128 0x13
 1615 00b5 00       		.byte	0
 1616 00b6 00       		.byte	0
 1617 00b7 10       		.uleb128 0x10
 1618 00b8 17       		.uleb128 0x17
 1619 00b9 01       		.byte	0x1
 1620 00ba 0B       		.uleb128 0xb
 1621 00bb 0B       		.uleb128 0xb
 1622 00bc 3A       		.uleb128 0x3a
 1623 00bd 0B       		.uleb128 0xb
 1624 00be 3B       		.uleb128 0x3b
 1625 00bf 0B       		.uleb128 0xb
 1626 00c0 01       		.uleb128 0x1
 1627 00c1 13       		.uleb128 0x13
 1628 00c2 00       		.byte	0
 1629 00c3 00       		.byte	0
 1630 00c4 11       		.uleb128 0x11
 1631 00c5 0D       		.uleb128 0xd
 1632 00c6 00       		.byte	0
 1633 00c7 03       		.uleb128 0x3
 1634 00c8 0E       		.uleb128 0xe
 1635 00c9 3A       		.uleb128 0x3a
 1636 00ca 0B       		.uleb128 0xb
 1637 00cb 3B       		.uleb128 0x3b
 1638 00cc 0B       		.uleb128 0xb
 1639 00cd 49       		.uleb128 0x49
 1640 00ce 13       		.uleb128 0x13
 1641 00cf 00       		.byte	0
ARM GAS  C:\Users\LAB_ME~1\AppData\Local\Temp\cco2FdIK.s 			page 30


 1642 00d0 00       		.byte	0
 1643 00d1 12       		.uleb128 0x12
 1644 00d2 26       		.uleb128 0x26
 1645 00d3 00       		.byte	0
 1646 00d4 49       		.uleb128 0x49
 1647 00d5 13       		.uleb128 0x13
 1648 00d6 00       		.byte	0
 1649 00d7 00       		.byte	0
 1650 00d8 13       		.uleb128 0x13
 1651 00d9 15       		.uleb128 0x15
 1652 00da 01       		.byte	0x1
 1653 00db 27       		.uleb128 0x27
 1654 00dc 0C       		.uleb128 0xc
 1655 00dd 49       		.uleb128 0x49
 1656 00de 13       		.uleb128 0x13
 1657 00df 01       		.uleb128 0x1
 1658 00e0 13       		.uleb128 0x13
 1659 00e1 00       		.byte	0
 1660 00e2 00       		.byte	0
 1661 00e3 14       		.uleb128 0x14
 1662 00e4 01       		.uleb128 0x1
 1663 00e5 01       		.byte	0x1
 1664 00e6 49       		.uleb128 0x49
 1665 00e7 13       		.uleb128 0x13
 1666 00e8 01       		.uleb128 0x1
 1667 00e9 13       		.uleb128 0x13
 1668 00ea 00       		.byte	0
 1669 00eb 00       		.byte	0
 1670 00ec 15       		.uleb128 0x15
 1671 00ed 21       		.uleb128 0x21
 1672 00ee 00       		.byte	0
 1673 00ef 49       		.uleb128 0x49
 1674 00f0 13       		.uleb128 0x13
 1675 00f1 2F       		.uleb128 0x2f
 1676 00f2 0B       		.uleb128 0xb
 1677 00f3 00       		.byte	0
 1678 00f4 00       		.byte	0
 1679 00f5 16       		.uleb128 0x16
 1680 00f6 2E       		.uleb128 0x2e
 1681 00f7 01       		.byte	0x1
 1682 00f8 3F       		.uleb128 0x3f
 1683 00f9 0C       		.uleb128 0xc
 1684 00fa 03       		.uleb128 0x3
 1685 00fb 0E       		.uleb128 0xe
 1686 00fc 3A       		.uleb128 0x3a
 1687 00fd 0B       		.uleb128 0xb
 1688 00fe 3B       		.uleb128 0x3b
 1689 00ff 0B       		.uleb128 0xb
 1690 0100 27       		.uleb128 0x27
 1691 0101 0C       		.uleb128 0xc
 1692 0102 11       		.uleb128 0x11
 1693 0103 01       		.uleb128 0x1
 1694 0104 12       		.uleb128 0x12
 1695 0105 01       		.uleb128 0x1
 1696 0106 40       		.uleb128 0x40
 1697 0107 0A       		.uleb128 0xa
 1698 0108 9742     		.uleb128 0x2117
ARM GAS  C:\Users\LAB_ME~1\AppData\Local\Temp\cco2FdIK.s 			page 31


 1699 010a 0C       		.uleb128 0xc
 1700 010b 01       		.uleb128 0x1
 1701 010c 13       		.uleb128 0x13
 1702 010d 00       		.byte	0
 1703 010e 00       		.byte	0
 1704 010f 17       		.uleb128 0x17
 1705 0110 05       		.uleb128 0x5
 1706 0111 00       		.byte	0
 1707 0112 03       		.uleb128 0x3
 1708 0113 08       		.uleb128 0x8
 1709 0114 3A       		.uleb128 0x3a
 1710 0115 0B       		.uleb128 0xb
 1711 0116 3B       		.uleb128 0x3b
 1712 0117 0B       		.uleb128 0xb
 1713 0118 49       		.uleb128 0x49
 1714 0119 13       		.uleb128 0x13
 1715 011a 02       		.uleb128 0x2
 1716 011b 0A       		.uleb128 0xa
 1717 011c 00       		.byte	0
 1718 011d 00       		.byte	0
 1719 011e 18       		.uleb128 0x18
 1720 011f 2E       		.uleb128 0x2e
 1721 0120 01       		.byte	0x1
 1722 0121 3F       		.uleb128 0x3f
 1723 0122 0C       		.uleb128 0xc
 1724 0123 03       		.uleb128 0x3
 1725 0124 0E       		.uleb128 0xe
 1726 0125 3A       		.uleb128 0x3a
 1727 0126 0B       		.uleb128 0xb
 1728 0127 3B       		.uleb128 0x3b
 1729 0128 0B       		.uleb128 0xb
 1730 0129 27       		.uleb128 0x27
 1731 012a 0C       		.uleb128 0xc
 1732 012b 11       		.uleb128 0x11
 1733 012c 01       		.uleb128 0x1
 1734 012d 12       		.uleb128 0x12
 1735 012e 01       		.uleb128 0x1
 1736 012f 40       		.uleb128 0x40
 1737 0130 06       		.uleb128 0x6
 1738 0131 9742     		.uleb128 0x2117
 1739 0133 0C       		.uleb128 0xc
 1740 0134 01       		.uleb128 0x1
 1741 0135 13       		.uleb128 0x13
 1742 0136 00       		.byte	0
 1743 0137 00       		.byte	0
 1744 0138 19       		.uleb128 0x19
 1745 0139 34       		.uleb128 0x34
 1746 013a 00       		.byte	0
 1747 013b 03       		.uleb128 0x3
 1748 013c 0E       		.uleb128 0xe
 1749 013d 3A       		.uleb128 0x3a
 1750 013e 0B       		.uleb128 0xb
 1751 013f 3B       		.uleb128 0x3b
 1752 0140 0B       		.uleb128 0xb
 1753 0141 49       		.uleb128 0x49
 1754 0142 13       		.uleb128 0x13
 1755 0143 02       		.uleb128 0x2
ARM GAS  C:\Users\LAB_ME~1\AppData\Local\Temp\cco2FdIK.s 			page 32


 1756 0144 0A       		.uleb128 0xa
 1757 0145 00       		.byte	0
 1758 0146 00       		.byte	0
 1759 0147 1A       		.uleb128 0x1a
 1760 0148 0B       		.uleb128 0xb
 1761 0149 01       		.byte	0x1
 1762 014a 11       		.uleb128 0x11
 1763 014b 01       		.uleb128 0x1
 1764 014c 12       		.uleb128 0x12
 1765 014d 01       		.uleb128 0x1
 1766 014e 01       		.uleb128 0x1
 1767 014f 13       		.uleb128 0x13
 1768 0150 00       		.byte	0
 1769 0151 00       		.byte	0
 1770 0152 1B       		.uleb128 0x1b
 1771 0153 34       		.uleb128 0x34
 1772 0154 00       		.byte	0
 1773 0155 03       		.uleb128 0x3
 1774 0156 08       		.uleb128 0x8
 1775 0157 3A       		.uleb128 0x3a
 1776 0158 0B       		.uleb128 0xb
 1777 0159 3B       		.uleb128 0x3b
 1778 015a 0B       		.uleb128 0xb
 1779 015b 49       		.uleb128 0x49
 1780 015c 13       		.uleb128 0x13
 1781 015d 02       		.uleb128 0x2
 1782 015e 06       		.uleb128 0x6
 1783 015f 00       		.byte	0
 1784 0160 00       		.byte	0
 1785 0161 1C       		.uleb128 0x1c
 1786 0162 898201   		.uleb128 0x4109
 1787 0165 00       		.byte	0
 1788 0166 11       		.uleb128 0x11
 1789 0167 01       		.uleb128 0x1
 1790 0168 31       		.uleb128 0x31
 1791 0169 13       		.uleb128 0x13
 1792 016a 00       		.byte	0
 1793 016b 00       		.byte	0
 1794 016c 1D       		.uleb128 0x1d
 1795 016d 898201   		.uleb128 0x4109
 1796 0170 01       		.byte	0x1
 1797 0171 11       		.uleb128 0x11
 1798 0172 01       		.uleb128 0x1
 1799 0173 31       		.uleb128 0x31
 1800 0174 13       		.uleb128 0x13
 1801 0175 01       		.uleb128 0x1
 1802 0176 13       		.uleb128 0x13
 1803 0177 00       		.byte	0
 1804 0178 00       		.byte	0
 1805 0179 1E       		.uleb128 0x1e
 1806 017a 8A8201   		.uleb128 0x410a
 1807 017d 00       		.byte	0
 1808 017e 02       		.uleb128 0x2
 1809 017f 0A       		.uleb128 0xa
 1810 0180 9142     		.uleb128 0x2111
 1811 0182 0A       		.uleb128 0xa
 1812 0183 00       		.byte	0
ARM GAS  C:\Users\LAB_ME~1\AppData\Local\Temp\cco2FdIK.s 			page 33


 1813 0184 00       		.byte	0
 1814 0185 1F       		.uleb128 0x1f
 1815 0186 898201   		.uleb128 0x4109
 1816 0189 01       		.byte	0x1
 1817 018a 11       		.uleb128 0x11
 1818 018b 01       		.uleb128 0x1
 1819 018c 31       		.uleb128 0x31
 1820 018d 13       		.uleb128 0x13
 1821 018e 00       		.byte	0
 1822 018f 00       		.byte	0
 1823 0190 20       		.uleb128 0x20
 1824 0191 2E       		.uleb128 0x2e
 1825 0192 01       		.byte	0x1
 1826 0193 3F       		.uleb128 0x3f
 1827 0194 0C       		.uleb128 0xc
 1828 0195 03       		.uleb128 0x3
 1829 0196 0E       		.uleb128 0xe
 1830 0197 3A       		.uleb128 0x3a
 1831 0198 0B       		.uleb128 0xb
 1832 0199 3B       		.uleb128 0x3b
 1833 019a 0B       		.uleb128 0xb
 1834 019b 27       		.uleb128 0x27
 1835 019c 0C       		.uleb128 0xc
 1836 019d 11       		.uleb128 0x11
 1837 019e 01       		.uleb128 0x1
 1838 019f 12       		.uleb128 0x12
 1839 01a0 01       		.uleb128 0x1
 1840 01a1 40       		.uleb128 0x40
 1841 01a2 06       		.uleb128 0x6
 1842 01a3 9642     		.uleb128 0x2116
 1843 01a5 0C       		.uleb128 0xc
 1844 01a6 01       		.uleb128 0x1
 1845 01a7 13       		.uleb128 0x13
 1846 01a8 00       		.byte	0
 1847 01a9 00       		.byte	0
 1848 01aa 21       		.uleb128 0x21
 1849 01ab 0B       		.uleb128 0xb
 1850 01ac 01       		.byte	0x1
 1851 01ad 11       		.uleb128 0x11
 1852 01ae 01       		.uleb128 0x1
 1853 01af 12       		.uleb128 0x12
 1854 01b0 01       		.uleb128 0x1
 1855 01b1 00       		.byte	0
 1856 01b2 00       		.byte	0
 1857 01b3 22       		.uleb128 0x22
 1858 01b4 34       		.uleb128 0x34
 1859 01b5 00       		.byte	0
 1860 01b6 03       		.uleb128 0x3
 1861 01b7 0E       		.uleb128 0xe
 1862 01b8 3A       		.uleb128 0x3a
 1863 01b9 0B       		.uleb128 0xb
 1864 01ba 3B       		.uleb128 0x3b
 1865 01bb 0B       		.uleb128 0xb
 1866 01bc 49       		.uleb128 0x49
 1867 01bd 13       		.uleb128 0x13
 1868 01be 3F       		.uleb128 0x3f
 1869 01bf 0C       		.uleb128 0xc
ARM GAS  C:\Users\LAB_ME~1\AppData\Local\Temp\cco2FdIK.s 			page 34


 1870 01c0 3C       		.uleb128 0x3c
 1871 01c1 0C       		.uleb128 0xc
 1872 01c2 00       		.byte	0
 1873 01c3 00       		.byte	0
 1874 01c4 23       		.uleb128 0x23
 1875 01c5 34       		.uleb128 0x34
 1876 01c6 00       		.byte	0
 1877 01c7 03       		.uleb128 0x3
 1878 01c8 0E       		.uleb128 0xe
 1879 01c9 3A       		.uleb128 0x3a
 1880 01ca 0B       		.uleb128 0xb
 1881 01cb 3B       		.uleb128 0x3b
 1882 01cc 0B       		.uleb128 0xb
 1883 01cd 49       		.uleb128 0x49
 1884 01ce 13       		.uleb128 0x13
 1885 01cf 3F       		.uleb128 0x3f
 1886 01d0 0C       		.uleb128 0xc
 1887 01d1 02       		.uleb128 0x2
 1888 01d2 0A       		.uleb128 0xa
 1889 01d3 00       		.byte	0
 1890 01d4 00       		.byte	0
 1891 01d5 24       		.uleb128 0x24
 1892 01d6 2E       		.uleb128 0x2e
 1893 01d7 00       		.byte	0
 1894 01d8 3F       		.uleb128 0x3f
 1895 01d9 0C       		.uleb128 0xc
 1896 01da 03       		.uleb128 0x3
 1897 01db 0E       		.uleb128 0xe
 1898 01dc 3A       		.uleb128 0x3a
 1899 01dd 0B       		.uleb128 0xb
 1900 01de 3B       		.uleb128 0x3b
 1901 01df 05       		.uleb128 0x5
 1902 01e0 27       		.uleb128 0x27
 1903 01e1 0C       		.uleb128 0xc
 1904 01e2 3C       		.uleb128 0x3c
 1905 01e3 0C       		.uleb128 0xc
 1906 01e4 00       		.byte	0
 1907 01e5 00       		.byte	0
 1908 01e6 25       		.uleb128 0x25
 1909 01e7 2E       		.uleb128 0x2e
 1910 01e8 00       		.byte	0
 1911 01e9 3F       		.uleb128 0x3f
 1912 01ea 0C       		.uleb128 0xc
 1913 01eb 03       		.uleb128 0x3
 1914 01ec 0E       		.uleb128 0xe
 1915 01ed 3A       		.uleb128 0x3a
 1916 01ee 0B       		.uleb128 0xb
 1917 01ef 3B       		.uleb128 0x3b
 1918 01f0 0B       		.uleb128 0xb
 1919 01f1 27       		.uleb128 0x27
 1920 01f2 0C       		.uleb128 0xc
 1921 01f3 3C       		.uleb128 0x3c
 1922 01f4 0C       		.uleb128 0xc
 1923 01f5 00       		.byte	0
 1924 01f6 00       		.byte	0
 1925 01f7 26       		.uleb128 0x26
 1926 01f8 2E       		.uleb128 0x2e
ARM GAS  C:\Users\LAB_ME~1\AppData\Local\Temp\cco2FdIK.s 			page 35


 1927 01f9 01       		.byte	0x1
 1928 01fa 3F       		.uleb128 0x3f
 1929 01fb 0C       		.uleb128 0xc
 1930 01fc 03       		.uleb128 0x3
 1931 01fd 0E       		.uleb128 0xe
 1932 01fe 3A       		.uleb128 0x3a
 1933 01ff 0B       		.uleb128 0xb
 1934 0200 3B       		.uleb128 0x3b
 1935 0201 05       		.uleb128 0x5
 1936 0202 27       		.uleb128 0x27
 1937 0203 0C       		.uleb128 0xc
 1938 0204 49       		.uleb128 0x49
 1939 0205 13       		.uleb128 0x13
 1940 0206 3C       		.uleb128 0x3c
 1941 0207 0C       		.uleb128 0xc
 1942 0208 01       		.uleb128 0x1
 1943 0209 13       		.uleb128 0x13
 1944 020a 00       		.byte	0
 1945 020b 00       		.byte	0
 1946 020c 27       		.uleb128 0x27
 1947 020d 2E       		.uleb128 0x2e
 1948 020e 01       		.byte	0x1
 1949 020f 3F       		.uleb128 0x3f
 1950 0210 0C       		.uleb128 0xc
 1951 0211 03       		.uleb128 0x3
 1952 0212 0E       		.uleb128 0xe
 1953 0213 3A       		.uleb128 0x3a
 1954 0214 0B       		.uleb128 0xb
 1955 0215 3B       		.uleb128 0x3b
 1956 0216 05       		.uleb128 0x5
 1957 0217 27       		.uleb128 0x27
 1958 0218 0C       		.uleb128 0xc
 1959 0219 49       		.uleb128 0x49
 1960 021a 13       		.uleb128 0x13
 1961 021b 3C       		.uleb128 0x3c
 1962 021c 0C       		.uleb128 0xc
 1963 021d 00       		.byte	0
 1964 021e 00       		.byte	0
 1965 021f 00       		.byte	0
 1966              		.section	.debug_loc,"",%progbits
 1967              	.Ldebug_loc0:
 1968              	.LLST0:
 1969 0000 00000000 		.4byte	.LFB8
 1970 0004 02000000 		.4byte	.LCFI0
 1971 0008 0200     		.2byte	0x2
 1972 000a 7D       		.byte	0x7d
 1973 000b 00       		.sleb128 0
 1974 000c 02000000 		.4byte	.LCFI0
 1975 0010 04000000 		.4byte	.LCFI1
 1976 0014 0200     		.2byte	0x2
 1977 0016 7D       		.byte	0x7d
 1978 0017 08       		.sleb128 8
 1979 0018 04000000 		.4byte	.LCFI1
 1980 001c 5C000000 		.4byte	.LFE8
 1981 0020 0200     		.2byte	0x2
 1982 0022 7D       		.byte	0x7d
 1983 0023 10       		.sleb128 16
ARM GAS  C:\Users\LAB_ME~1\AppData\Local\Temp\cco2FdIK.s 			page 36


 1984 0024 00000000 		.4byte	0
 1985 0028 00000000 		.4byte	0
 1986              	.LLST1:
 1987 002c 30000000 		.4byte	.LVL8
 1988 0030 3E000000 		.4byte	.LVL9
 1989 0034 0100     		.2byte	0x1
 1990 0036 53       		.byte	0x53
 1991 0037 00000000 		.4byte	0
 1992 003b 00000000 		.4byte	0
 1993              	.LLST2:
 1994 003f 00000000 		.4byte	.LFB9
 1995 0043 02000000 		.4byte	.LCFI2
 1996 0047 0200     		.2byte	0x2
 1997 0049 7D       		.byte	0x7d
 1998 004a 00       		.sleb128 0
 1999 004b 02000000 		.4byte	.LCFI2
 2000 004f 58000000 		.4byte	.LFE9
 2001 0053 0200     		.2byte	0x2
 2002 0055 7D       		.byte	0x7d
 2003 0056 10       		.sleb128 16
 2004 0057 00000000 		.4byte	0
 2005 005b 00000000 		.4byte	0
 2006              	.LLST3:
 2007 005f 28000000 		.4byte	.LVL11
 2008 0063 3D000000 		.4byte	.LVL15-1
 2009 0067 0100     		.2byte	0x1
 2010 0069 52       		.byte	0x52
 2011 006a 46000000 		.4byte	.LVL18
 2012 006e 4C000000 		.4byte	.LVL20
 2013 0072 0100     		.2byte	0x1
 2014 0074 52       		.byte	0x52
 2015 0075 00000000 		.4byte	0
 2016 0079 00000000 		.4byte	0
 2017              	.LLST4:
 2018 007d 2E000000 		.4byte	.LVL12
 2019 0081 3D000000 		.4byte	.LVL15-1
 2020 0085 0100     		.2byte	0x1
 2021 0087 51       		.byte	0x51
 2022 0088 00000000 		.4byte	0
 2023 008c 00000000 		.4byte	0
 2024              	.LLST5:
 2025 0090 3A000000 		.4byte	.LVL14
 2026 0094 3D000000 		.4byte	.LVL15-1
 2027 0098 0100     		.2byte	0x1
 2028 009a 53       		.byte	0x53
 2029 009b 00000000 		.4byte	0
 2030 009f 00000000 		.4byte	0
 2031              	.LLST6:
 2032 00a3 44000000 		.4byte	.LVL17
 2033 00a7 48000000 		.4byte	.LVL19
 2034 00ab 0100     		.2byte	0x1
 2035 00ad 53       		.byte	0x53
 2036 00ae 00000000 		.4byte	0
 2037 00b2 00000000 		.4byte	0
 2038              		.section	.debug_aranges,"",%progbits
 2039 0000 2C000000 		.4byte	0x2c
 2040 0004 0200     		.2byte	0x2
ARM GAS  C:\Users\LAB_ME~1\AppData\Local\Temp\cco2FdIK.s 			page 37


 2041 0006 00000000 		.4byte	.Ldebug_info0
 2042 000a 04       		.byte	0x4
 2043 000b 00       		.byte	0
 2044 000c 0000     		.2byte	0
 2045 000e 0000     		.2byte	0
 2046 0010 00000000 		.4byte	.LFB7
 2047 0014 14000000 		.4byte	.LFE7-.LFB7
 2048 0018 00000000 		.4byte	.LFB8
 2049 001c 5C000000 		.4byte	.LFE8-.LFB8
 2050 0020 00000000 		.4byte	.LFB9
 2051 0024 58000000 		.4byte	.LFE9-.LFB9
 2052 0028 00000000 		.4byte	0
 2053 002c 00000000 		.4byte	0
 2054              		.section	.debug_ranges,"",%progbits
 2055              	.Ldebug_ranges0:
 2056 0000 00000000 		.4byte	.LFB7
 2057 0004 14000000 		.4byte	.LFE7
 2058 0008 00000000 		.4byte	.LFB8
 2059 000c 5C000000 		.4byte	.LFE8
 2060 0010 00000000 		.4byte	.LFB9
 2061 0014 58000000 		.4byte	.LFE9
 2062 0018 00000000 		.4byte	0
 2063 001c 00000000 		.4byte	0
 2064              		.section	.debug_line,"",%progbits
 2065              	.Ldebug_line0:
 2066 0000 5B020000 		.section	.debug_str,"MS",%progbits,1
 2066      02000302 
 2066      00000201 
 2066      FB0E0D00 
 2066      01010101 
 2067              	.LASF75:
 2068 0000 7466756E 		.ascii	"tfunc_t\000"
 2068      635F7400 
 2069              	.LASF86:
 2070 0008 63665F6F 		.ascii	"cf_off_older\000"
 2070      66665F6F 
 2070      6C646572 
 2070      00
 2071              	.LASF38:
 2072 0015 705F6D73 		.ascii	"p_msg\000"
 2072      6700
 2073              	.LASF2:
 2074 001b 73697A65 		.ascii	"size_t\000"
 2074      5F7400
 2075              	.LASF70:
 2076 0022 7264796D 		.ascii	"rdymsg\000"
 2076      736700
 2077              	.LASF13:
 2078 0029 75696E74 		.ascii	"uint64_t\000"
 2078      36345F74 
 2078      00
 2079              	.LASF99:
 2080 0032 76746C69 		.ascii	"vtlist\000"
 2080      737400
 2081              	.LASF98:
 2082 0039 63685379 		.ascii	"chSysTimerHandlerI\000"
 2082      7354696D 
ARM GAS  C:\Users\LAB_ME~1\AppData\Local\Temp\cco2FdIK.s 			page 38


 2082      65724861 
 2082      6E646C65 
 2082      724900
 2083              	.LASF14:
 2084 004c 6C6F6E67 		.ascii	"long long unsigned int\000"
 2084      206C6F6E 
 2084      6720756E 
 2084      7369676E 
 2084      65642069 
 2085              	.LASF82:
 2086 0063 63685F74 		.ascii	"ch_threadsize\000"
 2086      68726561 
 2086      6473697A 
 2086      6500
 2087              	.LASF71:
 2088 0071 65786974 		.ascii	"exitcode\000"
 2088      636F6465 
 2088      00
 2089              	.LASF97:
 2090 007a 6D61696E 		.ascii	"mainthread\000"
 2090      74687265 
 2090      616400
 2091              	.LASF26:
 2092 0085 705F7072 		.ascii	"p_prio\000"
 2092      696F00
 2093              	.LASF89:
 2094 008c 63665F6F 		.ascii	"cf_off_state\000"
 2094      66665F73 
 2094      74617465 
 2094      00
 2095              	.LASF104:
 2096 0099 5F736368 		.ascii	"_scheduler_init\000"
 2096      6564756C 
 2096      65725F69 
 2096      6E697400 
 2097              	.LASF12:
 2098 00a9 6C6F6E67 		.ascii	"long long int\000"
 2098      206C6F6E 
 2098      6720696E 
 2098      7400
 2099              	.LASF1:
 2100 00b7 7369676E 		.ascii	"signed char\000"
 2100      65642063 
 2100      68617200 
 2101              	.LASF88:
 2102 00c3 63665F6F 		.ascii	"cf_off_stklimit\000"
 2102      66665F73 
 2102      746B6C69 
 2102      6D697400 
 2103              	.LASF90:
 2104 00d3 63665F6F 		.ascii	"cf_off_flags\000"
 2104      66665F66 
 2104      6C616773 
 2104      00
 2105              	.LASF42:
 2106 00e0 705F6D70 		.ascii	"p_mpool\000"
 2106      6F6F6C00 
ARM GAS  C:\Users\LAB_ME~1\AppData\Local\Temp\cco2FdIK.s 			page 39


 2107              	.LASF67:
 2108 00e8 6D5F7175 		.ascii	"m_queue\000"
 2108      65756500 
 2109              	.LASF18:
 2110 00f0 74736C69 		.ascii	"tslices_t\000"
 2110      6365735F 
 2110      7400
 2111              	.LASF9:
 2112 00fa 6C6F6E67 		.ascii	"long int\000"
 2112      20696E74 
 2112      00
 2113              	.LASF16:
 2114 0103 74737461 		.ascii	"tstate_t\000"
 2114      74655F74 
 2114      00
 2115              	.LASF6:
 2116 010c 75696E74 		.ascii	"uint16_t\000"
 2116      31365F74 
 2116      00
 2117              	.LASF94:
 2118 0115 63686465 		.ascii	"chdebug_t\000"
 2118      6275675F 
 2118      7400
 2119              	.LASF28:
 2120 011f 705F6E65 		.ascii	"p_newer\000"
 2120      77657200 
 2121              	.LASF102:
 2122 0127 5F69646C 		.ascii	"_idle_thread_wa\000"
 2122      655F7468 
 2122      72656164 
 2122      5F776100 
 2123              	.LASF62:
 2124 0137 725F6E65 		.ascii	"r_newer\000"
 2124      77657200 
 2125              	.LASF45:
 2126 013f 72656761 		.ascii	"regarm_t\000"
 2126      726D5F74 
 2126      00
 2127              	.LASF53:
 2128 0148 76745F70 		.ascii	"vt_prev\000"
 2128      72657600 
 2129              	.LASF96:
 2130 0150 63685379 		.ascii	"chSysInit\000"
 2130      73496E69 
 2130      7400
 2131              	.LASF107:
 2132 015a 5F686561 		.ascii	"_heap_init\000"
 2132      705F696E 
 2132      697400
 2133              	.LASF0:
 2134 0165 756E7369 		.ascii	"unsigned int\000"
 2134      676E6564 
 2134      20696E74 
 2134      00
 2135              	.LASF111:
 2136 0172 5F746872 		.ascii	"_thread_init\000"
 2136      6561645F 
ARM GAS  C:\Users\LAB_ME~1\AppData\Local\Temp\cco2FdIK.s 			page 40


 2136      696E6974 
 2136      00
 2137              	.LASF52:
 2138 017f 76745F6E 		.ascii	"vt_next\000"
 2138      65787400 
 2139              	.LASF11:
 2140 0187 6C6F6E67 		.ascii	"long unsigned int\000"
 2140      20756E73 
 2140      69676E65 
 2140      6420696E 
 2140      7400
 2141              	.LASF101:
 2142 0199 63685F64 		.ascii	"ch_debug\000"
 2142      65627567 
 2142      00
 2143              	.LASF76:
 2144 01a2 63685F69 		.ascii	"ch_identifier\000"
 2144      64656E74 
 2144      69666965 
 2144      7200
 2145              	.LASF48:
 2146 01b0 636F6E74 		.ascii	"context\000"
 2146      65787400 
 2147              	.LASF7:
 2148 01b8 73686F72 		.ascii	"short unsigned int\000"
 2148      7420756E 
 2148      7369676E 
 2148      65642069 
 2148      6E7400
 2149              	.LASF20:
 2150 01cb 6D73675F 		.ascii	"msg_t\000"
 2150      7400
 2151              	.LASF15:
 2152 01d1 746D6F64 		.ascii	"tmode_t\000"
 2152      655F7400 
 2153              	.LASF44:
 2154 01d9 54687265 		.ascii	"ThreadsList\000"
 2154      6164734C 
 2154      69737400 
 2155              	.LASF21:
 2156 01e5 6576656E 		.ascii	"eventmask_t\000"
 2156      746D6173 
 2156      6B5F7400 
 2157              	.LASF66:
 2158 01f1 4D757465 		.ascii	"Mutex\000"
 2158      7800
 2159              	.LASF46:
 2160 01f7 73746B61 		.ascii	"stkalign_t\000"
 2160      6C69676E 
 2160      5F7400
 2161              	.LASF112:
 2162 0202 63685468 		.ascii	"chThdCreateStatic\000"
 2162      64437265 
 2162      61746553 
 2162      74617469 
 2162      6300
 2163              	.LASF77:
ARM GAS  C:\Users\LAB_ME~1\AppData\Local\Temp\cco2FdIK.s 			page 41


 2164 0214 63685F7A 		.ascii	"ch_zero\000"
 2164      65726F00 
 2165              	.LASF91:
 2166 021c 63665F6F 		.ascii	"cf_off_refs\000"
 2166      66665F72 
 2166      65667300 
 2167              	.LASF54:
 2168 0228 76745F74 		.ascii	"vt_time\000"
 2168      696D6500 
 2169              	.LASF49:
 2170 0230 73697A65 		.ascii	"sizetype\000"
 2170      74797065 
 2170      00
 2171              	.LASF55:
 2172 0239 76745F66 		.ascii	"vt_func\000"
 2172      756E6300 
 2173              	.LASF81:
 2174 0241 63685F74 		.ascii	"ch_timesize\000"
 2174      696D6573 
 2174      697A6500 
 2175              	.LASF87:
 2176 024d 63665F6F 		.ascii	"cf_off_name\000"
 2176      66665F6E 
 2176      616D6500 
 2177              	.LASF29:
 2178 0259 705F6F6C 		.ascii	"p_older\000"
 2178      64657200 
 2179              	.LASF61:
 2180 0261 725F6374 		.ascii	"r_ctx\000"
 2180      7800
 2181              	.LASF43:
 2182 0267 54687265 		.ascii	"ThreadsQueue\000"
 2182      61647351 
 2182      75657565 
 2182      00
 2183              	.LASF78:
 2184 0274 63685F73 		.ascii	"ch_size\000"
 2184      697A6500 
 2185              	.LASF108:
 2186 027c 474E5520 		.ascii	"GNU C 4.7.2\000"
 2186      4320342E 
 2186      372E3200 
 2187              	.LASF64:
 2188 0288 725F6375 		.ascii	"r_current\000"
 2188      7272656E 
 2188      7400
 2189              	.LASF63:
 2190 0292 725F6F6C 		.ascii	"r_older\000"
 2190      64657200 
 2191              	.LASF95:
 2192 029a 5F69646C 		.ascii	"_idle_thread\000"
 2192      655F7468 
 2192      72656164 
 2192      00
 2193              	.LASF17:
 2194 02a7 74726566 		.ascii	"trefs_t\000"
 2194      735F7400 
ARM GAS  C:\Users\LAB_ME~1\AppData\Local\Temp\cco2FdIK.s 			page 42


 2195              	.LASF80:
 2196 02af 63685F70 		.ascii	"ch_ptrsize\000"
 2196      74727369 
 2196      7A6500
 2197              	.LASF25:
 2198 02ba 705F7072 		.ascii	"p_prev\000"
 2198      657600
 2199              	.LASF19:
 2200 02c1 74707269 		.ascii	"tprio_t\000"
 2200      6F5F7400 
 2201              	.LASF8:
 2202 02c9 696E7433 		.ascii	"int32_t\000"
 2202      325F7400 
 2203              	.LASF4:
 2204 02d1 756E7369 		.ascii	"unsigned char\000"
 2204      676E6564 
 2204      20636861 
 2204      7200
 2205              	.LASF106:
 2206 02df 5F636F72 		.ascii	"_core_init\000"
 2206      655F696E 
 2206      697400
 2207              	.LASF40:
 2208 02ea 705F6D74 		.ascii	"p_mtxlist\000"
 2208      786C6973 
 2208      7400
 2209              	.LASF5:
 2210 02f4 73686F72 		.ascii	"short int\000"
 2210      7420696E 
 2210      7400
 2211              	.LASF31:
 2212 02fe 705F7374 		.ascii	"p_state\000"
 2212      61746500 
 2213              	.LASF34:
 2214 0306 705F7072 		.ascii	"p_preempt\000"
 2214      65656D70 
 2214      7400
 2215              	.LASF93:
 2216 0310 63665F6F 		.ascii	"cf_off_time\000"
 2216      66665F74 
 2216      696D6500 
 2217              	.LASF60:
 2218 031c 725F7072 		.ascii	"r_prio\000"
 2218      696F00
 2219              	.LASF73:
 2220 0323 65776D61 		.ascii	"ewmask\000"
 2220      736B00
 2221              	.LASF24:
 2222 032a 705F6E65 		.ascii	"p_next\000"
 2222      787400
 2223              	.LASF92:
 2224 0331 63665F6F 		.ascii	"cf_off_preempt\000"
 2224      66665F70 
 2224      7265656D 
 2224      707400
 2225              	.LASF32:
 2226 0340 705F666C 		.ascii	"p_flags\000"
ARM GAS  C:\Users\LAB_ME~1\AppData\Local\Temp\cco2FdIK.s 			page 43


 2226      61677300 
 2227              	.LASF23:
 2228 0348 54687265 		.ascii	"Thread\000"
 2228      616400
 2229              	.LASF85:
 2230 034f 63665F6F 		.ascii	"cf_off_newer\000"
 2230      66665F6E 
 2230      65776572 
 2230      00
 2231              	.LASF39:
 2232 035c 705F6570 		.ascii	"p_epending\000"
 2232      656E6469 
 2232      6E6700
 2233              	.LASF10:
 2234 0367 75696E74 		.ascii	"uint32_t\000"
 2234      33325F74 
 2234      00
 2235              	.LASF83:
 2236 0370 63665F6F 		.ascii	"cf_off_prio\000"
 2236      66665F70 
 2236      72696F00 
 2237              	.LASF59:
 2238 037c 725F7175 		.ascii	"r_queue\000"
 2238      65756500 
 2239              	.LASF51:
 2240 0384 56697274 		.ascii	"VirtualTimer\000"
 2240      75616C54 
 2240      696D6572 
 2240      00
 2241              	.LASF74:
 2242 0391 63686172 		.ascii	"char\000"
 2242      00
 2243              	.LASF69:
 2244 0396 6D5F6E65 		.ascii	"m_next\000"
 2244      787400
 2245              	.LASF22:
 2246 039d 73797374 		.ascii	"systime_t\000"
 2246      696D655F 
 2246      7400
 2247              	.LASF41:
 2248 03a7 705F7265 		.ascii	"p_realprio\000"
 2248      616C7072 
 2248      696F00
 2249              	.LASF50:
 2250 03b2 76746675 		.ascii	"vtfunc_t\000"
 2250      6E635F74 
 2250      00
 2251              	.LASF105:
 2252 03bb 5F76745F 		.ascii	"_vt_init\000"
 2252      696E6974 
 2252      00
 2253              	.LASF35:
 2254 03c4 705F7469 		.ascii	"p_time\000"
 2254      6D6500
 2255              	.LASF47:
 2256 03cb 696E7463 		.ascii	"intctx\000"
 2256      747800
ARM GAS  C:\Users\LAB_ME~1\AppData\Local\Temp\cco2FdIK.s 			page 44


 2257              	.LASF37:
 2258 03d2 705F6D73 		.ascii	"p_msgqueue\000"
 2258      67717565 
 2258      756500
 2259              	.LASF56:
 2260 03dd 76745F70 		.ascii	"vt_par\000"
 2260      617200
 2261              	.LASF84:
 2262 03e4 63665F6F 		.ascii	"cf_off_ctx\000"
 2262      66665F63 
 2262      747800
 2263              	.LASF33:
 2264 03ef 705F7265 		.ascii	"p_refs\000"
 2264      667300
 2265              	.LASF65:
 2266 03f6 52656164 		.ascii	"ReadyList\000"
 2266      794C6973 
 2266      7400
 2267              	.LASF100:
 2268 0400 726C6973 		.ascii	"rlist\000"
 2268      7400
 2269              	.LASF109:
 2270 0406 2E2E2F2E 		.ascii	"../../os/kernel/src/chsys.c\000"
 2270      2E2F6F73 
 2270      2F6B6572 
 2270      6E656C2F 
 2270      7372632F 
 2271              	.LASF3:
 2272 0422 75696E74 		.ascii	"uint8_t\000"
 2272      385F7400 
 2273              	.LASF103:
 2274 042a 5F706F72 		.ascii	"_port_init\000"
 2274      745F696E 
 2274      697400
 2275              	.LASF72:
 2276 0435 77746F62 		.ascii	"wtobjp\000"
 2276      6A7000
 2277              	.LASF30:
 2278 043c 705F6E61 		.ascii	"p_name\000"
 2278      6D6500
 2279              	.LASF57:
 2280 0443 76745F73 		.ascii	"vt_systime\000"
 2280      79737469 
 2280      6D6500
 2281              	.LASF79:
 2282 044e 63685F76 		.ascii	"ch_version\000"
 2282      65727369 
 2282      6F6E00
 2283              	.LASF58:
 2284 0459 56544C69 		.ascii	"VTList\000"
 2284      737400
 2285              	.LASF68:
 2286 0460 6D5F6F77 		.ascii	"m_owner\000"
 2286      6E657200 
 2287              	.LASF110:
 2288 0468 433A5C43 		.ascii	"C:\\Chibios\\demos\\FirmwareV2\000"
 2288      68696269 
ARM GAS  C:\Users\LAB_ME~1\AppData\Local\Temp\cco2FdIK.s 			page 45


 2288      6F735C64 
 2288      656D6F73 
 2288      5C466972 
 2289              	.LASF27:
 2290 0484 705F6374 		.ascii	"p_ctx\000"
 2290      7800
 2291              	.LASF36:
 2292 048a 705F7761 		.ascii	"p_waiting\000"
 2292      6974696E 
 2292      6700
 2293              		.ident	"GCC: (Sourcery CodeBench Lite 2012.09-63) 4.7.2"
ARM GAS  C:\Users\LAB_ME~1\AppData\Local\Temp\cco2FdIK.s 			page 46


DEFINED SYMBOLS
                            *ABS*:00000000 chsys.c
C:\Users\LAB_ME~1\AppData\Local\Temp\cco2FdIK.s:19     .text._idle_thread:00000000 $t
C:\Users\LAB_ME~1\AppData\Local\Temp\cco2FdIK.s:25     .text._idle_thread:00000000 _idle_thread
C:\Users\LAB_ME~1\AppData\Local\Temp\cco2FdIK.s:44     .text._idle_thread:0000000c $d
C:\Users\LAB_ME~1\AppData\Local\Temp\cco2FdIK.s:50     .text.chSysInit:00000000 $t
C:\Users\LAB_ME~1\AppData\Local\Temp\cco2FdIK.s:56     .text.chSysInit:00000000 chSysInit
C:\Users\LAB_ME~1\AppData\Local\Temp\cco2FdIK.s:128    .text.chSysInit:00000048 $d
C:\Users\LAB_ME~1\AppData\Local\Temp\cco2FdIK.s:137    .text.chSysTimerHandlerI:00000000 $t
C:\Users\LAB_ME~1\AppData\Local\Temp\cco2FdIK.s:143    .text.chSysTimerHandlerI:00000000 chSysTimerHandlerI
C:\Users\LAB_ME~1\AppData\Local\Temp\cco2FdIK.s:229    .text.chSysTimerHandlerI:00000050 $d
C:\Users\LAB_ME~1\AppData\Local\Temp\cco2FdIK.s:252    .bss._idle_thread_wa:00000000 _idle_thread_wa
C:\Users\LAB_ME~1\AppData\Local\Temp\cco2FdIK.s:237    .bss.mainthread.4778:00000000 $d
C:\Users\LAB_ME~1\AppData\Local\Temp\cco2FdIK.s:241    .bss.mainthread.4778:00000000 mainthread.4778
C:\Users\LAB_ME~1\AppData\Local\Temp\cco2FdIK.s:244    .rodata.str1.4:00000000 $d
C:\Users\LAB_ME~1\AppData\Local\Temp\cco2FdIK.s:248    .bss._idle_thread_wa:00000000 $d
                     .debug_frame:00000010 $d
C:\Users\LAB_ME~1\AppData\Local\Temp\cco2FdIK.s:49     .text._idle_thread:00000014 $t
C:\Users\LAB_ME~1\AppData\Local\Temp\cco2FdIK.s:136    .text.chSysInit:0000005c $t
C:\Users\LAB_ME~1\AppData\Local\Temp\cco2FdIK.s:236    .text.chSysTimerHandlerI:00000058 $t

UNDEFINED SYMBOLS
rlist
_port_init
_scheduler_init
_vt_init
_core_init
_heap_init
_thread_init
chThdCreateStatic
ch_debug
vtlist
