ARM GAS  C:\Users\LAB_ME~1\AppData\Local\Temp\cco2FdIK.s 			page 1


   1              		.syntax unified
   2              		.cpu cortex-m4
   3              		.fpu softvfp
   4              		.eabi_attribute 20, 1
   5              		.eabi_attribute 21, 1
   6              		.eabi_attribute 23, 3
   7              		.eabi_attribute 24, 1
   8              		.eabi_attribute 25, 1
   9              		.eabi_attribute 26, 1
  10              		.eabi_attribute 30, 2
  11              		.eabi_attribute 34, 1
  12              		.eabi_attribute 18, 4
  13              		.thumb
  14              		.file	"chsys.c"
  15              		.text
  16              	.Ltext0:
  17              		.cfi_sections	.debug_frame
  18              		.section	.text._idle_thread,"ax",%progbits
  19              		.align	2
  20              		.p2align 4,,15
  21              		.global	_idle_thread
  22              		.thumb
  23              		.thumb_func
  24              		.type	_idle_thread, %function
  25              	_idle_thread:
  26              	.LFB7:
  27              		.file 1 "../../os/kernel/src/chsys.c"
  28              		.loc 1 54 0
  29              		.cfi_startproc
  30              		@ args = 0, pretend = 0, frame = 0
  31              		@ frame_needed = 0, uses_anonymous_args = 0
  32              		@ link register save eliminated.
  33              	.LVL0:
  34              		.loc 1 57 0
  35 0000 024B     		ldr	r3, .L4
  36 0002 034A     		ldr	r2, .L4+4
  37 0004 9B69     		ldr	r3, [r3, #24]
  38 0006 9A61     		str	r2, [r3, #24]
  39              	.L2:
  40 0008 FEE7     		b	.L2
  41              	.L5:
  42 000a 00BF     		.align	2
  43              	.L4:
  44 000c 00000000 		.word	rlist
  45 0010 00000000 		.word	.LC0
  46              		.cfi_endproc
  47              	.LFE7:
  48              		.size	_idle_thread, .-_idle_thread
  49 0014 AFF30080 		.section	.text.chSysInit,"ax",%progbits
  49      AFF30080 
  49      AFF30080 
  50              		.align	2
  51              		.p2align 4,,15
  52              		.global	chSysInit
  53              		.thumb
  54              		.thumb_func
  55              		.type	chSysInit, %function
ARM GAS  C:\Users\LAB_ME~1\AppData\Local\Temp\cco2FdIK.s 			page 2


  56              	chSysInit:
  57              	.LFB8:
  58              		.loc 1 77 0
  59              		.cfi_startproc
  60              		@ args = 0, pretend = 0, frame = 0
  61              		@ frame_needed = 0, uses_anonymous_args = 0
  62 0000 10B5     		push	{r4, lr}
  63              	.LCFI0:
  64              		.cfi_def_cfa_offset 8
  65              		.cfi_offset 4, -8
  66              		.cfi_offset 14, -4
  67 0002 82B0     		sub	sp, sp, #8
  68              	.LCFI1:
  69              		.cfi_def_cfa_offset 16
  70              		.loc 1 83 0
  71 0004 FFF7FEFF 		bl	_port_init
  72              	.LVL1:
  73              		.loc 1 84 0
  74 0008 FFF7FEFF 		bl	_scheduler_init
  75              	.LVL2:
  76              		.loc 1 85 0
  77 000c FFF7FEFF 		bl	_vt_init
  78              	.LVL3:
  79              		.loc 1 87 0
  80 0010 FFF7FEFF 		bl	_core_init
  81              	.LVL4:
  82              		.loc 1 90 0
  83 0014 FFF7FEFF 		bl	_heap_init
  84              	.LVL5:
  85              		.loc 1 97 0
  86 0018 4021     		movs	r1, #64
  87 001a 0B48     		ldr	r0, .L7
  88 001c FFF7FEFF 		bl	_thread_init
  89              	.LVL6:
  90 0020 0A49     		ldr	r1, .L7+4
  91              		.loc 1 98 0
  92 0022 0122     		movs	r2, #1
  93              		.loc 1 97 0
  94 0024 8861     		str	r0, [r1, #24]
  95              		.loc 1 98 0
  96 0026 0277     		strb	r2, [r0, #28]
  97              	.LBB2:
  98              		.loc 1 104 0
  99 0028 0023     		movs	r3, #0
 100              	.LVL7:
 101              	@ 104 "../../os/kernel/src/chsys.c" 1
 102 002a 83F31188 		msr     BASEPRI, r3                    
 103 002e 62B6     		cpsie   i
 104              	@ 0 "" 2
 105              	.LVL8:
 106              		.thumb
 107              	.LBE2:
 108              		.loc 1 108 0
 109 0030 074C     		ldr	r4, .L7+8
 110 0032 8969     		ldr	r1, [r1, #24]
 111              		.loc 1 114 0
 112 0034 0748     		ldr	r0, .L7+12
ARM GAS  C:\Users\LAB_ME~1\AppData\Local\Temp\cco2FdIK.s 			page 3


 113              		.loc 1 108 0
 114 0036 8C61     		str	r4, [r1, #24]
 115              		.loc 1 114 0
 116 0038 0093     		str	r3, [sp, #0]
 117 003a C021     		movs	r1, #192
 118 003c 064B     		ldr	r3, .L7+16
 119              	.LVL9:
 120 003e FFF7FEFF 		bl	chThdCreateStatic
 121              	.LVL10:
 122              		.loc 1 117 0
 123 0042 02B0     		add	sp, sp, #8
 124 0044 10BD     		pop	{r4, pc}
 125              	.L8:
 126 0046 00BF     		.align	2
 127              	.L7:
 128 0048 00000000 		.word	.LANCHOR0
 129 004c 00000000 		.word	rlist
 130 0050 00000000 		.word	ch_debug
 131 0054 00000000 		.word	.LANCHOR1
 132 0058 00000000 		.word	_idle_thread
 133              		.cfi_endproc
 134              	.LFE8:
 135              		.size	chSysInit, .-chSysInit
 136 005c AFF30080 		.section	.text.chSysTimerHandlerI,"ax",%progbits
 137              		.align	2
 138              		.p2align 4,,15
 139              		.global	chSysTimerHandlerI
 140              		.thumb
 141              		.thumb_func
 142              		.type	chSysTimerHandlerI, %function
 143              	chSysTimerHandlerI:
 144              	.LFB9:
 145              		.loc 1 130 0
 146              		.cfi_startproc
 147              		@ args = 0, pretend = 0, frame = 0
 148              		@ frame_needed = 0, uses_anonymous_args = 0
 149 0000 38B5     		push	{r3, r4, r5, lr}
 150              	.LCFI2:
 151              		.cfi_def_cfa_offset 16
 152              		.cfi_offset 3, -16
 153              		.cfi_offset 4, -12
 154              		.cfi_offset 5, -8
 155              		.cfi_offset 14, -4
 156              		.loc 1 136 0
 157 0002 134B     		ldr	r3, .L22
 158 0004 9B69     		ldr	r3, [r3, #24]
 159 0006 DA7F     		ldrb	r2, [r3, #31]	@ zero_extendqisi2
 160 0008 0AB1     		cbz	r2, .L10
 161              		.loc 1 138 0
 162 000a 013A     		subs	r2, r2, #1
 163 000c DA77     		strb	r2, [r3, #31]
 164              	.L10:
 165              		.loc 1 141 0
 166 000e 1A6A     		ldr	r2, [r3, #32]
 167              		.loc 1 143 0
 168 0010 104C     		ldr	r4, .L22+4
 169              		.loc 1 141 0
ARM GAS  C:\Users\LAB_ME~1\AppData\Local\Temp\cco2FdIK.s 			page 4


 170 0012 0132     		adds	r2, r2, #1
 171 0014 1A62     		str	r2, [r3, #32]
 172              		.loc 1 143 0
 173 0016 E368     		ldr	r3, [r4, #12]
 174 0018 2268     		ldr	r2, [r4, #0]
 175 001a 0133     		adds	r3, r3, #1
 176 001c A242     		cmp	r2, r4
 177 001e E360     		str	r3, [r4, #12]
 178 0020 14D0     		beq	.L9
 179              	.LBB3:
 180              		.loc 1 143 0 is_stmt 0 discriminator 1
 181 0022 9568     		ldr	r5, [r2, #8]
 182 0024 013D     		subs	r5, r5, #1
 183 0026 9560     		str	r5, [r2, #8]
 184              	.LVL11:
 185 0028 85B9     		cbnz	r5, .L9
 186              	.L18:
 187              	.LBB4:
 188              		.loc 1 143 0 discriminator 3
 189 002a 1368     		ldr	r3, [r2, #0]
 190 002c D168     		ldr	r1, [r2, #12]
 191              	.LVL12:
 192 002e 5C60     		str	r4, [r3, #4]
 193 0030 2360     		str	r3, [r4, #0]
 194 0032 D560     		str	r5, [r2, #12]
 195              	.LBB5:
 196 0034 0023     		movs	r3, #0
 197              	.LVL13:
 198              	@ 143 "../../os/kernel/src/chsys.c" 1
 199 0036 83F31188 		msr     BASEPRI, r3
 200              	@ 0 "" 2
 201              	.LVL14:
 202              		.thumb
 203              	.LBE5:
 204 003a 1069     		ldr	r0, [r2, #16]
 205 003c 8847     		blx	r1
 206              	.LVL15:
 207              	.LBB6:
 208 003e 2023     		movs	r3, #32
 209              	.LVL16:
 210              	@ 143 "../../os/kernel/src/chsys.c" 1
 211 0040 83F31188 		msr     BASEPRI, r3
 212              	@ 0 "" 2
 213              	.LVL17:
 214              		.thumb
 215              	.LBE6:
 216              	.LBE4:
 217 0044 2268     		ldr	r2, [r4, #0]
 218              	.LVL18:
 219 0046 9368     		ldr	r3, [r2, #8]
 220              	.LVL19:
 221 0048 002B     		cmp	r3, #0
 222 004a EED0     		beq	.L18
 223              	.LVL20:
 224              	.L9:
 225 004c 38BD     		pop	{r3, r4, r5, pc}
 226              	.L23:
ARM GAS  C:\Users\LAB_ME~1\AppData\Local\Temp\cco2FdIK.s 			page 5


 227 004e 00BF     		.align	2
 228              	.L22:
 229 0050 00000000 		.word	rlist
 230 0054 00000000 		.word	vtlist
 231              	.LBE3:
 232              		.cfi_endproc
 233              	.LFE9:
 234              		.size	chSysTimerHandlerI, .-chSysTimerHandlerI
 235              		.global	_idle_thread_wa
 236 0058 AFF30080 		.section	.bss.mainthread.4778,"aw",%nobits
 236      AFF30080 
 237              		.align	2
 238              		.set	.LANCHOR0,. + 0
 239              		.type	mainthread.4778, %object
 240              		.size	mainthread.4778, 72
 241              	mainthread.4778:
 242 0000 00000000 		.space	72
 242      00000000 
 242      00000000 
 242      00000000 
 242      00000000 
 243              		.section	.rodata.str1.4,"aMS",%progbits,1
 244              		.align	2
 245              	.LC0:
 246 0000 69646C65 		.ascii	"idle\000"
 246      00
 247 0005 000000   		.section	.bss._idle_thread_wa,"aw",%nobits
 248              		.align	3
 249              		.set	.LANCHOR1,. + 0
 250              		.type	_idle_thread_wa, %object
 251              		.size	_idle_thread_wa, 192
 252              	_idle_thread_wa:
 253 0000 00000000 		.space	192
 253      00000000 
 253      00000000 
 253      00000000 
 253      00000000 
 254              		.text
 255              	.Letext0:
 256              		.file 2 "c:\\program files (x86)\\codesourcery\\sourcery_codebench_lite_for_arm_eabi\\bin\\../lib/
 257              		.file 3 "c:\\program files (x86)\\codesourcery\\sourcery_codebench_lite_for_arm_eabi\\bin\\../lib/
 258              		.file 4 "../../os/ports/GCC/ARMCMx/chtypes.h"
 259              		.file 5 "../../os/kernel/include/chlists.h"
 260              		.file 6 "../../os/kernel/include/chthreads.h"
 261              		.file 7 "../../os/ports/GCC/ARMCMx/chcore_v7m.h"
 262              		.file 8 "../../os/kernel/include/chvt.h"
 263              		.file 9 "../../os/kernel/include/chschd.h"
 264              		.file 10 "../../os/kernel/include/chmtx.h"
 265              		.file 11 "../../os/kernel/include/chregistry.h"
 266              		.file 12 "../../os/kernel/include/chmemcore.h"
 267              		.file 13 "../../os/kernel/include/chheap.h"