ARM GAS  C:\Users\LAB_ME~1\AppData\Local\Temp\cc4HByHD.s 			page 1


   1              		.syntax unified
   2              		.cpu cortex-m4
   3              		.fpu softvfp
   4              		.eabi_attribute 20, 1
   5              		.eabi_attribute 21, 1
   6              		.eabi_attribute 23, 3
   7              		.eabi_attribute 24, 1
   8              		.eabi_attribute 25, 1
   9              		.eabi_attribute 26, 1
  10              		.eabi_attribute 30, 2
  11              		.eabi_attribute 34, 1
  12              		.eabi_attribute 18, 4
  13              		.thumb
  14              		.file	"nvic.c"
  15              		.text
  16              	.Ltext0:
  17              		.cfi_sections	.debug_frame
  18              		.section	.text.nvicEnableVector,"ax",%progbits
  19              		.align	2
  20              		.p2align 4,,15
  21              		.global	nvicEnableVector
  22              		.thumb
  23              		.thumb_func
  24              		.type	nvicEnableVector, %function
  25              	nvicEnableVector:
  26              	.LFB7:
  27              		.file 1 "../../os/ports/common/ARMCMx/nvic.c"
  28              		.loc 1 39 0
  29              		.cfi_startproc
  30              		@ args = 0, pretend = 0, frame = 0
  31              		@ frame_needed = 0, uses_anonymous_args = 0
  32              		@ link register save eliminated.
  33              	.LVL0:
  34 0000 F0B4     		push	{r4, r5, r6, r7}
  35              	.LCFI0:
  36              		.cfi_def_cfa_offset 16
  37              		.cfi_offset 4, -16
  38              		.cfi_offset 5, -12
  39              		.cfi_offset 6, -8
  40              		.cfi_offset 7, -4
  41              		.loc 1 42 0
  42 0002 8408     		lsrs	r4, r0, #2
  43 0004 0F4B     		ldr	r3, .L2
  44 0006 C034     		adds	r4, r4, #192
  45              		.loc 1 40 0
  46 0008 00F00305 		and	r5, r0, #3
  47              		.loc 1 42 0
  48 000c 53F82470 		ldr	r7, [r3, r4, lsl #2]
  49              		.loc 1 40 0
  50 0010 ED00     		lsls	r5, r5, #3
  51              	.LVL1:
  52              		.loc 1 42 0
  53 0012 FF26     		movs	r6, #255
  54              		.loc 1 43 0
  55 0014 4209     		lsrs	r2, r0, #5
  56              		.loc 1 42 0
  57 0016 06FA05F6 		lsl	r6, r6, r5
ARM GAS  C:\Users\LAB_ME~1\AppData\Local\Temp\cc4HByHD.s 			page 2


  58 001a 27EA0606 		bic	r6, r7, r6
  59 001e 01FA05F5 		lsl	r5, r1, r5
  60              	.LVL2:
  61              		.loc 1 43 0
  62 0022 00F01F00 		and	r0, r0, #31
  63              	.LVL3:
  64 0026 02F16007 		add	r7, r2, #96
  65 002a 0121     		movs	r1, #1
  66              	.LVL4:
  67 002c 01FA00F0 		lsl	r0, r1, r0
  68              		.loc 1 42 0
  69 0030 2E43     		orrs	r6, r6, r5
  70 0032 43F82460 		str	r6, [r3, r4, lsl #2]
  71              		.loc 1 43 0
  72 0036 43F82700 		str	r0, [r3, r7, lsl #2]
  73              		.loc 1 44 0
  74 003a 43F82200 		str	r0, [r3, r2, lsl #2]
  75              		.loc 1 45 0
  76 003e F0BC     		pop	{r4, r5, r6, r7}
  77 0040 7047     		bx	lr
  78              	.L3:
  79 0042 00BF     		.align	2
  80              	.L2:
  81 0044 00E100E0 		.word	-536813312
  82              		.cfi_endproc
  83              	.LFE7:
  84              		.size	nvicEnableVector, .-nvicEnableVector
  85 0048 AFF30080 		.section	.text.nvicDisableVector,"ax",%progbits
  85      AFF30080 
  86              		.align	2
  87              		.p2align 4,,15
  88              		.global	nvicDisableVector
  89              		.thumb
  90              		.thumb_func
  91              		.type	nvicDisableVector, %function
  92              	nvicDisableVector:
  93              	.LFB8:
  94              		.loc 1 53 0
  95              		.cfi_startproc
  96              		@ args = 0, pretend = 0, frame = 0
  97              		@ frame_needed = 0, uses_anonymous_args = 0
  98              		@ link register save eliminated.
  99              	.LVL5:
 100              		.loc 1 56 0
 101 0000 4109     		lsrs	r1, r0, #5
 102              		.loc 1 53 0
 103 0002 10B4     		push	{r4}
 104              	.LCFI1:
 105              		.cfi_def_cfa_offset 4
 106              		.cfi_offset 4, -4
 107              		.loc 1 56 0
 108 0004 0C4B     		ldr	r3, .L5
 109 0006 00F01F02 		and	r2, r0, #31
 110 000a 2031     		adds	r1, r1, #32
 111 000c 0124     		movs	r4, #1
 112 000e 04FA02F4 		lsl	r4, r4, r2
 113              		.loc 1 57 0
ARM GAS  C:\Users\LAB_ME~1\AppData\Local\Temp\cc4HByHD.s 			page 3


 114 0012 8208     		lsrs	r2, r0, #2
 115              		.loc 1 56 0
 116 0014 43F82140 		str	r4, [r3, r1, lsl #2]
 117              		.loc 1 57 0
 118 0018 C032     		adds	r2, r2, #192
 119              		.loc 1 54 0
 120 001a 00F00300 		and	r0, r0, #3
 121              	.LVL6:
 122              		.loc 1 57 0
 123 001e 53F82210 		ldr	r1, [r3, r2, lsl #2]
 124              		.loc 1 54 0
 125 0022 C000     		lsls	r0, r0, #3
 126              	.LVL7:
 127              		.loc 1 57 0
 128 0024 FF24     		movs	r4, #255
 129 0026 04FA00F0 		lsl	r0, r4, r0
 130              	.LVL8:
 131 002a 21EA0000 		bic	r0, r1, r0
 132 002e 43F82200 		str	r0, [r3, r2, lsl #2]
 133              		.loc 1 58 0
 134 0032 10BC     		pop	{r4}
 135 0034 7047     		bx	lr
 136              	.L6:
 137 0036 00BF     		.align	2
 138              	.L5:
 139 0038 00E100E0 		.word	-536813312
 140              		.cfi_endproc
 141              	.LFE8:
 142              		.size	nvicDisableVector, .-nvicDisableVector
 143 003c AFF30080 		.section	.text.nvicSetSystemHandlerPriority,"ax",%progbits
 144              		.align	2
 145              		.p2align 4,,15
 146              		.global	nvicSetSystemHandlerPriority
 147              		.thumb
 148              		.thumb_func
 149              		.type	nvicSetSystemHandlerPriority, %function
 150              	nvicSetSystemHandlerPriority:
 151              	.LFB9:
 152              		.loc 1 67 0
 153              		.cfi_startproc
 154              		@ args = 0, pretend = 0, frame = 0
 155              		@ frame_needed = 0, uses_anonymous_args = 0
 156              		@ link register save eliminated.
 157              	.LVL9:
 158              		.loc 1 70 0
 159 0000 8208     		lsrs	r2, r0, #2
 160 0002 0A4B     		ldr	r3, .L8
 161 0004 0632     		adds	r2, r2, #6
 162              		.loc 1 68 0
 163 0006 00F00300 		and	r0, r0, #3
 164              	.LVL10:
 165              		.loc 1 67 0
 166 000a 30B4     		push	{r4, r5}
 167              	.LCFI2:
 168              		.cfi_def_cfa_offset 8
 169              		.cfi_offset 4, -8
 170              		.cfi_offset 5, -4
ARM GAS  C:\Users\LAB_ME~1\AppData\Local\Temp\cc4HByHD.s 			page 4


 171              		.loc 1 68 0
 172 000c C000     		lsls	r0, r0, #3
 173              	.LVL11:
 174              		.loc 1 70 0
 175 000e 53F82250 		ldr	r5, [r3, r2, lsl #2]
 176              		.loc 1 71 0
 177 0012 FF24     		movs	r4, #255
 178 0014 04FA00F4 		lsl	r4, r4, r0
 179              		.loc 1 70 0
 180 0018 25EA0404 		bic	r4, r5, r4
 181              		.loc 1 71 0
 182 001c 01FA00F1 		lsl	r1, r1, r0
 183              	.LVL12:
 184 0020 0C43     		orrs	r4, r4, r1
 185              		.loc 1 70 0
 186 0022 43F82240 		str	r4, [r3, r2, lsl #2]
 187              		.loc 1 72 0
 188 0026 30BC     		pop	{r4, r5}
 189 0028 7047     		bx	lr
 190              	.L9:
 191 002a 00BF     		.align	2
 192              	.L8:
 193 002c 00ED00E0 		.word	-536810240
 194              		.cfi_endproc
 195              	.LFE9:
 196              		.size	nvicSetSystemHandlerPriority, .-nvicSetSystemHandlerPriority
 197              		.text
 198              	.Letext0:
 199              		.file 2 "c:\\program files (x86)\\codesourcery\\sourcery_codebench_lite_for_arm_eabi\\bin\\../lib/
 200              		.file 3 "../../os/ports/common/ARMCMx/nvic.h"