ARM GAS  C:\Users\LAB_ME~1\AppData\Local\Temp\ccBYFszg.s 			page 1


   1              		.syntax unified
   2              		.cpu cortex-m4
   3              		.fpu softvfp
   4              		.eabi_attribute 20, 1
   5              		.eabi_attribute 21, 1
   6              		.eabi_attribute 23, 3
   7              		.eabi_attribute 24, 1
   8              		.eabi_attribute 25, 1
   9              		.eabi_attribute 26, 1
  10              		.eabi_attribute 30, 2
  11              		.eabi_attribute 34, 1
  12              		.eabi_attribute 18, 4
  13              		.thumb
  14              		.file	"pal_lld.c"
  15              		.text
  16              	.Ltext0:
  17              		.cfi_sections	.debug_frame
  18              		.section	.text._pal_lld_init,"ax",%progbits
  19              		.align	2
  20              		.p2align 4,,15
  21              		.global	_pal_lld_init
  22              		.thumb
  23              		.thumb_func
  24              		.type	_pal_lld_init, %function
  25              	_pal_lld_init:
  26              	.LFB119:
  27              		.file 1 "../../os/hal/platforms/STM32/GPIOv2/pal_lld.c"
  28              		.loc 1 104 0
  29              		.cfi_startproc
  30              		@ args = 0, pretend = 0, frame = 0
  31              		@ frame_needed = 0, uses_anonymous_args = 0
  32              		@ link register save eliminated.
  33              	.LVL0:
  34 0000 2DE9F00F 		push	{r4, r5, r6, r7, r8, r9, sl, fp}
  35              	.LCFI0:
  36              		.cfi_def_cfa_offset 32
  37              		.cfi_offset 4, -32
  38              		.cfi_offset 5, -28
  39              		.cfi_offset 6, -24
  40              		.cfi_offset 7, -20
  41              		.cfi_offset 8, -16
  42              		.cfi_offset 9, -12
  43              		.cfi_offset 10, -8
  44              		.cfi_offset 11, -4
  45              		.loc 1 117 0
  46 0004 DFF8BC91 		ldr	r9, .L2+24
  47              	.LBB20:
  48              	.LBB21:
  49              		.loc 1 79 0
  50 0008 DFF8BC81 		ldr	r8, .L2+28
  51              	.LBE21:
  52              	.LBE20:
  53              		.loc 1 117 0
  54 000c D9F830A0 		ldr	sl, [r9, #48]
  55              	.LBB23:
  56              	.LBB24:
  57              		.loc 1 79 0
ARM GAS  C:\Users\LAB_ME~1\AppData\Local\Temp\ccBYFszg.s 			page 2


  58 0010 DFF8B8C1 		ldr	ip, .L2+32
  59              	.LBE24:
  60              	.LBE23:
  61              	.LBB26:
  62              	.LBB27:
  63 0014 654F     		ldr	r7, .L2
  64              	.LBE27:
  65              	.LBE26:
  66              	.LBB29:
  67              	.LBB30:
  68 0016 664E     		ldr	r6, .L2+4
  69              	.LBE30:
  70              	.LBE29:
  71              	.LBB32:
  72              	.LBB33:
  73 0018 664D     		ldr	r5, .L2+8
  74              	.LBE33:
  75              	.LBE32:
  76              	.LBB35:
  77              	.LBB36:
  78 001a 674C     		ldr	r4, .L2+12
  79              	.LBE36:
  80              	.LBE35:
  81              	.LBB38:
  82              	.LBB39:
  83 001c 6749     		ldr	r1, .L2+16
  84              	.LBE39:
  85              	.LBE38:
  86              	.LBB41:
  87              	.LBB42:
  88 001e 684A     		ldr	r2, .L2+20
  89              	.LBE42:
  90              	.LBE41:
  91              	.LBB44:
  92              	.LBB45:
  93 0020 DFF8ACB1 		ldr	fp, .L2+36
  94              	.LBE45:
  95              	.LBE44:
  96              		.loc 1 117 0
  97 0024 6FEA5A2A 		mvn	sl, sl, lsr #9
  98 0028 6FEA4A2A 		mvn	sl, sl, lsl #9
  99 002c C9F830A0 		str	sl, [r9, #48]
 100              		.loc 1 118 0
 101 0030 D9F850A0 		ldr	sl, [r9, #80]
 102 0034 6FEA5A2A 		mvn	sl, sl, lsr #9
 103 0038 6FEA4A2A 		mvn	sl, sl, lsl #9
 104 003c C9F850A0 		str	sl, [r9, #80]
 105              	.LVL1:
 106              	.LBB47:
 107              	.LBB22:
 108              		.loc 1 79 0
 109 0040 4368     		ldr	r3, [r0, #4]
 110 0042 C8F80430 		str	r3, [r8, #4]
 111              		.loc 1 80 0
 112 0046 8368     		ldr	r3, [r0, #8]
 113 0048 C8F80830 		str	r3, [r8, #8]
 114              		.loc 1 81 0
ARM GAS  C:\Users\LAB_ME~1\AppData\Local\Temp\ccBYFszg.s 			page 3


 115 004c C368     		ldr	r3, [r0, #12]
 116 004e C8F80C30 		str	r3, [r8, #12]
 117              		.loc 1 82 0
 118 0052 0369     		ldr	r3, [r0, #16]
 119 0054 C8F81430 		str	r3, [r8, #20]
 120              		.loc 1 83 0
 121 0058 4369     		ldr	r3, [r0, #20]
 122 005a C8F82030 		str	r3, [r8, #32]
 123              		.loc 1 84 0
 124 005e 8369     		ldr	r3, [r0, #24]
 125 0060 C8F82430 		str	r3, [r8, #36]
 126              		.loc 1 85 0
 127 0064 0368     		ldr	r3, [r0, #0]
 128 0066 C8F80030 		str	r3, [r8, #0]
 129              	.LVL2:
 130              	.LBE22:
 131              	.LBE47:
 132              	.LBB48:
 133              	.LBB25:
 134              		.loc 1 79 0
 135 006a 036A     		ldr	r3, [r0, #32]
 136 006c CCF80430 		str	r3, [ip, #4]
 137              		.loc 1 80 0
 138 0070 436A     		ldr	r3, [r0, #36]
 139 0072 CCF80830 		str	r3, [ip, #8]
 140              		.loc 1 81 0
 141 0076 836A     		ldr	r3, [r0, #40]
 142 0078 CCF80C30 		str	r3, [ip, #12]
 143              		.loc 1 82 0
 144 007c C36A     		ldr	r3, [r0, #44]
 145 007e CCF81430 		str	r3, [ip, #20]
 146              		.loc 1 83 0
 147 0082 036B     		ldr	r3, [r0, #48]
 148 0084 CCF82030 		str	r3, [ip, #32]
 149              		.loc 1 84 0
 150 0088 436B     		ldr	r3, [r0, #52]
 151 008a CCF82430 		str	r3, [ip, #36]
 152              		.loc 1 85 0
 153 008e C369     		ldr	r3, [r0, #28]
 154 0090 CCF80030 		str	r3, [ip, #0]
 155              	.LVL3:
 156              	.LBE25:
 157              	.LBE48:
 158              	.LBB49:
 159              	.LBB28:
 160              		.loc 1 79 0
 161 0094 C36B     		ldr	r3, [r0, #60]
 162 0096 7B60     		str	r3, [r7, #4]
 163              		.loc 1 80 0
 164 0098 036C     		ldr	r3, [r0, #64]
 165 009a BB60     		str	r3, [r7, #8]
 166              		.loc 1 81 0
 167 009c 436C     		ldr	r3, [r0, #68]
 168 009e FB60     		str	r3, [r7, #12]
 169              		.loc 1 82 0
 170 00a0 836C     		ldr	r3, [r0, #72]
 171 00a2 7B61     		str	r3, [r7, #20]
ARM GAS  C:\Users\LAB_ME~1\AppData\Local\Temp\ccBYFszg.s 			page 4


 172              		.loc 1 83 0
 173 00a4 C36C     		ldr	r3, [r0, #76]
 174 00a6 3B62     		str	r3, [r7, #32]
 175              		.loc 1 84 0
 176 00a8 036D     		ldr	r3, [r0, #80]
 177 00aa 7B62     		str	r3, [r7, #36]
 178              		.loc 1 85 0
 179 00ac 836B     		ldr	r3, [r0, #56]
 180 00ae 3B60     		str	r3, [r7, #0]
 181              	.LVL4:
 182              	.LBE28:
 183              	.LBE49:
 184              	.LBB50:
 185              	.LBB31:
 186              		.loc 1 79 0
 187 00b0 876D     		ldr	r7, [r0, #88]
 188 00b2 7760     		str	r7, [r6, #4]
 189              		.loc 1 80 0
 190 00b4 C76D     		ldr	r7, [r0, #92]
 191 00b6 B760     		str	r7, [r6, #8]
 192              		.loc 1 81 0
 193 00b8 076E     		ldr	r7, [r0, #96]
 194 00ba F760     		str	r7, [r6, #12]
 195              		.loc 1 82 0
 196 00bc 476E     		ldr	r7, [r0, #100]
 197 00be 7761     		str	r7, [r6, #20]
 198              		.loc 1 83 0
 199 00c0 876E     		ldr	r7, [r0, #104]
 200 00c2 3762     		str	r7, [r6, #32]
 201              		.loc 1 84 0
 202 00c4 C76E     		ldr	r7, [r0, #108]
 203 00c6 7762     		str	r7, [r6, #36]
 204              		.loc 1 85 0
 205 00c8 476D     		ldr	r7, [r0, #84]
 206 00ca 3760     		str	r7, [r6, #0]
 207              	.LVL5:
 208              	.LBE31:
 209              	.LBE50:
 210              	.LBB51:
 211              	.LBB34:
 212              		.loc 1 79 0
 213 00cc 466F     		ldr	r6, [r0, #116]
 214 00ce 6E60     		str	r6, [r5, #4]
 215              		.loc 1 80 0
 216 00d0 866F     		ldr	r6, [r0, #120]
 217 00d2 AE60     		str	r6, [r5, #8]
 218              		.loc 1 81 0
 219 00d4 C66F     		ldr	r6, [r0, #124]
 220 00d6 EE60     		str	r6, [r5, #12]
 221              		.loc 1 82 0
 222 00d8 D0F88060 		ldr	r6, [r0, #128]
 223 00dc 6E61     		str	r6, [r5, #20]
 224              		.loc 1 83 0
 225 00de D0F88460 		ldr	r6, [r0, #132]
 226 00e2 2E62     		str	r6, [r5, #32]
 227              		.loc 1 84 0
 228 00e4 D0F88860 		ldr	r6, [r0, #136]
ARM GAS  C:\Users\LAB_ME~1\AppData\Local\Temp\ccBYFszg.s 			page 5


 229 00e8 6E62     		str	r6, [r5, #36]
 230              		.loc 1 85 0
 231 00ea 066F     		ldr	r6, [r0, #112]
 232 00ec 2E60     		str	r6, [r5, #0]
 233              	.LVL6:
 234              	.LBE34:
 235              	.LBE51:
 236              	.LBB52:
 237              	.LBB37:
 238              		.loc 1 79 0
 239 00ee D0F89050 		ldr	r5, [r0, #144]
 240 00f2 6560     		str	r5, [r4, #4]
 241              		.loc 1 80 0
 242 00f4 D0F89450 		ldr	r5, [r0, #148]
 243 00f8 A560     		str	r5, [r4, #8]
 244              		.loc 1 81 0
 245 00fa D0F89850 		ldr	r5, [r0, #152]
 246 00fe E560     		str	r5, [r4, #12]
 247              		.loc 1 82 0
 248 0100 D0F89C50 		ldr	r5, [r0, #156]
 249 0104 6561     		str	r5, [r4, #20]
 250              		.loc 1 83 0
 251 0106 D0F8A050 		ldr	r5, [r0, #160]
 252 010a 2562     		str	r5, [r4, #32]
 253              		.loc 1 84 0
 254 010c D0F8A450 		ldr	r5, [r0, #164]
 255 0110 6562     		str	r5, [r4, #36]
 256              		.loc 1 85 0
 257 0112 D0F88C50 		ldr	r5, [r0, #140]
 258 0116 2560     		str	r5, [r4, #0]
 259              	.LVL7:
 260              	.LBE37:
 261              	.LBE52:
 262              	.LBB53:
 263              	.LBB40:
 264              		.loc 1 79 0
 265 0118 D0F8AC40 		ldr	r4, [r0, #172]
 266 011c 4C60     		str	r4, [r1, #4]
 267              		.loc 1 80 0
 268 011e D0F8B040 		ldr	r4, [r0, #176]
 269 0122 8C60     		str	r4, [r1, #8]
 270              		.loc 1 81 0
 271 0124 D0F8B440 		ldr	r4, [r0, #180]
 272 0128 CC60     		str	r4, [r1, #12]
 273              		.loc 1 82 0
 274 012a D0F8B840 		ldr	r4, [r0, #184]
 275 012e 4C61     		str	r4, [r1, #20]
 276              		.loc 1 83 0
 277 0130 D0F8BC40 		ldr	r4, [r0, #188]
 278 0134 0C62     		str	r4, [r1, #32]
 279              		.loc 1 84 0
 280 0136 D0F8C040 		ldr	r4, [r0, #192]
 281 013a 4C62     		str	r4, [r1, #36]
 282              		.loc 1 85 0
 283 013c D0F8A840 		ldr	r4, [r0, #168]
 284 0140 0C60     		str	r4, [r1, #0]
 285              	.LVL8:
ARM GAS  C:\Users\LAB_ME~1\AppData\Local\Temp\ccBYFszg.s 			page 6


 286              	.LBE40:
 287              	.LBE53:
 288              	.LBB54:
 289              	.LBB43:
 290              		.loc 1 79 0
 291 0142 D0F8C810 		ldr	r1, [r0, #200]
 292 0146 5160     		str	r1, [r2, #4]
 293              		.loc 1 80 0
 294 0148 D0F8CC10 		ldr	r1, [r0, #204]
 295 014c 9160     		str	r1, [r2, #8]
 296              		.loc 1 81 0
 297 014e D0F8D010 		ldr	r1, [r0, #208]
 298 0152 D160     		str	r1, [r2, #12]
 299              		.loc 1 82 0
 300 0154 D0F8D410 		ldr	r1, [r0, #212]
 301 0158 5161     		str	r1, [r2, #20]
 302              		.loc 1 83 0
 303 015a D0F8D810 		ldr	r1, [r0, #216]
 304 015e 1162     		str	r1, [r2, #32]
 305              		.loc 1 84 0
 306 0160 D0F8DC10 		ldr	r1, [r0, #220]
 307 0164 5162     		str	r1, [r2, #36]
 308              		.loc 1 85 0
 309 0166 D0F8C410 		ldr	r1, [r0, #196]
 310 016a 1160     		str	r1, [r2, #0]
 311              	.LVL9:
 312              	.LBE43:
 313              	.LBE54:
 314              	.LBB55:
 315              	.LBB46:
 316              		.loc 1 79 0
 317 016c D0F8E420 		ldr	r2, [r0, #228]
 318 0170 CBF80420 		str	r2, [fp, #4]
 319              		.loc 1 80 0
 320 0174 D0F8E820 		ldr	r2, [r0, #232]
 321 0178 CBF80820 		str	r2, [fp, #8]
 322              		.loc 1 81 0
 323 017c D0F8EC20 		ldr	r2, [r0, #236]
 324 0180 CBF80C20 		str	r2, [fp, #12]
 325              		.loc 1 82 0
 326 0184 D0F8F020 		ldr	r2, [r0, #240]
 327 0188 CBF81420 		str	r2, [fp, #20]
 328              		.loc 1 83 0
 329 018c D0F8F420 		ldr	r2, [r0, #244]
 330 0190 CBF82020 		str	r2, [fp, #32]
 331              		.loc 1 84 0
 332 0194 D0F8F820 		ldr	r2, [r0, #248]
 333 0198 CBF82420 		str	r2, [fp, #36]
 334              		.loc 1 85 0
 335 019c D0F8E020 		ldr	r2, [r0, #224]
 336 01a0 CBF80020 		str	r2, [fp, #0]
 337              	.LBE46:
 338              	.LBE55:
 339              		.loc 1 143 0
 340 01a4 BDE8F00F 		pop	{r4, r5, r6, r7, r8, r9, sl, fp}
 341 01a8 7047     		bx	lr
 342              	.L3:
ARM GAS  C:\Users\LAB_ME~1\AppData\Local\Temp\ccBYFszg.s 			page 7


 343 01aa 00BF     		.align	2
 344              	.L2:
 345 01ac 00080240 		.word	1073874944
 346 01b0 000C0240 		.word	1073875968
 347 01b4 00100240 		.word	1073876992
 348 01b8 00140240 		.word	1073878016
 349 01bc 00180240 		.word	1073879040
 350 01c0 001C0240 		.word	1073880064
 351 01c4 00380240 		.word	1073887232
 352 01c8 00000240 		.word	1073872896
 353 01cc 00040240 		.word	1073873920
 354 01d0 00200240 		.word	1073881088
 355              		.cfi_endproc
 356              	.LFE119:
 357              		.size	_pal_lld_init, .-_pal_lld_init
 358 01d4 AFF30080 		.section	.text._pal_lld_setgroupmode,"ax",%progbits
 358      AFF30080 
 358      AFF30080 
 359              		.align	2
 360              		.p2align 4,,15
 361              		.global	_pal_lld_setgroupmode
 362              		.thumb
 363              		.thumb_func
 364              		.type	_pal_lld_setgroupmode, %function
 365              	_pal_lld_setgroupmode:
 366              	.LFB120:
 367              		.loc 1 161 0
 368              		.cfi_startproc
 369              		@ args = 0, pretend = 0, frame = 0
 370              		@ frame_needed = 0, uses_anonymous_args = 0
 371              		@ link register save eliminated.
 372              	.LVL10:
 373 0000 2DE9F00F 		push	{r4, r5, r6, r7, r8, r9, sl, fp}
 374              	.LCFI1:
 375              		.cfi_def_cfa_offset 32
 376              		.cfi_offset 4, -32
 377              		.cfi_offset 5, -28
 378              		.cfi_offset 6, -24
 379              		.cfi_offset 7, -20
 380              		.cfi_offset 8, -16
 381              		.cfi_offset 9, -12
 382              		.cfi_offset 10, -8
 383              		.cfi_offset 11, -4
 384              		.loc 1 168 0
 385 0004 0023     		movs	r3, #0
 386              		.loc 1 163 0
 387 0006 02F00307 		and	r7, r2, #3
 388              	.LVL11:
 389              		.loc 1 164 0
 390 000a C2F38006 		ubfx	r6, r2, #2, #1
 391              	.LVL12:
 392              		.loc 1 165 0
 393 000e C2F3C105 		ubfx	r5, r2, #3, #2
 394              	.LVL13:
 395              		.loc 1 166 0
 396 0012 C2F34114 		ubfx	r4, r2, #5, #2
 397              	.LVL14:
ARM GAS  C:\Users\LAB_ME~1\AppData\Local\Temp\ccBYFszg.s 			page 8


 398              	.LBB56:
 399              		.loc 1 174 0
 400 0016 4FF00F09 		mov	r9, #15
 401              	.LBE56:
 402              		.loc 1 167 0
 403 001a C2F3C312 		ubfx	r2, r2, #7, #4
 404              	.LVL15:
 405              	.LBB57:
 406              		.loc 1 179 0
 407 001e 4FF0010A 		mov	sl, #1
 408 0022 38E0     		b	.L9
 409              	.LVL16:
 410              	.L14:
 411              		.loc 1 176 0
 412 0024 D0F820B0 		ldr	fp, [r0, #32]
 413 0028 2BEA0C0C 		bic	ip, fp, ip
 414              	.LVL17:
 415 002c 4CEA0808 		orr	r8, ip, r8
 416              	.LVL18:
 417 0030 C0F82080 		str	r8, [r0, #32]
 418              	.L7:
 419              	.LVL19:
 420              		.loc 1 180 0
 421 0034 D0F804C0 		ldr	ip, [r0, #4]
 422              		.loc 1 179 0
 423 0038 0AFA03F8 		lsl	r8, sl, r3
 424              		.loc 1 180 0
 425 003c 2CEA080C 		bic	ip, ip, r8
 426 0040 4CEA060C 		orr	ip, ip, r6
 427 0044 C0F804C0 		str	ip, [r0, #4]
 428              	.LVL20:
 429              		.loc 1 181 0
 430 0048 4FF0030B 		mov	fp, #3
 431              		.loc 1 159 0
 432 004c 4FEA430C 		lsl	ip, r3, #1
 433              		.loc 1 182 0
 434 0050 D0F80880 		ldr	r8, [r0, #8]
 435              		.loc 1 181 0
 436 0054 0BFA0CFC 		lsl	ip, fp, ip
 437              	.LVL21:
 438              		.loc 1 182 0
 439 0058 6FEA0C0C 		mvn	ip, ip
 440              	.LVL22:
 441 005c 0CEA0808 		and	r8, ip, r8
 442 0060 48EA0508 		orr	r8, r8, r5
 443 0064 C0F80880 		str	r8, [r0, #8]
 444              		.loc 1 183 0
 445 0068 D0F80C80 		ldr	r8, [r0, #12]
 446 006c 0CEA0808 		and	r8, ip, r8
 447 0070 48EA0408 		orr	r8, r8, r4
 448 0074 C0F80C80 		str	r8, [r0, #12]
 449              		.loc 1 184 0
 450 0078 D0F80080 		ldr	r8, [r0, #0]
 451 007c 0CEA080C 		and	ip, ip, r8
 452              	.LVL23:
 453 0080 4CEA070C 		orr	ip, ip, r7
 454 0084 C0F800C0 		str	ip, [r0, #0]
ARM GAS  C:\Users\LAB_ME~1\AppData\Local\Temp\ccBYFszg.s 			page 9


 455              	.LVL24:
 456              	.L5:
 457              	.LBE57:
 458              		.loc 1 187 0
 459 0088 4908     		lsrs	r1, r1, #1
 460              	.LVL25:
 461 008a 1AD0     		beq	.L4
 462              		.loc 1 189 0
 463 008c 7600     		lsls	r6, r6, #1
 464              	.LVL26:
 465              		.loc 1 190 0
 466 008e AD00     		lsls	r5, r5, #2
 467              	.LVL27:
 468              		.loc 1 191 0
 469 0090 A400     		lsls	r4, r4, #2
 470              	.LVL28:
 471              		.loc 1 192 0
 472 0092 BF00     		lsls	r7, r7, #2
 473              	.LVL29:
 474              		.loc 1 193 0
 475 0094 0133     		adds	r3, r3, #1
 476              	.LVL30:
 477              	.L9:
 478              	.LBB58:
 479              		.loc 1 173 0
 480 0096 03F0070C 		and	ip, r3, #7
 481 009a 4FEA8C0C 		lsl	ip, ip, #2
 482              	.LBE58:
 483              		.loc 1 170 0
 484 009e 11F0010F 		tst	r1, #1
 485              	.LBB59:
 486              		.loc 1 173 0
 487 00a2 02FA0CF8 		lsl	r8, r2, ip
 488              	.LVL31:
 489              		.loc 1 174 0
 490 00a6 09FA0CFC 		lsl	ip, r9, ip
 491              	.LVL32:
 492              	.LBE59:
 493              		.loc 1 170 0
 494 00aa EDD0     		beq	.L5
 495              	.LBB60:
 496              		.loc 1 175 0
 497 00ac 072B     		cmp	r3, #7
 498 00ae B9D9     		bls	.L14
 499              		.loc 1 178 0
 500 00b0 D0F824B0 		ldr	fp, [r0, #36]
 501 00b4 2BEA0C0C 		bic	ip, fp, ip
 502              	.LVL33:
 503 00b8 4CEA0808 		orr	r8, ip, r8
 504              	.LVL34:
 505 00bc C0F82480 		str	r8, [r0, #36]
 506 00c0 B8E7     		b	.L7
 507              	.L4:
 508              	.LBE60:
 509              		.loc 1 195 0
 510 00c2 BDE8F00F 		pop	{r4, r5, r6, r7, r8, r9, sl, fp}
 511 00c6 7047     		bx	lr
ARM GAS  C:\Users\LAB_ME~1\AppData\Local\Temp\ccBYFszg.s 			page 10


 512              		.cfi_endproc
 513              	.LFE120:
 514              		.size	_pal_lld_setgroupmode, .-_pal_lld_setgroupmode
 515 00c8 AFF30080 		.text
 515      AFF30080 
 516              	.Letext0:
 517              		.file 2 "c:\\program files (x86)\\codesourcery\\sourcery_codebench_lite_for_arm_eabi\\bin\\../lib/
 518              		.file 3 "../../os/hal/platforms/STM32F4xx/stm32f4xx.h"
 519              		.file 4 "../../os/hal/platforms/STM32/GPIOv2/pal_lld.h"
 520              		.file 5 "../../os/ports/common/ARMCMx/CMSIS/include/core_cm4.h"