ARM GAS  C:\Users\LAB_ME~1\AppData\Local\Temp\ccuom4VB.s 			page 1


   1              		.syntax unified
   2              		.cpu cortex-m4
   3              		.fpu softvfp
   4              		.eabi_attribute 20, 1
   5              		.eabi_attribute 21, 1
   6              		.eabi_attribute 23, 3
   7              		.eabi_attribute 24, 1
   8              		.eabi_attribute 25, 1
   9              		.eabi_attribute 26, 1
  10              		.eabi_attribute 30, 2
  11              		.eabi_attribute 34, 1
  12              		.eabi_attribute 18, 4
  13              		.thumb
  14              		.file	"pwm.c"
  15              		.text
  16              	.Ltext0:
  17              		.cfi_sections	.debug_frame
  18              		.section	.text.pwmInit,"ax",%progbits
  19              		.align	2
  20              		.p2align 4,,15
  21              		.global	pwmInit
  22              		.thumb
  23              		.thumb_func
  24              		.type	pwmInit, %function
  25              	pwmInit:
  26              	.LFB118:
  27              		.file 1 "../../os/hal/src/pwm.c"
  28              		.loc 1 61 0
  29              		.cfi_startproc
  30              		@ args = 0, pretend = 0, frame = 0
  31              		@ frame_needed = 0, uses_anonymous_args = 0
  32              		@ link register save eliminated.
  33              		.loc 1 64 0
  34              		.loc 1 63 0
  35 0000 FFF7FEBF 		b	pwm_lld_init
  36              	.LVL0:
  37              		.cfi_endproc
  38              	.LFE118:
  39              		.size	pwmInit, .-pwmInit
  40 0004 AFF30080 		.section	.text.pwmObjectInit,"ax",%progbits
  40      AFF30080 
  40      AFF30080 
  41              		.align	2
  42              		.p2align 4,,15
  43              		.global	pwmObjectInit
  44              		.thumb
  45              		.thumb_func
  46              		.type	pwmObjectInit, %function
  47              	pwmObjectInit:
  48              	.LFB119:
  49              		.loc 1 73 0
  50              		.cfi_startproc
  51              		@ args = 0, pretend = 0, frame = 0
  52              		@ frame_needed = 0, uses_anonymous_args = 0
  53              		@ link register save eliminated.
  54              	.LVL1:
  55              		.loc 1 75 0
ARM GAS  C:\Users\LAB_ME~1\AppData\Local\Temp\ccuom4VB.s 			page 2


  56 0000 0123     		movs	r3, #1
  57 0002 0370     		strb	r3, [r0, #0]
  58              		.loc 1 76 0
  59 0004 0023     		movs	r3, #0
  60 0006 4360     		str	r3, [r0, #4]
  61 0008 7047     		bx	lr
  62              		.cfi_endproc
  63              	.LFE119:
  64              		.size	pwmObjectInit, .-pwmObjectInit
  65 000a 00BFAFF3 		.section	.text.pwmStart,"ax",%progbits
  65      0080
  66              		.align	2
  67              		.p2align 4,,15
  68              		.global	pwmStart
  69              		.thumb
  70              		.thumb_func
  71              		.type	pwmStart, %function
  72              	pwmStart:
  73              	.LFB120:
  74              		.loc 1 92 0
  75              		.cfi_startproc
  76              		@ args = 0, pretend = 0, frame = 0
  77              		@ frame_needed = 0, uses_anonymous_args = 0
  78              	.LVL2:
  79 0000 10B5     		push	{r4, lr}
  80              	.LCFI0:
  81              		.cfi_def_cfa_offset 8
  82              		.cfi_offset 4, -8
  83              		.cfi_offset 14, -4
  84              	.LBB2:
  85              		.loc 1 96 0
  86 0002 2023     		movs	r3, #32
  87              	.LVL3:
  88              	.LBE2:
  89              		.loc 1 92 0
  90 0004 0446     		mov	r4, r0
  91              	.LBB3:
  92              		.loc 1 96 0
  93              	@ 96 "../../os/hal/src/pwm.c" 1
  94 0006 83F31188 		msr     BASEPRI, r3
  95              	@ 0 "" 2
  96              	.LVL4:
  97              		.thumb
  98              	.LBE3:
  99              		.loc 1 100 0
 100 000a 8B88     		ldrh	r3, [r1, #4]
 101              	.LVL5:
 102              		.loc 1 99 0
 103 000c 4160     		str	r1, [r0, #4]
 104              		.loc 1 100 0
 105 000e 0381     		strh	r3, [r0, #8]	@ movhi
 106              		.loc 1 101 0
 107 0010 FFF7FEFF 		bl	pwm_lld_start
 108              	.LVL6:
 109              		.loc 1 102 0
 110 0014 0223     		movs	r3, #2
 111 0016 2370     		strb	r3, [r4, #0]
ARM GAS  C:\Users\LAB_ME~1\AppData\Local\Temp\ccuom4VB.s 			page 3


 112              	.LBB4:
 113              		.loc 1 103 0
 114 0018 0023     		movs	r3, #0
 115              	.LVL7:
 116              	@ 103 "../../os/hal/src/pwm.c" 1
 117 001a 83F31188 		msr     BASEPRI, r3
 118              	@ 0 "" 2
 119              	.LVL8:
 120              		.thumb
 121 001e 10BD     		pop	{r4, pc}
 122              	.LBE4:
 123              		.cfi_endproc
 124              	.LFE120:
 125              		.size	pwmStart, .-pwmStart
 126              		.section	.text.pwmStop,"ax",%progbits
 127              		.align	2
 128              		.p2align 4,,15
 129              		.global	pwmStop
 130              		.thumb
 131              		.thumb_func
 132              		.type	pwmStop, %function
 133              	pwmStop:
 134              	.LFB121:
 135              		.loc 1 113 0
 136              		.cfi_startproc
 137              		@ args = 0, pretend = 0, frame = 0
 138              		@ frame_needed = 0, uses_anonymous_args = 0
 139              	.LVL9:
 140 0000 10B5     		push	{r4, lr}
 141              	.LCFI1:
 142              		.cfi_def_cfa_offset 8
 143              		.cfi_offset 4, -8
 144              		.cfi_offset 14, -4
 145              	.LBB5:
 146              		.loc 1 117 0
 147 0002 2023     		movs	r3, #32
 148              	.LVL10:
 149              	.LBE5:
 150              		.loc 1 113 0
 151 0004 0446     		mov	r4, r0
 152              	.LBB6:
 153              		.loc 1 117 0
 154              	@ 117 "../../os/hal/src/pwm.c" 1
 155 0006 83F31188 		msr     BASEPRI, r3
 156              	@ 0 "" 2
 157              	.LVL11:
 158              		.thumb
 159              	.LBE6:
 160              		.loc 1 120 0
 161 000a FFF7FEFF 		bl	pwm_lld_stop
 162              	.LVL12:
 163              		.loc 1 121 0
 164 000e 0123     		movs	r3, #1
 165 0010 2370     		strb	r3, [r4, #0]
 166              	.LBB7:
 167              		.loc 1 122 0
 168 0012 0023     		movs	r3, #0
ARM GAS  C:\Users\LAB_ME~1\AppData\Local\Temp\ccuom4VB.s 			page 4


 169              	.LVL13:
 170              	@ 122 "../../os/hal/src/pwm.c" 1
 171 0014 83F31188 		msr     BASEPRI, r3
 172              	@ 0 "" 2
 173              	.LVL14:
 174              		.thumb
 175 0018 10BD     		pop	{r4, pc}
 176              	.LBE7:
 177              		.cfi_endproc
 178              	.LFE121:
 179              		.size	pwmStop, .-pwmStop
 180 001a 00BFAFF3 		.section	.text.pwmChangePeriod,"ax",%progbits
 180      0080
 181              		.align	2
 182              		.p2align 4,,15
 183              		.global	pwmChangePeriod
 184              		.thumb
 185              		.thumb_func
 186              		.type	pwmChangePeriod, %function
 187              	pwmChangePeriod:
 188              	.LFB122:
 189              		.loc 1 140 0
 190              		.cfi_startproc
 191              		@ args = 0, pretend = 0, frame = 0
 192              		@ frame_needed = 0, uses_anonymous_args = 0
 193              		@ link register save eliminated.
 194              	.LVL15:
 195              	.LBB8:
 196              		.loc 1 144 0
 197 0000 2023     		movs	r3, #32
 198              	.LVL16:
 199              	@ 144 "../../os/hal/src/pwm.c" 1
 200 0002 83F31188 		msr     BASEPRI, r3
 201              	@ 0 "" 2
 202              	.LVL17:
 203              		.thumb
 204              	.LBE8:
 205              		.loc 1 147 0
 206 0006 0369     		ldr	r3, [r0, #16]
 207              	.LVL18:
 208 0008 0181     		strh	r1, [r0, #8]	@ movhi
 209 000a 0139     		subs	r1, r1, #1
 210              	.LVL19:
 211 000c 89B2     		uxth	r1, r1
 212 000e D962     		str	r1, [r3, #44]
 213              	.LBB9:
 214              		.loc 1 148 0
 215 0010 0023     		movs	r3, #0
 216              	.LVL20:
 217              	@ 148 "../../os/hal/src/pwm.c" 1
 218 0012 83F31188 		msr     BASEPRI, r3
 219              	@ 0 "" 2
 220              	.LVL21:
 221              		.thumb
 222 0016 7047     		bx	lr
 223              	.LBE9:
 224              		.cfi_endproc
ARM GAS  C:\Users\LAB_ME~1\AppData\Local\Temp\ccuom4VB.s 			page 5


 225              	.LFE122:
 226              		.size	pwmChangePeriod, .-pwmChangePeriod
 227 0018 AFF30080 		.section	.text.pwmEnableChannel,"ax",%progbits
 227      AFF30080 
 228              		.align	2
 229              		.p2align 4,,15
 230              		.global	pwmEnableChannel
 231              		.thumb
 232              		.thumb_func
 233              		.type	pwmEnableChannel, %function
 234              	pwmEnableChannel:
 235              	.LFB123:
 236              		.loc 1 167 0
 237              		.cfi_startproc
 238              		@ args = 0, pretend = 0, frame = 0
 239              		@ frame_needed = 0, uses_anonymous_args = 0
 240              	.LVL22:
 241 0000 08B5     		push	{r3, lr}
 242              	.LCFI2:
 243              		.cfi_def_cfa_offset 8
 244              		.cfi_offset 3, -8
 245              		.cfi_offset 14, -4
 246              	.LBB10:
 247              		.loc 1 172 0
 248 0002 2023     		movs	r3, #32
 249              	.LVL23:
 250              	@ 172 "../../os/hal/src/pwm.c" 1
 251 0004 83F31188 		msr     BASEPRI, r3
 252              	@ 0 "" 2
 253              	.LVL24:
 254              		.thumb
 255              	.LBE10:
 256              		.loc 1 175 0
 257 0008 FFF7FEFF 		bl	pwm_lld_enable_channel
 258              	.LVL25:
 259              	.LBB11:
 260              		.loc 1 176 0
 261 000c 0023     		movs	r3, #0
 262              	.LVL26:
 263              	@ 176 "../../os/hal/src/pwm.c" 1
 264 000e 83F31188 		msr     BASEPRI, r3
 265              	@ 0 "" 2
 266              	.LVL27:
 267              		.thumb
 268 0012 08BD     		pop	{r3, pc}
 269              	.LBE11:
 270              		.cfi_endproc
 271              	.LFE123:
 272              		.size	pwmEnableChannel, .-pwmEnableChannel
 273 0014 AFF30080 		.section	.text.pwmDisableChannel,"ax",%progbits
 273      AFF30080 
 273      AFF30080 
 274              		.align	2
 275              		.p2align 4,,15
 276              		.global	pwmDisableChannel
 277              		.thumb
 278              		.thumb_func
ARM GAS  C:\Users\LAB_ME~1\AppData\Local\Temp\ccuom4VB.s 			page 6


 279              		.type	pwmDisableChannel, %function
 280              	pwmDisableChannel:
 281              	.LFB124:
 282              		.loc 1 193 0
 283              		.cfi_startproc
 284              		@ args = 0, pretend = 0, frame = 0
 285              		@ frame_needed = 0, uses_anonymous_args = 0
 286              	.LVL28:
 287 0000 08B5     		push	{r3, lr}
 288              	.LCFI3:
 289              		.cfi_def_cfa_offset 8
 290              		.cfi_offset 3, -8
 291              		.cfi_offset 14, -4
 292              	.LBB12:
 293              		.loc 1 198 0
 294 0002 2023     		movs	r3, #32
 295              	.LVL29:
 296              	@ 198 "../../os/hal/src/pwm.c" 1
 297 0004 83F31188 		msr     BASEPRI, r3
 298              	@ 0 "" 2
 299              	.LVL30:
 300              		.thumb
 301              	.LBE12:
 302              		.loc 1 201 0
 303 0008 FFF7FEFF 		bl	pwm_lld_disable_channel
 304              	.LVL31:
 305              	.LBB13:
 306              		.loc 1 202 0
 307 000c 0023     		movs	r3, #0
 308              	.LVL32:
 309              	@ 202 "../../os/hal/src/pwm.c" 1
 310 000e 83F31188 		msr     BASEPRI, r3
 311              	@ 0 "" 2
 312              	.LVL33:
 313              		.thumb
 314 0012 08BD     		pop	{r3, pc}
 315              	.LBE13:
 316              		.cfi_endproc
 317              	.LFE124:
 318              		.size	pwmDisableChannel, .-pwmDisableChannel
 319 0014 AFF30080 		.text
 319      AFF30080 
 319      AFF30080 
 320              	.Letext0:
 321              		.file 2 "c:\\program files (x86)\\codesourcery\\sourcery_codebench_lite_for_arm_eabi\\bin\\../lib/
 322              		.file 3 "../../os/hal/platforms/STM32/stm32.h"
 323              		.file 4 "../../os/hal/include/pwm.h"
 324              		.file 5 "../../os/hal/platforms/STM32/pwm_lld.h"
 325              		.file 6 "../../os/ports/common/ARMCMx/CMSIS/include/core_cm4.h"
 326              		.section	.debug_info,"",%progbits
 327              	.Ldebug_info0:
 328 0000 66070000 		.4byte	0x766
 329 0004 0200     		.2byte	0x2
 330 0006 00000000 		.4byte	.Ldebug_abbrev0
 331 000a 04       		.byte	0x4
 332 000b 01       		.uleb128 0x1
 333 000c DD010000 		.4byte	.LASF70
ARM GAS  C:\Users\LAB_ME~1\AppData\Local\Temp\ccuom4VB.s 			page 7


 334 0010 01       		.byte	0x1
 335 0011 8A020000 		.4byte	.LASF71
 336 0015 23000000 		.4byte	.LASF72
 337 0019 30000000 		.4byte	.Ldebug_ranges0+0x30
 338 001d 00000000 		.4byte	0
 339 0021 00000000 		.4byte	0
 340 0025 00000000 		.4byte	.Ldebug_line0
 341 0029 02       		.uleb128 0x2
 342 002a 04       		.byte	0x4
 343 002b 05       		.byte	0x5
 344 002c 696E7400 		.ascii	"int\000"
 345 0030 03       		.uleb128 0x3
 346 0031 04       		.byte	0x4
 347 0032 07       		.byte	0x7
 348 0033 C7010000 		.4byte	.LASF0
 349 0037 03       		.uleb128 0x3
 350 0038 01       		.byte	0x1
 351 0039 06       		.byte	0x6
 352 003a 9B010000 		.4byte	.LASF1
 353 003e 04       		.uleb128 0x4
 354 003f AB000000 		.4byte	.LASF4
 355 0043 02       		.byte	0x2
 356 0044 2A       		.byte	0x2a
 357 0045 49000000 		.4byte	0x49
 358 0049 03       		.uleb128 0x3
 359 004a 01       		.byte	0x1
 360 004b 08       		.byte	0x8
 361 004c 64010000 		.4byte	.LASF2
 362 0050 03       		.uleb128 0x3
 363 0051 02       		.byte	0x2
 364 0052 05       		.byte	0x5
 365 0053 3F000000 		.4byte	.LASF3
 366 0057 04       		.uleb128 0x4
 367 0058 D4010000 		.4byte	.LASF5
 368 005c 02       		.byte	0x2
 369 005d 36       		.byte	0x36
 370 005e 62000000 		.4byte	0x62
 371 0062 03       		.uleb128 0x3
 372 0063 02       		.byte	0x2
 373 0064 07       		.byte	0x7
 374 0065 17020000 		.4byte	.LASF6
 375 0069 04       		.uleb128 0x4
 376 006a 52020000 		.4byte	.LASF7
 377 006e 02       		.byte	0x2
 378 006f 4F       		.byte	0x4f
 379 0070 74000000 		.4byte	0x74
 380 0074 03       		.uleb128 0x3
 381 0075 04       		.byte	0x4
 382 0076 05       		.byte	0x5
 383 0077 19010000 		.4byte	.LASF8
 384 007b 04       		.uleb128 0x4
 385 007c BE010000 		.4byte	.LASF9
 386 0080 02       		.byte	0x2
 387 0081 50       		.byte	0x50
 388 0082 86000000 		.4byte	0x86
 389 0086 03       		.uleb128 0x3
 390 0087 04       		.byte	0x4
ARM GAS  C:\Users\LAB_ME~1\AppData\Local\Temp\ccuom4VB.s 			page 8


 391 0088 07       		.byte	0x7
 392 0089 72020000 		.4byte	.LASF10
 393 008d 03       		.uleb128 0x3
 394 008e 08       		.byte	0x8
 395 008f 05       		.byte	0x5
 396 0090 0B010000 		.4byte	.LASF11
 397 0094 03       		.uleb128 0x3
 398 0095 08       		.byte	0x8
 399 0096 07       		.byte	0x7
 400 0097 A7010000 		.4byte	.LASF12
 401 009b 05       		.uleb128 0x5
 402 009c 7B000000 		.4byte	0x7b
 403 00a0 03       		.uleb128 0x3
 404 00a1 04       		.byte	0x4
 405 00a2 07       		.byte	0x7
 406 00a3 52000000 		.4byte	.LASF13
 407 00a7 03       		.uleb128 0x3
 408 00a8 01       		.byte	0x1
 409 00a9 08       		.byte	0x8
 410 00aa 37020000 		.4byte	.LASF14
 411 00ae 06       		.uleb128 0x6
 412 00af 7B000000 		.4byte	0x7b
 413 00b3 BE000000 		.4byte	0xbe
 414 00b7 07       		.uleb128 0x7
 415 00b8 A0000000 		.4byte	0xa0
 416 00bc 03       		.byte	0x3
 417 00bd 00       		.byte	0
 418 00be 05       		.uleb128 0x5
 419 00bf 57000000 		.4byte	0x57
 420 00c3 05       		.uleb128 0x5
 421 00c4 69000000 		.4byte	0x69
 422 00c8 08       		.uleb128 0x8
 423 00c9 54       		.byte	0x54
 424 00ca 03       		.byte	0x3
 425 00cb 60       		.byte	0x60
 426 00cc 9D020000 		.4byte	0x29d
 427 00d0 09       		.uleb128 0x9
 428 00d1 43523100 		.ascii	"CR1\000"
 429 00d5 03       		.byte	0x3
 430 00d6 61       		.byte	0x61
 431 00d7 BE000000 		.4byte	0xbe
 432 00db 02       		.byte	0x2
 433 00dc 23       		.byte	0x23
 434 00dd 00       		.uleb128 0
 435 00de 0A       		.uleb128 0xa
 436 00df A3000000 		.4byte	.LASF15
 437 00e3 03       		.byte	0x3
 438 00e4 62       		.byte	0x62
 439 00e5 57000000 		.4byte	0x57
 440 00e9 02       		.byte	0x2
 441 00ea 23       		.byte	0x23
 442 00eb 02       		.uleb128 0x2
 443 00ec 09       		.uleb128 0x9
 444 00ed 43523200 		.ascii	"CR2\000"
 445 00f1 03       		.byte	0x3
 446 00f2 63       		.byte	0x63
 447 00f3 BE000000 		.4byte	0xbe
ARM GAS  C:\Users\LAB_ME~1\AppData\Local\Temp\ccuom4VB.s 			page 9


 448 00f7 02       		.byte	0x2
 449 00f8 23       		.byte	0x23
 450 00f9 04       		.uleb128 0x4
 451 00fa 0A       		.uleb128 0xa
 452 00fb F7020000 		.4byte	.LASF16
 453 00ff 03       		.byte	0x3
 454 0100 64       		.byte	0x64
 455 0101 57000000 		.4byte	0x57
 456 0105 02       		.byte	0x2
 457 0106 23       		.byte	0x23
 458 0107 06       		.uleb128 0x6
 459 0108 0A       		.uleb128 0xa
 460 0109 54010000 		.4byte	.LASF17
 461 010d 03       		.byte	0x3
 462 010e 65       		.byte	0x65
 463 010f BE000000 		.4byte	0xbe
 464 0113 02       		.byte	0x2
 465 0114 23       		.byte	0x23
 466 0115 08       		.uleb128 0x8
 467 0116 0A       		.uleb128 0xa
 468 0117 B3000000 		.4byte	.LASF18
 469 011b 03       		.byte	0x3
 470 011c 66       		.byte	0x66
 471 011d 57000000 		.4byte	0x57
 472 0121 02       		.byte	0x2
 473 0122 23       		.byte	0x23
 474 0123 0A       		.uleb128 0xa
 475 0124 0A       		.uleb128 0xa
 476 0125 EE010000 		.4byte	.LASF19
 477 0129 03       		.byte	0x3
 478 012a 67       		.byte	0x67
 479 012b BE000000 		.4byte	0xbe
 480 012f 02       		.byte	0x2
 481 0130 23       		.byte	0x23
 482 0131 0C       		.uleb128 0xc
 483 0132 0A       		.uleb128 0xa
 484 0133 BB000000 		.4byte	.LASF20
 485 0137 03       		.byte	0x3
 486 0138 68       		.byte	0x68
 487 0139 57000000 		.4byte	0x57
 488 013d 02       		.byte	0x2
 489 013e 23       		.byte	0x23
 490 013f 0E       		.uleb128 0xe
 491 0140 09       		.uleb128 0x9
 492 0141 535200   		.ascii	"SR\000"
 493 0144 03       		.byte	0x3
 494 0145 69       		.byte	0x69
 495 0146 BE000000 		.4byte	0xbe
 496 014a 02       		.byte	0x2
 497 014b 23       		.byte	0x23
 498 014c 10       		.uleb128 0x10
 499 014d 0A       		.uleb128 0xa
 500 014e 18030000 		.4byte	.LASF21
 501 0152 03       		.byte	0x3
 502 0153 6A       		.byte	0x6a
 503 0154 57000000 		.4byte	0x57
 504 0158 02       		.byte	0x2
ARM GAS  C:\Users\LAB_ME~1\AppData\Local\Temp\ccuom4VB.s 			page 10


 505 0159 23       		.byte	0x23
 506 015a 12       		.uleb128 0x12
 507 015b 09       		.uleb128 0x9
 508 015c 45475200 		.ascii	"EGR\000"
 509 0160 03       		.byte	0x3
 510 0161 6B       		.byte	0x6b
 511 0162 BE000000 		.4byte	0xbe
 512 0166 02       		.byte	0x2
 513 0167 23       		.byte	0x23
 514 0168 14       		.uleb128 0x14
 515 0169 0A       		.uleb128 0xa
 516 016a D4000000 		.4byte	.LASF22
 517 016e 03       		.byte	0x3
 518 016f 6C       		.byte	0x6c
 519 0170 57000000 		.4byte	0x57
 520 0174 02       		.byte	0x2
 521 0175 23       		.byte	0x23
 522 0176 16       		.uleb128 0x16
 523 0177 0A       		.uleb128 0xa
 524 0178 31010000 		.4byte	.LASF23
 525 017c 03       		.byte	0x3
 526 017d 6D       		.byte	0x6d
 527 017e BE000000 		.4byte	0xbe
 528 0182 02       		.byte	0x2
 529 0183 23       		.byte	0x23
 530 0184 18       		.uleb128 0x18
 531 0185 0A       		.uleb128 0xa
 532 0186 DC000000 		.4byte	.LASF24
 533 018a 03       		.byte	0x3
 534 018b 6E       		.byte	0x6e
 535 018c 57000000 		.4byte	0x57
 536 0190 02       		.byte	0x2
 537 0191 23       		.byte	0x23
 538 0192 1A       		.uleb128 0x1a
 539 0193 0A       		.uleb128 0xa
 540 0194 1D000000 		.4byte	.LASF25
 541 0198 03       		.byte	0x3
 542 0199 6F       		.byte	0x6f
 543 019a BE000000 		.4byte	0xbe
 544 019e 02       		.byte	0x2
 545 019f 23       		.byte	0x23
 546 01a0 1C       		.uleb128 0x1c
 547 01a1 0A       		.uleb128 0xa
 548 01a2 E4000000 		.4byte	.LASF26
 549 01a6 03       		.byte	0x3
 550 01a7 70       		.byte	0x70
 551 01a8 57000000 		.4byte	0x57
 552 01ac 02       		.byte	0x2
 553 01ad 23       		.byte	0x23
 554 01ae 1E       		.uleb128 0x1e
 555 01af 0A       		.uleb128 0xa
 556 01b0 00000000 		.4byte	.LASF27
 557 01b4 03       		.byte	0x3
 558 01b5 71       		.byte	0x71
 559 01b6 BE000000 		.4byte	0xbe
 560 01ba 02       		.byte	0x2
 561 01bb 23       		.byte	0x23
ARM GAS  C:\Users\LAB_ME~1\AppData\Local\Temp\ccuom4VB.s 			page 11


 562 01bc 20       		.uleb128 0x20
 563 01bd 0A       		.uleb128 0xa
 564 01be EC000000 		.4byte	.LASF28
 565 01c2 03       		.byte	0x3
 566 01c3 72       		.byte	0x72
 567 01c4 57000000 		.4byte	0x57
 568 01c8 02       		.byte	0x2
 569 01c9 23       		.byte	0x23
 570 01ca 22       		.uleb128 0x22
 571 01cb 09       		.uleb128 0x9
 572 01cc 434E5400 		.ascii	"CNT\000"
 573 01d0 03       		.byte	0x3
 574 01d1 73       		.byte	0x73
 575 01d2 9B000000 		.4byte	0x9b
 576 01d6 02       		.byte	0x2
 577 01d7 23       		.byte	0x23
 578 01d8 24       		.uleb128 0x24
 579 01d9 09       		.uleb128 0x9
 580 01da 50534300 		.ascii	"PSC\000"
 581 01de 03       		.byte	0x3
 582 01df 74       		.byte	0x74
 583 01e0 BE000000 		.4byte	0xbe
 584 01e4 02       		.byte	0x2
 585 01e5 23       		.byte	0x23
 586 01e6 28       		.uleb128 0x28
 587 01e7 0A       		.uleb128 0xa
 588 01e8 F4000000 		.4byte	.LASF29
 589 01ec 03       		.byte	0x3
 590 01ed 75       		.byte	0x75
 591 01ee 57000000 		.4byte	0x57
 592 01f2 02       		.byte	0x2
 593 01f3 23       		.byte	0x23
 594 01f4 2A       		.uleb128 0x2a
 595 01f5 09       		.uleb128 0x9
 596 01f6 41525200 		.ascii	"ARR\000"
 597 01fa 03       		.byte	0x3
 598 01fb 76       		.byte	0x76
 599 01fc 9B000000 		.4byte	0x9b
 600 0200 02       		.byte	0x2
 601 0201 23       		.byte	0x23
 602 0202 2C       		.uleb128 0x2c
 603 0203 09       		.uleb128 0x9
 604 0204 52435200 		.ascii	"RCR\000"
 605 0208 03       		.byte	0x3
 606 0209 77       		.byte	0x77
 607 020a BE000000 		.4byte	0xbe
 608 020e 02       		.byte	0x2
 609 020f 23       		.byte	0x23
 610 0210 30       		.uleb128 0x30
 611 0211 0A       		.uleb128 0xa
 612 0212 A1020000 		.4byte	.LASF30
 613 0216 03       		.byte	0x3
 614 0217 78       		.byte	0x78
 615 0218 57000000 		.4byte	0x57
 616 021c 02       		.byte	0x2
 617 021d 23       		.byte	0x23
 618 021e 32       		.uleb128 0x32
ARM GAS  C:\Users\LAB_ME~1\AppData\Local\Temp\ccuom4VB.s 			page 12


 619 021f 09       		.uleb128 0x9
 620 0220 43435200 		.ascii	"CCR\000"
 621 0224 03       		.byte	0x3
 622 0225 79       		.byte	0x79
 623 0226 9D020000 		.4byte	0x29d
 624 022a 02       		.byte	0x2
 625 022b 23       		.byte	0x23
 626 022c 34       		.uleb128 0x34
 627 022d 0A       		.uleb128 0xa
 628 022e E9010000 		.4byte	.LASF31
 629 0232 03       		.byte	0x3
 630 0233 7A       		.byte	0x7a
 631 0234 BE000000 		.4byte	0xbe
 632 0238 02       		.byte	0x2
 633 0239 23       		.byte	0x23
 634 023a 44       		.uleb128 0x44
 635 023b 0A       		.uleb128 0xa
 636 023c F3010000 		.4byte	.LASF32
 637 0240 03       		.byte	0x3
 638 0241 7B       		.byte	0x7b
 639 0242 57000000 		.4byte	0x57
 640 0246 02       		.byte	0x2
 641 0247 23       		.byte	0x23
 642 0248 46       		.uleb128 0x46
 643 0249 09       		.uleb128 0x9
 644 024a 44435200 		.ascii	"DCR\000"
 645 024e 03       		.byte	0x3
 646 024f 7C       		.byte	0x7c
 647 0250 BE000000 		.4byte	0xbe
 648 0254 02       		.byte	0x2
 649 0255 23       		.byte	0x23
 650 0256 48       		.uleb128 0x48
 651 0257 0A       		.uleb128 0xa
 652 0258 FC010000 		.4byte	.LASF33
 653 025c 03       		.byte	0x3
 654 025d 7D       		.byte	0x7d
 655 025e 57000000 		.4byte	0x57
 656 0262 02       		.byte	0x2
 657 0263 23       		.byte	0x23
 658 0264 4A       		.uleb128 0x4a
 659 0265 0A       		.uleb128 0xa
 660 0266 12000000 		.4byte	.LASF34
 661 026a 03       		.byte	0x3
 662 026b 7E       		.byte	0x7e
 663 026c BE000000 		.4byte	0xbe
 664 0270 02       		.byte	0x2
 665 0271 23       		.byte	0x23
 666 0272 4C       		.uleb128 0x4c
 667 0273 0A       		.uleb128 0xa
 668 0274 05020000 		.4byte	.LASF35
 669 0278 03       		.byte	0x3
 670 0279 7F       		.byte	0x7f
 671 027a 57000000 		.4byte	0x57
 672 027e 02       		.byte	0x2
 673 027f 23       		.byte	0x23
 674 0280 4E       		.uleb128 0x4e
 675 0281 09       		.uleb128 0x9
ARM GAS  C:\Users\LAB_ME~1\AppData\Local\Temp\ccuom4VB.s 			page 13


 676 0282 4F5200   		.ascii	"OR\000"
 677 0285 03       		.byte	0x3
 678 0286 80       		.byte	0x80
 679 0287 BE000000 		.4byte	0xbe
 680 028b 02       		.byte	0x2
 681 028c 23       		.byte	0x23
 682 028d 50       		.uleb128 0x50
 683 028e 0A       		.uleb128 0xa
 684 028f 0E020000 		.4byte	.LASF36
 685 0293 03       		.byte	0x3
 686 0294 81       		.byte	0x81
 687 0295 57000000 		.4byte	0x57
 688 0299 02       		.byte	0x2
 689 029a 23       		.byte	0x23
 690 029b 52       		.uleb128 0x52
 691 029c 00       		.byte	0
 692 029d 05       		.uleb128 0x5
 693 029e AE000000 		.4byte	0xae
 694 02a2 04       		.uleb128 0x4
 695 02a3 3C020000 		.4byte	.LASF37
 696 02a7 03       		.byte	0x3
 697 02a8 82       		.byte	0x82
 698 02a9 C8000000 		.4byte	0xc8
 699 02ad 0B       		.uleb128 0xb
 700 02ae 04       		.byte	0x4
 701 02af A2020000 		.4byte	0x2a2
 702 02b3 0C       		.uleb128 0xc
 703 02b4 01       		.byte	0x1
 704 02b5 04       		.byte	0x4
 705 02b6 4E       		.byte	0x4e
 706 02b7 CE020000 		.4byte	0x2ce
 707 02bb 0D       		.uleb128 0xd
 708 02bc 59010000 		.4byte	.LASF38
 709 02c0 00       		.sleb128 0
 710 02c1 0D       		.uleb128 0xd
 711 02c2 B4020000 		.4byte	.LASF39
 712 02c6 01       		.sleb128 1
 713 02c7 0D       		.uleb128 0xd
 714 02c8 AA020000 		.4byte	.LASF40
 715 02cc 02       		.sleb128 2
 716 02cd 00       		.byte	0
 717 02ce 04       		.uleb128 0x4
 718 02cf FF020000 		.4byte	.LASF41
 719 02d3 04       		.byte	0x4
 720 02d4 52       		.byte	0x52
 721 02d5 B3020000 		.4byte	0x2b3
 722 02d9 04       		.uleb128 0x4
 723 02da 48020000 		.4byte	.LASF42
 724 02de 04       		.byte	0x4
 725 02df 57       		.byte	0x57
 726 02e0 E4020000 		.4byte	0x2e4
 727 02e4 0E       		.uleb128 0xe
 728 02e5 48020000 		.4byte	.LASF42
 729 02e9 14       		.byte	0x14
 730 02ea 05       		.byte	0x5
 731 02eb 5001     		.2byte	0x150
 732 02ed 3D030000 		.4byte	0x33d
ARM GAS  C:\Users\LAB_ME~1\AppData\Local\Temp\ccuom4VB.s 			page 14


 733 02f1 0F       		.uleb128 0xf
 734 02f2 17000000 		.4byte	.LASF43
 735 02f6 05       		.byte	0x5
 736 02f7 5401     		.2byte	0x154
 737 02f9 CE020000 		.4byte	0x2ce
 738 02fd 02       		.byte	0x2
 739 02fe 23       		.byte	0x23
 740 02ff 00       		.uleb128 0
 741 0300 0F       		.uleb128 0xf
 742 0301 8E000000 		.4byte	.LASF44
 743 0305 05       		.byte	0x5
 744 0306 5801     		.2byte	0x158
 745 0308 29040000 		.4byte	0x429
 746 030c 02       		.byte	0x2
 747 030d 23       		.byte	0x23
 748 030e 04       		.uleb128 0x4
 749 030f 0F       		.uleb128 0xf
 750 0310 2A010000 		.4byte	.LASF45
 751 0314 05       		.byte	0x5
 752 0315 5C01     		.2byte	0x15c
 753 0317 78030000 		.4byte	0x378
 754 031b 02       		.byte	0x2
 755 031c 23       		.byte	0x23
 756 031d 08       		.uleb128 0x8
 757 031e 0F       		.uleb128 0xf
 758 031f 84020000 		.4byte	.LASF46
 759 0323 05       		.byte	0x5
 760 0324 6401     		.2byte	0x164
 761 0326 7B000000 		.4byte	0x7b
 762 032a 02       		.byte	0x2
 763 032b 23       		.byte	0x23
 764 032c 0C       		.uleb128 0xc
 765 032d 10       		.uleb128 0x10
 766 032e 74696D00 		.ascii	"tim\000"
 767 0332 05       		.byte	0x5
 768 0333 6801     		.2byte	0x168
 769 0335 AD020000 		.4byte	0x2ad
 770 0339 02       		.byte	0x2
 771 033a 23       		.byte	0x23
 772 033b 10       		.uleb128 0x10
 773 033c 00       		.byte	0
 774 033d 04       		.uleb128 0x4
 775 033e 0A030000 		.4byte	.LASF47
 776 0342 04       		.byte	0x4
 777 0343 5E       		.byte	0x5e
 778 0344 48030000 		.4byte	0x348
 779 0348 0B       		.uleb128 0xb
 780 0349 04       		.byte	0x4
 781 034a 4E030000 		.4byte	0x34e
 782 034e 11       		.uleb128 0x11
 783 034f 01       		.byte	0x1
 784 0350 5A030000 		.4byte	0x35a
 785 0354 12       		.uleb128 0x12
 786 0355 5A030000 		.4byte	0x35a
 787 0359 00       		.byte	0
 788 035a 0B       		.uleb128 0xb
 789 035b 04       		.byte	0x4
ARM GAS  C:\Users\LAB_ME~1\AppData\Local\Temp\ccuom4VB.s 			page 15


 790 035c D9020000 		.4byte	0x2d9
 791 0360 13       		.uleb128 0x13
 792 0361 E0020000 		.4byte	.LASF48
 793 0365 05       		.byte	0x5
 794 0366 0701     		.2byte	0x107
 795 0368 7B000000 		.4byte	0x7b
 796 036c 13       		.uleb128 0x13
 797 036d 73000000 		.4byte	.LASF49
 798 0371 05       		.byte	0x5
 799 0372 0C01     		.2byte	0x10c
 800 0374 3E000000 		.4byte	0x3e
 801 0378 13       		.uleb128 0x13
 802 0379 49000000 		.4byte	.LASF50
 803 037d 05       		.byte	0x5
 804 037e 1101     		.2byte	0x111
 805 0380 57000000 		.4byte	0x57
 806 0384 14       		.uleb128 0x14
 807 0385 08       		.byte	0x8
 808 0386 05       		.byte	0x5
 809 0387 1601     		.2byte	0x116
 810 0389 AC030000 		.4byte	0x3ac
 811 038d 0F       		.uleb128 0xf
 812 038e 80000000 		.4byte	.LASF51
 813 0392 05       		.byte	0x5
 814 0393 1A01     		.2byte	0x11a
 815 0395 60030000 		.4byte	0x360
 816 0399 02       		.byte	0x2
 817 039a 23       		.byte	0x23
 818 039b 00       		.uleb128 0
 819 039c 0F       		.uleb128 0xf
 820 039d 20030000 		.4byte	.LASF52
 821 03a1 05       		.byte	0x5
 822 03a2 2001     		.2byte	0x120
 823 03a4 3D030000 		.4byte	0x33d
 824 03a8 02       		.byte	0x2
 825 03a9 23       		.byte	0x23
 826 03aa 04       		.uleb128 0x4
 827 03ab 00       		.byte	0
 828 03ac 13       		.uleb128 0x13
 829 03ad CF020000 		.4byte	.LASF53
 830 03b1 05       		.byte	0x5
 831 03b2 2201     		.2byte	0x122
 832 03b4 84030000 		.4byte	0x384
 833 03b8 14       		.uleb128 0x14
 834 03b9 30       		.byte	0x30
 835 03ba 05       		.byte	0x5
 836 03bb 2701     		.2byte	0x127
 837 03bd 0D040000 		.4byte	0x40d
 838 03c1 0F       		.uleb128 0xf
 839 03c2 C5020000 		.4byte	.LASF54
 840 03c6 05       		.byte	0x5
 841 03c7 2D01     		.2byte	0x12d
 842 03c9 7B000000 		.4byte	0x7b
 843 03cd 02       		.byte	0x2
 844 03ce 23       		.byte	0x23
 845 03cf 00       		.uleb128 0
 846 03d0 0F       		.uleb128 0xf
ARM GAS  C:\Users\LAB_ME~1\AppData\Local\Temp\ccuom4VB.s 			page 16


 847 03d1 2A010000 		.4byte	.LASF45
 848 03d5 05       		.byte	0x5
 849 03d6 3301     		.2byte	0x133
 850 03d8 78030000 		.4byte	0x378
 851 03dc 02       		.byte	0x2
 852 03dd 23       		.byte	0x23
 853 03de 04       		.uleb128 0x4
 854 03df 0F       		.uleb128 0xf
 855 03e0 20030000 		.4byte	.LASF52
 856 03e4 05       		.byte	0x5
 857 03e5 3901     		.2byte	0x139
 858 03e7 3D030000 		.4byte	0x33d
 859 03eb 02       		.byte	0x2
 860 03ec 23       		.byte	0x23
 861 03ed 08       		.uleb128 0x8
 862 03ee 0F       		.uleb128 0xf
 863 03ef 85000000 		.4byte	.LASF55
 864 03f3 05       		.byte	0x5
 865 03f4 3D01     		.2byte	0x13d
 866 03f6 0D040000 		.4byte	0x40d
 867 03fa 02       		.byte	0x2
 868 03fb 23       		.byte	0x23
 869 03fc 0C       		.uleb128 0xc
 870 03fd 10       		.uleb128 0x10
 871 03fe 63723200 		.ascii	"cr2\000"
 872 0402 05       		.byte	0x5
 873 0403 4301     		.2byte	0x143
 874 0405 57000000 		.4byte	0x57
 875 0409 02       		.byte	0x2
 876 040a 23       		.byte	0x23
 877 040b 2C       		.uleb128 0x2c
 878 040c 00       		.byte	0
 879 040d 06       		.uleb128 0x6
 880 040e AC030000 		.4byte	0x3ac
 881 0412 1D040000 		.4byte	0x41d
 882 0416 07       		.uleb128 0x7
 883 0417 A0000000 		.4byte	0xa0
 884 041b 03       		.byte	0x3
 885 041c 00       		.byte	0
 886 041d 13       		.uleb128 0x13
 887 041e 45010000 		.4byte	.LASF56
 888 0422 05       		.byte	0x5
 889 0423 4B01     		.2byte	0x14b
 890 0425 B8030000 		.4byte	0x3b8
 891 0429 0B       		.uleb128 0xb
 892 042a 04       		.byte	0x4
 893 042b 2F040000 		.4byte	0x42f
 894 042f 15       		.uleb128 0x15
 895 0430 1D040000 		.4byte	0x41d
 896 0434 16       		.uleb128 0x16
 897 0435 01       		.byte	0x1
 898 0436 22010000 		.4byte	.LASF57
 899 043a 01       		.byte	0x1
 900 043b 3D       		.byte	0x3d
 901 043c 01       		.byte	0x1
 902 043d 00000000 		.4byte	.LFB118
 903 0441 04000000 		.4byte	.LFE118
ARM GAS  C:\Users\LAB_ME~1\AppData\Local\Temp\ccuom4VB.s 			page 17


 904 0445 02       		.byte	0x2
 905 0446 7D       		.byte	0x7d
 906 0447 00       		.sleb128 0
 907 0448 01       		.byte	0x1
 908 0449 58040000 		.4byte	0x458
 909 044d 17       		.uleb128 0x17
 910 044e 04000000 		.4byte	.LVL0
 911 0452 01       		.byte	0x1
 912 0453 FF060000 		.4byte	0x6ff
 913 0457 00       		.byte	0
 914 0458 16       		.uleb128 0x16
 915 0459 01       		.byte	0x1
 916 045a 95000000 		.4byte	.LASF58
 917 045e 01       		.byte	0x1
 918 045f 49       		.byte	0x49
 919 0460 01       		.byte	0x1
 920 0461 00000000 		.4byte	.LFB119
 921 0465 0A000000 		.4byte	.LFE119
 922 0469 02       		.byte	0x2
 923 046a 7D       		.byte	0x7d
 924 046b 00       		.sleb128 0
 925 046c 01       		.byte	0x1
 926 046d 7F040000 		.4byte	0x47f
 927 0471 18       		.uleb128 0x18
 928 0472 4F010000 		.4byte	.LASF60
 929 0476 01       		.byte	0x1
 930 0477 49       		.byte	0x49
 931 0478 5A030000 		.4byte	0x35a
 932 047c 01       		.byte	0x1
 933 047d 50       		.byte	0x50
 934 047e 00       		.byte	0
 935 047f 19       		.uleb128 0x19
 936 0480 01       		.byte	0x1
 937 0481 02010000 		.4byte	.LASF59
 938 0485 01       		.byte	0x1
 939 0486 5C       		.byte	0x5c
 940 0487 01       		.byte	0x1
 941 0488 00000000 		.4byte	.LFB120
 942 048c 20000000 		.4byte	.LFE120
 943 0490 00000000 		.4byte	.LLST0
 944 0494 01       		.byte	0x1
 945 0495 FE040000 		.4byte	0x4fe
 946 0499 1A       		.uleb128 0x1a
 947 049a 4F010000 		.4byte	.LASF60
 948 049e 01       		.byte	0x1
 949 049f 5C       		.byte	0x5c
 950 04a0 5A030000 		.4byte	0x35a
 951 04a4 20000000 		.4byte	.LLST1
 952 04a8 1A       		.uleb128 0x1a
 953 04a9 8E000000 		.4byte	.LASF44
 954 04ad 01       		.byte	0x1
 955 04ae 5C       		.byte	0x5c
 956 04af 29040000 		.4byte	0x429
 957 04b3 3E000000 		.4byte	.LLST2
 958 04b7 1B       		.uleb128 0x1b
 959 04b8 00000000 		.4byte	.Ldebug_ranges0+0
 960 04bc D0040000 		.4byte	0x4d0
ARM GAS  C:\Users\LAB_ME~1\AppData\Local\Temp\ccuom4VB.s 			page 18


 961 04c0 1C       		.uleb128 0x1c
 962 04c1 746D7000 		.ascii	"tmp\000"
 963 04c5 01       		.byte	0x1
 964 04c6 60       		.byte	0x60
 965 04c7 7B000000 		.4byte	0x7b
 966 04cb 5F000000 		.4byte	.LLST3
 967 04cf 00       		.byte	0
 968 04d0 1D       		.uleb128 0x1d
 969 04d1 18000000 		.4byte	.LBB4
 970 04d5 20000000 		.4byte	.LBE4
 971 04d9 ED040000 		.4byte	0x4ed
 972 04dd 1C       		.uleb128 0x1c
 973 04de 746D7000 		.ascii	"tmp\000"
 974 04e2 01       		.byte	0x1
 975 04e3 67       		.byte	0x67
 976 04e4 7B000000 		.4byte	0x7b
 977 04e8 72000000 		.4byte	.LLST4
 978 04ec 00       		.byte	0
 979 04ed 1E       		.uleb128 0x1e
 980 04ee 14000000 		.4byte	.LVL6
 981 04f2 0A070000 		.4byte	0x70a
 982 04f6 1F       		.uleb128 0x1f
 983 04f7 01       		.byte	0x1
 984 04f8 50       		.byte	0x50
 985 04f9 02       		.byte	0x2
 986 04fa 74       		.byte	0x74
 987 04fb 00       		.sleb128 0
 988 04fc 00       		.byte	0
 989 04fd 00       		.byte	0
 990 04fe 19       		.uleb128 0x19
 991 04ff 01       		.byte	0x1
 992 0500 BD020000 		.4byte	.LASF61
 993 0504 01       		.byte	0x1
 994 0505 71       		.byte	0x71
 995 0506 01       		.byte	0x1
 996 0507 00000000 		.4byte	.LFB121
 997 050b 1A000000 		.4byte	.LFE121
 998 050f 85000000 		.4byte	.LLST5
 999 0513 01       		.byte	0x1
 1000 0514 6E050000 		.4byte	0x56e
 1001 0518 1A       		.uleb128 0x1a
 1002 0519 4F010000 		.4byte	.LASF60
 1003 051d 01       		.byte	0x1
 1004 051e 71       		.byte	0x71
 1005 051f 5A030000 		.4byte	0x35a
 1006 0523 A5000000 		.4byte	.LLST6
 1007 0527 1B       		.uleb128 0x1b
 1008 0528 18000000 		.4byte	.Ldebug_ranges0+0x18
 1009 052c 40050000 		.4byte	0x540
 1010 0530 1C       		.uleb128 0x1c
 1011 0531 746D7000 		.ascii	"tmp\000"
 1012 0535 01       		.byte	0x1
 1013 0536 75       		.byte	0x75
 1014 0537 7B000000 		.4byte	0x7b
 1015 053b C3000000 		.4byte	.LLST7
 1016 053f 00       		.byte	0
 1017 0540 1D       		.uleb128 0x1d
ARM GAS  C:\Users\LAB_ME~1\AppData\Local\Temp\ccuom4VB.s 			page 19


 1018 0541 12000000 		.4byte	.LBB7
 1019 0545 1A000000 		.4byte	.LBE7
 1020 0549 5D050000 		.4byte	0x55d
 1021 054d 1C       		.uleb128 0x1c
 1022 054e 746D7000 		.ascii	"tmp\000"
 1023 0552 01       		.byte	0x1
 1024 0553 7A       		.byte	0x7a
 1025 0554 7B000000 		.4byte	0x7b
 1026 0558 D6000000 		.4byte	.LLST8
 1027 055c 00       		.byte	0
 1028 055d 1E       		.uleb128 0x1e
 1029 055e 0E000000 		.4byte	.LVL12
 1030 0562 1F070000 		.4byte	0x71f
 1031 0566 1F       		.uleb128 0x1f
 1032 0567 01       		.byte	0x1
 1033 0568 50       		.byte	0x50
 1034 0569 02       		.byte	0x2
 1035 056a 74       		.byte	0x74
 1036 056b 00       		.sleb128 0
 1037 056c 00       		.byte	0
 1038 056d 00       		.byte	0
 1039 056e 16       		.uleb128 0x16
 1040 056f 01       		.byte	0x1
 1041 0570 62020000 		.4byte	.LASF62
 1042 0574 01       		.byte	0x1
 1043 0575 8C       		.byte	0x8c
 1044 0576 01       		.byte	0x1
 1045 0577 00000000 		.4byte	.LFB122
 1046 057b 18000000 		.4byte	.LFE122
 1047 057f 02       		.byte	0x2
 1048 0580 7D       		.byte	0x7d
 1049 0581 00       		.sleb128 0
 1050 0582 01       		.byte	0x1
 1051 0583 DA050000 		.4byte	0x5da
 1052 0587 18       		.uleb128 0x18
 1053 0588 4F010000 		.4byte	.LASF60
 1054 058c 01       		.byte	0x1
 1055 058d 8C       		.byte	0x8c
 1056 058e 5A030000 		.4byte	0x35a
 1057 0592 01       		.byte	0x1
 1058 0593 50       		.byte	0x50
 1059 0594 1A       		.uleb128 0x1a
 1060 0595 2A010000 		.4byte	.LASF45
 1061 0599 01       		.byte	0x1
 1062 059a 8C       		.byte	0x8c
 1063 059b 78030000 		.4byte	0x378
 1064 059f E9000000 		.4byte	.LLST9
 1065 05a3 1D       		.uleb128 0x1d
 1066 05a4 00000000 		.4byte	.LBB8
 1067 05a8 06000000 		.4byte	.LBE8
 1068 05ac C0050000 		.4byte	0x5c0
 1069 05b0 1C       		.uleb128 0x1c
 1070 05b1 746D7000 		.ascii	"tmp\000"
 1071 05b5 01       		.byte	0x1
 1072 05b6 90       		.byte	0x90
 1073 05b7 7B000000 		.4byte	0x7b
 1074 05bb 08010000 		.4byte	.LLST10
ARM GAS  C:\Users\LAB_ME~1\AppData\Local\Temp\ccuom4VB.s 			page 20


 1075 05bf 00       		.byte	0
 1076 05c0 20       		.uleb128 0x20
 1077 05c1 10000000 		.4byte	.LBB9
 1078 05c5 18000000 		.4byte	.LBE9
 1079 05c9 1C       		.uleb128 0x1c
 1080 05ca 746D7000 		.ascii	"tmp\000"
 1081 05ce 01       		.byte	0x1
 1082 05cf 94       		.byte	0x94
 1083 05d0 7B000000 		.4byte	0x7b
 1084 05d4 1B010000 		.4byte	.LLST11
 1085 05d8 00       		.byte	0
 1086 05d9 00       		.byte	0
 1087 05da 19       		.uleb128 0x19
 1088 05db 01       		.byte	0x1
 1089 05dc C3000000 		.4byte	.LASF63
 1090 05e0 01       		.byte	0x1
 1091 05e1 A5       		.byte	0xa5
 1092 05e2 01       		.byte	0x1
 1093 05e3 00000000 		.4byte	.LFB123
 1094 05e7 14000000 		.4byte	.LFE123
 1095 05eb 2E010000 		.4byte	.LLST12
 1096 05ef 01       		.byte	0x1
 1097 05f0 6D060000 		.4byte	0x66d
 1098 05f4 1A       		.uleb128 0x1a
 1099 05f5 4F010000 		.4byte	.LASF60
 1100 05f9 01       		.byte	0x1
 1101 05fa A5       		.byte	0xa5
 1102 05fb 5A030000 		.4byte	0x35a
 1103 05ff 4E010000 		.4byte	.LLST13
 1104 0603 1A       		.uleb128 0x1a
 1105 0604 5A020000 		.4byte	.LASF64
 1106 0608 01       		.byte	0x1
 1107 0609 A6       		.byte	0xa6
 1108 060a 6C030000 		.4byte	0x36c
 1109 060e 6F010000 		.4byte	.LLST14
 1110 0612 1A       		.uleb128 0x1a
 1111 0613 FC000000 		.4byte	.LASF65
 1112 0617 01       		.byte	0x1
 1113 0618 A7       		.byte	0xa7
 1114 0619 78030000 		.4byte	0x378
 1115 061d 90010000 		.4byte	.LLST15
 1116 0621 1D       		.uleb128 0x1d
 1117 0622 02000000 		.4byte	.LBB10
 1118 0626 08000000 		.4byte	.LBE10
 1119 062a 3E060000 		.4byte	0x63e
 1120 062e 1C       		.uleb128 0x1c
 1121 062f 746D7000 		.ascii	"tmp\000"
 1122 0633 01       		.byte	0x1
 1123 0634 AC       		.byte	0xac
 1124 0635 7B000000 		.4byte	0x7b
 1125 0639 B1010000 		.4byte	.LLST16
 1126 063d 00       		.byte	0
 1127 063e 1D       		.uleb128 0x1d
 1128 063f 0C000000 		.4byte	.LBB11
 1129 0643 14000000 		.4byte	.LBE11
 1130 0647 5B060000 		.4byte	0x65b
 1131 064b 1C       		.uleb128 0x1c
ARM GAS  C:\Users\LAB_ME~1\AppData\Local\Temp\ccuom4VB.s 			page 21


 1132 064c 746D7000 		.ascii	"tmp\000"
 1133 0650 01       		.byte	0x1
 1134 0651 B0       		.byte	0xb0
 1135 0652 7B000000 		.4byte	0x7b
 1136 0656 C4010000 		.4byte	.LLST17
 1137 065a 00       		.byte	0
 1138 065b 1E       		.uleb128 0x1e
 1139 065c 0C000000 		.4byte	.LVL25
 1140 0660 34070000 		.4byte	0x734
 1141 0664 1F       		.uleb128 0x1f
 1142 0665 01       		.byte	0x1
 1143 0666 50       		.byte	0x50
 1144 0667 03       		.byte	0x3
 1145 0668 F3       		.byte	0xf3
 1146 0669 01       		.uleb128 0x1
 1147 066a 50       		.byte	0x50
 1148 066b 00       		.byte	0
 1149 066c 00       		.byte	0
 1150 066d 19       		.uleb128 0x19
 1151 066e 01       		.byte	0x1
 1152 066f 89010000 		.4byte	.LASF66
 1153 0673 01       		.byte	0x1
 1154 0674 C1       		.byte	0xc1
 1155 0675 01       		.byte	0x1
 1156 0676 00000000 		.4byte	.LFB124
 1157 067a 14000000 		.4byte	.LFE124
 1158 067e D7010000 		.4byte	.LLST18
 1159 0682 01       		.byte	0x1
 1160 0683 F1060000 		.4byte	0x6f1
 1161 0687 1A       		.uleb128 0x1a
 1162 0688 4F010000 		.4byte	.LASF60
 1163 068c 01       		.byte	0x1
 1164 068d C1       		.byte	0xc1
 1165 068e 5A030000 		.4byte	0x35a
 1166 0692 F7010000 		.4byte	.LLST19
 1167 0696 1A       		.uleb128 0x1a
 1168 0697 5A020000 		.4byte	.LASF64
 1169 069b 01       		.byte	0x1
 1170 069c C1       		.byte	0xc1
 1171 069d 6C030000 		.4byte	0x36c
 1172 06a1 18020000 		.4byte	.LLST20
 1173 06a5 1D       		.uleb128 0x1d
 1174 06a6 02000000 		.4byte	.LBB12
 1175 06aa 08000000 		.4byte	.LBE12
 1176 06ae C2060000 		.4byte	0x6c2
 1177 06b2 1C       		.uleb128 0x1c
 1178 06b3 746D7000 		.ascii	"tmp\000"
 1179 06b7 01       		.byte	0x1
 1180 06b8 C6       		.byte	0xc6
 1181 06b9 7B000000 		.4byte	0x7b
 1182 06bd 39020000 		.4byte	.LLST21
 1183 06c1 00       		.byte	0
 1184 06c2 1D       		.uleb128 0x1d
 1185 06c3 0C000000 		.4byte	.LBB13
 1186 06c7 14000000 		.4byte	.LBE13
 1187 06cb DF060000 		.4byte	0x6df
 1188 06cf 1C       		.uleb128 0x1c
ARM GAS  C:\Users\LAB_ME~1\AppData\Local\Temp\ccuom4VB.s 			page 22


 1189 06d0 746D7000 		.ascii	"tmp\000"
 1190 06d4 01       		.byte	0x1
 1191 06d5 CA       		.byte	0xca
 1192 06d6 7B000000 		.4byte	0x7b
 1193 06da 4C020000 		.4byte	.LLST22
 1194 06de 00       		.byte	0
 1195 06df 1E       		.uleb128 0x1e
 1196 06e0 0C000000 		.4byte	.LVL31
 1197 06e4 53070000 		.4byte	0x753
 1198 06e8 1F       		.uleb128 0x1f
 1199 06e9 01       		.byte	0x1
 1200 06ea 50       		.byte	0x50
 1201 06eb 03       		.byte	0x3
 1202 06ec F3       		.byte	0xf3
 1203 06ed 01       		.uleb128 0x1
 1204 06ee 50       		.byte	0x50
 1205 06ef 00       		.byte	0
 1206 06f0 00       		.byte	0
 1207 06f1 21       		.uleb128 0x21
 1208 06f2 EA020000 		.4byte	.LASF73
 1209 06f6 06       		.byte	0x6
 1210 06f7 9806     		.2byte	0x698
 1211 06f9 C3000000 		.4byte	0xc3
 1212 06fd 01       		.byte	0x1
 1213 06fe 01       		.byte	0x1
 1214 06ff 22       		.uleb128 0x22
 1215 0700 01       		.byte	0x1
 1216 0701 2A020000 		.4byte	.LASF74
 1217 0705 05       		.byte	0x5
 1218 0706 A101     		.2byte	0x1a1
 1219 0708 01       		.byte	0x1
 1220 0709 01       		.byte	0x1
 1221 070a 23       		.uleb128 0x23
 1222 070b 01       		.byte	0x1
 1223 070c 37010000 		.4byte	.LASF67
 1224 0710 05       		.byte	0x5
 1225 0711 A201     		.2byte	0x1a2
 1226 0713 01       		.byte	0x1
 1227 0714 01       		.byte	0x1
 1228 0715 1F070000 		.4byte	0x71f
 1229 0719 12       		.uleb128 0x12
 1230 071a 5A030000 		.4byte	0x35a
 1231 071e 00       		.byte	0
 1232 071f 23       		.uleb128 0x23
 1233 0720 01       		.byte	0x1
 1234 0721 05000000 		.4byte	.LASF68
 1235 0725 05       		.byte	0x5
 1236 0726 A301     		.2byte	0x1a3
 1237 0728 01       		.byte	0x1
 1238 0729 01       		.byte	0x1
 1239 072a 34070000 		.4byte	0x734
 1240 072e 12       		.uleb128 0x12
 1241 072f 5A030000 		.4byte	0x35a
 1242 0733 00       		.byte	0
 1243 0734 23       		.uleb128 0x23
 1244 0735 01       		.byte	0x1
 1245 0736 72010000 		.4byte	.LASF69
ARM GAS  C:\Users\LAB_ME~1\AppData\Local\Temp\ccuom4VB.s 			page 23


 1246 073a 05       		.byte	0x5
 1247 073b A401     		.2byte	0x1a4
 1248 073d 01       		.byte	0x1
 1249 073e 01       		.byte	0x1
 1250 073f 53070000 		.4byte	0x753
 1251 0743 12       		.uleb128 0x12
 1252 0744 5A030000 		.4byte	0x35a
 1253 0748 12       		.uleb128 0x12
 1254 0749 6C030000 		.4byte	0x36c
 1255 074d 12       		.uleb128 0x12
 1256 074e 78030000 		.4byte	0x378
 1257 0752 00       		.byte	0
 1258 0753 24       		.uleb128 0x24
 1259 0754 01       		.byte	0x1
 1260 0755 5B000000 		.4byte	.LASF75
 1261 0759 05       		.byte	0x5
 1262 075a A701     		.2byte	0x1a7
 1263 075c 01       		.byte	0x1
 1264 075d 01       		.byte	0x1
 1265 075e 12       		.uleb128 0x12
 1266 075f 5A030000 		.4byte	0x35a
 1267 0763 12       		.uleb128 0x12
 1268 0764 6C030000 		.4byte	0x36c
 1269 0768 00       		.byte	0
 1270 0769 00       		.byte	0
 1271              		.section	.debug_abbrev,"",%progbits
 1272              	.Ldebug_abbrev0:
 1273 0000 01       		.uleb128 0x1
 1274 0001 11       		.uleb128 0x11
 1275 0002 01       		.byte	0x1
 1276 0003 25       		.uleb128 0x25
 1277 0004 0E       		.uleb128 0xe
 1278 0005 13       		.uleb128 0x13
 1279 0006 0B       		.uleb128 0xb
 1280 0007 03       		.uleb128 0x3
 1281 0008 0E       		.uleb128 0xe
 1282 0009 1B       		.uleb128 0x1b
 1283 000a 0E       		.uleb128 0xe
 1284 000b 55       		.uleb128 0x55
 1285 000c 06       		.uleb128 0x6
 1286 000d 11       		.uleb128 0x11
 1287 000e 01       		.uleb128 0x1
 1288 000f 52       		.uleb128 0x52
 1289 0010 01       		.uleb128 0x1
 1290 0011 10       		.uleb128 0x10
 1291 0012 06       		.uleb128 0x6
 1292 0013 00       		.byte	0
 1293 0014 00       		.byte	0
 1294 0015 02       		.uleb128 0x2
 1295 0016 24       		.uleb128 0x24
 1296 0017 00       		.byte	0
 1297 0018 0B       		.uleb128 0xb
 1298 0019 0B       		.uleb128 0xb
 1299 001a 3E       		.uleb128 0x3e
 1300 001b 0B       		.uleb128 0xb
 1301 001c 03       		.uleb128 0x3
 1302 001d 08       		.uleb128 0x8
ARM GAS  C:\Users\LAB_ME~1\AppData\Local\Temp\ccuom4VB.s 			page 24


 1303 001e 00       		.byte	0
 1304 001f 00       		.byte	0
 1305 0020 03       		.uleb128 0x3
 1306 0021 24       		.uleb128 0x24
 1307 0022 00       		.byte	0
 1308 0023 0B       		.uleb128 0xb
 1309 0024 0B       		.uleb128 0xb
 1310 0025 3E       		.uleb128 0x3e
 1311 0026 0B       		.uleb128 0xb
 1312 0027 03       		.uleb128 0x3
 1313 0028 0E       		.uleb128 0xe
 1314 0029 00       		.byte	0
 1315 002a 00       		.byte	0
 1316 002b 04       		.uleb128 0x4
 1317 002c 16       		.uleb128 0x16
 1318 002d 00       		.byte	0
 1319 002e 03       		.uleb128 0x3
 1320 002f 0E       		.uleb128 0xe
 1321 0030 3A       		.uleb128 0x3a
 1322 0031 0B       		.uleb128 0xb
 1323 0032 3B       		.uleb128 0x3b
 1324 0033 0B       		.uleb128 0xb
 1325 0034 49       		.uleb128 0x49
 1326 0035 13       		.uleb128 0x13
 1327 0036 00       		.byte	0
 1328 0037 00       		.byte	0
 1329 0038 05       		.uleb128 0x5
 1330 0039 35       		.uleb128 0x35
 1331 003a 00       		.byte	0
 1332 003b 49       		.uleb128 0x49
 1333 003c 13       		.uleb128 0x13
 1334 003d 00       		.byte	0
 1335 003e 00       		.byte	0
 1336 003f 06       		.uleb128 0x6
 1337 0040 01       		.uleb128 0x1
 1338 0041 01       		.byte	0x1
 1339 0042 49       		.uleb128 0x49
 1340 0043 13       		.uleb128 0x13
 1341 0044 01       		.uleb128 0x1
 1342 0045 13       		.uleb128 0x13
 1343 0046 00       		.byte	0
 1344 0047 00       		.byte	0
 1345 0048 07       		.uleb128 0x7
 1346 0049 21       		.uleb128 0x21
 1347 004a 00       		.byte	0
 1348 004b 49       		.uleb128 0x49
 1349 004c 13       		.uleb128 0x13
 1350 004d 2F       		.uleb128 0x2f
 1351 004e 0B       		.uleb128 0xb
 1352 004f 00       		.byte	0
 1353 0050 00       		.byte	0
 1354 0051 08       		.uleb128 0x8
 1355 0052 13       		.uleb128 0x13
 1356 0053 01       		.byte	0x1
 1357 0054 0B       		.uleb128 0xb
 1358 0055 0B       		.uleb128 0xb
 1359 0056 3A       		.uleb128 0x3a
ARM GAS  C:\Users\LAB_ME~1\AppData\Local\Temp\ccuom4VB.s 			page 25


 1360 0057 0B       		.uleb128 0xb
 1361 0058 3B       		.uleb128 0x3b
 1362 0059 0B       		.uleb128 0xb
 1363 005a 01       		.uleb128 0x1
 1364 005b 13       		.uleb128 0x13
 1365 005c 00       		.byte	0
 1366 005d 00       		.byte	0
 1367 005e 09       		.uleb128 0x9
 1368 005f 0D       		.uleb128 0xd
 1369 0060 00       		.byte	0
 1370 0061 03       		.uleb128 0x3
 1371 0062 08       		.uleb128 0x8
 1372 0063 3A       		.uleb128 0x3a
 1373 0064 0B       		.uleb128 0xb
 1374 0065 3B       		.uleb128 0x3b
 1375 0066 0B       		.uleb128 0xb
 1376 0067 49       		.uleb128 0x49
 1377 0068 13       		.uleb128 0x13
 1378 0069 38       		.uleb128 0x38
 1379 006a 0A       		.uleb128 0xa
 1380 006b 00       		.byte	0
 1381 006c 00       		.byte	0
 1382 006d 0A       		.uleb128 0xa
 1383 006e 0D       		.uleb128 0xd
 1384 006f 00       		.byte	0
 1385 0070 03       		.uleb128 0x3
 1386 0071 0E       		.uleb128 0xe
 1387 0072 3A       		.uleb128 0x3a
 1388 0073 0B       		.uleb128 0xb
 1389 0074 3B       		.uleb128 0x3b
 1390 0075 0B       		.uleb128 0xb
 1391 0076 49       		.uleb128 0x49
 1392 0077 13       		.uleb128 0x13
 1393 0078 38       		.uleb128 0x38
 1394 0079 0A       		.uleb128 0xa
 1395 007a 00       		.byte	0
 1396 007b 00       		.byte	0
 1397 007c 0B       		.uleb128 0xb
 1398 007d 0F       		.uleb128 0xf
 1399 007e 00       		.byte	0
 1400 007f 0B       		.uleb128 0xb
 1401 0080 0B       		.uleb128 0xb
 1402 0081 49       		.uleb128 0x49
 1403 0082 13       		.uleb128 0x13
 1404 0083 00       		.byte	0
 1405 0084 00       		.byte	0
 1406 0085 0C       		.uleb128 0xc
 1407 0086 04       		.uleb128 0x4
 1408 0087 01       		.byte	0x1
 1409 0088 0B       		.uleb128 0xb
 1410 0089 0B       		.uleb128 0xb
 1411 008a 3A       		.uleb128 0x3a
 1412 008b 0B       		.uleb128 0xb
 1413 008c 3B       		.uleb128 0x3b
 1414 008d 0B       		.uleb128 0xb
 1415 008e 01       		.uleb128 0x1
 1416 008f 13       		.uleb128 0x13
ARM GAS  C:\Users\LAB_ME~1\AppData\Local\Temp\ccuom4VB.s 			page 26


 1417 0090 00       		.byte	0
 1418 0091 00       		.byte	0
 1419 0092 0D       		.uleb128 0xd
 1420 0093 28       		.uleb128 0x28
 1421 0094 00       		.byte	0
 1422 0095 03       		.uleb128 0x3
 1423 0096 0E       		.uleb128 0xe
 1424 0097 1C       		.uleb128 0x1c
 1425 0098 0D       		.uleb128 0xd
 1426 0099 00       		.byte	0
 1427 009a 00       		.byte	0
 1428 009b 0E       		.uleb128 0xe
 1429 009c 13       		.uleb128 0x13
 1430 009d 01       		.byte	0x1
 1431 009e 03       		.uleb128 0x3
 1432 009f 0E       		.uleb128 0xe
 1433 00a0 0B       		.uleb128 0xb
 1434 00a1 0B       		.uleb128 0xb
 1435 00a2 3A       		.uleb128 0x3a
 1436 00a3 0B       		.uleb128 0xb
 1437 00a4 3B       		.uleb128 0x3b
 1438 00a5 05       		.uleb128 0x5
 1439 00a6 01       		.uleb128 0x1
 1440 00a7 13       		.uleb128 0x13
 1441 00a8 00       		.byte	0
 1442 00a9 00       		.byte	0
 1443 00aa 0F       		.uleb128 0xf
 1444 00ab 0D       		.uleb128 0xd
 1445 00ac 00       		.byte	0
 1446 00ad 03       		.uleb128 0x3
 1447 00ae 0E       		.uleb128 0xe
 1448 00af 3A       		.uleb128 0x3a
 1449 00b0 0B       		.uleb128 0xb
 1450 00b1 3B       		.uleb128 0x3b
 1451 00b2 05       		.uleb128 0x5
 1452 00b3 49       		.uleb128 0x49
 1453 00b4 13       		.uleb128 0x13
 1454 00b5 38       		.uleb128 0x38
 1455 00b6 0A       		.uleb128 0xa
 1456 00b7 00       		.byte	0
 1457 00b8 00       		.byte	0
 1458 00b9 10       		.uleb128 0x10
 1459 00ba 0D       		.uleb128 0xd
 1460 00bb 00       		.byte	0
 1461 00bc 03       		.uleb128 0x3
 1462 00bd 08       		.uleb128 0x8
 1463 00be 3A       		.uleb128 0x3a
 1464 00bf 0B       		.uleb128 0xb
 1465 00c0 3B       		.uleb128 0x3b
 1466 00c1 05       		.uleb128 0x5
 1467 00c2 49       		.uleb128 0x49
 1468 00c3 13       		.uleb128 0x13
 1469 00c4 38       		.uleb128 0x38
 1470 00c5 0A       		.uleb128 0xa
 1471 00c6 00       		.byte	0
 1472 00c7 00       		.byte	0
 1473 00c8 11       		.uleb128 0x11
ARM GAS  C:\Users\LAB_ME~1\AppData\Local\Temp\ccuom4VB.s 			page 27


 1474 00c9 15       		.uleb128 0x15
 1475 00ca 01       		.byte	0x1
 1476 00cb 27       		.uleb128 0x27
 1477 00cc 0C       		.uleb128 0xc
 1478 00cd 01       		.uleb128 0x1
 1479 00ce 13       		.uleb128 0x13
 1480 00cf 00       		.byte	0
 1481 00d0 00       		.byte	0
 1482 00d1 12       		.uleb128 0x12
 1483 00d2 05       		.uleb128 0x5
 1484 00d3 00       		.byte	0
 1485 00d4 49       		.uleb128 0x49
 1486 00d5 13       		.uleb128 0x13
 1487 00d6 00       		.byte	0
 1488 00d7 00       		.byte	0
 1489 00d8 13       		.uleb128 0x13
 1490 00d9 16       		.uleb128 0x16
 1491 00da 00       		.byte	0
 1492 00db 03       		.uleb128 0x3
 1493 00dc 0E       		.uleb128 0xe
 1494 00dd 3A       		.uleb128 0x3a
 1495 00de 0B       		.uleb128 0xb
 1496 00df 3B       		.uleb128 0x3b
 1497 00e0 05       		.uleb128 0x5
 1498 00e1 49       		.uleb128 0x49
 1499 00e2 13       		.uleb128 0x13
 1500 00e3 00       		.byte	0
 1501 00e4 00       		.byte	0
 1502 00e5 14       		.uleb128 0x14
 1503 00e6 13       		.uleb128 0x13
 1504 00e7 01       		.byte	0x1
 1505 00e8 0B       		.uleb128 0xb
 1506 00e9 0B       		.uleb128 0xb
 1507 00ea 3A       		.uleb128 0x3a
 1508 00eb 0B       		.uleb128 0xb
 1509 00ec 3B       		.uleb128 0x3b
 1510 00ed 05       		.uleb128 0x5
 1511 00ee 01       		.uleb128 0x1
 1512 00ef 13       		.uleb128 0x13
 1513 00f0 00       		.byte	0
 1514 00f1 00       		.byte	0
 1515 00f2 15       		.uleb128 0x15
 1516 00f3 26       		.uleb128 0x26
 1517 00f4 00       		.byte	0
 1518 00f5 49       		.uleb128 0x49
 1519 00f6 13       		.uleb128 0x13
 1520 00f7 00       		.byte	0
 1521 00f8 00       		.byte	0
 1522 00f9 16       		.uleb128 0x16
 1523 00fa 2E       		.uleb128 0x2e
 1524 00fb 01       		.byte	0x1
 1525 00fc 3F       		.uleb128 0x3f
 1526 00fd 0C       		.uleb128 0xc
 1527 00fe 03       		.uleb128 0x3
 1528 00ff 0E       		.uleb128 0xe
 1529 0100 3A       		.uleb128 0x3a
 1530 0101 0B       		.uleb128 0xb
ARM GAS  C:\Users\LAB_ME~1\AppData\Local\Temp\ccuom4VB.s 			page 28


 1531 0102 3B       		.uleb128 0x3b
 1532 0103 0B       		.uleb128 0xb
 1533 0104 27       		.uleb128 0x27
 1534 0105 0C       		.uleb128 0xc
 1535 0106 11       		.uleb128 0x11
 1536 0107 01       		.uleb128 0x1
 1537 0108 12       		.uleb128 0x12
 1538 0109 01       		.uleb128 0x1
 1539 010a 40       		.uleb128 0x40
 1540 010b 0A       		.uleb128 0xa
 1541 010c 9742     		.uleb128 0x2117
 1542 010e 0C       		.uleb128 0xc
 1543 010f 01       		.uleb128 0x1
 1544 0110 13       		.uleb128 0x13
 1545 0111 00       		.byte	0
 1546 0112 00       		.byte	0
 1547 0113 17       		.uleb128 0x17
 1548 0114 898201   		.uleb128 0x4109
 1549 0117 00       		.byte	0
 1550 0118 11       		.uleb128 0x11
 1551 0119 01       		.uleb128 0x1
 1552 011a 9542     		.uleb128 0x2115
 1553 011c 0C       		.uleb128 0xc
 1554 011d 31       		.uleb128 0x31
 1555 011e 13       		.uleb128 0x13
 1556 011f 00       		.byte	0
 1557 0120 00       		.byte	0
 1558 0121 18       		.uleb128 0x18
 1559 0122 05       		.uleb128 0x5
 1560 0123 00       		.byte	0
 1561 0124 03       		.uleb128 0x3
 1562 0125 0E       		.uleb128 0xe
 1563 0126 3A       		.uleb128 0x3a
 1564 0127 0B       		.uleb128 0xb
 1565 0128 3B       		.uleb128 0x3b
 1566 0129 0B       		.uleb128 0xb
 1567 012a 49       		.uleb128 0x49
 1568 012b 13       		.uleb128 0x13
 1569 012c 02       		.uleb128 0x2
 1570 012d 0A       		.uleb128 0xa
 1571 012e 00       		.byte	0
 1572 012f 00       		.byte	0
 1573 0130 19       		.uleb128 0x19
 1574 0131 2E       		.uleb128 0x2e
 1575 0132 01       		.byte	0x1
 1576 0133 3F       		.uleb128 0x3f
 1577 0134 0C       		.uleb128 0xc
 1578 0135 03       		.uleb128 0x3
 1579 0136 0E       		.uleb128 0xe
 1580 0137 3A       		.uleb128 0x3a
 1581 0138 0B       		.uleb128 0xb
 1582 0139 3B       		.uleb128 0x3b
 1583 013a 0B       		.uleb128 0xb
 1584 013b 27       		.uleb128 0x27
 1585 013c 0C       		.uleb128 0xc
 1586 013d 11       		.uleb128 0x11
 1587 013e 01       		.uleb128 0x1
ARM GAS  C:\Users\LAB_ME~1\AppData\Local\Temp\ccuom4VB.s 			page 29


 1588 013f 12       		.uleb128 0x12
 1589 0140 01       		.uleb128 0x1
 1590 0141 40       		.uleb128 0x40
 1591 0142 06       		.uleb128 0x6
 1592 0143 9742     		.uleb128 0x2117
 1593 0145 0C       		.uleb128 0xc
 1594 0146 01       		.uleb128 0x1
 1595 0147 13       		.uleb128 0x13
 1596 0148 00       		.byte	0
 1597 0149 00       		.byte	0
 1598 014a 1A       		.uleb128 0x1a
 1599 014b 05       		.uleb128 0x5
 1600 014c 00       		.byte	0
 1601 014d 03       		.uleb128 0x3
 1602 014e 0E       		.uleb128 0xe
 1603 014f 3A       		.uleb128 0x3a
 1604 0150 0B       		.uleb128 0xb
 1605 0151 3B       		.uleb128 0x3b
 1606 0152 0B       		.uleb128 0xb
 1607 0153 49       		.uleb128 0x49
 1608 0154 13       		.uleb128 0x13
 1609 0155 02       		.uleb128 0x2
 1610 0156 06       		.uleb128 0x6
 1611 0157 00       		.byte	0
 1612 0158 00       		.byte	0
 1613 0159 1B       		.uleb128 0x1b
 1614 015a 0B       		.uleb128 0xb
 1615 015b 01       		.byte	0x1
 1616 015c 55       		.uleb128 0x55
 1617 015d 06       		.uleb128 0x6
 1618 015e 01       		.uleb128 0x1
 1619 015f 13       		.uleb128 0x13
 1620 0160 00       		.byte	0
 1621 0161 00       		.byte	0
 1622 0162 1C       		.uleb128 0x1c
 1623 0163 34       		.uleb128 0x34
 1624 0164 00       		.byte	0
 1625 0165 03       		.uleb128 0x3
 1626 0166 08       		.uleb128 0x8
 1627 0167 3A       		.uleb128 0x3a
 1628 0168 0B       		.uleb128 0xb
 1629 0169 3B       		.uleb128 0x3b
 1630 016a 0B       		.uleb128 0xb
 1631 016b 49       		.uleb128 0x49
 1632 016c 13       		.uleb128 0x13
 1633 016d 02       		.uleb128 0x2
 1634 016e 06       		.uleb128 0x6
 1635 016f 00       		.byte	0
 1636 0170 00       		.byte	0
 1637 0171 1D       		.uleb128 0x1d
 1638 0172 0B       		.uleb128 0xb
 1639 0173 01       		.byte	0x1
 1640 0174 11       		.uleb128 0x11
 1641 0175 01       		.uleb128 0x1
 1642 0176 12       		.uleb128 0x12
 1643 0177 01       		.uleb128 0x1
 1644 0178 01       		.uleb128 0x1
ARM GAS  C:\Users\LAB_ME~1\AppData\Local\Temp\ccuom4VB.s 			page 30


 1645 0179 13       		.uleb128 0x13
 1646 017a 00       		.byte	0
 1647 017b 00       		.byte	0
 1648 017c 1E       		.uleb128 0x1e
 1649 017d 898201   		.uleb128 0x4109
 1650 0180 01       		.byte	0x1
 1651 0181 11       		.uleb128 0x11
 1652 0182 01       		.uleb128 0x1
 1653 0183 31       		.uleb128 0x31
 1654 0184 13       		.uleb128 0x13
 1655 0185 00       		.byte	0
 1656 0186 00       		.byte	0
 1657 0187 1F       		.uleb128 0x1f
 1658 0188 8A8201   		.uleb128 0x410a
 1659 018b 00       		.byte	0
 1660 018c 02       		.uleb128 0x2
 1661 018d 0A       		.uleb128 0xa
 1662 018e 9142     		.uleb128 0x2111
 1663 0190 0A       		.uleb128 0xa
 1664 0191 00       		.byte	0
 1665 0192 00       		.byte	0
 1666 0193 20       		.uleb128 0x20
 1667 0194 0B       		.uleb128 0xb
 1668 0195 01       		.byte	0x1
 1669 0196 11       		.uleb128 0x11
 1670 0197 01       		.uleb128 0x1
 1671 0198 12       		.uleb128 0x12
 1672 0199 01       		.uleb128 0x1
 1673 019a 00       		.byte	0
 1674 019b 00       		.byte	0
 1675 019c 21       		.uleb128 0x21
 1676 019d 34       		.uleb128 0x34
 1677 019e 00       		.byte	0
 1678 019f 03       		.uleb128 0x3
 1679 01a0 0E       		.uleb128 0xe
 1680 01a1 3A       		.uleb128 0x3a
 1681 01a2 0B       		.uleb128 0xb
 1682 01a3 3B       		.uleb128 0x3b
 1683 01a4 05       		.uleb128 0x5
 1684 01a5 49       		.uleb128 0x49
 1685 01a6 13       		.uleb128 0x13
 1686 01a7 3F       		.uleb128 0x3f
 1687 01a8 0C       		.uleb128 0xc
 1688 01a9 3C       		.uleb128 0x3c
 1689 01aa 0C       		.uleb128 0xc
 1690 01ab 00       		.byte	0
 1691 01ac 00       		.byte	0
 1692 01ad 22       		.uleb128 0x22
 1693 01ae 2E       		.uleb128 0x2e
 1694 01af 00       		.byte	0
 1695 01b0 3F       		.uleb128 0x3f
 1696 01b1 0C       		.uleb128 0xc
 1697 01b2 03       		.uleb128 0x3
 1698 01b3 0E       		.uleb128 0xe
 1699 01b4 3A       		.uleb128 0x3a
 1700 01b5 0B       		.uleb128 0xb
 1701 01b6 3B       		.uleb128 0x3b
ARM GAS  C:\Users\LAB_ME~1\AppData\Local\Temp\ccuom4VB.s 			page 31


 1702 01b7 05       		.uleb128 0x5
 1703 01b8 27       		.uleb128 0x27
 1704 01b9 0C       		.uleb128 0xc
 1705 01ba 3C       		.uleb128 0x3c
 1706 01bb 0C       		.uleb128 0xc
 1707 01bc 00       		.byte	0
 1708 01bd 00       		.byte	0
 1709 01be 23       		.uleb128 0x23
 1710 01bf 2E       		.uleb128 0x2e
 1711 01c0 01       		.byte	0x1
 1712 01c1 3F       		.uleb128 0x3f
 1713 01c2 0C       		.uleb128 0xc
 1714 01c3 03       		.uleb128 0x3
 1715 01c4 0E       		.uleb128 0xe
 1716 01c5 3A       		.uleb128 0x3a
 1717 01c6 0B       		.uleb128 0xb
 1718 01c7 3B       		.uleb128 0x3b
 1719 01c8 05       		.uleb128 0x5
 1720 01c9 27       		.uleb128 0x27
 1721 01ca 0C       		.uleb128 0xc
 1722 01cb 3C       		.uleb128 0x3c
 1723 01cc 0C       		.uleb128 0xc
 1724 01cd 01       		.uleb128 0x1
 1725 01ce 13       		.uleb128 0x13
 1726 01cf 00       		.byte	0
 1727 01d0 00       		.byte	0
 1728 01d1 24       		.uleb128 0x24
 1729 01d2 2E       		.uleb128 0x2e
 1730 01d3 01       		.byte	0x1
 1731 01d4 3F       		.uleb128 0x3f
 1732 01d5 0C       		.uleb128 0xc
 1733 01d6 03       		.uleb128 0x3
 1734 01d7 0E       		.uleb128 0xe
 1735 01d8 3A       		.uleb128 0x3a
 1736 01d9 0B       		.uleb128 0xb
 1737 01da 3B       		.uleb128 0x3b
 1738 01db 05       		.uleb128 0x5
 1739 01dc 27       		.uleb128 0x27
 1740 01dd 0C       		.uleb128 0xc
 1741 01de 3C       		.uleb128 0x3c
 1742 01df 0C       		.uleb128 0xc
 1743 01e0 00       		.byte	0
 1744 01e1 00       		.byte	0
 1745 01e2 00       		.byte	0
 1746              		.section	.debug_loc,"",%progbits
 1747              	.Ldebug_loc0:
 1748              	.LLST0:
 1749 0000 00000000 		.4byte	.LFB120
 1750 0004 02000000 		.4byte	.LCFI0
 1751 0008 0200     		.2byte	0x2
 1752 000a 7D       		.byte	0x7d
 1753 000b 00       		.sleb128 0
 1754 000c 02000000 		.4byte	.LCFI0
 1755 0010 20000000 		.4byte	.LFE120
 1756 0014 0200     		.2byte	0x2
 1757 0016 7D       		.byte	0x7d
 1758 0017 08       		.sleb128 8
ARM GAS  C:\Users\LAB_ME~1\AppData\Local\Temp\ccuom4VB.s 			page 32


 1759 0018 00000000 		.4byte	0
 1760 001c 00000000 		.4byte	0
 1761              	.LLST1:
 1762 0020 00000000 		.4byte	.LVL2
 1763 0024 13000000 		.4byte	.LVL6-1
 1764 0028 0100     		.2byte	0x1
 1765 002a 50       		.byte	0x50
 1766 002b 13000000 		.4byte	.LVL6-1
 1767 002f 20000000 		.4byte	.LFE120
 1768 0033 0100     		.2byte	0x1
 1769 0035 54       		.byte	0x54
 1770 0036 00000000 		.4byte	0
 1771 003a 00000000 		.4byte	0
 1772              	.LLST2:
 1773 003e 00000000 		.4byte	.LVL2
 1774 0042 13000000 		.4byte	.LVL6-1
 1775 0046 0100     		.2byte	0x1
 1776 0048 51       		.byte	0x51
 1777 0049 13000000 		.4byte	.LVL6-1
 1778 004d 20000000 		.4byte	.LFE120
 1779 0051 0400     		.2byte	0x4
 1780 0053 F3       		.byte	0xf3
 1781 0054 01       		.uleb128 0x1
 1782 0055 51       		.byte	0x51
 1783 0056 9F       		.byte	0x9f
 1784 0057 00000000 		.4byte	0
 1785 005b 00000000 		.4byte	0
 1786              	.LLST3:
 1787 005f 0A000000 		.4byte	.LVL4
 1788 0063 0C000000 		.4byte	.LVL5
 1789 0067 0100     		.2byte	0x1
 1790 0069 53       		.byte	0x53
 1791 006a 00000000 		.4byte	0
 1792 006e 00000000 		.4byte	0
 1793              	.LLST4:
 1794 0072 1E000000 		.4byte	.LVL8
 1795 0076 20000000 		.4byte	.LFE120
 1796 007a 0100     		.2byte	0x1
 1797 007c 53       		.byte	0x53
 1798 007d 00000000 		.4byte	0
 1799 0081 00000000 		.4byte	0
 1800              	.LLST5:
 1801 0085 00000000 		.4byte	.LFB121
 1802 0089 02000000 		.4byte	.LCFI1
 1803 008d 0200     		.2byte	0x2
 1804 008f 7D       		.byte	0x7d
 1805 0090 00       		.sleb128 0
 1806 0091 02000000 		.4byte	.LCFI1
 1807 0095 1A000000 		.4byte	.LFE121
 1808 0099 0200     		.2byte	0x2
 1809 009b 7D       		.byte	0x7d
 1810 009c 08       		.sleb128 8
 1811 009d 00000000 		.4byte	0
 1812 00a1 00000000 		.4byte	0
 1813              	.LLST6:
 1814 00a5 00000000 		.4byte	.LVL9
 1815 00a9 0D000000 		.4byte	.LVL12-1
ARM GAS  C:\Users\LAB_ME~1\AppData\Local\Temp\ccuom4VB.s 			page 33


 1816 00ad 0100     		.2byte	0x1
 1817 00af 50       		.byte	0x50
 1818 00b0 0D000000 		.4byte	.LVL12-1
 1819 00b4 1A000000 		.4byte	.LFE121
 1820 00b8 0100     		.2byte	0x1
 1821 00ba 54       		.byte	0x54
 1822 00bb 00000000 		.4byte	0
 1823 00bf 00000000 		.4byte	0
 1824              	.LLST7:
 1825 00c3 0A000000 		.4byte	.LVL11
 1826 00c7 0D000000 		.4byte	.LVL12-1
 1827 00cb 0100     		.2byte	0x1
 1828 00cd 53       		.byte	0x53
 1829 00ce 00000000 		.4byte	0
 1830 00d2 00000000 		.4byte	0
 1831              	.LLST8:
 1832 00d6 18000000 		.4byte	.LVL14
 1833 00da 1A000000 		.4byte	.LFE121
 1834 00de 0100     		.2byte	0x1
 1835 00e0 53       		.byte	0x53
 1836 00e1 00000000 		.4byte	0
 1837 00e5 00000000 		.4byte	0
 1838              	.LLST9:
 1839 00e9 00000000 		.4byte	.LVL15
 1840 00ed 0C000000 		.4byte	.LVL19
 1841 00f1 0100     		.2byte	0x1
 1842 00f3 51       		.byte	0x51
 1843 00f4 0C000000 		.4byte	.LVL19
 1844 00f8 18000000 		.4byte	.LFE122
 1845 00fc 0200     		.2byte	0x2
 1846 00fe 70       		.byte	0x70
 1847 00ff 08       		.sleb128 8
 1848 0100 00000000 		.4byte	0
 1849 0104 00000000 		.4byte	0
 1850              	.LLST10:
 1851 0108 06000000 		.4byte	.LVL17
 1852 010c 08000000 		.4byte	.LVL18
 1853 0110 0100     		.2byte	0x1
 1854 0112 53       		.byte	0x53
 1855 0113 00000000 		.4byte	0
 1856 0117 00000000 		.4byte	0
 1857              	.LLST11:
 1858 011b 16000000 		.4byte	.LVL21
 1859 011f 18000000 		.4byte	.LFE122
 1860 0123 0100     		.2byte	0x1
 1861 0125 53       		.byte	0x53
 1862 0126 00000000 		.4byte	0
 1863 012a 00000000 		.4byte	0
 1864              	.LLST12:
 1865 012e 00000000 		.4byte	.LFB123
 1866 0132 02000000 		.4byte	.LCFI2
 1867 0136 0200     		.2byte	0x2
 1868 0138 7D       		.byte	0x7d
 1869 0139 00       		.sleb128 0
 1870 013a 02000000 		.4byte	.LCFI2
 1871 013e 14000000 		.4byte	.LFE123
 1872 0142 0200     		.2byte	0x2
ARM GAS  C:\Users\LAB_ME~1\AppData\Local\Temp\ccuom4VB.s 			page 34


 1873 0144 7D       		.byte	0x7d
 1874 0145 08       		.sleb128 8
 1875 0146 00000000 		.4byte	0
 1876 014a 00000000 		.4byte	0
 1877              	.LLST13:
 1878 014e 00000000 		.4byte	.LVL22
 1879 0152 0B000000 		.4byte	.LVL25-1
 1880 0156 0100     		.2byte	0x1
 1881 0158 50       		.byte	0x50
 1882 0159 0B000000 		.4byte	.LVL25-1
 1883 015d 14000000 		.4byte	.LFE123
 1884 0161 0400     		.2byte	0x4
 1885 0163 F3       		.byte	0xf3
 1886 0164 01       		.uleb128 0x1
 1887 0165 50       		.byte	0x50
 1888 0166 9F       		.byte	0x9f
 1889 0167 00000000 		.4byte	0
 1890 016b 00000000 		.4byte	0
 1891              	.LLST14:
 1892 016f 00000000 		.4byte	.LVL22
 1893 0173 0B000000 		.4byte	.LVL25-1
 1894 0177 0100     		.2byte	0x1
 1895 0179 51       		.byte	0x51
 1896 017a 0B000000 		.4byte	.LVL25-1
 1897 017e 14000000 		.4byte	.LFE123
 1898 0182 0400     		.2byte	0x4
 1899 0184 F3       		.byte	0xf3
 1900 0185 01       		.uleb128 0x1
 1901 0186 51       		.byte	0x51
 1902 0187 9F       		.byte	0x9f
 1903 0188 00000000 		.4byte	0
 1904 018c 00000000 		.4byte	0
 1905              	.LLST15:
 1906 0190 00000000 		.4byte	.LVL22
 1907 0194 0B000000 		.4byte	.LVL25-1
 1908 0198 0100     		.2byte	0x1
 1909 019a 52       		.byte	0x52
 1910 019b 0B000000 		.4byte	.LVL25-1
 1911 019f 14000000 		.4byte	.LFE123
 1912 01a3 0400     		.2byte	0x4
 1913 01a5 F3       		.byte	0xf3
 1914 01a6 01       		.uleb128 0x1
 1915 01a7 52       		.byte	0x52
 1916 01a8 9F       		.byte	0x9f
 1917 01a9 00000000 		.4byte	0
 1918 01ad 00000000 		.4byte	0
 1919              	.LLST16:
 1920 01b1 08000000 		.4byte	.LVL24
 1921 01b5 0B000000 		.4byte	.LVL25-1
 1922 01b9 0100     		.2byte	0x1
 1923 01bb 53       		.byte	0x53
 1924 01bc 00000000 		.4byte	0
 1925 01c0 00000000 		.4byte	0
 1926              	.LLST17:
 1927 01c4 12000000 		.4byte	.LVL27
 1928 01c8 14000000 		.4byte	.LFE123
 1929 01cc 0100     		.2byte	0x1
ARM GAS  C:\Users\LAB_ME~1\AppData\Local\Temp\ccuom4VB.s 			page 35


 1930 01ce 53       		.byte	0x53
 1931 01cf 00000000 		.4byte	0
 1932 01d3 00000000 		.4byte	0
 1933              	.LLST18:
 1934 01d7 00000000 		.4byte	.LFB124
 1935 01db 02000000 		.4byte	.LCFI3
 1936 01df 0200     		.2byte	0x2
 1937 01e1 7D       		.byte	0x7d
 1938 01e2 00       		.sleb128 0
 1939 01e3 02000000 		.4byte	.LCFI3
 1940 01e7 14000000 		.4byte	.LFE124
 1941 01eb 0200     		.2byte	0x2
 1942 01ed 7D       		.byte	0x7d
 1943 01ee 08       		.sleb128 8
 1944 01ef 00000000 		.4byte	0
 1945 01f3 00000000 		.4byte	0
 1946              	.LLST19:
 1947 01f7 00000000 		.4byte	.LVL28
 1948 01fb 0B000000 		.4byte	.LVL31-1
 1949 01ff 0100     		.2byte	0x1
 1950 0201 50       		.byte	0x50
 1951 0202 0B000000 		.4byte	.LVL31-1
 1952 0206 14000000 		.4byte	.LFE124
 1953 020a 0400     		.2byte	0x4
 1954 020c F3       		.byte	0xf3
 1955 020d 01       		.uleb128 0x1
 1956 020e 50       		.byte	0x50
 1957 020f 9F       		.byte	0x9f
 1958 0210 00000000 		.4byte	0
 1959 0214 00000000 		.4byte	0
 1960              	.LLST20:
 1961 0218 00000000 		.4byte	.LVL28
 1962 021c 0B000000 		.4byte	.LVL31-1
 1963 0220 0100     		.2byte	0x1
 1964 0222 51       		.byte	0x51
 1965 0223 0B000000 		.4byte	.LVL31-1
 1966 0227 14000000 		.4byte	.LFE124
 1967 022b 0400     		.2byte	0x4
 1968 022d F3       		.byte	0xf3
 1969 022e 01       		.uleb128 0x1
 1970 022f 51       		.byte	0x51
 1971 0230 9F       		.byte	0x9f
 1972 0231 00000000 		.4byte	0
 1973 0235 00000000 		.4byte	0
 1974              	.LLST21:
 1975 0239 08000000 		.4byte	.LVL30
 1976 023d 0B000000 		.4byte	.LVL31-1
 1977 0241 0100     		.2byte	0x1
 1978 0243 53       		.byte	0x53
 1979 0244 00000000 		.4byte	0
 1980 0248 00000000 		.4byte	0
 1981              	.LLST22:
 1982 024c 12000000 		.4byte	.LVL33
 1983 0250 14000000 		.4byte	.LFE124
 1984 0254 0100     		.2byte	0x1
 1985 0256 53       		.byte	0x53
 1986 0257 00000000 		.4byte	0
ARM GAS  C:\Users\LAB_ME~1\AppData\Local\Temp\ccuom4VB.s 			page 36


 1987 025b 00000000 		.4byte	0
 1988              		.section	.debug_aranges,"",%progbits
 1989 0000 4C000000 		.4byte	0x4c
 1990 0004 0200     		.2byte	0x2
 1991 0006 00000000 		.4byte	.Ldebug_info0
 1992 000a 04       		.byte	0x4
 1993 000b 00       		.byte	0
 1994 000c 0000     		.2byte	0
 1995 000e 0000     		.2byte	0
 1996 0010 00000000 		.4byte	.LFB118
 1997 0014 04000000 		.4byte	.LFE118-.LFB118
 1998 0018 00000000 		.4byte	.LFB119
 1999 001c 0A000000 		.4byte	.LFE119-.LFB119
 2000 0020 00000000 		.4byte	.LFB120
 2001 0024 20000000 		.4byte	.LFE120-.LFB120
 2002 0028 00000000 		.4byte	.LFB121
 2003 002c 1A000000 		.4byte	.LFE121-.LFB121
 2004 0030 00000000 		.4byte	.LFB122
 2005 0034 18000000 		.4byte	.LFE122-.LFB122
 2006 0038 00000000 		.4byte	.LFB123
 2007 003c 14000000 		.4byte	.LFE123-.LFB123
 2008 0040 00000000 		.4byte	.LFB124
 2009 0044 14000000 		.4byte	.LFE124-.LFB124
 2010 0048 00000000 		.4byte	0
 2011 004c 00000000 		.4byte	0
 2012              		.section	.debug_ranges,"",%progbits
 2013              	.Ldebug_ranges0:
 2014 0000 02000000 		.4byte	.LBB2
 2015 0004 04000000 		.4byte	.LBE2
 2016 0008 06000000 		.4byte	.LBB3
 2017 000c 0A000000 		.4byte	.LBE3
 2018 0010 00000000 		.4byte	0
 2019 0014 00000000 		.4byte	0
 2020 0018 02000000 		.4byte	.LBB5
 2021 001c 04000000 		.4byte	.LBE5
 2022 0020 06000000 		.4byte	.LBB6
 2023 0024 0A000000 		.4byte	.LBE6
 2024 0028 00000000 		.4byte	0
 2025 002c 00000000 		.4byte	0
 2026 0030 00000000 		.4byte	.LFB118
 2027 0034 04000000 		.4byte	.LFE118
 2028 0038 00000000 		.4byte	.LFB119
 2029 003c 0A000000 		.4byte	.LFE119
 2030 0040 00000000 		.4byte	.LFB120
 2031 0044 20000000 		.4byte	.LFE120
 2032 0048 00000000 		.4byte	.LFB121
 2033 004c 1A000000 		.4byte	.LFE121
 2034 0050 00000000 		.4byte	.LFB122
 2035 0054 18000000 		.4byte	.LFE122
 2036 0058 00000000 		.4byte	.LFB123
 2037 005c 14000000 		.4byte	.LFE123
 2038 0060 00000000 		.4byte	.LFB124
 2039 0064 14000000 		.4byte	.LFE124
 2040 0068 00000000 		.4byte	0
 2041 006c 00000000 		.4byte	0
 2042              		.section	.debug_line,"",%progbits
 2043              	.Ldebug_line0:
ARM GAS  C:\Users\LAB_ME~1\AppData\Local\Temp\ccuom4VB.s 			page 37


 2044 0000 E4010000 		.section	.debug_str,"MS",%progbits,1
 2044      02005301 
 2044      00000201 
 2044      FB0E0D00 
 2044      01010101 
 2045              	.LASF27:
 2046 0000 43434552 		.ascii	"CCER\000"
 2046      00
 2047              	.LASF68:
 2048 0005 70776D5F 		.ascii	"pwm_lld_stop\000"
 2048      6C6C645F 
 2048      73746F70 
 2048      00
 2049              	.LASF34:
 2050 0012 444D4152 		.ascii	"DMAR\000"
 2050      00
 2051              	.LASF43:
 2052 0017 73746174 		.ascii	"state\000"
 2052      6500
 2053              	.LASF25:
 2054 001d 43434D52 		.ascii	"CCMR2\000"
 2054      3200
 2055              	.LASF72:
 2056 0023 433A5C43 		.ascii	"C:\\Chibios\\demos\\FirmwareV2\000"
 2056      68696269 
 2056      6F735C64 
 2056      656D6F73 
 2056      5C466972 
 2057              	.LASF3:
 2058 003f 73686F72 		.ascii	"short int\000"
 2058      7420696E 
 2058      7400
 2059              	.LASF50:
 2060 0049 70776D63 		.ascii	"pwmcnt_t\000"
 2060      6E745F74 
 2060      00
 2061              	.LASF13:
 2062 0052 73697A65 		.ascii	"sizetype\000"
 2062      74797065 
 2062      00
 2063              	.LASF75:
 2064 005b 70776D5F 		.ascii	"pwm_lld_disable_channel\000"
 2064      6C6C645F 
 2064      64697361 
 2064      626C655F 
 2064      6368616E 
 2065              	.LASF49:
 2066 0073 70776D63 		.ascii	"pwmchannel_t\000"
 2066      68616E6E 
 2066      656C5F74 
 2066      00
 2067              	.LASF51:
 2068 0080 6D6F6465 		.ascii	"mode\000"
 2068      00
 2069              	.LASF55:
 2070 0085 6368616E 		.ascii	"channels\000"
 2070      6E656C73 
ARM GAS  C:\Users\LAB_ME~1\AppData\Local\Temp\ccuom4VB.s 			page 38


 2070      00
 2071              	.LASF44:
 2072 008e 636F6E66 		.ascii	"config\000"
 2072      696700
 2073              	.LASF58:
 2074 0095 70776D4F 		.ascii	"pwmObjectInit\000"
 2074      626A6563 
 2074      74496E69 
 2074      7400
 2075              	.LASF15:
 2076 00a3 5F726573 		.ascii	"_resvd0\000"
 2076      76643000 
 2077              	.LASF4:
 2078 00ab 75696E74 		.ascii	"uint8_t\000"
 2078      385F7400 
 2079              	.LASF18:
 2080 00b3 5F726573 		.ascii	"_resvd2\000"
 2080      76643200 
 2081              	.LASF20:
 2082 00bb 5F726573 		.ascii	"_resvd3\000"
 2082      76643300 
 2083              	.LASF63:
 2084 00c3 70776D45 		.ascii	"pwmEnableChannel\000"
 2084      6E61626C 
 2084      65436861 
 2084      6E6E656C 
 2084      00
 2085              	.LASF22:
 2086 00d4 5F726573 		.ascii	"_resvd5\000"
 2086      76643500 
 2087              	.LASF24:
 2088 00dc 5F726573 		.ascii	"_resvd6\000"
 2088      76643600 
 2089              	.LASF26:
 2090 00e4 5F726573 		.ascii	"_resvd7\000"
 2090      76643700 
 2091              	.LASF28:
 2092 00ec 5F726573 		.ascii	"_resvd8\000"
 2092      76643800 
 2093              	.LASF29:
 2094 00f4 5F726573 		.ascii	"_resvd9\000"
 2094      76643900 
 2095              	.LASF65:
 2096 00fc 77696474 		.ascii	"width\000"
 2096      6800
 2097              	.LASF59:
 2098 0102 70776D53 		.ascii	"pwmStart\000"
 2098      74617274 
 2098      00
 2099              	.LASF11:
 2100 010b 6C6F6E67 		.ascii	"long long int\000"
 2100      206C6F6E 
 2100      6720696E 
 2100      7400
 2101              	.LASF8:
 2102 0119 6C6F6E67 		.ascii	"long int\000"
 2102      20696E74 
ARM GAS  C:\Users\LAB_ME~1\AppData\Local\Temp\ccuom4VB.s 			page 39


 2102      00
 2103              	.LASF57:
 2104 0122 70776D49 		.ascii	"pwmInit\000"
 2104      6E697400 
 2105              	.LASF45:
 2106 012a 70657269 		.ascii	"period\000"
 2106      6F6400
 2107              	.LASF23:
 2108 0131 43434D52 		.ascii	"CCMR1\000"
 2108      3100
 2109              	.LASF67:
 2110 0137 70776D5F 		.ascii	"pwm_lld_start\000"
 2110      6C6C645F 
 2110      73746172 
 2110      7400
 2111              	.LASF56:
 2112 0145 50574D43 		.ascii	"PWMConfig\000"
 2112      6F6E6669 
 2112      6700
 2113              	.LASF60:
 2114 014f 70776D70 		.ascii	"pwmp\000"
 2114      00
 2115              	.LASF17:
 2116 0154 534D4352 		.ascii	"SMCR\000"
 2116      00
 2117              	.LASF38:
 2118 0159 50574D5F 		.ascii	"PWM_UNINIT\000"
 2118      554E494E 
 2118      495400
 2119              	.LASF2:
 2120 0164 756E7369 		.ascii	"unsigned char\000"
 2120      676E6564 
 2120      20636861 
 2120      7200
 2121              	.LASF69:
 2122 0172 70776D5F 		.ascii	"pwm_lld_enable_channel\000"
 2122      6C6C645F 
 2122      656E6162 
 2122      6C655F63 
 2122      68616E6E 
 2123              	.LASF66:
 2124 0189 70776D44 		.ascii	"pwmDisableChannel\000"
 2124      69736162 
 2124      6C654368 
 2124      616E6E65 
 2124      6C00
 2125              	.LASF1:
 2126 019b 7369676E 		.ascii	"signed char\000"
 2126      65642063 
 2126      68617200 
 2127              	.LASF12:
 2128 01a7 6C6F6E67 		.ascii	"long long unsigned int\000"
 2128      206C6F6E 
 2128      6720756E 
 2128      7369676E 
 2128      65642069 
 2129              	.LASF9:
ARM GAS  C:\Users\LAB_ME~1\AppData\Local\Temp\ccuom4VB.s 			page 40


 2130 01be 75696E74 		.ascii	"uint32_t\000"
 2130      33325F74 
 2130      00
 2131              	.LASF0:
 2132 01c7 756E7369 		.ascii	"unsigned int\000"
 2132      676E6564 
 2132      20696E74 
 2132      00
 2133              	.LASF5:
 2134 01d4 75696E74 		.ascii	"uint16_t\000"
 2134      31365F74 
 2134      00
 2135              	.LASF70:
 2136 01dd 474E5520 		.ascii	"GNU C 4.7.2\000"
 2136      4320342E 
 2136      372E3200 
 2137              	.LASF31:
 2138 01e9 42445452 		.ascii	"BDTR\000"
 2138      00
 2139              	.LASF19:
 2140 01ee 44494552 		.ascii	"DIER\000"
 2140      00
 2141              	.LASF32:
 2142 01f3 5F726573 		.ascii	"_resvd11\000"
 2142      76643131 
 2142      00
 2143              	.LASF33:
 2144 01fc 5F726573 		.ascii	"_resvd12\000"
 2144      76643132 
 2144      00
 2145              	.LASF35:
 2146 0205 5F726573 		.ascii	"_resvd13\000"
 2146      76643133 
 2146      00
 2147              	.LASF36:
 2148 020e 5F726573 		.ascii	"_resvd14\000"
 2148      76643134 
 2148      00
 2149              	.LASF6:
 2150 0217 73686F72 		.ascii	"short unsigned int\000"
 2150      7420756E 
 2150      7369676E 
 2150      65642069 
 2150      6E7400
 2151              	.LASF74:
 2152 022a 70776D5F 		.ascii	"pwm_lld_init\000"
 2152      6C6C645F 
 2152      696E6974 
 2152      00
 2153              	.LASF14:
 2154 0237 63686172 		.ascii	"char\000"
 2154      00
 2155              	.LASF37:
 2156 023c 73746D33 		.ascii	"stm32_tim_t\000"
 2156      325F7469 
 2156      6D5F7400 
 2157              	.LASF42:
ARM GAS  C:\Users\LAB_ME~1\AppData\Local\Temp\ccuom4VB.s 			page 41


 2158 0248 50574D44 		.ascii	"PWMDriver\000"
 2158      72697665 
 2158      7200
 2159              	.LASF7:
 2160 0252 696E7433 		.ascii	"int32_t\000"
 2160      325F7400 
 2161              	.LASF64:
 2162 025a 6368616E 		.ascii	"channel\000"
 2162      6E656C00 
 2163              	.LASF62:
 2164 0262 70776D43 		.ascii	"pwmChangePeriod\000"
 2164      68616E67 
 2164      65506572 
 2164      696F6400 
 2165              	.LASF10:
 2166 0272 6C6F6E67 		.ascii	"long unsigned int\000"
 2166      20756E73 
 2166      69676E65 
 2166      6420696E 
 2166      7400
 2167              	.LASF46:
 2168 0284 636C6F63 		.ascii	"clock\000"
 2168      6B00
 2169              	.LASF71:
 2170 028a 2E2E2F2E 		.ascii	"../../os/hal/src/pwm.c\000"
 2170      2E2F6F73 
 2170      2F68616C 
 2170      2F737263 
 2170      2F70776D 
 2171              	.LASF30:
 2172 02a1 5F726573 		.ascii	"_resvd10\000"
 2172      76643130 
 2172      00
 2173              	.LASF40:
 2174 02aa 50574D5F 		.ascii	"PWM_READY\000"
 2174      52454144 
 2174      5900
 2175              	.LASF39:
 2176 02b4 50574D5F 		.ascii	"PWM_STOP\000"
 2176      53544F50 
 2176      00
 2177              	.LASF61:
 2178 02bd 70776D53 		.ascii	"pwmStop\000"
 2178      746F7000 
 2179              	.LASF54:
 2180 02c5 66726571 		.ascii	"frequency\000"
 2180      75656E63 
 2180      7900
 2181              	.LASF53:
 2182 02cf 50574D43 		.ascii	"PWMChannelConfig\000"
 2182      68616E6E 
 2182      656C436F 
 2182      6E666967 
 2182      00
 2183              	.LASF48:
 2184 02e0 70776D6D 		.ascii	"pwmmode_t\000"
 2184      6F64655F 
ARM GAS  C:\Users\LAB_ME~1\AppData\Local\Temp\ccuom4VB.s 			page 42


 2184      7400
 2185              	.LASF73:
 2186 02ea 49544D5F 		.ascii	"ITM_RxBuffer\000"
 2186      52784275 
 2186      66666572 
 2186      00
 2187              	.LASF16:
 2188 02f7 5F726573 		.ascii	"_resvd1\000"
 2188      76643100 
 2189              	.LASF41:
 2190 02ff 70776D73 		.ascii	"pwmstate_t\000"
 2190      74617465 
 2190      5F7400
 2191              	.LASF47:
 2192 030a 70776D63 		.ascii	"pwmcallback_t\000"
 2192      616C6C62 
 2192      61636B5F 
 2192      7400
 2193              	.LASF21:
 2194 0318 5F726573 		.ascii	"_resvd4\000"
 2194      76643400 
 2195              	.LASF52:
 2196 0320 63616C6C 		.ascii	"callback\000"
 2196      6261636B 
 2196      00
 2197              		.ident	"GCC: (Sourcery CodeBench Lite 2012.09-63) 4.7.2"
ARM GAS  C:\Users\LAB_ME~1\AppData\Local\Temp\ccuom4VB.s 			page 43


DEFINED SYMBOLS
                            *ABS*:00000000 pwm.c
C:\Users\LAB_ME~1\AppData\Local\Temp\ccuom4VB.s:19     .text.pwmInit:00000000 $t
C:\Users\LAB_ME~1\AppData\Local\Temp\ccuom4VB.s:25     .text.pwmInit:00000000 pwmInit
C:\Users\LAB_ME~1\AppData\Local\Temp\ccuom4VB.s:41     .text.pwmObjectInit:00000000 $t
C:\Users\LAB_ME~1\AppData\Local\Temp\ccuom4VB.s:47     .text.pwmObjectInit:00000000 pwmObjectInit
C:\Users\LAB_ME~1\AppData\Local\Temp\ccuom4VB.s:66     .text.pwmStart:00000000 $t
C:\Users\LAB_ME~1\AppData\Local\Temp\ccuom4VB.s:72     .text.pwmStart:00000000 pwmStart
C:\Users\LAB_ME~1\AppData\Local\Temp\ccuom4VB.s:127    .text.pwmStop:00000000 $t
C:\Users\LAB_ME~1\AppData\Local\Temp\ccuom4VB.s:133    .text.pwmStop:00000000 pwmStop
C:\Users\LAB_ME~1\AppData\Local\Temp\ccuom4VB.s:181    .text.pwmChangePeriod:00000000 $t
C:\Users\LAB_ME~1\AppData\Local\Temp\ccuom4VB.s:187    .text.pwmChangePeriod:00000000 pwmChangePeriod
C:\Users\LAB_ME~1\AppData\Local\Temp\ccuom4VB.s:228    .text.pwmEnableChannel:00000000 $t
C:\Users\LAB_ME~1\AppData\Local\Temp\ccuom4VB.s:234    .text.pwmEnableChannel:00000000 pwmEnableChannel
C:\Users\LAB_ME~1\AppData\Local\Temp\ccuom4VB.s:274    .text.pwmDisableChannel:00000000 $t
C:\Users\LAB_ME~1\AppData\Local\Temp\ccuom4VB.s:280    .text.pwmDisableChannel:00000000 pwmDisableChannel
                     .debug_frame:00000010 $d

UNDEFINED SYMBOLS
pwm_lld_init
pwm_lld_start
pwm_lld_stop
pwm_lld_enable_channel
pwm_lld_disable_channel
