ARM GAS  C:\Users\LAB_ME~1\AppData\Local\Temp\ccSBjzI2.s 			page 1


   1              		.syntax unified
   2              		.cpu cortex-m4
   3              		.fpu softvfp
   4              		.eabi_attribute 20, 1
   5              		.eabi_attribute 21, 1
   6              		.eabi_attribute 23, 3
   7              		.eabi_attribute 24, 1
   8              		.eabi_attribute 25, 1
   9              		.eabi_attribute 26, 1
  10              		.eabi_attribute 30, 2
  11              		.eabi_attribute 34, 1
  12              		.eabi_attribute 18, 4
  13              		.thumb
  14              		.file	"pwm_lld.c"
  15              		.text
  16              	.Ltext0:
  17              		.cfi_sections	.debug_frame
  18              		.section	.text.pwm_lld_serve_interrupt,"ax",%progbits
  19              		.align	2
  20              		.p2align 4,,15
  21              		.thumb
  22              		.thumb_func
  23              		.type	pwm_lld_serve_interrupt, %function
  24              	pwm_lld_serve_interrupt:
  25              	.LFB118:
  26              		.file 1 "../../os/hal/platforms/STM32/pwm_lld.c"
  27              		.loc 1 104 0
  28              		.cfi_startproc
  29              		@ args = 0, pretend = 0, frame = 0
  30              		@ frame_needed = 0, uses_anonymous_args = 0
  31              	.LVL0:
  32 0000 38B5     		push	{r3, r4, r5, lr}
  33              	.LCFI0:
  34              		.cfi_def_cfa_offset 16
  35              		.cfi_offset 3, -16
  36              		.cfi_offset 4, -12
  37              		.cfi_offset 5, -8
  38              		.cfi_offset 14, -4
  39              		.loc 1 107 0
  40 0002 0369     		ldr	r3, [r0, #16]
  41 0004 1A8A     		ldrh	r2, [r3, #16]
  42              	.LVL1:
  43              		.loc 1 108 0
  44 0006 9C89     		ldrh	r4, [r3, #12]
  45 0008 1440     		ands	r4, r4, r2
  46              	.LVL2:
  47              		.loc 1 110 0
  48 000a 04F00202 		and	r2, r4, #2
  49              		.loc 1 109 0
  50 000e E143     		mvns	r1, r4
  51              		.loc 1 110 0
  52 0010 92B2     		uxth	r2, r2
  53              		.loc 1 104 0
  54 0012 0546     		mov	r5, r0
  55              		.loc 1 109 0
  56 0014 1982     		strh	r1, [r3, #16]	@ movhi
  57              		.loc 1 110 0
ARM GAS  C:\Users\LAB_ME~1\AppData\Local\Temp\ccSBjzI2.s 			page 2


  58 0016 0ABB     		cbnz	r2, .L23
  59              	.LVL3:
  60              	.L2:
  61              		.loc 1 112 0
  62 0018 04F00403 		and	r3, r4, #4
  63 001c 9BB2     		uxth	r3, r3
  64 001e C3B9     		cbnz	r3, .L24
  65              	.L3:
  66              		.loc 1 114 0
  67 0020 04F00803 		and	r3, r4, #8
  68 0024 9BB2     		uxth	r3, r3
  69 0026 7BB9     		cbnz	r3, .L25
  70              	.L4:
  71              		.loc 1 116 0
  72 0028 04F01003 		and	r3, r4, #16
  73 002c 9BB2     		uxth	r3, r3
  74 002e 33B9     		cbnz	r3, .L26
  75              	.L5:
  76              		.loc 1 118 0
  77 0030 E307     		lsls	r3, r4, #31
  78 0032 03D5     		bpl	.L1
  79              		.loc 1 119 0
  80 0034 6B68     		ldr	r3, [r5, #4]
  81 0036 2846     		mov	r0, r5
  82 0038 9B68     		ldr	r3, [r3, #8]
  83 003a 9847     		blx	r3
  84              	.LVL4:
  85              	.L1:
  86 003c 38BD     		pop	{r3, r4, r5, pc}
  87              	.L26:
  88              		.loc 1 117 0
  89 003e 6B68     		ldr	r3, [r5, #4]
  90 0040 2846     		mov	r0, r5
  91 0042 9B6A     		ldr	r3, [r3, #40]
  92 0044 9847     		blx	r3
  93              	.LVL5:
  94 0046 F3E7     		b	.L5
  95              	.L25:
  96              		.loc 1 115 0
  97 0048 6B68     		ldr	r3, [r5, #4]
  98 004a 2846     		mov	r0, r5
  99 004c 1B6A     		ldr	r3, [r3, #32]
 100 004e 9847     		blx	r3
 101              	.LVL6:
 102 0050 EAE7     		b	.L4
 103              	.L24:
 104              		.loc 1 113 0
 105 0052 6B68     		ldr	r3, [r5, #4]
 106 0054 2846     		mov	r0, r5
 107 0056 9B69     		ldr	r3, [r3, #24]
 108 0058 9847     		blx	r3
 109              	.LVL7:
 110 005a E1E7     		b	.L3
 111              	.LVL8:
 112              	.L23:
 113              		.loc 1 111 0
 114 005c 4368     		ldr	r3, [r0, #4]
ARM GAS  C:\Users\LAB_ME~1\AppData\Local\Temp\ccSBjzI2.s 			page 3


 115 005e 1B69     		ldr	r3, [r3, #16]
 116 0060 9847     		blx	r3
 117              	.LVL9:
 118 0062 D9E7     		b	.L2
 119              		.cfi_endproc
 120              	.LFE118:
 121              		.size	pwm_lld_serve_interrupt, .-pwm_lld_serve_interrupt
 122 0064 AFF30080 		.section	.text.VectorB4,"ax",%progbits
 122      AFF30080 
 122      AFF30080 
 123              		.align	2
 124              		.p2align 4,,15
 125              		.global	VectorB4
 126              		.thumb
 127              		.thumb_func
 128              		.type	VectorB4, %function
 129              	VectorB4:
 130              	.LFB119:
 131              		.loc 1 209 0
 132              		.cfi_startproc
 133              		@ args = 0, pretend = 0, frame = 0
 134              		@ frame_needed = 0, uses_anonymous_args = 0
 135 0000 08B5     		push	{r3, lr}
 136              	.LCFI1:
 137              		.cfi_def_cfa_offset 8
 138              		.cfi_offset 3, -8
 139              		.cfi_offset 14, -4
 140              		.loc 1 213 0
 141 0002 0348     		ldr	r0, .L28
 142 0004 FFF7FEFF 		bl	pwm_lld_serve_interrupt
 143              	.LVL10:
 144              		.loc 1 216 0
 145 0008 BDE80840 		pop	{r3, lr}
 146              		.loc 1 215 0
 147 000c FFF7FEBF 		b	_port_irq_epilogue
 148              	.LVL11:
 149              	.L29:
 150              		.align	2
 151              	.L28:
 152 0010 00000000 		.word	.LANCHOR0
 153              		.cfi_endproc
 154              	.LFE119:
 155              		.size	VectorB4, .-VectorB4
 156 0014 AFF30080 		.section	.text.VectorB8,"ax",%progbits
 156      AFF30080 
 156      AFF30080 
 157              		.align	2
 158              		.p2align 4,,15
 159              		.global	VectorB8
 160              		.thumb
 161              		.thumb_func
 162              		.type	VectorB8, %function
 163              	VectorB8:
 164              	.LFB120:
 165              		.loc 1 228 0
 166              		.cfi_startproc
 167              		@ args = 0, pretend = 0, frame = 0
ARM GAS  C:\Users\LAB_ME~1\AppData\Local\Temp\ccSBjzI2.s 			page 4


 168              		@ frame_needed = 0, uses_anonymous_args = 0
 169 0000 08B5     		push	{r3, lr}
 170              	.LCFI2:
 171              		.cfi_def_cfa_offset 8
 172              		.cfi_offset 3, -8
 173              		.cfi_offset 14, -4
 174              		.loc 1 232 0
 175 0002 0348     		ldr	r0, .L31
 176 0004 FFF7FEFF 		bl	pwm_lld_serve_interrupt
 177              	.LVL12:
 178              		.loc 1 235 0
 179 0008 BDE80840 		pop	{r3, lr}
 180              		.loc 1 234 0
 181 000c FFF7FEBF 		b	_port_irq_epilogue
 182              	.LVL13:
 183              	.L32:
 184              		.align	2
 185              	.L31:
 186 0010 00000000 		.word	.LANCHOR1
 187              		.cfi_endproc
 188              	.LFE120:
 189              		.size	VectorB8, .-VectorB8
 190 0014 AFF30080 		.section	.text.pwm_lld_init,"ax",%progbits
 190      AFF30080 
 190      AFF30080 
 191              		.align	2
 192              		.p2align 4,,15
 193              		.global	pwm_lld_init
 194              		.thumb
 195              		.thumb_func
 196              		.type	pwm_lld_init, %function
 197              	pwm_lld_init:
 198              	.LFB121:
 199              		.loc 1 320 0
 200              		.cfi_startproc
 201              		@ args = 0, pretend = 0, frame = 0
 202              		@ frame_needed = 0, uses_anonymous_args = 0
 203 0000 38B5     		push	{r3, r4, r5, lr}
 204              	.LCFI3:
 205              		.cfi_def_cfa_offset 16
 206              		.cfi_offset 3, -16
 207              		.cfi_offset 4, -12
 208              		.cfi_offset 5, -8
 209              		.cfi_offset 14, -4
 210              		.loc 1 336 0
 211 0002 064D     		ldr	r5, .L34
 212              		.loc 1 342 0
 213 0004 064C     		ldr	r4, .L34+4
 214              		.loc 1 336 0
 215 0006 2846     		mov	r0, r5
 216 0008 FFF7FEFF 		bl	pwmObjectInit
 217              	.LVL14:
 218              		.loc 1 337 0
 219 000c 054B     		ldr	r3, .L34+8
 220              		.loc 1 342 0
 221 000e 2046     		mov	r0, r4
 222              		.loc 1 337 0
ARM GAS  C:\Users\LAB_ME~1\AppData\Local\Temp\ccSBjzI2.s 			page 5


 223 0010 2B61     		str	r3, [r5, #16]
 224              		.loc 1 342 0
 225 0012 FFF7FEFF 		bl	pwmObjectInit
 226              	.LVL15:
 227              		.loc 1 343 0
 228 0016 044B     		ldr	r3, .L34+12
 229 0018 2361     		str	r3, [r4, #16]
 230 001a 38BD     		pop	{r3, r4, r5, pc}
 231              	.L35:
 232              		.align	2
 233              	.L34:
 234 001c 00000000 		.word	.LANCHOR0
 235 0020 00000000 		.word	.LANCHOR1
 236 0024 00040040 		.word	1073742848
 237 0028 00080040 		.word	1073743872
 238              		.cfi_endproc
 239              	.LFE121:
 240              		.size	pwm_lld_init, .-pwm_lld_init
 241 002c AFF30080 		.section	.text.pwm_lld_start,"ax",%progbits
 242              		.align	2
 243              		.p2align 4,,15
 244              		.global	pwm_lld_start
 245              		.thumb
 246              		.thumb_func
 247              		.type	pwm_lld_start, %function
 248              	pwm_lld_start:
 249              	.LFB122:
 250              		.loc 1 368 0
 251              		.cfi_startproc
 252              		@ args = 0, pretend = 0, frame = 0
 253              		@ frame_needed = 0, uses_anonymous_args = 0
 254              	.LVL16:
 255              		.loc 1 372 0
 256 0000 0378     		ldrb	r3, [r0, #0]	@ zero_extendqisi2
 257 0002 012B     		cmp	r3, #1
 258              		.loc 1 368 0
 259 0004 70B5     		push	{r4, r5, r6, lr}
 260              	.LCFI4:
 261              		.cfi_def_cfa_offset 16
 262              		.cfi_offset 4, -16
 263              		.cfi_offset 5, -12
 264              		.cfi_offset 6, -8
 265              		.cfi_offset 14, -4
 266              		.loc 1 368 0
 267 0006 0446     		mov	r4, r0
 268              		.loc 1 372 0
 269 0008 5ED0     		beq	.L65
 270              		.loc 1 447 0
 271 000a 0369     		ldr	r3, [r0, #16]
 272 000c 0022     		movs	r2, #0
 273 000e 1A80     		strh	r2, [r3, #0]	@ movhi
 274              		.loc 1 448 0
 275 0010 9A81     		strh	r2, [r3, #12]	@ movhi
 276              		.loc 1 449 0
 277 0012 1A82     		strh	r2, [r3, #16]	@ movhi
 278              		.loc 1 450 0
 279 0014 5A63     		str	r2, [r3, #52]
ARM GAS  C:\Users\LAB_ME~1\AppData\Local\Temp\ccSBjzI2.s 			page 6


 280              		.loc 1 451 0
 281 0016 9A63     		str	r2, [r3, #56]
 282              		.loc 1 452 0
 283 0018 DA63     		str	r2, [r3, #60]
 284              		.loc 1 453 0
 285 001a 1A64     		str	r2, [r3, #64]
 286              		.loc 1 454 0
 287 001c 5A62     		str	r2, [r3, #36]
 288              	.LVL17:
 289              	.L40:
 290              		.loc 1 458 0
 291 001e 6168     		ldr	r1, [r4, #4]
 292              	.LVL18:
 293 0020 E668     		ldr	r6, [r4, #12]
 294              		.loc 1 463 0
 295 0022 2589     		ldrh	r5, [r4, #8]
 296              		.loc 1 458 0
 297 0024 0868     		ldr	r0, [r1, #0]
 298              		.loc 1 468 0
 299 0026 CA68     		ldr	r2, [r1, #12]
 300              		.loc 1 464 0
 301 0028 8C8D     		ldrh	r4, [r1, #44]
 302              	.LVL19:
 303              		.loc 1 463 0
 304 002a 013D     		subs	r5, r5, #1
 305              		.loc 1 458 0
 306 002c B6FBF0F0 		udiv	r0, r6, r0
 307              		.loc 1 468 0
 308 0030 02F00F02 		and	r2, r2, #15
 309              		.loc 1 458 0
 310 0034 0138     		subs	r0, r0, #1
 311              	.LVL20:
 312              		.loc 1 463 0
 313 0036 ADB2     		uxth	r5, r5
 314              		.loc 1 468 0
 315 0038 012A     		cmp	r2, #1
 316              		.loc 1 462 0
 317 003a 1885     		strh	r0, [r3, #40]	@ movhi
 318              		.loc 1 463 0
 319 003c DD62     		str	r5, [r3, #44]
 320              		.loc 1 464 0
 321 003e 9C80     		strh	r4, [r3, #4]	@ movhi
 322              	.LVL21:
 323              		.loc 1 468 0
 324 0040 03D0     		beq	.L41
 325              		.loc 1 467 0
 326 0042 022A     		cmp	r2, #2
 327 0044 0CBF     		ite	eq
 328 0046 0322     		moveq	r2, #3
 329 0048 0022     		movne	r2, #0
 330              	.L41:
 331              	.LVL22:
 332              		.loc 1 476 0
 333 004a 4869     		ldr	r0, [r1, #20]
 334              	.LVL23:
 335 004c 00F00F00 		and	r0, r0, #15
 336 0050 0128     		cmp	r0, #1
ARM GAS  C:\Users\LAB_ME~1\AppData\Local\Temp\ccSBjzI2.s 			page 7


 337 0052 1ED0     		beq	.L45
 338 0054 0228     		cmp	r0, #2
 339 0056 1AD0     		beq	.L66
 340              		.loc 1 484 0
 341 0058 C869     		ldr	r0, [r1, #28]
 342 005a 00F00F00 		and	r0, r0, #15
 343 005e 0128     		cmp	r0, #1
 344 0060 1ED0     		beq	.L48
 345              	.LVL24:
 346              	.L69:
 347 0062 0228     		cmp	r0, #2
 348 0064 2BD0     		beq	.L67
 349              	.LVL25:
 350              		.loc 1 492 0
 351 0066 486A     		ldr	r0, [r1, #36]
 352 0068 00F00F00 		and	r0, r0, #15
 353 006c 0128     		cmp	r0, #1
 354 006e 1ED0     		beq	.L51
 355              	.LVL26:
 356              	.L70:
 357 0070 0228     		cmp	r0, #2
 358 0072 1FD0     		beq	.L68
 359              	.L50:
 360              	.LVL27:
 361              		.loc 1 539 0
 362 0074 8968     		ldr	r1, [r1, #8]
 363              	.LVL28:
 364              		.loc 1 537 0
 365 0076 1A84     		strh	r2, [r3, #32]	@ movhi
 366              		.loc 1 539 0
 367 0078 0A1C     		adds	r2, r1, #0
 368              	.LVL29:
 369 007a 18BF     		it	ne
 370 007c 0122     		movne	r2, #1
 371              		.loc 1 538 0
 372 007e 0121     		movs	r1, #1
 373 0080 9982     		strh	r1, [r3, #20]	@ movhi
 374              		.loc 1 539 0
 375 0082 9A81     		strh	r2, [r3, #12]	@ movhi
 376              		.loc 1 540 0
 377 0084 0022     		movs	r2, #0
 378 0086 1A82     		strh	r2, [r3, #16]	@ movhi
 379              		.loc 1 549 0
 380 0088 8522     		movs	r2, #133
 381 008a 1A80     		strh	r2, [r3, #0]	@ movhi
 382 008c 70BD     		pop	{r4, r5, r6, pc}
 383              	.LVL30:
 384              	.L66:
 385              		.loc 1 478 0
 386 008e 42F02002 		orr	r2, r2, #32
 387              	.LVL31:
 388              	.L45:
 389              		.loc 1 484 0
 390 0092 C869     		ldr	r0, [r1, #28]
 391 0094 00F00F00 		and	r0, r0, #15
 392 0098 0128     		cmp	r0, #1
 393              		.loc 1 480 0
ARM GAS  C:\Users\LAB_ME~1\AppData\Local\Temp\ccSBjzI2.s 			page 8


 394 009a 42F01002 		orr	r2, r2, #16
 395              	.LVL32:
 396              		.loc 1 484 0
 397 009e E0D1     		bne	.L69
 398              	.LVL33:
 399              	.L48:
 400              		.loc 1 488 0
 401 00a0 42F48072 		orr	r2, r2, #256
 402              	.LVL34:
 403              	.L71:
 404              		.loc 1 492 0
 405 00a4 486A     		ldr	r0, [r1, #36]
 406 00a6 00F00F00 		and	r0, r0, #15
 407 00aa 0128     		cmp	r0, #1
 408 00ac E0D1     		bne	.L70
 409              	.LVL35:
 410              	.L51:
 411              		.loc 1 496 0
 412 00ae 42F48052 		orr	r2, r2, #4096
 413              	.LVL36:
 414 00b2 DFE7     		b	.L50
 415              	.LVL37:
 416              	.L68:
 417              		.loc 1 494 0
 418 00b4 42F40052 		orr	r2, r2, #8192
 419              	.LVL38:
 420              		.loc 1 496 0
 421 00b8 42F48052 		orr	r2, r2, #4096
 422              	.LVL39:
 423 00bc DAE7     		b	.L50
 424              	.LVL40:
 425              	.L67:
 426              		.loc 1 486 0
 427 00be 42F40072 		orr	r2, r2, #512
 428              	.LVL41:
 429              		.loc 1 488 0
 430 00c2 42F48072 		orr	r2, r2, #256
 431              	.LVL42:
 432 00c6 EDE7     		b	.L71
 433              	.LVL43:
 434              	.L65:
 435              		.loc 1 395 0
 436 00c8 134B     		ldr	r3, .L74
 437 00ca 9842     		cmp	r0, r3
 438 00cc 08D0     		beq	.L72
 439              		.loc 1 404 0
 440 00ce 134B     		ldr	r3, .L74+4
 441 00d0 9842     		cmp	r0, r3
 442 00d2 17D0     		beq	.L73
 443              	.LVL44:
 444              	.L39:
 445              		.loc 1 436 0
 446 00d4 2369     		ldr	r3, [r4, #16]
 447 00d6 46F66802 		movw	r2, #26728
 448 00da 1A83     		strh	r2, [r3, #24]	@ movhi
 449              		.loc 1 440 0
 450 00dc 9A83     		strh	r2, [r3, #28]	@ movhi
ARM GAS  C:\Users\LAB_ME~1\AppData\Local\Temp\ccSBjzI2.s 			page 9


 451 00de 9EE7     		b	.L40
 452              	.LVL45:
 453              	.L72:
 454              		.loc 1 396 0
 455 00e0 0F4B     		ldr	r3, .L74+8
 456 00e2 1A6C     		ldr	r2, [r3, #64]
 457 00e4 42F00202 		orr	r2, r2, #2
 458 00e8 1A64     		str	r2, [r3, #64]
 459              		.loc 1 397 0
 460 00ea 1A6A     		ldr	r2, [r3, #32]
 461              		.loc 1 398 0
 462 00ec 1D20     		movs	r0, #29
 463              	.LVL46:
 464              		.loc 1 397 0
 465 00ee 42F00202 		orr	r2, r2, #2
 466              	.L64:
 467              		.loc 1 406 0
 468 00f2 1A62     		str	r2, [r3, #32]
 469 00f4 0022     		movs	r2, #0
 470 00f6 1A62     		str	r2, [r3, #32]
 471              		.loc 1 407 0
 472 00f8 7021     		movs	r1, #112
 473 00fa FFF7FEFF 		bl	nvicEnableVector
 474              	.LVL47:
 475              		.loc 1 409 0
 476 00fe 094B     		ldr	r3, .L74+12
 477 0100 E360     		str	r3, [r4, #12]
 478 0102 E7E7     		b	.L39
 479              	.LVL48:
 480              	.L73:
 481              		.loc 1 405 0
 482 0104 064B     		ldr	r3, .L74+8
 483 0106 1A6C     		ldr	r2, [r3, #64]
 484 0108 42F00402 		orr	r2, r2, #4
 485 010c 1A64     		str	r2, [r3, #64]
 486              		.loc 1 406 0
 487 010e 1A6A     		ldr	r2, [r3, #32]
 488              		.loc 1 407 0
 489 0110 1E20     		movs	r0, #30
 490              	.LVL49:
 491              		.loc 1 406 0
 492 0112 42F00402 		orr	r2, r2, #4
 493 0116 ECE7     		b	.L64
 494              	.L75:
 495              		.align	2
 496              	.L74:
 497 0118 00000000 		.word	.LANCHOR0
 498 011c 00000000 		.word	.LANCHOR1
 499 0120 00380240 		.word	1073887232
 500 0124 00BD0105 		.word	84000000
 501              		.cfi_endproc
 502              	.LFE122:
 503              		.size	pwm_lld_start, .-pwm_lld_start
 504 0128 AFF30080 		.section	.text.pwm_lld_stop,"ax",%progbits
 504      AFF30080 
 505              		.align	2
 506              		.p2align 4,,15
ARM GAS  C:\Users\LAB_ME~1\AppData\Local\Temp\ccSBjzI2.s 			page 10


 507              		.global	pwm_lld_stop
 508              		.thumb
 509              		.thumb_func
 510              		.type	pwm_lld_stop, %function
 511              	pwm_lld_stop:
 512              	.LFB123:
 513              		.loc 1 559 0
 514              		.cfi_startproc
 515              		@ args = 0, pretend = 0, frame = 0
 516              		@ frame_needed = 0, uses_anonymous_args = 0
 517              	.LVL50:
 518 0000 08B5     		push	{r3, lr}
 519              	.LCFI5:
 520              		.cfi_def_cfa_offset 8
 521              		.cfi_offset 3, -8
 522              		.cfi_offset 14, -4
 523              		.loc 1 562 0
 524 0002 0378     		ldrb	r3, [r0, #0]	@ zero_extendqisi2
 525 0004 022B     		cmp	r3, #2
 526 0006 00D0     		beq	.L81
 527              	.LVL51:
 528              	.L76:
 529 0008 08BD     		pop	{r3, pc}
 530              	.LVL52:
 531              	.L81:
 532              		.loc 1 563 0
 533 000a 0369     		ldr	r3, [r0, #16]
 534 000c 0022     		movs	r2, #0
 535 000e 1A80     		strh	r2, [r3, #0]	@ movhi
 536              		.loc 1 564 0
 537 0010 9A81     		strh	r2, [r3, #12]	@ movhi
 538              		.loc 1 565 0
 539 0012 1A82     		strh	r2, [r3, #16]	@ movhi
 540              		.loc 1 584 0
 541 0014 0B4B     		ldr	r3, .L83
 542 0016 9842     		cmp	r0, r3
 543 0018 0BD0     		beq	.L82
 544              		.loc 1 590 0
 545 001a 0B4B     		ldr	r3, .L83+4
 546 001c 9842     		cmp	r0, r3
 547 001e F3D1     		bne	.L76
 548              		.loc 1 591 0
 549 0020 1E20     		movs	r0, #30
 550              	.LVL53:
 551 0022 FFF7FEFF 		bl	nvicDisableVector
 552              	.LVL54:
 553              		.loc 1 592 0
 554 0026 094B     		ldr	r3, .L83+8
 555 0028 1A6C     		ldr	r2, [r3, #64]
 556 002a 22F00402 		bic	r2, r2, #4
 557 002e 1A64     		str	r2, [r3, #64]
 558 0030 EAE7     		b	.L76
 559              	.LVL55:
 560              	.L82:
 561              		.loc 1 585 0
 562 0032 1D20     		movs	r0, #29
 563              	.LVL56:
ARM GAS  C:\Users\LAB_ME~1\AppData\Local\Temp\ccSBjzI2.s 			page 11


 564 0034 FFF7FEFF 		bl	nvicDisableVector
 565              	.LVL57:
 566              		.loc 1 586 0
 567 0038 044B     		ldr	r3, .L83+8
 568 003a 1A6C     		ldr	r2, [r3, #64]
 569 003c 22F00202 		bic	r2, r2, #2
 570 0040 1A64     		str	r2, [r3, #64]
 571 0042 08BD     		pop	{r3, pc}
 572              	.L84:
 573              		.align	2
 574              	.L83:
 575 0044 00000000 		.word	.LANCHOR0
 576 0048 00000000 		.word	.LANCHOR1
 577 004c 00380240 		.word	1073887232
 578              		.cfi_endproc
 579              	.LFE123:
 580              		.size	pwm_lld_stop, .-pwm_lld_stop
 581              		.section	.text.pwm_lld_enable_channel,"ax",%progbits
 582              		.align	2
 583              		.p2align 4,,15
 584              		.global	pwm_lld_enable_channel
 585              		.thumb
 586              		.thumb_func
 587              		.type	pwm_lld_enable_channel, %function
 588              	pwm_lld_enable_channel:
 589              	.LFB124:
 590              		.loc 1 625 0
 591              		.cfi_startproc
 592              		@ args = 0, pretend = 0, frame = 0
 593              		@ frame_needed = 0, uses_anonymous_args = 0
 594              		@ link register save eliminated.
 595              	.LVL58:
 596 0000 10B4     		push	{r4}
 597              	.LCFI6:
 598              		.cfi_def_cfa_offset 4
 599              		.cfi_offset 4, -4
 600              		.loc 1 630 0
 601 0002 4468     		ldr	r4, [r0, #4]
 602              		.loc 1 627 0
 603 0004 0369     		ldr	r3, [r0, #16]
 604              		.loc 1 630 0
 605 0006 04EBC100 		add	r0, r4, r1, lsl #3
 606              	.LVL59:
 607              		.loc 1 627 0
 608 000a 01F10C04 		add	r4, r1, #12
 609 000e 03EB8404 		add	r4, r3, r4, lsl #2
 610              		.loc 1 630 0
 611 0012 0069     		ldr	r0, [r0, #16]
 612              		.loc 1 627 0
 613 0014 6260     		str	r2, [r4, #4]
 614              		.loc 1 630 0
 615 0016 58B1     		cbz	r0, .L85
 616              	.LBB2:
 617              		.loc 1 631 0
 618 0018 9A89     		ldrh	r2, [r3, #12]
 619              	.LVL60:
 620              		.loc 1 634 0
ARM GAS  C:\Users\LAB_ME~1\AppData\Local\Temp\ccSBjzI2.s 			page 12


 621 001a 0220     		movs	r0, #2
 622              		.loc 1 631 0
 623 001c 92B2     		uxth	r2, r2
 624              	.LVL61:
 625              		.loc 1 634 0
 626 001e 00FA01F1 		lsl	r1, r0, r1
 627              	.LVL62:
 628 0022 1142     		tst	r1, r2
 629 0024 04D1     		bne	.L85
 630              		.loc 1 635 0
 631 0026 89B2     		uxth	r1, r1
 632              		.loc 1 636 0
 633 0028 C843     		mvns	r0, r1
 634              		.loc 1 635 0
 635 002a 1143     		orrs	r1, r1, r2
 636 002c 9981     		strh	r1, [r3, #12]	@ movhi
 637              		.loc 1 636 0
 638 002e 1882     		strh	r0, [r3, #16]	@ movhi
 639              	.LVL63:
 640              	.L85:
 641              	.LBE2:
 642              		.loc 1 639 0
 643 0030 10BC     		pop	{r4}
 644 0032 7047     		bx	lr
 645              		.cfi_endproc
 646              	.LFE124:
 647              		.size	pwm_lld_enable_channel, .-pwm_lld_enable_channel
 648 0034 AFF30080 		.section	.text.pwm_lld_disable_channel,"ax",%progbits
 648      AFF30080 
 648      AFF30080 
 649              		.align	2
 650              		.p2align 4,,15
 651              		.global	pwm_lld_disable_channel
 652              		.thumb
 653              		.thumb_func
 654              		.type	pwm_lld_disable_channel, %function
 655              	pwm_lld_disable_channel:
 656              	.LFB125:
 657              		.loc 1 653 0
 658              		.cfi_startproc
 659              		@ args = 0, pretend = 0, frame = 0
 660              		@ frame_needed = 0, uses_anonymous_args = 0
 661              		@ link register save eliminated.
 662              	.LVL64:
 663              		.loc 1 655 0
 664 0000 0369     		ldr	r3, [r0, #16]
 665 0002 01F10C02 		add	r2, r1, #12
 666 0006 03EB8202 		add	r2, r3, r2, lsl #2
 667 000a 0020     		movs	r0, #0
 668              	.LVL65:
 669 000c 5060     		str	r0, [r2, #4]
 670              		.loc 1 656 0
 671 000e 9A89     		ldrh	r2, [r3, #12]
 672 0010 0220     		movs	r0, #2
 673 0012 92B2     		uxth	r2, r2
 674 0014 00FA01F1 		lsl	r1, r0, r1
 675              	.LVL66:
ARM GAS  C:\Users\LAB_ME~1\AppData\Local\Temp\ccSBjzI2.s 			page 13


 676 0018 22EA0101 		bic	r1, r2, r1
 677 001c 9981     		strh	r1, [r3, #12]	@ movhi
 678 001e 7047     		bx	lr
 679              		.cfi_endproc
 680              	.LFE125:
 681              		.size	pwm_lld_disable_channel, .-pwm_lld_disable_channel
 682              		.global	PWMD4
 683              		.global	PWMD3
 684              		.section	.bss.PWMD3,"aw",%nobits
 685              		.align	2
 686              		.set	.LANCHOR0,. + 0
 687              		.type	PWMD3, %object
 688              		.size	PWMD3, 20
 689              	PWMD3:
 690 0000 00000000 		.space	20
 690      00000000 
 690      00000000 
 690      00000000 
 690      00000000 
 691              		.section	.bss.PWMD4,"aw",%nobits
 692              		.align	2
 693              		.set	.LANCHOR1,. + 0
 694              		.type	PWMD4, %object
 695              		.size	PWMD4, 20
 696              	PWMD4:
 697 0000 00000000 		.space	20
 697      00000000 
 697      00000000 
 697      00000000 
 697      00000000 
 698              		.text
 699              	.Letext0:
 700              		.file 2 "c:\\program files (x86)\\codesourcery\\sourcery_codebench_lite_for_arm_eabi\\bin\\../lib/
 701              		.file 3 "../../os/hal/platforms/STM32F4xx/stm32f4xx.h"
 702              		.file 4 "../../os/hal/platforms/STM32/stm32.h"
 703              		.file 5 "../../os/hal/include/pwm.h"
 704              		.file 6 "../../os/hal/platforms/STM32/pwm_lld.h"
 705              		.file 7 "../../os/ports/common/ARMCMx/CMSIS/include/core_cm4.h"
 706              		.file 8 "../../os/ports/common/ARMCMx/nvic.h"
 707              		.file 9 "../../os/ports/GCC/ARMCMx/chcore_v7m.h"
 708              		.section	.debug_info,"",%progbits
 709              	.Ldebug_info0:
 710 0000 570B0000 		.4byte	0xb57
 711 0004 0200     		.2byte	0x2
 712 0006 00000000 		.4byte	.Ldebug_abbrev0
 713 000a 04       		.byte	0x4
 714 000b 01       		.uleb128 0x1
 715 000c 2D050000 		.4byte	.LASF192
 716 0010 01       		.byte	0x1
 717 0011 42050000 		.4byte	.LASF193
 718 0015 11050000 		.4byte	.LASF194
 719 0019 00000000 		.4byte	.Ldebug_ranges0+0
 720 001d 00000000 		.4byte	0
 721 0021 00000000 		.4byte	0
 722 0025 00000000 		.4byte	.Ldebug_line0
 723 0029 02       		.uleb128 0x2
 724 002a 04       		.byte	0x4
ARM GAS  C:\Users\LAB_ME~1\AppData\Local\Temp\ccSBjzI2.s 			page 14


 725 002b 07       		.byte	0x7
 726 002c 0D030000 		.4byte	.LASF0
 727 0030 03       		.uleb128 0x3
 728 0031 04       		.byte	0x4
 729 0032 05       		.byte	0x5
 730 0033 696E7400 		.ascii	"int\000"
 731 0037 02       		.uleb128 0x2
 732 0038 01       		.byte	0x1
 733 0039 06       		.byte	0x6
 734 003a 84010000 		.4byte	.LASF1
 735 003e 04       		.uleb128 0x4
 736 003f 48080000 		.4byte	.LASF4
 737 0043 02       		.byte	0x2
 738 0044 2A       		.byte	0x2a
 739 0045 49000000 		.4byte	0x49
 740 0049 02       		.uleb128 0x2
 741 004a 01       		.byte	0x1
 742 004b 08       		.byte	0x8
 743 004c F7050000 		.4byte	.LASF2
 744 0050 02       		.uleb128 0x2
 745 0051 02       		.byte	0x2
 746 0052 05       		.byte	0x5
 747 0053 3E060000 		.4byte	.LASF3
 748 0057 04       		.uleb128 0x4
 749 0058 3F020000 		.4byte	.LASF5
 750 005c 02       		.byte	0x2
 751 005d 36       		.byte	0x36
 752 005e 62000000 		.4byte	0x62
 753 0062 02       		.uleb128 0x2
 754 0063 02       		.byte	0x2
 755 0064 07       		.byte	0x7
 756 0065 75060000 		.4byte	.LASF6
 757 0069 04       		.uleb128 0x4
 758 006a EF050000 		.4byte	.LASF7
 759 006e 02       		.byte	0x2
 760 006f 4F       		.byte	0x4f
 761 0070 74000000 		.4byte	0x74
 762 0074 02       		.uleb128 0x2
 763 0075 04       		.byte	0x4
 764 0076 05       		.byte	0x5
 765 0077 E4010000 		.4byte	.LASF8
 766 007b 04       		.uleb128 0x4
 767 007c CF060000 		.4byte	.LASF9
 768 0080 02       		.byte	0x2
 769 0081 50       		.byte	0x50
 770 0082 86000000 		.4byte	0x86
 771 0086 02       		.uleb128 0x2
 772 0087 04       		.byte	0x4
 773 0088 07       		.byte	0x7
 774 0089 61030000 		.4byte	.LASF10
 775 008d 02       		.uleb128 0x2
 776 008e 08       		.byte	0x8
 777 008f 05       		.byte	0x5
 778 0090 76010000 		.4byte	.LASF11
 779 0094 02       		.uleb128 0x2
 780 0095 08       		.byte	0x8
 781 0096 07       		.byte	0x7
ARM GAS  C:\Users\LAB_ME~1\AppData\Local\Temp\ccSBjzI2.s 			page 15


 782 0097 E6000000 		.4byte	.LASF12
 783 009b 05       		.uleb128 0x5
 784 009c 7B000000 		.4byte	0x7b
 785 00a0 02       		.uleb128 0x2
 786 00a1 04       		.byte	0x4
 787 00a2 07       		.byte	0x7
 788 00a3 74040000 		.4byte	.LASF13
 789 00a7 02       		.uleb128 0x2
 790 00a8 01       		.byte	0x1
 791 00a9 08       		.byte	0x8
 792 00aa 38070000 		.4byte	.LASF14
 793 00ae 06       		.uleb128 0x6
 794 00af 6F040000 		.4byte	.LASF195
 795 00b3 01       		.byte	0x1
 796 00b4 03       		.byte	0x3
 797 00b5 8C       		.byte	0x8c
 798 00b6 E9020000 		.4byte	0x2e9
 799 00ba 07       		.uleb128 0x7
 800 00bb 87070000 		.4byte	.LASF15
 801 00bf 72       		.sleb128 -14
 802 00c0 07       		.uleb128 0x7
 803 00c1 3E030000 		.4byte	.LASF16
 804 00c5 74       		.sleb128 -12
 805 00c6 07       		.uleb128 0x7
 806 00c7 CF020000 		.4byte	.LASF17
 807 00cb 75       		.sleb128 -11
 808 00cc 07       		.uleb128 0x7
 809 00cd E4060000 		.4byte	.LASF18
 810 00d1 76       		.sleb128 -10
 811 00d2 07       		.uleb128 0x7
 812 00d3 A3030000 		.4byte	.LASF19
 813 00d7 7B       		.sleb128 -5
 814 00d8 07       		.uleb128 0x7
 815 00d9 CC070000 		.4byte	.LASF20
 816 00dd 7C       		.sleb128 -4
 817 00de 07       		.uleb128 0x7
 818 00df EA020000 		.4byte	.LASF21
 819 00e3 7E       		.sleb128 -2
 820 00e4 07       		.uleb128 0x7
 821 00e5 3D040000 		.4byte	.LASF22
 822 00e9 7F       		.sleb128 -1
 823 00ea 07       		.uleb128 0x7
 824 00eb 31010000 		.4byte	.LASF23
 825 00ef 00       		.sleb128 0
 826 00f0 07       		.uleb128 0x7
 827 00f1 25000000 		.4byte	.LASF24
 828 00f5 01       		.sleb128 1
 829 00f6 07       		.uleb128 0x7
 830 00f7 AB070000 		.4byte	.LASF25
 831 00fb 02       		.sleb128 2
 832 00fc 07       		.uleb128 0x7
 833 00fd 23010000 		.4byte	.LASF26
 834 0101 03       		.sleb128 3
 835 0102 07       		.uleb128 0x7
 836 0103 AB060000 		.4byte	.LASF27
 837 0107 04       		.sleb128 4
 838 0108 07       		.uleb128 0x7
ARM GAS  C:\Users\LAB_ME~1\AppData\Local\Temp\ccSBjzI2.s 			page 16


 839 0109 1B090000 		.4byte	.LASF28
 840 010d 05       		.sleb128 5
 841 010e 07       		.uleb128 0x7
 842 010f 19080000 		.4byte	.LASF29
 843 0113 06       		.sleb128 6
 844 0114 07       		.uleb128 0x7
 845 0115 3F090000 		.4byte	.LASF30
 846 0119 07       		.sleb128 7
 847 011a 07       		.uleb128 0x7
 848 011b 88060000 		.4byte	.LASF31
 849 011f 08       		.sleb128 8
 850 0120 07       		.uleb128 0x7
 851 0121 D3040000 		.4byte	.LASF32
 852 0125 09       		.sleb128 9
 853 0126 07       		.uleb128 0x7
 854 0127 25060000 		.4byte	.LASF33
 855 012b 0A       		.sleb128 10
 856 012c 07       		.uleb128 0x7
 857 012d 4F090000 		.4byte	.LASF34
 858 0131 0B       		.sleb128 11
 859 0132 07       		.uleb128 0x7
 860 0133 62070000 		.4byte	.LASF35
 861 0137 0C       		.sleb128 12
 862 0138 07       		.uleb128 0x7
 863 0139 E8040000 		.4byte	.LASF36
 864 013d 0D       		.sleb128 13
 865 013e 07       		.uleb128 0x7
 866 013f 1A030000 		.4byte	.LASF37
 867 0143 0E       		.sleb128 14
 868 0144 07       		.uleb128 0x7
 869 0145 AB040000 		.4byte	.LASF38
 870 0149 0F       		.sleb128 15
 871 014a 07       		.uleb128 0x7
 872 014b 0D020000 		.4byte	.LASF39
 873 014f 10       		.sleb128 16
 874 0150 07       		.uleb128 0x7
 875 0151 2C030000 		.4byte	.LASF40
 876 0155 11       		.sleb128 17
 877 0156 07       		.uleb128 0x7
 878 0157 CB080000 		.4byte	.LASF41
 879 015b 12       		.sleb128 18
 880 015c 07       		.uleb128 0x7
 881 015d D1030000 		.4byte	.LASF42
 882 0161 13       		.sleb128 19
 883 0162 07       		.uleb128 0x7
 884 0163 17000000 		.4byte	.LASF43
 885 0167 14       		.sleb128 20
 886 0168 07       		.uleb128 0x7
 887 0169 CF000000 		.4byte	.LASF44
 888 016d 15       		.sleb128 21
 889 016e 07       		.uleb128 0x7
 890 016f F1080000 		.4byte	.LASF45
 891 0173 16       		.sleb128 22
 892 0174 07       		.uleb128 0x7
 893 0175 1F020000 		.4byte	.LASF46
 894 0179 17       		.sleb128 23
 895 017a 07       		.uleb128 0x7
ARM GAS  C:\Users\LAB_ME~1\AppData\Local\Temp\ccSBjzI2.s 			page 17


 896 017b 05060000 		.4byte	.LASF47
 897 017f 18       		.sleb128 24
 898 0180 07       		.uleb128 0x7
 899 0181 86040000 		.4byte	.LASF48
 900 0185 19       		.sleb128 25
 901 0186 07       		.uleb128 0x7
 902 0187 5D060000 		.4byte	.LASF49
 903 018b 1A       		.sleb128 26
 904 018c 07       		.uleb128 0x7
 905 018d 4A040000 		.4byte	.LASF50
 906 0191 1B       		.sleb128 27
 907 0192 07       		.uleb128 0x7
 908 0193 0F080000 		.4byte	.LASF51
 909 0197 1C       		.sleb128 28
 910 0198 07       		.uleb128 0x7
 911 0199 35090000 		.4byte	.LASF52
 912 019d 1D       		.sleb128 29
 913 019e 07       		.uleb128 0x7
 914 019f 19010000 		.4byte	.LASF53
 915 01a3 1E       		.sleb128 30
 916 01a4 07       		.uleb128 0x7
 917 01a5 71000000 		.4byte	.LASF54
 918 01a9 1F       		.sleb128 31
 919 01aa 07       		.uleb128 0x7
 920 01ab B1080000 		.4byte	.LASF55
 921 01af 20       		.sleb128 32
 922 01b0 07       		.uleb128 0x7
 923 01b1 F0070000 		.4byte	.LASF56
 924 01b5 21       		.sleb128 33
 925 01b6 07       		.uleb128 0x7
 926 01b7 0C010000 		.4byte	.LASF57
 927 01bb 22       		.sleb128 34
 928 01bc 07       		.uleb128 0x7
 929 01bd F6030000 		.4byte	.LASF58
 930 01c1 23       		.sleb128 35
 931 01c2 07       		.uleb128 0x7
 932 01c3 DE040000 		.4byte	.LASF59
 933 01c7 24       		.sleb128 36
 934 01c8 07       		.uleb128 0x7
 935 01c9 24080000 		.4byte	.LASF60
 936 01cd 25       		.sleb128 37
 937 01ce 07       		.uleb128 0x7
 938 01cf D8060000 		.4byte	.LASF61
 939 01d3 26       		.sleb128 38
 940 01d4 07       		.uleb128 0x7
 941 01d5 FD070000 		.4byte	.LASF62
 942 01d9 27       		.sleb128 39
 943 01da 07       		.uleb128 0x7
 944 01db E7030000 		.4byte	.LASF63
 945 01df 28       		.sleb128 40
 946 01e0 07       		.uleb128 0x7
 947 01e1 FD000000 		.4byte	.LASF64
 948 01e5 29       		.sleb128 41
 949 01e6 07       		.uleb128 0x7
 950 01e7 7B020000 		.4byte	.LASF65
 951 01eb 2A       		.sleb128 42
 952 01ec 07       		.uleb128 0x7
ARM GAS  C:\Users\LAB_ME~1\AppData\Local\Temp\ccSBjzI2.s 			page 18


 953 01ed 24040000 		.4byte	.LASF66
 954 01f1 2B       		.sleb128 43
 955 01f2 07       		.uleb128 0x7
 956 01f3 9E020000 		.4byte	.LASF67
 957 01f7 2C       		.sleb128 44
 958 01f8 07       		.uleb128 0x7
 959 01f9 57040000 		.4byte	.LASF68
 960 01fd 2D       		.sleb128 45
 961 01fe 07       		.uleb128 0x7
 962 01ff DD020000 		.4byte	.LASF69
 963 0203 2E       		.sleb128 46
 964 0204 07       		.uleb128 0x7
 965 0205 48020000 		.4byte	.LASF70
 966 0209 2F       		.sleb128 47
 967 020a 07       		.uleb128 0x7
 968 020b E5050000 		.4byte	.LASF71
 969 020f 30       		.sleb128 48
 970 0210 07       		.uleb128 0x7
 971 0211 93030000 		.4byte	.LASF72
 972 0215 31       		.sleb128 49
 973 0216 07       		.uleb128 0x7
 974 0217 C9040000 		.4byte	.LASF73
 975 021b 32       		.sleb128 50
 976 021c 07       		.uleb128 0x7
 977 021d C9050000 		.4byte	.LASF74
 978 0221 33       		.sleb128 51
 979 0222 07       		.uleb128 0x7
 980 0223 70020000 		.4byte	.LASF75
 981 0227 34       		.sleb128 52
 982 0228 07       		.uleb128 0x7
 983 0229 52060000 		.4byte	.LASF76
 984 022d 35       		.sleb128 53
 985 022e 07       		.uleb128 0x7
 986 022f 5A020000 		.4byte	.LASF77
 987 0233 36       		.sleb128 54
 988 0234 07       		.uleb128 0x7
 989 0235 58070000 		.4byte	.LASF78
 990 0239 37       		.sleb128 55
 991 023a 07       		.uleb128 0x7
 992 023b DE070000 		.4byte	.LASF79
 993 023f 38       		.sleb128 56
 994 0240 07       		.uleb128 0x7
 995 0241 D4080000 		.4byte	.LASF80
 996 0245 39       		.sleb128 57
 997 0246 07       		.uleb128 0x7
 998 0247 B4030000 		.4byte	.LASF81
 999 024b 3A       		.sleb128 58
 1000 024c 07       		.uleb128 0x7
 1001 024d 99040000 		.4byte	.LASF82
 1002 0251 3B       		.sleb128 59
 1003 0252 07       		.uleb128 0x7
 1004 0253 D3050000 		.4byte	.LASF83
 1005 0257 3C       		.sleb128 60
 1006 0258 07       		.uleb128 0x7
 1007 0259 7D040000 		.4byte	.LASF84
 1008 025d 3D       		.sleb128 61
 1009 025e 07       		.uleb128 0x7
ARM GAS  C:\Users\LAB_ME~1\AppData\Local\Temp\ccSBjzI2.s 			page 19


 1010 025f 31020000 		.4byte	.LASF85
 1011 0263 3E       		.sleb128 62
 1012 0264 07       		.uleb128 0x7
 1013 0265 FA040000 		.4byte	.LASF86
 1014 0269 3F       		.sleb128 63
 1015 026a 07       		.uleb128 0x7
 1016 026b 2E000000 		.4byte	.LASF87
 1017 026f C000     		.sleb128 64
 1018 0271 07       		.uleb128 0x7
 1019 0272 90010000 		.4byte	.LASF88
 1020 0276 C100     		.sleb128 65
 1021 0278 07       		.uleb128 0x7
 1022 0279 0D090000 		.4byte	.LASF89
 1023 027d C200     		.sleb128 66
 1024 027f 07       		.uleb128 0x7
 1025 0280 C3060000 		.4byte	.LASF90
 1026 0284 C300     		.sleb128 67
 1027 0286 07       		.uleb128 0x7
 1028 0287 8C020000 		.4byte	.LASF91
 1029 028b C400     		.sleb128 68
 1030 028d 07       		.uleb128 0x7
 1031 028e B1010000 		.4byte	.LASF92
 1032 0292 C500     		.sleb128 69
 1033 0294 07       		.uleb128 0x7
 1034 0295 F6020000 		.4byte	.LASF93
 1035 0299 C600     		.sleb128 70
 1036 029b 07       		.uleb128 0x7
 1037 029c BD040000 		.4byte	.LASF94
 1038 02a0 C700     		.sleb128 71
 1039 02a2 07       		.uleb128 0x7
 1040 02a3 54030000 		.4byte	.LASF95
 1041 02a7 C800     		.sleb128 72
 1042 02a9 07       		.uleb128 0x7
 1043 02aa 54000000 		.4byte	.LASF96
 1044 02ae C900     		.sleb128 73
 1045 02b0 07       		.uleb128 0x7
 1046 02b1 7F030000 		.4byte	.LASF97
 1047 02b5 CA00     		.sleb128 74
 1048 02b7 07       		.uleb128 0x7
 1049 02b8 74070000 		.4byte	.LASF98
 1050 02bc CB00     		.sleb128 75
 1051 02be 07       		.uleb128 0x7
 1052 02bf 24090000 		.4byte	.LASF99
 1053 02c3 CC00     		.sleb128 76
 1054 02c5 07       		.uleb128 0x7
 1055 02c6 69050000 		.4byte	.LASF100
 1056 02ca CD00     		.sleb128 77
 1057 02cc 07       		.uleb128 0x7
 1058 02cd 5A080000 		.4byte	.LASF101
 1059 02d1 CE00     		.sleb128 78
 1060 02d3 07       		.uleb128 0x7
 1061 02d4 42070000 		.4byte	.LASF102
 1062 02d8 CF00     		.sleb128 79
 1063 02da 07       		.uleb128 0x7
 1064 02db 30060000 		.4byte	.LASF103
 1065 02df D000     		.sleb128 80
 1066 02e1 07       		.uleb128 0x7
ARM GAS  C:\Users\LAB_ME~1\AppData\Local\Temp\ccSBjzI2.s 			page 20


 1067 02e2 85080000 		.4byte	.LASF104
 1068 02e6 D100     		.sleb128 81
 1069 02e8 00       		.byte	0
 1070 02e9 08       		.uleb128 0x8
 1071 02ea 7B000000 		.4byte	0x7b
 1072 02ee F9020000 		.4byte	0x2f9
 1073 02f2 09       		.uleb128 0x9
 1074 02f3 A0000000 		.4byte	0xa0
 1075 02f7 01       		.byte	0x1
 1076 02f8 00       		.byte	0
 1077 02f9 08       		.uleb128 0x8
 1078 02fa 7B000000 		.4byte	0x7b
 1079 02fe 09030000 		.4byte	0x309
 1080 0302 09       		.uleb128 0x9
 1081 0303 A0000000 		.4byte	0xa0
 1082 0307 03       		.byte	0x3
 1083 0308 00       		.byte	0
 1084 0309 05       		.uleb128 0x5
 1085 030a 57000000 		.4byte	0x57
 1086 030e 05       		.uleb128 0x5
 1087 030f 69000000 		.4byte	0x69
 1088 0313 0A       		.uleb128 0xa
 1089 0314 88       		.byte	0x88
 1090 0315 03       		.byte	0x3
 1091 0316 DB02     		.2byte	0x2db
 1092 0318 E0040000 		.4byte	0x4e0
 1093 031c 0B       		.uleb128 0xb
 1094 031d 435200   		.ascii	"CR\000"
 1095 0320 03       		.byte	0x3
 1096 0321 DD02     		.2byte	0x2dd
 1097 0323 9B000000 		.4byte	0x9b
 1098 0327 02       		.byte	0x2
 1099 0328 23       		.byte	0x23
 1100 0329 00       		.uleb128 0
 1101 032a 0C       		.uleb128 0xc
 1102 032b 68020000 		.4byte	.LASF105
 1103 032f 03       		.byte	0x3
 1104 0330 DE02     		.2byte	0x2de
 1105 0332 9B000000 		.4byte	0x9b
 1106 0336 02       		.byte	0x2
 1107 0337 23       		.byte	0x23
 1108 0338 04       		.uleb128 0x4
 1109 0339 0C       		.uleb128 0xc
 1110 033a 8E080000 		.4byte	.LASF106
 1111 033e 03       		.byte	0x3
 1112 033f DF02     		.2byte	0x2df
 1113 0341 9B000000 		.4byte	0x9b
 1114 0345 02       		.byte	0x2
 1115 0346 23       		.byte	0x23
 1116 0347 08       		.uleb128 0x8
 1117 0348 0B       		.uleb128 0xb
 1118 0349 43495200 		.ascii	"CIR\000"
 1119 034d 03       		.byte	0x3
 1120 034e E002     		.2byte	0x2e0
 1121 0350 9B000000 		.4byte	0x9b
 1122 0354 02       		.byte	0x2
 1123 0355 23       		.byte	0x23
ARM GAS  C:\Users\LAB_ME~1\AppData\Local\Temp\ccSBjzI2.s 			page 21


 1124 0356 0C       		.uleb128 0xc
 1125 0357 0C       		.uleb128 0xc
 1126 0358 9E010000 		.4byte	.LASF107
 1127 035c 03       		.byte	0x3
 1128 035d E102     		.2byte	0x2e1
 1129 035f 9B000000 		.4byte	0x9b
 1130 0363 02       		.byte	0x2
 1131 0364 23       		.byte	0x23
 1132 0365 10       		.uleb128 0x10
 1133 0366 0C       		.uleb128 0xc
 1134 0367 C6020000 		.4byte	.LASF108
 1135 036b 03       		.byte	0x3
 1136 036c E202     		.2byte	0x2e2
 1137 036e 9B000000 		.4byte	0x9b
 1138 0372 02       		.byte	0x2
 1139 0373 23       		.byte	0x23
 1140 0374 14       		.uleb128 0x14
 1141 0375 0C       		.uleb128 0xc
 1142 0376 DE030000 		.4byte	.LASF109
 1143 037a 03       		.byte	0x3
 1144 037b E302     		.2byte	0x2e3
 1145 037d 9B000000 		.4byte	0x9b
 1146 0381 02       		.byte	0x2
 1147 0382 23       		.byte	0x23
 1148 0383 18       		.uleb128 0x18
 1149 0384 0C       		.uleb128 0xc
 1150 0385 83050000 		.4byte	.LASF110
 1151 0389 03       		.byte	0x3
 1152 038a E402     		.2byte	0x2e4
 1153 038c 7B000000 		.4byte	0x7b
 1154 0390 02       		.byte	0x2
 1155 0391 23       		.byte	0x23
 1156 0392 1C       		.uleb128 0x1c
 1157 0393 0C       		.uleb128 0xc
 1158 0394 39050000 		.4byte	.LASF111
 1159 0398 03       		.byte	0x3
 1160 0399 E502     		.2byte	0x2e5
 1161 039b 9B000000 		.4byte	0x9b
 1162 039f 02       		.byte	0x2
 1163 03a0 23       		.byte	0x23
 1164 03a1 20       		.uleb128 0x20
 1165 03a2 0C       		.uleb128 0xc
 1166 03a3 04020000 		.4byte	.LASF112
 1167 03a7 03       		.byte	0x3
 1168 03a8 E602     		.2byte	0x2e6
 1169 03aa 9B000000 		.4byte	0x9b
 1170 03ae 02       		.byte	0x2
 1171 03af 23       		.byte	0x23
 1172 03b0 24       		.uleb128 0x24
 1173 03b1 0C       		.uleb128 0xc
 1174 03b2 8D050000 		.4byte	.LASF113
 1175 03b6 03       		.byte	0x3
 1176 03b7 E702     		.2byte	0x2e7
 1177 03b9 E9020000 		.4byte	0x2e9
 1178 03bd 02       		.byte	0x2
 1179 03be 23       		.byte	0x23
 1180 03bf 28       		.uleb128 0x28
ARM GAS  C:\Users\LAB_ME~1\AppData\Local\Temp\ccSBjzI2.s 			page 22


 1181 03c0 0C       		.uleb128 0xc
 1182 03c1 78080000 		.4byte	.LASF114
 1183 03c5 03       		.byte	0x3
 1184 03c6 E802     		.2byte	0x2e8
 1185 03c8 9B000000 		.4byte	0x9b
 1186 03cc 02       		.byte	0x2
 1187 03cd 23       		.byte	0x23
 1188 03ce 30       		.uleb128 0x30
 1189 03cf 0C       		.uleb128 0xc
 1190 03d0 A3070000 		.4byte	.LASF115
 1191 03d4 03       		.byte	0x3
 1192 03d5 E902     		.2byte	0x2e9
 1193 03d7 9B000000 		.4byte	0x9b
 1194 03db 02       		.byte	0x2
 1195 03dc 23       		.byte	0x23
 1196 03dd 34       		.uleb128 0x34
 1197 03de 0C       		.uleb128 0xc
 1198 03df A3060000 		.4byte	.LASF116
 1199 03e3 03       		.byte	0x3
 1200 03e4 EA02     		.2byte	0x2ea
 1201 03e6 9B000000 		.4byte	0x9b
 1202 03ea 02       		.byte	0x2
 1203 03eb 23       		.byte	0x23
 1204 03ec 38       		.uleb128 0x38
 1205 03ed 0C       		.uleb128 0xc
 1206 03ee 97050000 		.4byte	.LASF117
 1207 03f2 03       		.byte	0x3
 1208 03f3 EB02     		.2byte	0x2eb
 1209 03f5 7B000000 		.4byte	0x7b
 1210 03f9 02       		.byte	0x2
 1211 03fa 23       		.byte	0x23
 1212 03fb 3C       		.uleb128 0x3c
 1213 03fc 0C       		.uleb128 0xc
 1214 03fd 9B070000 		.4byte	.LASF118
 1215 0401 03       		.byte	0x3
 1216 0402 EC02     		.2byte	0x2ec
 1217 0404 9B000000 		.4byte	0x9b
 1218 0408 02       		.byte	0x2
 1219 0409 23       		.byte	0x23
 1220 040a 40       		.uleb128 0x40
 1221 040b 0C       		.uleb128 0xc
 1222 040c 93060000 		.4byte	.LASF119
 1223 0410 03       		.byte	0x3
 1224 0411 ED02     		.2byte	0x2ed
 1225 0413 9B000000 		.4byte	0x9b
 1226 0417 02       		.byte	0x2
 1227 0418 23       		.byte	0x23
 1228 0419 44       		.uleb128 0x44
 1229 041a 0C       		.uleb128 0xc
 1230 041b A1050000 		.4byte	.LASF120
 1231 041f 03       		.byte	0x3
 1232 0420 EE02     		.2byte	0x2ee
 1233 0422 E9020000 		.4byte	0x2e9
 1234 0426 02       		.byte	0x2
 1235 0427 23       		.byte	0x23
 1236 0428 48       		.uleb128 0x48
 1237 0429 0C       		.uleb128 0xc
ARM GAS  C:\Users\LAB_ME~1\AppData\Local\Temp\ccSBjzI2.s 			page 23


 1238 042a 45010000 		.4byte	.LASF121
 1239 042e 03       		.byte	0x3
 1240 042f EF02     		.2byte	0x2ef
 1241 0431 9B000000 		.4byte	0x9b
 1242 0435 02       		.byte	0x2
 1243 0436 23       		.byte	0x23
 1244 0437 50       		.uleb128 0x50
 1245 0438 0C       		.uleb128 0xc
 1246 0439 07050000 		.4byte	.LASF122
 1247 043d 03       		.byte	0x3
 1248 043e F002     		.2byte	0x2f0
 1249 0440 9B000000 		.4byte	0x9b
 1250 0444 02       		.byte	0x2
 1251 0445 23       		.byte	0x23
 1252 0446 54       		.uleb128 0x54
 1253 0447 0C       		.uleb128 0xc
 1254 0448 48060000 		.4byte	.LASF123
 1255 044c 03       		.byte	0x3
 1256 044d F102     		.2byte	0x2f1
 1257 044f 9B000000 		.4byte	0x9b
 1258 0453 02       		.byte	0x2
 1259 0454 23       		.byte	0x23
 1260 0455 58       		.uleb128 0x58
 1261 0456 0C       		.uleb128 0xc
 1262 0457 AB050000 		.4byte	.LASF124
 1263 045b 03       		.byte	0x3
 1264 045c F202     		.2byte	0x2f2
 1265 045e 7B000000 		.4byte	0x7b
 1266 0462 02       		.byte	0x2
 1267 0463 23       		.byte	0x23
 1268 0464 5C       		.uleb128 0x5c
 1269 0465 0C       		.uleb128 0xc
 1270 0466 0D000000 		.4byte	.LASF125
 1271 046a 03       		.byte	0x3
 1272 046b F302     		.2byte	0x2f3
 1273 046d 9B000000 		.4byte	0x9b
 1274 0471 02       		.byte	0x2
 1275 0472 23       		.byte	0x23
 1276 0473 60       		.uleb128 0x60
 1277 0474 0C       		.uleb128 0xc
 1278 0475 15040000 		.4byte	.LASF126
 1279 0479 03       		.byte	0x3
 1280 047a F402     		.2byte	0x2f4
 1281 047c 9B000000 		.4byte	0x9b
 1282 0480 02       		.byte	0x2
 1283 0481 23       		.byte	0x23
 1284 0482 64       		.uleb128 0x64
 1285 0483 0C       		.uleb128 0xc
 1286 0484 B5050000 		.4byte	.LASF127
 1287 0488 03       		.byte	0x3
 1288 0489 F502     		.2byte	0x2f5
 1289 048b E9020000 		.4byte	0x2e9
 1290 048f 02       		.byte	0x2
 1291 0490 23       		.byte	0x23
 1292 0491 68       		.uleb128 0x68
 1293 0492 0C       		.uleb128 0xc
 1294 0493 30080000 		.4byte	.LASF128
ARM GAS  C:\Users\LAB_ME~1\AppData\Local\Temp\ccSBjzI2.s 			page 24


 1295 0497 03       		.byte	0x3
 1296 0498 F602     		.2byte	0x2f6
 1297 049a 9B000000 		.4byte	0x9b
 1298 049e 02       		.byte	0x2
 1299 049f 23       		.byte	0x23
 1300 04a0 70       		.uleb128 0x70
 1301 04a1 0B       		.uleb128 0xb
 1302 04a2 43535200 		.ascii	"CSR\000"
 1303 04a6 03       		.byte	0x3
 1304 04a7 F702     		.2byte	0x2f7
 1305 04a9 9B000000 		.4byte	0x9b
 1306 04ad 02       		.byte	0x2
 1307 04ae 23       		.byte	0x23
 1308 04af 74       		.uleb128 0x74
 1309 04b0 0C       		.uleb128 0xc
 1310 04b1 BF050000 		.4byte	.LASF129
 1311 04b5 03       		.byte	0x3
 1312 04b6 F802     		.2byte	0x2f8
 1313 04b8 E9020000 		.4byte	0x2e9
 1314 04bc 02       		.byte	0x2
 1315 04bd 23       		.byte	0x23
 1316 04be 78       		.uleb128 0x78
 1317 04bf 0C       		.uleb128 0xc
 1318 04c0 09080000 		.4byte	.LASF130
 1319 04c4 03       		.byte	0x3
 1320 04c5 F902     		.2byte	0x2f9
 1321 04c7 9B000000 		.4byte	0x9b
 1322 04cb 03       		.byte	0x3
 1323 04cc 23       		.byte	0x23
 1324 04cd 8001     		.uleb128 0x80
 1325 04cf 0C       		.uleb128 0xc
 1326 04d0 C6030000 		.4byte	.LASF131
 1327 04d4 03       		.byte	0x3
 1328 04d5 FA02     		.2byte	0x2fa
 1329 04d7 9B000000 		.4byte	0x9b
 1330 04db 03       		.byte	0x3
 1331 04dc 23       		.byte	0x23
 1332 04dd 8401     		.uleb128 0x84
 1333 04df 00       		.byte	0
 1334 04e0 0D       		.uleb128 0xd
 1335 04e1 73030000 		.4byte	.LASF132
 1336 04e5 03       		.byte	0x3
 1337 04e6 FB02     		.2byte	0x2fb
 1338 04e8 13030000 		.4byte	0x313
 1339 04ec 0E       		.uleb128 0xe
 1340 04ed 54       		.byte	0x54
 1341 04ee 04       		.byte	0x4
 1342 04ef 60       		.byte	0x60
 1343 04f0 C1060000 		.4byte	0x6c1
 1344 04f4 0F       		.uleb128 0xf
 1345 04f5 43523100 		.ascii	"CR1\000"
 1346 04f9 04       		.byte	0x4
 1347 04fa 61       		.byte	0x61
 1348 04fb 09030000 		.4byte	0x309
 1349 04ff 02       		.byte	0x2
 1350 0500 23       		.byte	0x23
 1351 0501 00       		.uleb128 0
ARM GAS  C:\Users\LAB_ME~1\AppData\Local\Temp\ccSBjzI2.s 			page 25


 1352 0502 10       		.uleb128 0x10
 1353 0503 61000000 		.4byte	.LASF133
 1354 0507 04       		.byte	0x4
 1355 0508 62       		.byte	0x62
 1356 0509 57000000 		.4byte	0x57
 1357 050d 02       		.byte	0x2
 1358 050e 23       		.byte	0x23
 1359 050f 02       		.uleb128 0x2
 1360 0510 0F       		.uleb128 0xf
 1361 0511 43523200 		.ascii	"CR2\000"
 1362 0515 04       		.byte	0x4
 1363 0516 63       		.byte	0x63
 1364 0517 09030000 		.4byte	0x309
 1365 051b 02       		.byte	0x2
 1366 051c 23       		.byte	0x23
 1367 051d 04       		.uleb128 0x4
 1368 051e 10       		.uleb128 0x10
 1369 051f 69000000 		.4byte	.LASF134
 1370 0523 04       		.byte	0x4
 1371 0524 64       		.byte	0x64
 1372 0525 57000000 		.4byte	0x57
 1373 0529 02       		.byte	0x2
 1374 052a 23       		.byte	0x23
 1375 052b 06       		.uleb128 0x6
 1376 052c 10       		.uleb128 0x10
 1377 052d AF030000 		.4byte	.LASF135
 1378 0531 04       		.byte	0x4
 1379 0532 65       		.byte	0x65
 1380 0533 09030000 		.4byte	0x309
 1381 0537 02       		.byte	0x2
 1382 0538 23       		.byte	0x23
 1383 0539 08       		.uleb128 0x8
 1384 053a 10       		.uleb128 0x10
 1385 053b 10070000 		.4byte	.LASF136
 1386 053f 04       		.byte	0x4
 1387 0540 66       		.byte	0x66
 1388 0541 57000000 		.4byte	0x57
 1389 0545 02       		.byte	0x2
 1390 0546 23       		.byte	0x23
 1391 0547 0A       		.uleb128 0xa
 1392 0548 10       		.uleb128 0x10
 1393 0549 80080000 		.4byte	.LASF137
 1394 054d 04       		.byte	0x4
 1395 054e 67       		.byte	0x67
 1396 054f 09030000 		.4byte	0x309
 1397 0553 02       		.byte	0x2
 1398 0554 23       		.byte	0x23
 1399 0555 0C       		.uleb128 0xc
 1400 0556 10       		.uleb128 0x10
 1401 0557 7E000000 		.4byte	.LASF138
 1402 055b 04       		.byte	0x4
 1403 055c 68       		.byte	0x68
 1404 055d 57000000 		.4byte	0x57
 1405 0561 02       		.byte	0x2
 1406 0562 23       		.byte	0x23
 1407 0563 0E       		.uleb128 0xe
 1408 0564 0F       		.uleb128 0xf
ARM GAS  C:\Users\LAB_ME~1\AppData\Local\Temp\ccSBjzI2.s 			page 26


 1409 0565 535200   		.ascii	"SR\000"
 1410 0568 04       		.byte	0x4
 1411 0569 69       		.byte	0x69
 1412 056a 09030000 		.4byte	0x309
 1413 056e 02       		.byte	0x2
 1414 056f 23       		.byte	0x23
 1415 0570 10       		.uleb128 0x10
 1416 0571 10       		.uleb128 0x10
 1417 0572 86000000 		.4byte	.LASF139
 1418 0576 04       		.byte	0x4
 1419 0577 6A       		.byte	0x6a
 1420 0578 57000000 		.4byte	0x57
 1421 057c 02       		.byte	0x2
 1422 057d 23       		.byte	0x23
 1423 057e 12       		.uleb128 0x12
 1424 057f 0F       		.uleb128 0xf
 1425 0580 45475200 		.ascii	"EGR\000"
 1426 0584 04       		.byte	0x4
 1427 0585 6B       		.byte	0x6b
 1428 0586 09030000 		.4byte	0x309
 1429 058a 02       		.byte	0x2
 1430 058b 23       		.byte	0x23
 1431 058c 14       		.uleb128 0x14
 1432 058d 10       		.uleb128 0x10
 1433 058e 8E000000 		.4byte	.LASF140
 1434 0592 04       		.byte	0x4
 1435 0593 6C       		.byte	0x6c
 1436 0594 57000000 		.4byte	0x57
 1437 0598 02       		.byte	0x2
 1438 0599 23       		.byte	0x23
 1439 059a 16       		.uleb128 0x16
 1440 059b 10       		.uleb128 0x10
 1441 059c 6A010000 		.4byte	.LASF141
 1442 05a0 04       		.byte	0x4
 1443 05a1 6D       		.byte	0x6d
 1444 05a2 09030000 		.4byte	0x309
 1445 05a6 02       		.byte	0x2
 1446 05a7 23       		.byte	0x23
 1447 05a8 18       		.uleb128 0x18
 1448 05a9 10       		.uleb128 0x10
 1449 05aa 96000000 		.4byte	.LASF142
 1450 05ae 04       		.byte	0x4
 1451 05af 6E       		.byte	0x6e
 1452 05b0 57000000 		.4byte	0x57
 1453 05b4 02       		.byte	0x2
 1454 05b5 23       		.byte	0x23
 1455 05b6 1A       		.uleb128 0x1a
 1456 05b7 10       		.uleb128 0x10
 1457 05b8 70010000 		.4byte	.LASF143
 1458 05bc 04       		.byte	0x4
 1459 05bd 6F       		.byte	0x6f
 1460 05be 09030000 		.4byte	0x309
 1461 05c2 02       		.byte	0x2
 1462 05c3 23       		.byte	0x23
 1463 05c4 1C       		.uleb128 0x1c
 1464 05c5 10       		.uleb128 0x10
 1465 05c6 9E000000 		.4byte	.LASF144
ARM GAS  C:\Users\LAB_ME~1\AppData\Local\Temp\ccSBjzI2.s 			page 27


 1466 05ca 04       		.byte	0x4
 1467 05cb 70       		.byte	0x70
 1468 05cc 57000000 		.4byte	0x57
 1469 05d0 02       		.byte	0x2
 1470 05d1 23       		.byte	0x23
 1471 05d2 1E       		.uleb128 0x1e
 1472 05d3 10       		.uleb128 0x10
 1473 05d4 2C020000 		.4byte	.LASF145
 1474 05d8 04       		.byte	0x4
 1475 05d9 71       		.byte	0x71
 1476 05da 09030000 		.4byte	0x309
 1477 05de 02       		.byte	0x2
 1478 05df 23       		.byte	0x23
 1479 05e0 20       		.uleb128 0x20
 1480 05e1 10       		.uleb128 0x10
 1481 05e2 A6000000 		.4byte	.LASF146
 1482 05e6 04       		.byte	0x4
 1483 05e7 72       		.byte	0x72
 1484 05e8 57000000 		.4byte	0x57
 1485 05ec 02       		.byte	0x2
 1486 05ed 23       		.byte	0x23
 1487 05ee 22       		.uleb128 0x22
 1488 05ef 0F       		.uleb128 0xf
 1489 05f0 434E5400 		.ascii	"CNT\000"
 1490 05f4 04       		.byte	0x4
 1491 05f5 73       		.byte	0x73
 1492 05f6 9B000000 		.4byte	0x9b
 1493 05fa 02       		.byte	0x2
 1494 05fb 23       		.byte	0x23
 1495 05fc 24       		.uleb128 0x24
 1496 05fd 0F       		.uleb128 0xf
 1497 05fe 50534300 		.ascii	"PSC\000"
 1498 0602 04       		.byte	0x4
 1499 0603 74       		.byte	0x74
 1500 0604 09030000 		.4byte	0x309
 1501 0608 02       		.byte	0x2
 1502 0609 23       		.byte	0x23
 1503 060a 28       		.uleb128 0x28
 1504 060b 10       		.uleb128 0x10
 1505 060c AE000000 		.4byte	.LASF147
 1506 0610 04       		.byte	0x4
 1507 0611 75       		.byte	0x75
 1508 0612 57000000 		.4byte	0x57
 1509 0616 02       		.byte	0x2
 1510 0617 23       		.byte	0x23
 1511 0618 2A       		.uleb128 0x2a
 1512 0619 0F       		.uleb128 0xf
 1513 061a 41525200 		.ascii	"ARR\000"
 1514 061e 04       		.byte	0x4
 1515 061f 76       		.byte	0x76
 1516 0620 9B000000 		.4byte	0x9b
 1517 0624 02       		.byte	0x2
 1518 0625 23       		.byte	0x23
 1519 0626 2C       		.uleb128 0x2c
 1520 0627 0F       		.uleb128 0xf
 1521 0628 52435200 		.ascii	"RCR\000"
 1522 062c 04       		.byte	0x4
ARM GAS  C:\Users\LAB_ME~1\AppData\Local\Temp\ccSBjzI2.s 			page 28


 1523 062d 77       		.byte	0x77
 1524 062e 09030000 		.4byte	0x309
 1525 0632 02       		.byte	0x2
 1526 0633 23       		.byte	0x23
 1527 0634 30       		.uleb128 0x30
 1528 0635 10       		.uleb128 0x10
 1529 0636 CC010000 		.4byte	.LASF148
 1530 063a 04       		.byte	0x4
 1531 063b 78       		.byte	0x78
 1532 063c 57000000 		.4byte	0x57
 1533 0640 02       		.byte	0x2
 1534 0641 23       		.byte	0x23
 1535 0642 32       		.uleb128 0x32
 1536 0643 0F       		.uleb128 0xf
 1537 0644 43435200 		.ascii	"CCR\000"
 1538 0648 04       		.byte	0x4
 1539 0649 79       		.byte	0x79
 1540 064a C1060000 		.4byte	0x6c1
 1541 064e 02       		.byte	0x2
 1542 064f 23       		.byte	0x23
 1543 0650 34       		.uleb128 0x34
 1544 0651 10       		.uleb128 0x10
 1545 0652 08030000 		.4byte	.LASF149
 1546 0656 04       		.byte	0x4
 1547 0657 7A       		.byte	0x7a
 1548 0658 09030000 		.4byte	0x309
 1549 065c 02       		.byte	0x2
 1550 065d 23       		.byte	0x23
 1551 065e 44       		.uleb128 0x44
 1552 065f 10       		.uleb128 0x10
 1553 0660 BD000000 		.4byte	.LASF150
 1554 0664 04       		.byte	0x4
 1555 0665 7B       		.byte	0x7b
 1556 0666 57000000 		.4byte	0x57
 1557 066a 02       		.byte	0x2
 1558 066b 23       		.byte	0x23
 1559 066c 46       		.uleb128 0x46
 1560 066d 0F       		.uleb128 0xf
 1561 066e 44435200 		.ascii	"DCR\000"
 1562 0672 04       		.byte	0x4
 1563 0673 7C       		.byte	0x7c
 1564 0674 09030000 		.4byte	0x309
 1565 0678 02       		.byte	0x2
 1566 0679 23       		.byte	0x23
 1567 067a 48       		.uleb128 0x48
 1568 067b 10       		.uleb128 0x10
 1569 067c C6000000 		.4byte	.LASF151
 1570 0680 04       		.byte	0x4
 1571 0681 7D       		.byte	0x7d
 1572 0682 57000000 		.4byte	0x57
 1573 0686 02       		.byte	0x2
 1574 0687 23       		.byte	0x23
 1575 0688 4A       		.uleb128 0x4a
 1576 0689 10       		.uleb128 0x10
 1577 068a 53070000 		.4byte	.LASF152
 1578 068e 04       		.byte	0x4
 1579 068f 7E       		.byte	0x7e
ARM GAS  C:\Users\LAB_ME~1\AppData\Local\Temp\ccSBjzI2.s 			page 29


 1580 0690 09030000 		.4byte	0x309
 1581 0694 02       		.byte	0x2
 1582 0695 23       		.byte	0x23
 1583 0696 4C       		.uleb128 0x4c
 1584 0697 10       		.uleb128 0x10
 1585 0698 DD000000 		.4byte	.LASF153
 1586 069c 04       		.byte	0x4
 1587 069d 7F       		.byte	0x7f
 1588 069e 57000000 		.4byte	0x57
 1589 06a2 02       		.byte	0x2
 1590 06a3 23       		.byte	0x23
 1591 06a4 4E       		.uleb128 0x4e
 1592 06a5 0F       		.uleb128 0xf
 1593 06a6 4F5200   		.ascii	"OR\000"
 1594 06a9 04       		.byte	0x4
 1595 06aa 80       		.byte	0x80
 1596 06ab 09030000 		.4byte	0x309
 1597 06af 02       		.byte	0x2
 1598 06b0 23       		.byte	0x23
 1599 06b1 50       		.uleb128 0x50
 1600 06b2 10       		.uleb128 0x10
 1601 06b3 ED010000 		.4byte	.LASF154
 1602 06b7 04       		.byte	0x4
 1603 06b8 81       		.byte	0x81
 1604 06b9 57000000 		.4byte	0x57
 1605 06bd 02       		.byte	0x2
 1606 06be 23       		.byte	0x23
 1607 06bf 52       		.uleb128 0x52
 1608 06c0 00       		.byte	0
 1609 06c1 05       		.uleb128 0x5
 1610 06c2 F9020000 		.4byte	0x2f9
 1611 06c6 04       		.uleb128 0x4
 1612 06c7 09040000 		.4byte	.LASF155
 1613 06cb 04       		.byte	0x4
 1614 06cc 82       		.byte	0x82
 1615 06cd EC040000 		.4byte	0x4ec
 1616 06d1 11       		.uleb128 0x11
 1617 06d2 04       		.byte	0x4
 1618 06d3 C6060000 		.4byte	0x6c6
 1619 06d7 12       		.uleb128 0x12
 1620 06d8 01       		.byte	0x1
 1621 06d9 05       		.byte	0x5
 1622 06da 4E       		.byte	0x4e
 1623 06db F2060000 		.4byte	0x6f2
 1624 06df 07       		.uleb128 0x7
 1625 06e0 E6080000 		.4byte	.LASF156
 1626 06e4 00       		.sleb128 0
 1627 06e5 07       		.uleb128 0x7
 1628 06e6 2F070000 		.4byte	.LASF157
 1629 06ea 01       		.sleb128 1
 1630 06eb 07       		.uleb128 0x7
 1631 06ec 4F010000 		.4byte	.LASF158
 1632 06f0 02       		.sleb128 2
 1633 06f1 00       		.byte	0
 1634 06f2 04       		.uleb128 0x4
 1635 06f3 64080000 		.4byte	.LASF159
 1636 06f7 05       		.byte	0x5
ARM GAS  C:\Users\LAB_ME~1\AppData\Local\Temp\ccSBjzI2.s 			page 30


 1637 06f8 52       		.byte	0x52
 1638 06f9 D7060000 		.4byte	0x6d7
 1639 06fd 04       		.uleb128 0x4
 1640 06fe 50080000 		.4byte	.LASF160
 1641 0702 05       		.byte	0x5
 1642 0703 57       		.byte	0x57
 1643 0704 08070000 		.4byte	0x708
 1644 0708 13       		.uleb128 0x13
 1645 0709 50080000 		.4byte	.LASF160
 1646 070d 14       		.byte	0x14
 1647 070e 06       		.byte	0x6
 1648 070f 5001     		.2byte	0x150
 1649 0711 61070000 		.4byte	0x761
 1650 0715 0C       		.uleb128 0xc
 1651 0716 D5010000 		.4byte	.LASF161
 1652 071a 06       		.byte	0x6
 1653 071b 5401     		.2byte	0x154
 1654 071d F2060000 		.4byte	0x6f2
 1655 0721 02       		.byte	0x2
 1656 0722 23       		.byte	0x23
 1657 0723 00       		.uleb128 0
 1658 0724 0C       		.uleb128 0xc
 1659 0725 4C070000 		.4byte	.LASF162
 1660 0729 06       		.byte	0x6
 1661 072a 5801     		.2byte	0x158
 1662 072c 4D080000 		.4byte	0x84d
 1663 0730 02       		.byte	0x2
 1664 0731 23       		.byte	0x23
 1665 0732 04       		.uleb128 0x4
 1666 0733 0C       		.uleb128 0xc
 1667 0734 B6000000 		.4byte	.LASF163
 1668 0738 06       		.byte	0x6
 1669 0739 5C01     		.2byte	0x15c
 1670 073b 9C070000 		.4byte	0x79c
 1671 073f 02       		.byte	0x2
 1672 0740 23       		.byte	0x23
 1673 0741 08       		.uleb128 0x8
 1674 0742 0C       		.uleb128 0xc
 1675 0743 AB080000 		.4byte	.LASF164
 1676 0747 06       		.byte	0x6
 1677 0748 6401     		.2byte	0x164
 1678 074a 7B000000 		.4byte	0x7b
 1679 074e 02       		.byte	0x2
 1680 074f 23       		.byte	0x23
 1681 0750 0C       		.uleb128 0xc
 1682 0751 0B       		.uleb128 0xb
 1683 0752 74696D00 		.ascii	"tim\000"
 1684 0756 06       		.byte	0x6
 1685 0757 6801     		.2byte	0x168
 1686 0759 D1060000 		.4byte	0x6d1
 1687 075d 02       		.byte	0x2
 1688 075e 23       		.byte	0x23
 1689 075f 10       		.uleb128 0x10
 1690 0760 00       		.byte	0
 1691 0761 04       		.uleb128 0x4
 1692 0762 75050000 		.4byte	.LASF165
 1693 0766 05       		.byte	0x5
ARM GAS  C:\Users\LAB_ME~1\AppData\Local\Temp\ccSBjzI2.s 			page 31


 1694 0767 5E       		.byte	0x5e
 1695 0768 6C070000 		.4byte	0x76c
 1696 076c 11       		.uleb128 0x11
 1697 076d 04       		.byte	0x4
 1698 076e 72070000 		.4byte	0x772
 1699 0772 14       		.uleb128 0x14
 1700 0773 01       		.byte	0x1
 1701 0774 7E070000 		.4byte	0x77e
 1702 0778 15       		.uleb128 0x15
 1703 0779 7E070000 		.4byte	0x77e
 1704 077d 00       		.byte	0
 1705 077e 11       		.uleb128 0x11
 1706 077f 04       		.byte	0x4
 1707 0780 FD060000 		.4byte	0x6fd
 1708 0784 0D       		.uleb128 0xd
 1709 0785 A7010000 		.4byte	.LASF166
 1710 0789 06       		.byte	0x6
 1711 078a 0701     		.2byte	0x107
 1712 078c 7B000000 		.4byte	0x7b
 1713 0790 0D       		.uleb128 0xd
 1714 0791 00000000 		.4byte	.LASF167
 1715 0795 06       		.byte	0x6
 1716 0796 0C01     		.2byte	0x10c
 1717 0798 3E000000 		.4byte	0x3e
 1718 079c 0D       		.uleb128 0xd
 1719 079d 6F080000 		.4byte	.LASF168
 1720 07a1 06       		.byte	0x6
 1721 07a2 1101     		.2byte	0x111
 1722 07a4 57000000 		.4byte	0x57
 1723 07a8 0A       		.uleb128 0xa
 1724 07a9 08       		.byte	0x8
 1725 07aa 06       		.byte	0x6
 1726 07ab 1601     		.2byte	0x116
 1727 07ad D0070000 		.4byte	0x7d0
 1728 07b1 0C       		.uleb128 0xc
 1729 07b2 3D070000 		.4byte	.LASF169
 1730 07b6 06       		.byte	0x6
 1731 07b7 1A01     		.2byte	0x11a
 1732 07b9 84070000 		.4byte	0x784
 1733 07bd 02       		.byte	0x2
 1734 07be 23       		.byte	0x23
 1735 07bf 00       		.uleb128 0
 1736 07c0 0C       		.uleb128 0xc
 1737 07c1 00040000 		.4byte	.LASF170
 1738 07c5 06       		.byte	0x6
 1739 07c6 2001     		.2byte	0x120
 1740 07c8 61070000 		.4byte	0x761
 1741 07cc 02       		.byte	0x2
 1742 07cd 23       		.byte	0x23
 1743 07ce 04       		.uleb128 0x4
 1744 07cf 00       		.byte	0
 1745 07d0 0D       		.uleb128 0xd
 1746 07d1 BB070000 		.4byte	.LASF171
 1747 07d5 06       		.byte	0x6
 1748 07d6 2201     		.2byte	0x122
 1749 07d8 A8070000 		.4byte	0x7a8
 1750 07dc 0A       		.uleb128 0xa
ARM GAS  C:\Users\LAB_ME~1\AppData\Local\Temp\ccSBjzI2.s 			page 32


 1751 07dd 30       		.byte	0x30
 1752 07de 06       		.byte	0x6
 1753 07df 2701     		.2byte	0x127
 1754 07e1 31080000 		.4byte	0x831
 1755 07e5 0C       		.uleb128 0xc
 1756 07e6 3B010000 		.4byte	.LASF172
 1757 07ea 06       		.byte	0x6
 1758 07eb 2D01     		.2byte	0x12d
 1759 07ed 7B000000 		.4byte	0x7b
 1760 07f1 02       		.byte	0x2
 1761 07f2 23       		.byte	0x23
 1762 07f3 00       		.uleb128 0
 1763 07f4 0C       		.uleb128 0xc
 1764 07f5 B6000000 		.4byte	.LASF163
 1765 07f9 06       		.byte	0x6
 1766 07fa 3301     		.2byte	0x133
 1767 07fc 9C070000 		.4byte	0x79c
 1768 0800 02       		.byte	0x2
 1769 0801 23       		.byte	0x23
 1770 0802 04       		.uleb128 0x4
 1771 0803 0C       		.uleb128 0xc
 1772 0804 00040000 		.4byte	.LASF170
 1773 0808 06       		.byte	0x6
 1774 0809 3901     		.2byte	0x139
 1775 080b 61070000 		.4byte	0x761
 1776 080f 02       		.byte	0x2
 1777 0810 23       		.byte	0x23
 1778 0811 08       		.uleb128 0x8
 1779 0812 0C       		.uleb128 0xc
 1780 0813 DB010000 		.4byte	.LASF173
 1781 0817 06       		.byte	0x6
 1782 0818 3D01     		.2byte	0x13d
 1783 081a 31080000 		.4byte	0x831
 1784 081e 02       		.byte	0x2
 1785 081f 23       		.byte	0x23
 1786 0820 0C       		.uleb128 0xc
 1787 0821 0B       		.uleb128 0xb
 1788 0822 63723200 		.ascii	"cr2\000"
 1789 0826 06       		.byte	0x6
 1790 0827 4301     		.2byte	0x143
 1791 0829 57000000 		.4byte	0x57
 1792 082d 02       		.byte	0x2
 1793 082e 23       		.byte	0x23
 1794 082f 2C       		.uleb128 0x2c
 1795 0830 00       		.byte	0
 1796 0831 08       		.uleb128 0x8
 1797 0832 D0070000 		.4byte	0x7d0
 1798 0836 41080000 		.4byte	0x841
 1799 083a 09       		.uleb128 0x9
 1800 083b A0000000 		.4byte	0xa0
 1801 083f 03       		.byte	0x3
 1802 0840 00       		.byte	0
 1803 0841 0D       		.uleb128 0xd
 1804 0842 F4060000 		.4byte	.LASF174
 1805 0846 06       		.byte	0x6
 1806 0847 4B01     		.2byte	0x14b
 1807 0849 DC070000 		.4byte	0x7dc
ARM GAS  C:\Users\LAB_ME~1\AppData\Local\Temp\ccSBjzI2.s 			page 33


 1808 084d 11       		.uleb128 0x11
 1809 084e 04       		.byte	0x4
 1810 084f 53080000 		.4byte	0x853
 1811 0853 16       		.uleb128 0x16
 1812 0854 41080000 		.4byte	0x841
 1813 0858 17       		.uleb128 0x17
 1814 0859 3C000000 		.4byte	.LASF196
 1815 085d 01       		.byte	0x1
 1816 085e 68       		.byte	0x68
 1817 085f 01       		.byte	0x1
 1818 0860 00000000 		.4byte	.LFB118
 1819 0864 64000000 		.4byte	.LFE118
 1820 0868 00000000 		.4byte	.LLST0
 1821 086c 01       		.byte	0x1
 1822 086d DB080000 		.4byte	0x8db
 1823 0871 18       		.uleb128 0x18
 1824 0872 38040000 		.4byte	.LASF179
 1825 0876 01       		.byte	0x1
 1826 0877 68       		.byte	0x68
 1827 0878 7E070000 		.4byte	0x77e
 1828 087c 20000000 		.4byte	.LLST1
 1829 0880 19       		.uleb128 0x19
 1830 0881 737200   		.ascii	"sr\000"
 1831 0884 01       		.byte	0x1
 1832 0885 69       		.byte	0x69
 1833 0886 57000000 		.4byte	0x57
 1834 088a 54000000 		.4byte	.LLST2
 1835 088e 1A       		.uleb128 0x1a
 1836 088f 3C000000 		.4byte	.LVL4
 1837 0893 9E080000 		.4byte	0x89e
 1838 0897 1B       		.uleb128 0x1b
 1839 0898 01       		.byte	0x1
 1840 0899 50       		.byte	0x50
 1841 089a 02       		.byte	0x2
 1842 089b 75       		.byte	0x75
 1843 089c 00       		.sleb128 0
 1844 089d 00       		.byte	0
 1845 089e 1A       		.uleb128 0x1a
 1846 089f 46000000 		.4byte	.LVL5
 1847 08a3 AE080000 		.4byte	0x8ae
 1848 08a7 1B       		.uleb128 0x1b
 1849 08a8 01       		.byte	0x1
 1850 08a9 50       		.byte	0x50
 1851 08aa 02       		.byte	0x2
 1852 08ab 75       		.byte	0x75
 1853 08ac 00       		.sleb128 0
 1854 08ad 00       		.byte	0
 1855 08ae 1A       		.uleb128 0x1a
 1856 08af 50000000 		.4byte	.LVL6
 1857 08b3 BE080000 		.4byte	0x8be
 1858 08b7 1B       		.uleb128 0x1b
 1859 08b8 01       		.byte	0x1
 1860 08b9 50       		.byte	0x50
 1861 08ba 02       		.byte	0x2
 1862 08bb 75       		.byte	0x75
 1863 08bc 00       		.sleb128 0
 1864 08bd 00       		.byte	0
ARM GAS  C:\Users\LAB_ME~1\AppData\Local\Temp\ccSBjzI2.s 			page 34


 1865 08be 1A       		.uleb128 0x1a
 1866 08bf 5A000000 		.4byte	.LVL7
 1867 08c3 CE080000 		.4byte	0x8ce
 1868 08c7 1B       		.uleb128 0x1b
 1869 08c8 01       		.byte	0x1
 1870 08c9 50       		.byte	0x50
 1871 08ca 02       		.byte	0x2
 1872 08cb 75       		.byte	0x75
 1873 08cc 00       		.sleb128 0
 1874 08cd 00       		.byte	0
 1875 08ce 1C       		.uleb128 0x1c
 1876 08cf 62000000 		.4byte	.LVL9
 1877 08d3 1B       		.uleb128 0x1b
 1878 08d4 01       		.byte	0x1
 1879 08d5 50       		.byte	0x50
 1880 08d6 02       		.byte	0x2
 1881 08d7 75       		.byte	0x75
 1882 08d8 00       		.sleb128 0
 1883 08d9 00       		.byte	0
 1884 08da 00       		.byte	0
 1885 08db 1D       		.uleb128 0x1d
 1886 08dc 01       		.byte	0x1
 1887 08dd C3010000 		.4byte	.LASF175
 1888 08e1 01       		.byte	0x1
 1889 08e2 D1       		.byte	0xd1
 1890 08e3 01       		.byte	0x1
 1891 08e4 00000000 		.4byte	.LFB119
 1892 08e8 14000000 		.4byte	.LFE119
 1893 08ec 72000000 		.4byte	.LLST3
 1894 08f0 01       		.byte	0x1
 1895 08f1 17090000 		.4byte	0x917
 1896 08f5 1E       		.uleb128 0x1e
 1897 08f6 08000000 		.4byte	.LVL10
 1898 08fa 58080000 		.4byte	0x858
 1899 08fe 0C090000 		.4byte	0x90c
 1900 0902 1B       		.uleb128 0x1b
 1901 0903 01       		.byte	0x1
 1902 0904 50       		.byte	0x50
 1903 0905 05       		.byte	0x5
 1904 0906 03       		.byte	0x3
 1905 0907 00000000 		.4byte	.LANCHOR0
 1906 090b 00       		.byte	0
 1907 090c 1F       		.uleb128 0x1f
 1908 090d 10000000 		.4byte	.LVL11
 1909 0911 01       		.byte	0x1
 1910 0912 100B0000 		.4byte	0xb10
 1911 0916 00       		.byte	0
 1912 0917 1D       		.uleb128 0x1d
 1913 0918 01       		.byte	0x1
 1914 0919 BD020000 		.4byte	.LASF176
 1915 091d 01       		.byte	0x1
 1916 091e E4       		.byte	0xe4
 1917 091f 01       		.byte	0x1
 1918 0920 00000000 		.4byte	.LFB120
 1919 0924 14000000 		.4byte	.LFE120
 1920 0928 92000000 		.4byte	.LLST4
 1921 092c 01       		.byte	0x1
ARM GAS  C:\Users\LAB_ME~1\AppData\Local\Temp\ccSBjzI2.s 			page 35


 1922 092d 53090000 		.4byte	0x953
 1923 0931 1E       		.uleb128 0x1e
 1924 0932 08000000 		.4byte	.LVL12
 1925 0936 58080000 		.4byte	0x858
 1926 093a 48090000 		.4byte	0x948
 1927 093e 1B       		.uleb128 0x1b
 1928 093f 01       		.byte	0x1
 1929 0940 50       		.byte	0x50
 1930 0941 05       		.byte	0x5
 1931 0942 03       		.byte	0x3
 1932 0943 00000000 		.4byte	.LANCHOR1
 1933 0947 00       		.byte	0
 1934 0948 1F       		.uleb128 0x1f
 1935 0949 10000000 		.4byte	.LVL13
 1936 094d 01       		.byte	0x1
 1937 094e 100B0000 		.4byte	0xb10
 1938 0952 00       		.byte	0
 1939 0953 20       		.uleb128 0x20
 1940 0954 01       		.byte	0x1
 1941 0955 BE080000 		.4byte	.LASF177
 1942 0959 01       		.byte	0x1
 1943 095a 4001     		.2byte	0x140
 1944 095c 01       		.byte	0x1
 1945 095d 00000000 		.4byte	.LFB121
 1946 0961 2C000000 		.4byte	.LFE121
 1947 0965 B2000000 		.4byte	.LLST5
 1948 0969 01       		.byte	0x1
 1949 096a 93090000 		.4byte	0x993
 1950 096e 1E       		.uleb128 0x1e
 1951 096f 0C000000 		.4byte	.LVL14
 1952 0973 1B0B0000 		.4byte	0xb1b
 1953 0977 82090000 		.4byte	0x982
 1954 097b 1B       		.uleb128 0x1b
 1955 097c 01       		.byte	0x1
 1956 097d 50       		.byte	0x50
 1957 097e 02       		.byte	0x2
 1958 097f 75       		.byte	0x75
 1959 0980 00       		.sleb128 0
 1960 0981 00       		.byte	0
 1961 0982 21       		.uleb128 0x21
 1962 0983 16000000 		.4byte	.LVL15
 1963 0987 1B0B0000 		.4byte	0xb1b
 1964 098b 1B       		.uleb128 0x1b
 1965 098c 01       		.byte	0x1
 1966 098d 50       		.byte	0x50
 1967 098e 02       		.byte	0x2
 1968 098f 74       		.byte	0x74
 1969 0990 00       		.sleb128 0
 1970 0991 00       		.byte	0
 1971 0992 00       		.byte	0
 1972 0993 20       		.uleb128 0x20
 1973 0994 01       		.byte	0x1
 1974 0995 F6010000 		.4byte	.LASF178
 1975 0999 01       		.byte	0x1
 1976 099a 7001     		.2byte	0x170
 1977 099c 01       		.byte	0x1
 1978 099d 00000000 		.4byte	.LFB122
ARM GAS  C:\Users\LAB_ME~1\AppData\Local\Temp\ccSBjzI2.s 			page 36


 1979 09a1 28010000 		.4byte	.LFE122
 1980 09a5 D2000000 		.4byte	.LLST6
 1981 09a9 01       		.byte	0x1
 1982 09aa EF090000 		.4byte	0x9ef
 1983 09ae 22       		.uleb128 0x22
 1984 09af 38040000 		.4byte	.LASF179
 1985 09b3 01       		.byte	0x1
 1986 09b4 7001     		.2byte	0x170
 1987 09b6 7E070000 		.4byte	0x77e
 1988 09ba F2000000 		.4byte	.LLST7
 1989 09be 23       		.uleb128 0x23
 1990 09bf 70736300 		.ascii	"psc\000"
 1991 09c3 01       		.byte	0x1
 1992 09c4 7101     		.2byte	0x171
 1993 09c6 7B000000 		.4byte	0x7b
 1994 09ca 60010000 		.4byte	.LLST8
 1995 09ce 24       		.uleb128 0x24
 1996 09cf 1F040000 		.4byte	.LASF180
 1997 09d3 01       		.byte	0x1
 1998 09d4 7201     		.2byte	0x172
 1999 09d6 57000000 		.4byte	0x57
 2000 09da F5010000 		.4byte	.LLST9
 2001 09de 21       		.uleb128 0x21
 2002 09df FE000000 		.4byte	.LVL47
 2003 09e3 2F0B0000 		.4byte	0xb2f
 2004 09e7 1B       		.uleb128 0x1b
 2005 09e8 01       		.byte	0x1
 2006 09e9 51       		.byte	0x51
 2007 09ea 02       		.byte	0x2
 2008 09eb 08       		.byte	0x8
 2009 09ec 70       		.byte	0x70
 2010 09ed 00       		.byte	0
 2011 09ee 00       		.byte	0
 2012 09ef 20       		.uleb128 0x20
 2013 09f0 01       		.byte	0x1
 2014 09f1 B6060000 		.4byte	.LASF181
 2015 09f5 01       		.byte	0x1
 2016 09f6 2F02     		.2byte	0x22f
 2017 09f8 01       		.byte	0x1
 2018 09f9 00000000 		.4byte	.LFB123
 2019 09fd 50000000 		.4byte	.LFE123
 2020 0a01 4B020000 		.4byte	.LLST10
 2021 0a05 01       		.byte	0x1
 2022 0a06 3D0A0000 		.4byte	0xa3d
 2023 0a0a 22       		.uleb128 0x22
 2024 0a0b 38040000 		.4byte	.LASF179
 2025 0a0f 01       		.byte	0x1
 2026 0a10 2F02     		.2byte	0x22f
 2027 0a12 7E070000 		.4byte	0x77e
 2028 0a16 6B020000 		.4byte	.LLST11
 2029 0a1a 1E       		.uleb128 0x1e
 2030 0a1b 26000000 		.4byte	.LVL54
 2031 0a1f 490B0000 		.4byte	0xb49
 2032 0a23 2D0A0000 		.4byte	0xa2d
 2033 0a27 1B       		.uleb128 0x1b
 2034 0a28 01       		.byte	0x1
 2035 0a29 50       		.byte	0x50
ARM GAS  C:\Users\LAB_ME~1\AppData\Local\Temp\ccSBjzI2.s 			page 37


 2036 0a2a 01       		.byte	0x1
 2037 0a2b 4E       		.byte	0x4e
 2038 0a2c 00       		.byte	0
 2039 0a2d 21       		.uleb128 0x21
 2040 0a2e 38000000 		.4byte	.LVL57
 2041 0a32 490B0000 		.4byte	0xb49
 2042 0a36 1B       		.uleb128 0x1b
 2043 0a37 01       		.byte	0x1
 2044 0a38 50       		.byte	0x50
 2045 0a39 01       		.byte	0x1
 2046 0a3a 4D       		.byte	0x4d
 2047 0a3b 00       		.byte	0
 2048 0a3c 00       		.byte	0
 2049 0a3d 20       		.uleb128 0x20
 2050 0a3e 01       		.byte	0x1
 2051 0a3f 18070000 		.4byte	.LASF182
 2052 0a43 01       		.byte	0x1
 2053 0a44 6F02     		.2byte	0x26f
 2054 0a46 01       		.byte	0x1
 2055 0a47 00000000 		.4byte	.LFB124
 2056 0a4b 34000000 		.4byte	.LFE124
 2057 0a4f BE020000 		.4byte	.LLST12
 2058 0a53 01       		.byte	0x1
 2059 0a54 A30A0000 		.4byte	0xaa3
 2060 0a58 22       		.uleb128 0x22
 2061 0a59 38040000 		.4byte	.LASF179
 2062 0a5d 01       		.byte	0x1
 2063 0a5e 6F02     		.2byte	0x26f
 2064 0a60 7E070000 		.4byte	0x77e
 2065 0a64 DE020000 		.4byte	.LLST13
 2066 0a68 22       		.uleb128 0x22
 2067 0a69 9B060000 		.4byte	.LASF183
 2068 0a6d 01       		.byte	0x1
 2069 0a6e 7002     		.2byte	0x270
 2070 0a70 90070000 		.4byte	0x790
 2071 0a74 FF020000 		.4byte	.LLST14
 2072 0a78 22       		.uleb128 0x22
 2073 0a79 9D030000 		.4byte	.LASF184
 2074 0a7d 01       		.byte	0x1
 2075 0a7e 7102     		.2byte	0x271
 2076 0a80 9C070000 		.4byte	0x79c
 2077 0a84 20030000 		.4byte	.LLST15
 2078 0a88 25       		.uleb128 0x25
 2079 0a89 18000000 		.4byte	.LBB2
 2080 0a8d 30000000 		.4byte	.LBE2
 2081 0a91 24       		.uleb128 0x24
 2082 0a92 4A090000 		.4byte	.LASF185
 2083 0a96 01       		.byte	0x1
 2084 0a97 7702     		.2byte	0x277
 2085 0a99 7B000000 		.4byte	0x7b
 2086 0a9d 41030000 		.4byte	.LLST16
 2087 0aa1 00       		.byte	0
 2088 0aa2 00       		.byte	0
 2089 0aa3 26       		.uleb128 0x26
 2090 0aa4 01       		.byte	0x1
 2091 0aa5 93080000 		.4byte	.LASF186
 2092 0aa9 01       		.byte	0x1
ARM GAS  C:\Users\LAB_ME~1\AppData\Local\Temp\ccSBjzI2.s 			page 38


 2093 0aaa 8D02     		.2byte	0x28d
 2094 0aac 01       		.byte	0x1
 2095 0aad 00000000 		.4byte	.LFB125
 2096 0ab1 20000000 		.4byte	.LFE125
 2097 0ab5 02       		.byte	0x2
 2098 0ab6 7D       		.byte	0x7d
 2099 0ab7 00       		.sleb128 0
 2100 0ab8 01       		.byte	0x1
 2101 0ab9 DE0A0000 		.4byte	0xade
 2102 0abd 22       		.uleb128 0x22
 2103 0abe 38040000 		.4byte	.LASF179
 2104 0ac2 01       		.byte	0x1
 2105 0ac3 8D02     		.2byte	0x28d
 2106 0ac5 7E070000 		.4byte	0x77e
 2107 0ac9 5A030000 		.4byte	.LLST17
 2108 0acd 22       		.uleb128 0x22
 2109 0ace 9B060000 		.4byte	.LASF183
 2110 0ad2 01       		.byte	0x1
 2111 0ad3 8D02     		.2byte	0x28d
 2112 0ad5 90070000 		.4byte	0x790
 2113 0ad9 7B030000 		.4byte	.LLST18
 2114 0add 00       		.byte	0
 2115 0ade 27       		.uleb128 0x27
 2116 0adf 18060000 		.4byte	.LASF187
 2117 0ae3 07       		.byte	0x7
 2118 0ae4 9806     		.2byte	0x698
 2119 0ae6 0E030000 		.4byte	0x30e
 2120 0aea 01       		.byte	0x1
 2121 0aeb 01       		.byte	0x1
 2122 0aec 28       		.uleb128 0x28
 2123 0aed B1020000 		.4byte	.LASF188
 2124 0af1 01       		.byte	0x1
 2125 0af2 3B       		.byte	0x3b
 2126 0af3 FD060000 		.4byte	0x6fd
 2127 0af7 01       		.byte	0x1
 2128 0af8 05       		.byte	0x5
 2129 0af9 03       		.byte	0x3
 2130 0afa 00000000 		.4byte	PWMD3
 2131 0afe 28       		.uleb128 0x28
 2132 0aff B7020000 		.4byte	.LASF189
 2133 0b03 01       		.byte	0x1
 2134 0b04 43       		.byte	0x43
 2135 0b05 FD060000 		.4byte	0x6fd
 2136 0b09 01       		.byte	0x1
 2137 0b0a 05       		.byte	0x5
 2138 0b0b 03       		.byte	0x3
 2139 0b0c 00000000 		.4byte	PWMD4
 2140 0b10 29       		.uleb128 0x29
 2141 0b11 01       		.byte	0x1
 2142 0b12 35080000 		.4byte	.LASF197
 2143 0b16 09       		.byte	0x9
 2144 0b17 FC01     		.2byte	0x1fc
 2145 0b19 01       		.byte	0x1
 2146 0b1a 01       		.byte	0x1
 2147 0b1b 2A       		.uleb128 0x2a
 2148 0b1c 01       		.byte	0x1
 2149 0b1d FF080000 		.4byte	.LASF190
ARM GAS  C:\Users\LAB_ME~1\AppData\Local\Temp\ccSBjzI2.s 			page 39


 2150 0b21 05       		.byte	0x5
 2151 0b22 E0       		.byte	0xe0
 2152 0b23 01       		.byte	0x1
 2153 0b24 01       		.byte	0x1
 2154 0b25 2F0B0000 		.4byte	0xb2f
 2155 0b29 15       		.uleb128 0x15
 2156 0b2a 7E070000 		.4byte	0x77e
 2157 0b2e 00       		.byte	0
 2158 0b2f 2B       		.uleb128 0x2b
 2159 0b30 01       		.byte	0x1
 2160 0b31 59010000 		.4byte	.LASF191
 2161 0b35 08       		.byte	0x8
 2162 0b36 1C01     		.2byte	0x11c
 2163 0b38 01       		.byte	0x1
 2164 0b39 01       		.byte	0x1
 2165 0b3a 490B0000 		.4byte	0xb49
 2166 0b3e 15       		.uleb128 0x15
 2167 0b3f 7B000000 		.4byte	0x7b
 2168 0b43 15       		.uleb128 0x15
 2169 0b44 7B000000 		.4byte	0x7b
 2170 0b48 00       		.byte	0
 2171 0b49 2C       		.uleb128 0x2c
 2172 0b4a 01       		.byte	0x1
 2173 0b4b FE060000 		.4byte	.LASF198
 2174 0b4f 08       		.byte	0x8
 2175 0b50 1D01     		.2byte	0x11d
 2176 0b52 01       		.byte	0x1
 2177 0b53 01       		.byte	0x1
 2178 0b54 15       		.uleb128 0x15
 2179 0b55 7B000000 		.4byte	0x7b
 2180 0b59 00       		.byte	0
 2181 0b5a 00       		.byte	0
 2182              		.section	.debug_abbrev,"",%progbits
 2183              	.Ldebug_abbrev0:
 2184 0000 01       		.uleb128 0x1
 2185 0001 11       		.uleb128 0x11
 2186 0002 01       		.byte	0x1
 2187 0003 25       		.uleb128 0x25
 2188 0004 0E       		.uleb128 0xe
 2189 0005 13       		.uleb128 0x13
 2190 0006 0B       		.uleb128 0xb
 2191 0007 03       		.uleb128 0x3
 2192 0008 0E       		.uleb128 0xe
 2193 0009 1B       		.uleb128 0x1b
 2194 000a 0E       		.uleb128 0xe
 2195 000b 55       		.uleb128 0x55
 2196 000c 06       		.uleb128 0x6
 2197 000d 11       		.uleb128 0x11
 2198 000e 01       		.uleb128 0x1
 2199 000f 52       		.uleb128 0x52
 2200 0010 01       		.uleb128 0x1
 2201 0011 10       		.uleb128 0x10
 2202 0012 06       		.uleb128 0x6
 2203 0013 00       		.byte	0
 2204 0014 00       		.byte	0
 2205 0015 02       		.uleb128 0x2
 2206 0016 24       		.uleb128 0x24
ARM GAS  C:\Users\LAB_ME~1\AppData\Local\Temp\ccSBjzI2.s 			page 40


 2207 0017 00       		.byte	0
 2208 0018 0B       		.uleb128 0xb
 2209 0019 0B       		.uleb128 0xb
 2210 001a 3E       		.uleb128 0x3e
 2211 001b 0B       		.uleb128 0xb
 2212 001c 03       		.uleb128 0x3
 2213 001d 0E       		.uleb128 0xe
 2214 001e 00       		.byte	0
 2215 001f 00       		.byte	0
 2216 0020 03       		.uleb128 0x3
 2217 0021 24       		.uleb128 0x24
 2218 0022 00       		.byte	0
 2219 0023 0B       		.uleb128 0xb
 2220 0024 0B       		.uleb128 0xb
 2221 0025 3E       		.uleb128 0x3e
 2222 0026 0B       		.uleb128 0xb
 2223 0027 03       		.uleb128 0x3
 2224 0028 08       		.uleb128 0x8
 2225 0029 00       		.byte	0
 2226 002a 00       		.byte	0
 2227 002b 04       		.uleb128 0x4
 2228 002c 16       		.uleb128 0x16
 2229 002d 00       		.byte	0
 2230 002e 03       		.uleb128 0x3
 2231 002f 0E       		.uleb128 0xe
 2232 0030 3A       		.uleb128 0x3a
 2233 0031 0B       		.uleb128 0xb
 2234 0032 3B       		.uleb128 0x3b
 2235 0033 0B       		.uleb128 0xb
 2236 0034 49       		.uleb128 0x49
 2237 0035 13       		.uleb128 0x13
 2238 0036 00       		.byte	0
 2239 0037 00       		.byte	0
 2240 0038 05       		.uleb128 0x5
 2241 0039 35       		.uleb128 0x35
 2242 003a 00       		.byte	0
 2243 003b 49       		.uleb128 0x49
 2244 003c 13       		.uleb128 0x13
 2245 003d 00       		.byte	0
 2246 003e 00       		.byte	0
 2247 003f 06       		.uleb128 0x6
 2248 0040 04       		.uleb128 0x4
 2249 0041 01       		.byte	0x1
 2250 0042 03       		.uleb128 0x3
 2251 0043 0E       		.uleb128 0xe
 2252 0044 0B       		.uleb128 0xb
 2253 0045 0B       		.uleb128 0xb
 2254 0046 3A       		.uleb128 0x3a
 2255 0047 0B       		.uleb128 0xb
 2256 0048 3B       		.uleb128 0x3b
 2257 0049 0B       		.uleb128 0xb
 2258 004a 01       		.uleb128 0x1
 2259 004b 13       		.uleb128 0x13
 2260 004c 00       		.byte	0
 2261 004d 00       		.byte	0
 2262 004e 07       		.uleb128 0x7
 2263 004f 28       		.uleb128 0x28
ARM GAS  C:\Users\LAB_ME~1\AppData\Local\Temp\ccSBjzI2.s 			page 41


 2264 0050 00       		.byte	0
 2265 0051 03       		.uleb128 0x3
 2266 0052 0E       		.uleb128 0xe
 2267 0053 1C       		.uleb128 0x1c
 2268 0054 0D       		.uleb128 0xd
 2269 0055 00       		.byte	0
 2270 0056 00       		.byte	0
 2271 0057 08       		.uleb128 0x8
 2272 0058 01       		.uleb128 0x1
 2273 0059 01       		.byte	0x1
 2274 005a 49       		.uleb128 0x49
 2275 005b 13       		.uleb128 0x13
 2276 005c 01       		.uleb128 0x1
 2277 005d 13       		.uleb128 0x13
 2278 005e 00       		.byte	0
 2279 005f 00       		.byte	0
 2280 0060 09       		.uleb128 0x9
 2281 0061 21       		.uleb128 0x21
 2282 0062 00       		.byte	0
 2283 0063 49       		.uleb128 0x49
 2284 0064 13       		.uleb128 0x13
 2285 0065 2F       		.uleb128 0x2f
 2286 0066 0B       		.uleb128 0xb
 2287 0067 00       		.byte	0
 2288 0068 00       		.byte	0
 2289 0069 0A       		.uleb128 0xa
 2290 006a 13       		.uleb128 0x13
 2291 006b 01       		.byte	0x1
 2292 006c 0B       		.uleb128 0xb
 2293 006d 0B       		.uleb128 0xb
 2294 006e 3A       		.uleb128 0x3a
 2295 006f 0B       		.uleb128 0xb
 2296 0070 3B       		.uleb128 0x3b
 2297 0071 05       		.uleb128 0x5
 2298 0072 01       		.uleb128 0x1
 2299 0073 13       		.uleb128 0x13
 2300 0074 00       		.byte	0
 2301 0075 00       		.byte	0
 2302 0076 0B       		.uleb128 0xb
 2303 0077 0D       		.uleb128 0xd
 2304 0078 00       		.byte	0
 2305 0079 03       		.uleb128 0x3
 2306 007a 08       		.uleb128 0x8
 2307 007b 3A       		.uleb128 0x3a
 2308 007c 0B       		.uleb128 0xb
 2309 007d 3B       		.uleb128 0x3b
 2310 007e 05       		.uleb128 0x5
 2311 007f 49       		.uleb128 0x49
 2312 0080 13       		.uleb128 0x13
 2313 0081 38       		.uleb128 0x38
 2314 0082 0A       		.uleb128 0xa
 2315 0083 00       		.byte	0
 2316 0084 00       		.byte	0
 2317 0085 0C       		.uleb128 0xc
 2318 0086 0D       		.uleb128 0xd
 2319 0087 00       		.byte	0
 2320 0088 03       		.uleb128 0x3
ARM GAS  C:\Users\LAB_ME~1\AppData\Local\Temp\ccSBjzI2.s 			page 42


 2321 0089 0E       		.uleb128 0xe
 2322 008a 3A       		.uleb128 0x3a
 2323 008b 0B       		.uleb128 0xb
 2324 008c 3B       		.uleb128 0x3b
 2325 008d 05       		.uleb128 0x5
 2326 008e 49       		.uleb128 0x49
 2327 008f 13       		.uleb128 0x13
 2328 0090 38       		.uleb128 0x38
 2329 0091 0A       		.uleb128 0xa
 2330 0092 00       		.byte	0
 2331 0093 00       		.byte	0
 2332 0094 0D       		.uleb128 0xd
 2333 0095 16       		.uleb128 0x16
 2334 0096 00       		.byte	0
 2335 0097 03       		.uleb128 0x3
 2336 0098 0E       		.uleb128 0xe
 2337 0099 3A       		.uleb128 0x3a
 2338 009a 0B       		.uleb128 0xb
 2339 009b 3B       		.uleb128 0x3b
 2340 009c 05       		.uleb128 0x5
 2341 009d 49       		.uleb128 0x49
 2342 009e 13       		.uleb128 0x13
 2343 009f 00       		.byte	0
 2344 00a0 00       		.byte	0
 2345 00a1 0E       		.uleb128 0xe
 2346 00a2 13       		.uleb128 0x13
 2347 00a3 01       		.byte	0x1
 2348 00a4 0B       		.uleb128 0xb
 2349 00a5 0B       		.uleb128 0xb
 2350 00a6 3A       		.uleb128 0x3a
 2351 00a7 0B       		.uleb128 0xb
 2352 00a8 3B       		.uleb128 0x3b
 2353 00a9 0B       		.uleb128 0xb
 2354 00aa 01       		.uleb128 0x1
 2355 00ab 13       		.uleb128 0x13
 2356 00ac 00       		.byte	0
 2357 00ad 00       		.byte	0
 2358 00ae 0F       		.uleb128 0xf
 2359 00af 0D       		.uleb128 0xd
 2360 00b0 00       		.byte	0
 2361 00b1 03       		.uleb128 0x3
 2362 00b2 08       		.uleb128 0x8
 2363 00b3 3A       		.uleb128 0x3a
 2364 00b4 0B       		.uleb128 0xb
 2365 00b5 3B       		.uleb128 0x3b
 2366 00b6 0B       		.uleb128 0xb
 2367 00b7 49       		.uleb128 0x49
 2368 00b8 13       		.uleb128 0x13
 2369 00b9 38       		.uleb128 0x38
 2370 00ba 0A       		.uleb128 0xa
 2371 00bb 00       		.byte	0
 2372 00bc 00       		.byte	0
 2373 00bd 10       		.uleb128 0x10
 2374 00be 0D       		.uleb128 0xd
 2375 00bf 00       		.byte	0
 2376 00c0 03       		.uleb128 0x3
 2377 00c1 0E       		.uleb128 0xe
ARM GAS  C:\Users\LAB_ME~1\AppData\Local\Temp\ccSBjzI2.s 			page 43


 2378 00c2 3A       		.uleb128 0x3a
 2379 00c3 0B       		.uleb128 0xb
 2380 00c4 3B       		.uleb128 0x3b
 2381 00c5 0B       		.uleb128 0xb
 2382 00c6 49       		.uleb128 0x49
 2383 00c7 13       		.uleb128 0x13
 2384 00c8 38       		.uleb128 0x38
 2385 00c9 0A       		.uleb128 0xa
 2386 00ca 00       		.byte	0
 2387 00cb 00       		.byte	0
 2388 00cc 11       		.uleb128 0x11
 2389 00cd 0F       		.uleb128 0xf
 2390 00ce 00       		.byte	0
 2391 00cf 0B       		.uleb128 0xb
 2392 00d0 0B       		.uleb128 0xb
 2393 00d1 49       		.uleb128 0x49
 2394 00d2 13       		.uleb128 0x13
 2395 00d3 00       		.byte	0
 2396 00d4 00       		.byte	0
 2397 00d5 12       		.uleb128 0x12
 2398 00d6 04       		.uleb128 0x4
 2399 00d7 01       		.byte	0x1
 2400 00d8 0B       		.uleb128 0xb
 2401 00d9 0B       		.uleb128 0xb
 2402 00da 3A       		.uleb128 0x3a
 2403 00db 0B       		.uleb128 0xb
 2404 00dc 3B       		.uleb128 0x3b
 2405 00dd 0B       		.uleb128 0xb
 2406 00de 01       		.uleb128 0x1
 2407 00df 13       		.uleb128 0x13
 2408 00e0 00       		.byte	0
 2409 00e1 00       		.byte	0
 2410 00e2 13       		.uleb128 0x13
 2411 00e3 13       		.uleb128 0x13
 2412 00e4 01       		.byte	0x1
 2413 00e5 03       		.uleb128 0x3
 2414 00e6 0E       		.uleb128 0xe
 2415 00e7 0B       		.uleb128 0xb
 2416 00e8 0B       		.uleb128 0xb
 2417 00e9 3A       		.uleb128 0x3a
 2418 00ea 0B       		.uleb128 0xb
 2419 00eb 3B       		.uleb128 0x3b
 2420 00ec 05       		.uleb128 0x5
 2421 00ed 01       		.uleb128 0x1
 2422 00ee 13       		.uleb128 0x13
 2423 00ef 00       		.byte	0
 2424 00f0 00       		.byte	0
 2425 00f1 14       		.uleb128 0x14
 2426 00f2 15       		.uleb128 0x15
 2427 00f3 01       		.byte	0x1
 2428 00f4 27       		.uleb128 0x27
 2429 00f5 0C       		.uleb128 0xc
 2430 00f6 01       		.uleb128 0x1
 2431 00f7 13       		.uleb128 0x13
 2432 00f8 00       		.byte	0
 2433 00f9 00       		.byte	0
 2434 00fa 15       		.uleb128 0x15
ARM GAS  C:\Users\LAB_ME~1\AppData\Local\Temp\ccSBjzI2.s 			page 44


 2435 00fb 05       		.uleb128 0x5
 2436 00fc 00       		.byte	0
 2437 00fd 49       		.uleb128 0x49
 2438 00fe 13       		.uleb128 0x13
 2439 00ff 00       		.byte	0
 2440 0100 00       		.byte	0
 2441 0101 16       		.uleb128 0x16
 2442 0102 26       		.uleb128 0x26
 2443 0103 00       		.byte	0
 2444 0104 49       		.uleb128 0x49
 2445 0105 13       		.uleb128 0x13
 2446 0106 00       		.byte	0
 2447 0107 00       		.byte	0
 2448 0108 17       		.uleb128 0x17
 2449 0109 2E       		.uleb128 0x2e
 2450 010a 01       		.byte	0x1
 2451 010b 03       		.uleb128 0x3
 2452 010c 0E       		.uleb128 0xe
 2453 010d 3A       		.uleb128 0x3a
 2454 010e 0B       		.uleb128 0xb
 2455 010f 3B       		.uleb128 0x3b
 2456 0110 0B       		.uleb128 0xb
 2457 0111 27       		.uleb128 0x27
 2458 0112 0C       		.uleb128 0xc
 2459 0113 11       		.uleb128 0x11
 2460 0114 01       		.uleb128 0x1
 2461 0115 12       		.uleb128 0x12
 2462 0116 01       		.uleb128 0x1
 2463 0117 40       		.uleb128 0x40
 2464 0118 06       		.uleb128 0x6
 2465 0119 9742     		.uleb128 0x2117
 2466 011b 0C       		.uleb128 0xc
 2467 011c 01       		.uleb128 0x1
 2468 011d 13       		.uleb128 0x13
 2469 011e 00       		.byte	0
 2470 011f 00       		.byte	0
 2471 0120 18       		.uleb128 0x18
 2472 0121 05       		.uleb128 0x5
 2473 0122 00       		.byte	0
 2474 0123 03       		.uleb128 0x3
 2475 0124 0E       		.uleb128 0xe
 2476 0125 3A       		.uleb128 0x3a
 2477 0126 0B       		.uleb128 0xb
 2478 0127 3B       		.uleb128 0x3b
 2479 0128 0B       		.uleb128 0xb
 2480 0129 49       		.uleb128 0x49
 2481 012a 13       		.uleb128 0x13
 2482 012b 02       		.uleb128 0x2
 2483 012c 06       		.uleb128 0x6
 2484 012d 00       		.byte	0
 2485 012e 00       		.byte	0
 2486 012f 19       		.uleb128 0x19
 2487 0130 34       		.uleb128 0x34
 2488 0131 00       		.byte	0
 2489 0132 03       		.uleb128 0x3
 2490 0133 08       		.uleb128 0x8
 2491 0134 3A       		.uleb128 0x3a
ARM GAS  C:\Users\LAB_ME~1\AppData\Local\Temp\ccSBjzI2.s 			page 45


 2492 0135 0B       		.uleb128 0xb
 2493 0136 3B       		.uleb128 0x3b
 2494 0137 0B       		.uleb128 0xb
 2495 0138 49       		.uleb128 0x49
 2496 0139 13       		.uleb128 0x13
 2497 013a 02       		.uleb128 0x2
 2498 013b 06       		.uleb128 0x6
 2499 013c 00       		.byte	0
 2500 013d 00       		.byte	0
 2501 013e 1A       		.uleb128 0x1a
 2502 013f 898201   		.uleb128 0x4109
 2503 0142 01       		.byte	0x1
 2504 0143 11       		.uleb128 0x11
 2505 0144 01       		.uleb128 0x1
 2506 0145 01       		.uleb128 0x1
 2507 0146 13       		.uleb128 0x13
 2508 0147 00       		.byte	0
 2509 0148 00       		.byte	0
 2510 0149 1B       		.uleb128 0x1b
 2511 014a 8A8201   		.uleb128 0x410a
 2512 014d 00       		.byte	0
 2513 014e 02       		.uleb128 0x2
 2514 014f 0A       		.uleb128 0xa
 2515 0150 9142     		.uleb128 0x2111
 2516 0152 0A       		.uleb128 0xa
 2517 0153 00       		.byte	0
 2518 0154 00       		.byte	0
 2519 0155 1C       		.uleb128 0x1c
 2520 0156 898201   		.uleb128 0x4109
 2521 0159 01       		.byte	0x1
 2522 015a 11       		.uleb128 0x11
 2523 015b 01       		.uleb128 0x1
 2524 015c 00       		.byte	0
 2525 015d 00       		.byte	0
 2526 015e 1D       		.uleb128 0x1d
 2527 015f 2E       		.uleb128 0x2e
 2528 0160 01       		.byte	0x1
 2529 0161 3F       		.uleb128 0x3f
 2530 0162 0C       		.uleb128 0xc
 2531 0163 03       		.uleb128 0x3
 2532 0164 0E       		.uleb128 0xe
 2533 0165 3A       		.uleb128 0x3a
 2534 0166 0B       		.uleb128 0xb
 2535 0167 3B       		.uleb128 0x3b
 2536 0168 0B       		.uleb128 0xb
 2537 0169 27       		.uleb128 0x27
 2538 016a 0C       		.uleb128 0xc
 2539 016b 11       		.uleb128 0x11
 2540 016c 01       		.uleb128 0x1
 2541 016d 12       		.uleb128 0x12
 2542 016e 01       		.uleb128 0x1
 2543 016f 40       		.uleb128 0x40
 2544 0170 06       		.uleb128 0x6
 2545 0171 9742     		.uleb128 0x2117
 2546 0173 0C       		.uleb128 0xc
 2547 0174 01       		.uleb128 0x1
 2548 0175 13       		.uleb128 0x13
ARM GAS  C:\Users\LAB_ME~1\AppData\Local\Temp\ccSBjzI2.s 			page 46


 2549 0176 00       		.byte	0
 2550 0177 00       		.byte	0
 2551 0178 1E       		.uleb128 0x1e
 2552 0179 898201   		.uleb128 0x4109
 2553 017c 01       		.byte	0x1
 2554 017d 11       		.uleb128 0x11
 2555 017e 01       		.uleb128 0x1
 2556 017f 31       		.uleb128 0x31
 2557 0180 13       		.uleb128 0x13
 2558 0181 01       		.uleb128 0x1
 2559 0182 13       		.uleb128 0x13
 2560 0183 00       		.byte	0
 2561 0184 00       		.byte	0
 2562 0185 1F       		.uleb128 0x1f
 2563 0186 898201   		.uleb128 0x4109
 2564 0189 00       		.byte	0
 2565 018a 11       		.uleb128 0x11
 2566 018b 01       		.uleb128 0x1
 2567 018c 9542     		.uleb128 0x2115
 2568 018e 0C       		.uleb128 0xc
 2569 018f 31       		.uleb128 0x31
 2570 0190 13       		.uleb128 0x13
 2571 0191 00       		.byte	0
 2572 0192 00       		.byte	0
 2573 0193 20       		.uleb128 0x20
 2574 0194 2E       		.uleb128 0x2e
 2575 0195 01       		.byte	0x1
 2576 0196 3F       		.uleb128 0x3f
 2577 0197 0C       		.uleb128 0xc
 2578 0198 03       		.uleb128 0x3
 2579 0199 0E       		.uleb128 0xe
 2580 019a 3A       		.uleb128 0x3a
 2581 019b 0B       		.uleb128 0xb
 2582 019c 3B       		.uleb128 0x3b
 2583 019d 05       		.uleb128 0x5
 2584 019e 27       		.uleb128 0x27
 2585 019f 0C       		.uleb128 0xc
 2586 01a0 11       		.uleb128 0x11
 2587 01a1 01       		.uleb128 0x1
 2588 01a2 12       		.uleb128 0x12
 2589 01a3 01       		.uleb128 0x1
 2590 01a4 40       		.uleb128 0x40
 2591 01a5 06       		.uleb128 0x6
 2592 01a6 9742     		.uleb128 0x2117
 2593 01a8 0C       		.uleb128 0xc
 2594 01a9 01       		.uleb128 0x1
 2595 01aa 13       		.uleb128 0x13
 2596 01ab 00       		.byte	0
 2597 01ac 00       		.byte	0
 2598 01ad 21       		.uleb128 0x21
 2599 01ae 898201   		.uleb128 0x4109
 2600 01b1 01       		.byte	0x1
 2601 01b2 11       		.uleb128 0x11
 2602 01b3 01       		.uleb128 0x1
 2603 01b4 31       		.uleb128 0x31
 2604 01b5 13       		.uleb128 0x13
 2605 01b6 00       		.byte	0
ARM GAS  C:\Users\LAB_ME~1\AppData\Local\Temp\ccSBjzI2.s 			page 47


 2606 01b7 00       		.byte	0
 2607 01b8 22       		.uleb128 0x22
 2608 01b9 05       		.uleb128 0x5
 2609 01ba 00       		.byte	0
 2610 01bb 03       		.uleb128 0x3
 2611 01bc 0E       		.uleb128 0xe
 2612 01bd 3A       		.uleb128 0x3a
 2613 01be 0B       		.uleb128 0xb
 2614 01bf 3B       		.uleb128 0x3b
 2615 01c0 05       		.uleb128 0x5
 2616 01c1 49       		.uleb128 0x49
 2617 01c2 13       		.uleb128 0x13
 2618 01c3 02       		.uleb128 0x2
 2619 01c4 06       		.uleb128 0x6
 2620 01c5 00       		.byte	0
 2621 01c6 00       		.byte	0
 2622 01c7 23       		.uleb128 0x23
 2623 01c8 34       		.uleb128 0x34
 2624 01c9 00       		.byte	0
 2625 01ca 03       		.uleb128 0x3
 2626 01cb 08       		.uleb128 0x8
 2627 01cc 3A       		.uleb128 0x3a
 2628 01cd 0B       		.uleb128 0xb
 2629 01ce 3B       		.uleb128 0x3b
 2630 01cf 05       		.uleb128 0x5
 2631 01d0 49       		.uleb128 0x49
 2632 01d1 13       		.uleb128 0x13
 2633 01d2 02       		.uleb128 0x2
 2634 01d3 06       		.uleb128 0x6
 2635 01d4 00       		.byte	0
 2636 01d5 00       		.byte	0
 2637 01d6 24       		.uleb128 0x24
 2638 01d7 34       		.uleb128 0x34
 2639 01d8 00       		.byte	0
 2640 01d9 03       		.uleb128 0x3
 2641 01da 0E       		.uleb128 0xe
 2642 01db 3A       		.uleb128 0x3a
 2643 01dc 0B       		.uleb128 0xb
 2644 01dd 3B       		.uleb128 0x3b
 2645 01de 05       		.uleb128 0x5
 2646 01df 49       		.uleb128 0x49
 2647 01e0 13       		.uleb128 0x13
 2648 01e1 02       		.uleb128 0x2
 2649 01e2 06       		.uleb128 0x6
 2650 01e3 00       		.byte	0
 2651 01e4 00       		.byte	0
 2652 01e5 25       		.uleb128 0x25
 2653 01e6 0B       		.uleb128 0xb
 2654 01e7 01       		.byte	0x1
 2655 01e8 11       		.uleb128 0x11
 2656 01e9 01       		.uleb128 0x1
 2657 01ea 12       		.uleb128 0x12
 2658 01eb 01       		.uleb128 0x1
 2659 01ec 00       		.byte	0
 2660 01ed 00       		.byte	0
 2661 01ee 26       		.uleb128 0x26
 2662 01ef 2E       		.uleb128 0x2e
ARM GAS  C:\Users\LAB_ME~1\AppData\Local\Temp\ccSBjzI2.s 			page 48


 2663 01f0 01       		.byte	0x1
 2664 01f1 3F       		.uleb128 0x3f
 2665 01f2 0C       		.uleb128 0xc
 2666 01f3 03       		.uleb128 0x3
 2667 01f4 0E       		.uleb128 0xe
 2668 01f5 3A       		.uleb128 0x3a
 2669 01f6 0B       		.uleb128 0xb
 2670 01f7 3B       		.uleb128 0x3b
 2671 01f8 05       		.uleb128 0x5
 2672 01f9 27       		.uleb128 0x27
 2673 01fa 0C       		.uleb128 0xc
 2674 01fb 11       		.uleb128 0x11
 2675 01fc 01       		.uleb128 0x1
 2676 01fd 12       		.uleb128 0x12
 2677 01fe 01       		.uleb128 0x1
 2678 01ff 40       		.uleb128 0x40
 2679 0200 0A       		.uleb128 0xa
 2680 0201 9742     		.uleb128 0x2117
 2681 0203 0C       		.uleb128 0xc
 2682 0204 01       		.uleb128 0x1
 2683 0205 13       		.uleb128 0x13
 2684 0206 00       		.byte	0
 2685 0207 00       		.byte	0
 2686 0208 27       		.uleb128 0x27
 2687 0209 34       		.uleb128 0x34
 2688 020a 00       		.byte	0
 2689 020b 03       		.uleb128 0x3
 2690 020c 0E       		.uleb128 0xe
 2691 020d 3A       		.uleb128 0x3a
 2692 020e 0B       		.uleb128 0xb
 2693 020f 3B       		.uleb128 0x3b
 2694 0210 05       		.uleb128 0x5
 2695 0211 49       		.uleb128 0x49
 2696 0212 13       		.uleb128 0x13
 2697 0213 3F       		.uleb128 0x3f
 2698 0214 0C       		.uleb128 0xc
 2699 0215 3C       		.uleb128 0x3c
 2700 0216 0C       		.uleb128 0xc
 2701 0217 00       		.byte	0
 2702 0218 00       		.byte	0
 2703 0219 28       		.uleb128 0x28
 2704 021a 34       		.uleb128 0x34
 2705 021b 00       		.byte	0
 2706 021c 03       		.uleb128 0x3
 2707 021d 0E       		.uleb128 0xe
 2708 021e 3A       		.uleb128 0x3a
 2709 021f 0B       		.uleb128 0xb
 2710 0220 3B       		.uleb128 0x3b
 2711 0221 0B       		.uleb128 0xb
 2712 0222 49       		.uleb128 0x49
 2713 0223 13       		.uleb128 0x13
 2714 0224 3F       		.uleb128 0x3f
 2715 0225 0C       		.uleb128 0xc
 2716 0226 02       		.uleb128 0x2
 2717 0227 0A       		.uleb128 0xa
 2718 0228 00       		.byte	0
 2719 0229 00       		.byte	0
ARM GAS  C:\Users\LAB_ME~1\AppData\Local\Temp\ccSBjzI2.s 			page 49


 2720 022a 29       		.uleb128 0x29
 2721 022b 2E       		.uleb128 0x2e
 2722 022c 00       		.byte	0
 2723 022d 3F       		.uleb128 0x3f
 2724 022e 0C       		.uleb128 0xc
 2725 022f 03       		.uleb128 0x3
 2726 0230 0E       		.uleb128 0xe
 2727 0231 3A       		.uleb128 0x3a
 2728 0232 0B       		.uleb128 0xb
 2729 0233 3B       		.uleb128 0x3b
 2730 0234 05       		.uleb128 0x5
 2731 0235 27       		.uleb128 0x27
 2732 0236 0C       		.uleb128 0xc
 2733 0237 3C       		.uleb128 0x3c
 2734 0238 0C       		.uleb128 0xc
 2735 0239 00       		.byte	0
 2736 023a 00       		.byte	0
 2737 023b 2A       		.uleb128 0x2a
 2738 023c 2E       		.uleb128 0x2e
 2739 023d 01       		.byte	0x1
 2740 023e 3F       		.uleb128 0x3f
 2741 023f 0C       		.uleb128 0xc
 2742 0240 03       		.uleb128 0x3
 2743 0241 0E       		.uleb128 0xe
 2744 0242 3A       		.uleb128 0x3a
 2745 0243 0B       		.uleb128 0xb
 2746 0244 3B       		.uleb128 0x3b
 2747 0245 0B       		.uleb128 0xb
 2748 0246 27       		.uleb128 0x27
 2749 0247 0C       		.uleb128 0xc
 2750 0248 3C       		.uleb128 0x3c
 2751 0249 0C       		.uleb128 0xc
 2752 024a 01       		.uleb128 0x1
 2753 024b 13       		.uleb128 0x13
 2754 024c 00       		.byte	0
 2755 024d 00       		.byte	0
 2756 024e 2B       		.uleb128 0x2b
 2757 024f 2E       		.uleb128 0x2e
 2758 0250 01       		.byte	0x1
 2759 0251 3F       		.uleb128 0x3f
 2760 0252 0C       		.uleb128 0xc
 2761 0253 03       		.uleb128 0x3
 2762 0254 0E       		.uleb128 0xe
 2763 0255 3A       		.uleb128 0x3a
 2764 0256 0B       		.uleb128 0xb
 2765 0257 3B       		.uleb128 0x3b
 2766 0258 05       		.uleb128 0x5
 2767 0259 27       		.uleb128 0x27
 2768 025a 0C       		.uleb128 0xc
 2769 025b 3C       		.uleb128 0x3c
 2770 025c 0C       		.uleb128 0xc
 2771 025d 01       		.uleb128 0x1
 2772 025e 13       		.uleb128 0x13
 2773 025f 00       		.byte	0
 2774 0260 00       		.byte	0
 2775 0261 2C       		.uleb128 0x2c
 2776 0262 2E       		.uleb128 0x2e
ARM GAS  C:\Users\LAB_ME~1\AppData\Local\Temp\ccSBjzI2.s 			page 50


 2777 0263 01       		.byte	0x1
 2778 0264 3F       		.uleb128 0x3f
 2779 0265 0C       		.uleb128 0xc
 2780 0266 03       		.uleb128 0x3
 2781 0267 0E       		.uleb128 0xe
 2782 0268 3A       		.uleb128 0x3a
 2783 0269 0B       		.uleb128 0xb
 2784 026a 3B       		.uleb128 0x3b
 2785 026b 05       		.uleb128 0x5
 2786 026c 27       		.uleb128 0x27
 2787 026d 0C       		.uleb128 0xc
 2788 026e 3C       		.uleb128 0x3c
 2789 026f 0C       		.uleb128 0xc
 2790 0270 00       		.byte	0
 2791 0271 00       		.byte	0
 2792 0272 00       		.byte	0
 2793              		.section	.debug_loc,"",%progbits
 2794              	.Ldebug_loc0:
 2795              	.LLST0:
 2796 0000 00000000 		.4byte	.LFB118
 2797 0004 02000000 		.4byte	.LCFI0
 2798 0008 0200     		.2byte	0x2
 2799 000a 7D       		.byte	0x7d
 2800 000b 00       		.sleb128 0
 2801 000c 02000000 		.4byte	.LCFI0
 2802 0010 64000000 		.4byte	.LFE118
 2803 0014 0200     		.2byte	0x2
 2804 0016 7D       		.byte	0x7d
 2805 0017 10       		.sleb128 16
 2806 0018 00000000 		.4byte	0
 2807 001c 00000000 		.4byte	0
 2808              	.LLST1:
 2809 0020 00000000 		.4byte	.LVL0
 2810 0024 18000000 		.4byte	.LVL3
 2811 0028 0100     		.2byte	0x1
 2812 002a 50       		.byte	0x50
 2813 002b 18000000 		.4byte	.LVL3
 2814 002f 5C000000 		.4byte	.LVL8
 2815 0033 0100     		.2byte	0x1
 2816 0035 55       		.byte	0x55
 2817 0036 5C000000 		.4byte	.LVL8
 2818 003a 61000000 		.4byte	.LVL9-1
 2819 003e 0100     		.2byte	0x1
 2820 0040 50       		.byte	0x50
 2821 0041 61000000 		.4byte	.LVL9-1
 2822 0045 64000000 		.4byte	.LFE118
 2823 0049 0100     		.2byte	0x1
 2824 004b 55       		.byte	0x55
 2825 004c 00000000 		.4byte	0
 2826 0050 00000000 		.4byte	0
 2827              	.LLST2:
 2828 0054 06000000 		.4byte	.LVL1
 2829 0058 0A000000 		.4byte	.LVL2
 2830 005c 0100     		.2byte	0x1
 2831 005e 52       		.byte	0x52
 2832 005f 0A000000 		.4byte	.LVL2
 2833 0063 64000000 		.4byte	.LFE118
ARM GAS  C:\Users\LAB_ME~1\AppData\Local\Temp\ccSBjzI2.s 			page 51


 2834 0067 0100     		.2byte	0x1
 2835 0069 54       		.byte	0x54
 2836 006a 00000000 		.4byte	0
 2837 006e 00000000 		.4byte	0
 2838              	.LLST3:
 2839 0072 00000000 		.4byte	.LFB119
 2840 0076 02000000 		.4byte	.LCFI1
 2841 007a 0200     		.2byte	0x2
 2842 007c 7D       		.byte	0x7d
 2843 007d 00       		.sleb128 0
 2844 007e 02000000 		.4byte	.LCFI1
 2845 0082 14000000 		.4byte	.LFE119
 2846 0086 0200     		.2byte	0x2
 2847 0088 7D       		.byte	0x7d
 2848 0089 08       		.sleb128 8
 2849 008a 00000000 		.4byte	0
 2850 008e 00000000 		.4byte	0
 2851              	.LLST4:
 2852 0092 00000000 		.4byte	.LFB120
 2853 0096 02000000 		.4byte	.LCFI2
 2854 009a 0200     		.2byte	0x2
 2855 009c 7D       		.byte	0x7d
 2856 009d 00       		.sleb128 0
 2857 009e 02000000 		.4byte	.LCFI2
 2858 00a2 14000000 		.4byte	.LFE120
 2859 00a6 0200     		.2byte	0x2
 2860 00a8 7D       		.byte	0x7d
 2861 00a9 08       		.sleb128 8
 2862 00aa 00000000 		.4byte	0
 2863 00ae 00000000 		.4byte	0
 2864              	.LLST5:
 2865 00b2 00000000 		.4byte	.LFB121
 2866 00b6 02000000 		.4byte	.LCFI3
 2867 00ba 0200     		.2byte	0x2
 2868 00bc 7D       		.byte	0x7d
 2869 00bd 00       		.sleb128 0
 2870 00be 02000000 		.4byte	.LCFI3
 2871 00c2 2C000000 		.4byte	.LFE121
 2872 00c6 0200     		.2byte	0x2
 2873 00c8 7D       		.byte	0x7d
 2874 00c9 10       		.sleb128 16
 2875 00ca 00000000 		.4byte	0
 2876 00ce 00000000 		.4byte	0
 2877              	.LLST6:
 2878 00d2 00000000 		.4byte	.LFB122
 2879 00d6 06000000 		.4byte	.LCFI4
 2880 00da 0200     		.2byte	0x2
 2881 00dc 7D       		.byte	0x7d
 2882 00dd 00       		.sleb128 0
 2883 00de 06000000 		.4byte	.LCFI4
 2884 00e2 28010000 		.4byte	.LFE122
 2885 00e6 0200     		.2byte	0x2
 2886 00e8 7D       		.byte	0x7d
 2887 00e9 10       		.sleb128 16
 2888 00ea 00000000 		.4byte	0
 2889 00ee 00000000 		.4byte	0
 2890              	.LLST7:
ARM GAS  C:\Users\LAB_ME~1\AppData\Local\Temp\ccSBjzI2.s 			page 52


 2891 00f2 00000000 		.4byte	.LVL16
 2892 00f6 1E000000 		.4byte	.LVL17
 2893 00fa 0100     		.2byte	0x1
 2894 00fc 50       		.byte	0x50
 2895 00fd 1E000000 		.4byte	.LVL17
 2896 0101 2A000000 		.4byte	.LVL19
 2897 0105 0100     		.2byte	0x1
 2898 0107 54       		.byte	0x54
 2899 0108 2A000000 		.4byte	.LVL19
 2900 010c C8000000 		.4byte	.LVL43
 2901 0110 0400     		.2byte	0x4
 2902 0112 F3       		.byte	0xf3
 2903 0113 01       		.uleb128 0x1
 2904 0114 50       		.byte	0x50
 2905 0115 9F       		.byte	0x9f
 2906 0116 C8000000 		.4byte	.LVL43
 2907 011a D4000000 		.4byte	.LVL44
 2908 011e 0100     		.2byte	0x1
 2909 0120 50       		.byte	0x50
 2910 0121 D4000000 		.4byte	.LVL44
 2911 0125 E0000000 		.4byte	.LVL45
 2912 0129 0100     		.2byte	0x1
 2913 012b 54       		.byte	0x54
 2914 012c E0000000 		.4byte	.LVL45
 2915 0130 EE000000 		.4byte	.LVL46
 2916 0134 0100     		.2byte	0x1
 2917 0136 50       		.byte	0x50
 2918 0137 EE000000 		.4byte	.LVL46
 2919 013b 04010000 		.4byte	.LVL48
 2920 013f 0100     		.2byte	0x1
 2921 0141 54       		.byte	0x54
 2922 0142 04010000 		.4byte	.LVL48
 2923 0146 12010000 		.4byte	.LVL49
 2924 014a 0100     		.2byte	0x1
 2925 014c 50       		.byte	0x50
 2926 014d 12010000 		.4byte	.LVL49
 2927 0151 28010000 		.4byte	.LFE122
 2928 0155 0100     		.2byte	0x1
 2929 0157 54       		.byte	0x54
 2930 0158 00000000 		.4byte	0
 2931 015c 00000000 		.4byte	0
 2932              	.LLST8:
 2933 0160 20000000 		.4byte	.LVL18
 2934 0164 2A000000 		.4byte	.LVL19
 2935 0168 1000     		.2byte	0x10
 2936 016a 74       		.byte	0x74
 2937 016b 0C       		.sleb128 12
 2938 016c 06       		.byte	0x6
 2939 016d F7       		.byte	0xf7
 2940 016e 29       		.uleb128 0x29
 2941 016f 71       		.byte	0x71
 2942 0170 00       		.sleb128 0
 2943 0171 06       		.byte	0x6
 2944 0172 F7       		.byte	0xf7
 2945 0173 29       		.uleb128 0x29
 2946 0174 1B       		.byte	0x1b
 2947 0175 F7       		.byte	0xf7
ARM GAS  C:\Users\LAB_ME~1\AppData\Local\Temp\ccSBjzI2.s 			page 53


 2948 0176 00       		.uleb128 0
 2949 0177 31       		.byte	0x31
 2950 0178 1C       		.byte	0x1c
 2951 0179 9F       		.byte	0x9f
 2952 017a 2A000000 		.4byte	.LVL19
 2953 017e 36000000 		.4byte	.LVL20
 2954 0182 0F00     		.2byte	0xf
 2955 0184 76       		.byte	0x76
 2956 0185 00       		.sleb128 0
 2957 0186 F7       		.byte	0xf7
 2958 0187 29       		.uleb128 0x29
 2959 0188 71       		.byte	0x71
 2960 0189 00       		.sleb128 0
 2961 018a 06       		.byte	0x6
 2962 018b F7       		.byte	0xf7
 2963 018c 29       		.uleb128 0x29
 2964 018d 1B       		.byte	0x1b
 2965 018e F7       		.byte	0xf7
 2966 018f 00       		.uleb128 0
 2967 0190 31       		.byte	0x31
 2968 0191 1C       		.byte	0x1c
 2969 0192 9F       		.byte	0x9f
 2970 0193 36000000 		.4byte	.LVL20
 2971 0197 4C000000 		.4byte	.LVL23
 2972 019b 0100     		.2byte	0x1
 2973 019d 50       		.byte	0x50
 2974 019e 4C000000 		.4byte	.LVL23
 2975 01a2 76000000 		.4byte	.LVL28
 2976 01a6 0F00     		.2byte	0xf
 2977 01a8 76       		.byte	0x76
 2978 01a9 00       		.sleb128 0
 2979 01aa F7       		.byte	0xf7
 2980 01ab 29       		.uleb128 0x29
 2981 01ac 71       		.byte	0x71
 2982 01ad 00       		.sleb128 0
 2983 01ae 06       		.byte	0x6
 2984 01af F7       		.byte	0xf7
 2985 01b0 29       		.uleb128 0x29
 2986 01b1 1B       		.byte	0x1b
 2987 01b2 F7       		.byte	0xf7
 2988 01b3 00       		.uleb128 0
 2989 01b4 31       		.byte	0x31
 2990 01b5 1C       		.byte	0x1c
 2991 01b6 9F       		.byte	0x9f
 2992 01b7 76000000 		.4byte	.LVL28
 2993 01bb 8E000000 		.4byte	.LVL30
 2994 01bf 1300     		.2byte	0x13
 2995 01c1 76       		.byte	0x76
 2996 01c2 00       		.sleb128 0
 2997 01c3 F7       		.byte	0xf7
 2998 01c4 29       		.uleb128 0x29
 2999 01c5 F3       		.byte	0xf3
 3000 01c6 01       		.uleb128 0x1
 3001 01c7 50       		.byte	0x50
 3002 01c8 23       		.byte	0x23
 3003 01c9 04       		.uleb128 0x4
 3004 01ca 06       		.byte	0x6
ARM GAS  C:\Users\LAB_ME~1\AppData\Local\Temp\ccSBjzI2.s 			page 54


 3005 01cb 06       		.byte	0x6
 3006 01cc F7       		.byte	0xf7
 3007 01cd 29       		.uleb128 0x29
 3008 01ce 1B       		.byte	0x1b
 3009 01cf F7       		.byte	0xf7
 3010 01d0 00       		.uleb128 0
 3011 01d1 31       		.byte	0x31
 3012 01d2 1C       		.byte	0x1c
 3013 01d3 9F       		.byte	0x9f
 3014 01d4 8E000000 		.4byte	.LVL30
 3015 01d8 C8000000 		.4byte	.LVL43
 3016 01dc 0F00     		.2byte	0xf
 3017 01de 76       		.byte	0x76
 3018 01df 00       		.sleb128 0
 3019 01e0 F7       		.byte	0xf7
 3020 01e1 29       		.uleb128 0x29
 3021 01e2 71       		.byte	0x71
 3022 01e3 00       		.sleb128 0
 3023 01e4 06       		.byte	0x6
 3024 01e5 F7       		.byte	0xf7
 3025 01e6 29       		.uleb128 0x29
 3026 01e7 1B       		.byte	0x1b
 3027 01e8 F7       		.byte	0xf7
 3028 01e9 00       		.uleb128 0
 3029 01ea 31       		.byte	0x31
 3030 01eb 1C       		.byte	0x1c
 3031 01ec 9F       		.byte	0x9f
 3032 01ed 00000000 		.4byte	0
 3033 01f1 00000000 		.4byte	0
 3034              	.LLST9:
 3035 01f5 40000000 		.4byte	.LVL21
 3036 01f9 4A000000 		.4byte	.LVL22
 3037 01fd 0200     		.2byte	0x2
 3038 01ff 30       		.byte	0x30
 3039 0200 9F       		.byte	0x9f
 3040 0201 4A000000 		.4byte	.LVL22
 3041 0205 62000000 		.4byte	.LVL24
 3042 0209 0100     		.2byte	0x1
 3043 020b 52       		.byte	0x52
 3044 020c 66000000 		.4byte	.LVL25
 3045 0210 70000000 		.4byte	.LVL26
 3046 0214 0100     		.2byte	0x1
 3047 0216 52       		.byte	0x52
 3048 0217 74000000 		.4byte	.LVL27
 3049 021b 7A000000 		.4byte	.LVL29
 3050 021f 0100     		.2byte	0x1
 3051 0221 52       		.byte	0x52
 3052 0222 8E000000 		.4byte	.LVL30
 3053 0226 B4000000 		.4byte	.LVL37
 3054 022a 0100     		.2byte	0x1
 3055 022c 52       		.byte	0x52
 3056 022d B8000000 		.4byte	.LVL38
 3057 0231 BE000000 		.4byte	.LVL40
 3058 0235 0100     		.2byte	0x1
 3059 0237 52       		.byte	0x52
 3060 0238 C2000000 		.4byte	.LVL41
 3061 023c C8000000 		.4byte	.LVL43
ARM GAS  C:\Users\LAB_ME~1\AppData\Local\Temp\ccSBjzI2.s 			page 55


 3062 0240 0100     		.2byte	0x1
 3063 0242 52       		.byte	0x52
 3064 0243 00000000 		.4byte	0
 3065 0247 00000000 		.4byte	0
 3066              	.LLST10:
 3067 024b 00000000 		.4byte	.LFB123
 3068 024f 02000000 		.4byte	.LCFI5
 3069 0253 0200     		.2byte	0x2
 3070 0255 7D       		.byte	0x7d
 3071 0256 00       		.sleb128 0
 3072 0257 02000000 		.4byte	.LCFI5
 3073 025b 50000000 		.4byte	.LFE123
 3074 025f 0200     		.2byte	0x2
 3075 0261 7D       		.byte	0x7d
 3076 0262 08       		.sleb128 8
 3077 0263 00000000 		.4byte	0
 3078 0267 00000000 		.4byte	0
 3079              	.LLST11:
 3080 026b 00000000 		.4byte	.LVL50
 3081 026f 08000000 		.4byte	.LVL51
 3082 0273 0100     		.2byte	0x1
 3083 0275 50       		.byte	0x50
 3084 0276 08000000 		.4byte	.LVL51
 3085 027a 0A000000 		.4byte	.LVL52
 3086 027e 0400     		.2byte	0x4
 3087 0280 F3       		.byte	0xf3
 3088 0281 01       		.uleb128 0x1
 3089 0282 50       		.byte	0x50
 3090 0283 9F       		.byte	0x9f
 3091 0284 0A000000 		.4byte	.LVL52
 3092 0288 22000000 		.4byte	.LVL53
 3093 028c 0100     		.2byte	0x1
 3094 028e 50       		.byte	0x50
 3095 028f 22000000 		.4byte	.LVL53
 3096 0293 32000000 		.4byte	.LVL55
 3097 0297 0400     		.2byte	0x4
 3098 0299 F3       		.byte	0xf3
 3099 029a 01       		.uleb128 0x1
 3100 029b 50       		.byte	0x50
 3101 029c 9F       		.byte	0x9f
 3102 029d 32000000 		.4byte	.LVL55
 3103 02a1 34000000 		.4byte	.LVL56
 3104 02a5 0100     		.2byte	0x1
 3105 02a7 50       		.byte	0x50
 3106 02a8 34000000 		.4byte	.LVL56
 3107 02ac 50000000 		.4byte	.LFE123
 3108 02b0 0400     		.2byte	0x4
 3109 02b2 F3       		.byte	0xf3
 3110 02b3 01       		.uleb128 0x1
 3111 02b4 50       		.byte	0x50
 3112 02b5 9F       		.byte	0x9f
 3113 02b6 00000000 		.4byte	0
 3114 02ba 00000000 		.4byte	0
 3115              	.LLST12:
 3116 02be 00000000 		.4byte	.LFB124
 3117 02c2 02000000 		.4byte	.LCFI6
 3118 02c6 0200     		.2byte	0x2
ARM GAS  C:\Users\LAB_ME~1\AppData\Local\Temp\ccSBjzI2.s 			page 56


 3119 02c8 7D       		.byte	0x7d
 3120 02c9 00       		.sleb128 0
 3121 02ca 02000000 		.4byte	.LCFI6
 3122 02ce 34000000 		.4byte	.LFE124
 3123 02d2 0200     		.2byte	0x2
 3124 02d4 7D       		.byte	0x7d
 3125 02d5 04       		.sleb128 4
 3126 02d6 00000000 		.4byte	0
 3127 02da 00000000 		.4byte	0
 3128              	.LLST13:
 3129 02de 00000000 		.4byte	.LVL58
 3130 02e2 0A000000 		.4byte	.LVL59
 3131 02e6 0100     		.2byte	0x1
 3132 02e8 50       		.byte	0x50
 3133 02e9 0A000000 		.4byte	.LVL59
 3134 02ed 34000000 		.4byte	.LFE124
 3135 02f1 0400     		.2byte	0x4
 3136 02f3 F3       		.byte	0xf3
 3137 02f4 01       		.uleb128 0x1
 3138 02f5 50       		.byte	0x50
 3139 02f6 9F       		.byte	0x9f
 3140 02f7 00000000 		.4byte	0
 3141 02fb 00000000 		.4byte	0
 3142              	.LLST14:
 3143 02ff 00000000 		.4byte	.LVL58
 3144 0303 22000000 		.4byte	.LVL62
 3145 0307 0100     		.2byte	0x1
 3146 0309 51       		.byte	0x51
 3147 030a 22000000 		.4byte	.LVL62
 3148 030e 34000000 		.4byte	.LFE124
 3149 0312 0400     		.2byte	0x4
 3150 0314 F3       		.byte	0xf3
 3151 0315 01       		.uleb128 0x1
 3152 0316 51       		.byte	0x51
 3153 0317 9F       		.byte	0x9f
 3154 0318 00000000 		.4byte	0
 3155 031c 00000000 		.4byte	0
 3156              	.LLST15:
 3157 0320 00000000 		.4byte	.LVL58
 3158 0324 1A000000 		.4byte	.LVL60
 3159 0328 0100     		.2byte	0x1
 3160 032a 52       		.byte	0x52
 3161 032b 1A000000 		.4byte	.LVL60
 3162 032f 34000000 		.4byte	.LFE124
 3163 0333 0400     		.2byte	0x4
 3164 0335 F3       		.byte	0xf3
 3165 0336 01       		.uleb128 0x1
 3166 0337 52       		.byte	0x52
 3167 0338 9F       		.byte	0x9f
 3168 0339 00000000 		.4byte	0
 3169 033d 00000000 		.4byte	0
 3170              	.LLST16:
 3171 0341 1E000000 		.4byte	.LVL61
 3172 0345 30000000 		.4byte	.LVL63
 3173 0349 0700     		.2byte	0x7
 3174 034b 72       		.byte	0x72
 3175 034c 00       		.sleb128 0
ARM GAS  C:\Users\LAB_ME~1\AppData\Local\Temp\ccSBjzI2.s 			page 57


 3176 034d 0A       		.byte	0xa
 3177 034e FFFF     		.2byte	0xffff
 3178 0350 1A       		.byte	0x1a
 3179 0351 9F       		.byte	0x9f
 3180 0352 00000000 		.4byte	0
 3181 0356 00000000 		.4byte	0
 3182              	.LLST17:
 3183 035a 00000000 		.4byte	.LVL64
 3184 035e 0C000000 		.4byte	.LVL65
 3185 0362 0100     		.2byte	0x1
 3186 0364 50       		.byte	0x50
 3187 0365 0C000000 		.4byte	.LVL65
 3188 0369 20000000 		.4byte	.LFE125
 3189 036d 0400     		.2byte	0x4
 3190 036f F3       		.byte	0xf3
 3191 0370 01       		.uleb128 0x1
 3192 0371 50       		.byte	0x50
 3193 0372 9F       		.byte	0x9f
 3194 0373 00000000 		.4byte	0
 3195 0377 00000000 		.4byte	0
 3196              	.LLST18:
 3197 037b 00000000 		.4byte	.LVL64
 3198 037f 18000000 		.4byte	.LVL66
 3199 0383 0100     		.2byte	0x1
 3200 0385 51       		.byte	0x51
 3201 0386 18000000 		.4byte	.LVL66
 3202 038a 20000000 		.4byte	.LFE125
 3203 038e 0400     		.2byte	0x4
 3204 0390 F3       		.byte	0xf3
 3205 0391 01       		.uleb128 0x1
 3206 0392 51       		.byte	0x51
 3207 0393 9F       		.byte	0x9f
 3208 0394 00000000 		.4byte	0
 3209 0398 00000000 		.4byte	0
 3210              		.section	.debug_aranges,"",%progbits
 3211 0000 54000000 		.4byte	0x54
 3212 0004 0200     		.2byte	0x2
 3213 0006 00000000 		.4byte	.Ldebug_info0
 3214 000a 04       		.byte	0x4
 3215 000b 00       		.byte	0
 3216 000c 0000     		.2byte	0
 3217 000e 0000     		.2byte	0
 3218 0010 00000000 		.4byte	.LFB118
 3219 0014 64000000 		.4byte	.LFE118-.LFB118
 3220 0018 00000000 		.4byte	.LFB119
 3221 001c 14000000 		.4byte	.LFE119-.LFB119
 3222 0020 00000000 		.4byte	.LFB120
 3223 0024 14000000 		.4byte	.LFE120-.LFB120
 3224 0028 00000000 		.4byte	.LFB121
 3225 002c 2C000000 		.4byte	.LFE121-.LFB121
 3226 0030 00000000 		.4byte	.LFB122
 3227 0034 28010000 		.4byte	.LFE122-.LFB122
 3228 0038 00000000 		.4byte	.LFB123
 3229 003c 50000000 		.4byte	.LFE123-.LFB123
 3230 0040 00000000 		.4byte	.LFB124
 3231 0044 34000000 		.4byte	.LFE124-.LFB124
 3232 0048 00000000 		.4byte	.LFB125
ARM GAS  C:\Users\LAB_ME~1\AppData\Local\Temp\ccSBjzI2.s 			page 58


 3233 004c 20000000 		.4byte	.LFE125-.LFB125
 3234 0050 00000000 		.4byte	0
 3235 0054 00000000 		.4byte	0
 3236              		.section	.debug_ranges,"",%progbits
 3237              	.Ldebug_ranges0:
 3238 0000 00000000 		.4byte	.LFB118
 3239 0004 64000000 		.4byte	.LFE118
 3240 0008 00000000 		.4byte	.LFB119
 3241 000c 14000000 		.4byte	.LFE119
 3242 0010 00000000 		.4byte	.LFB120
 3243 0014 14000000 		.4byte	.LFE120
 3244 0018 00000000 		.4byte	.LFB121
 3245 001c 2C000000 		.4byte	.LFE121
 3246 0020 00000000 		.4byte	.LFB122
 3247 0024 28010000 		.4byte	.LFE122
 3248 0028 00000000 		.4byte	.LFB123
 3249 002c 50000000 		.4byte	.LFE123
 3250 0030 00000000 		.4byte	.LFB124
 3251 0034 34000000 		.4byte	.LFE124
 3252 0038 00000000 		.4byte	.LFB125
 3253 003c 20000000 		.4byte	.LFE125
 3254 0040 00000000 		.4byte	0
 3255 0044 00000000 		.4byte	0
 3256              		.section	.debug_line,"",%progbits
 3257              	.Ldebug_line0:
 3258 0000 F3020000 		.section	.debug_str,"MS",%progbits,1
 3258      0200C701 
 3258      00000201 
 3258      FB0E0D00 
 3258      01010101 
 3259              	.LASF167:
 3260 0000 70776D63 		.ascii	"pwmchannel_t\000"
 3260      68616E6E 
 3260      656C5F74 
 3260      00
 3261              	.LASF125:
 3262 000d 41504231 		.ascii	"APB1LPENR\000"
 3262      4C50454E 
 3262      5200
 3263              	.LASF43:
 3264 0017 43414E31 		.ascii	"CAN1_RX0_IRQn\000"
 3264      5F525830 
 3264      5F495251 
 3264      6E00
 3265              	.LASF24:
 3266 0025 5056445F 		.ascii	"PVD_IRQn\000"
 3266      4952516E 
 3266      00
 3267              	.LASF87:
 3268 002e 43414E32 		.ascii	"CAN2_RX0_IRQn\000"
 3268      5F525830 
 3268      5F495251 
 3268      6E00
 3269              	.LASF196:
 3270 003c 70776D5F 		.ascii	"pwm_lld_serve_interrupt\000"
 3270      6C6C645F 
 3270      73657276 
ARM GAS  C:\Users\LAB_ME~1\AppData\Local\Temp\ccSBjzI2.s 			page 59


 3270      655F696E 
 3270      74657272 
 3271              	.LASF96:
 3272 0054 49324333 		.ascii	"I2C3_ER_IRQn\000"
 3272      5F45525F 
 3272      4952516E 
 3272      00
 3273              	.LASF133:
 3274 0061 5F726573 		.ascii	"_resvd0\000"
 3274      76643000 
 3275              	.LASF134:
 3276 0069 5F726573 		.ascii	"_resvd1\000"
 3276      76643100 
 3277              	.LASF54:
 3278 0071 49324331 		.ascii	"I2C1_EV_IRQn\000"
 3278      5F45565F 
 3278      4952516E 
 3278      00
 3279              	.LASF138:
 3280 007e 5F726573 		.ascii	"_resvd3\000"
 3280      76643300 
 3281              	.LASF139:
 3282 0086 5F726573 		.ascii	"_resvd4\000"
 3282      76643400 
 3283              	.LASF140:
 3284 008e 5F726573 		.ascii	"_resvd5\000"
 3284      76643500 
 3285              	.LASF142:
 3286 0096 5F726573 		.ascii	"_resvd6\000"
 3286      76643600 
 3287              	.LASF144:
 3288 009e 5F726573 		.ascii	"_resvd7\000"
 3288      76643700 
 3289              	.LASF146:
 3290 00a6 5F726573 		.ascii	"_resvd8\000"
 3290      76643800 
 3291              	.LASF147:
 3292 00ae 5F726573 		.ascii	"_resvd9\000"
 3292      76643900 
 3293              	.LASF163:
 3294 00b6 70657269 		.ascii	"period\000"
 3294      6F6400
 3295              	.LASF150:
 3296 00bd 5F726573 		.ascii	"_resvd11\000"
 3296      76643131 
 3296      00
 3297              	.LASF151:
 3298 00c6 5F726573 		.ascii	"_resvd12\000"
 3298      76643132 
 3298      00
 3299              	.LASF44:
 3300 00cf 43414E31 		.ascii	"CAN1_RX1_IRQn\000"
 3300      5F525831 
 3300      5F495251 
 3300      6E00
 3301              	.LASF153:
 3302 00dd 5F726573 		.ascii	"_resvd13\000"
ARM GAS  C:\Users\LAB_ME~1\AppData\Local\Temp\ccSBjzI2.s 			page 60


 3302      76643133 
 3302      00
 3303              	.LASF12:
 3304 00e6 6C6F6E67 		.ascii	"long long unsigned int\000"
 3304      206C6F6E 
 3304      6720756E 
 3304      7369676E 
 3304      65642069 
 3305              	.LASF64:
 3306 00fd 5254435F 		.ascii	"RTC_Alarm_IRQn\000"
 3306      416C6172 
 3306      6D5F4952 
 3306      516E00
 3307              	.LASF57:
 3308 010c 49324332 		.ascii	"I2C2_ER_IRQn\000"
 3308      5F45525F 
 3308      4952516E 
 3308      00
 3309              	.LASF53:
 3310 0119 54494D34 		.ascii	"TIM4_IRQn\000"
 3310      5F495251 
 3310      6E00
 3311              	.LASF26:
 3312 0123 5254435F 		.ascii	"RTC_WKUP_IRQn\000"
 3312      574B5550 
 3312      5F495251 
 3312      6E00
 3313              	.LASF23:
 3314 0131 57574447 		.ascii	"WWDG_IRQn\000"
 3314      5F495251 
 3314      6E00
 3315              	.LASF172:
 3316 013b 66726571 		.ascii	"frequency\000"
 3316      75656E63 
 3316      7900
 3317              	.LASF121:
 3318 0145 41484231 		.ascii	"AHB1LPENR\000"
 3318      4C50454E 
 3318      5200
 3319              	.LASF158:
 3320 014f 50574D5F 		.ascii	"PWM_READY\000"
 3320      52454144 
 3320      5900
 3321              	.LASF191:
 3322 0159 6E766963 		.ascii	"nvicEnableVector\000"
 3322      456E6162 
 3322      6C655665 
 3322      63746F72 
 3322      00
 3323              	.LASF141:
 3324 016a 43434D52 		.ascii	"CCMR1\000"
 3324      3100
 3325              	.LASF143:
 3326 0170 43434D52 		.ascii	"CCMR2\000"
 3326      3200
 3327              	.LASF11:
 3328 0176 6C6F6E67 		.ascii	"long long int\000"
ARM GAS  C:\Users\LAB_ME~1\AppData\Local\Temp\ccSBjzI2.s 			page 61


 3328      206C6F6E 
 3328      6720696E 
 3328      7400
 3329              	.LASF1:
 3330 0184 7369676E 		.ascii	"signed char\000"
 3330      65642063 
 3330      68617200 
 3331              	.LASF88:
 3332 0190 43414E32 		.ascii	"CAN2_RX1_IRQn\000"
 3332      5F525831 
 3332      5F495251 
 3332      6E00
 3333              	.LASF107:
 3334 019e 41484231 		.ascii	"AHB1RSTR\000"
 3334      52535452 
 3334      00
 3335              	.LASF166:
 3336 01a7 70776D6D 		.ascii	"pwmmode_t\000"
 3336      6F64655F 
 3336      7400
 3337              	.LASF92:
 3338 01b1 444D4132 		.ascii	"DMA2_Stream6_IRQn\000"
 3338      5F537472 
 3338      65616D36 
 3338      5F495251 
 3338      6E00
 3339              	.LASF175:
 3340 01c3 56656374 		.ascii	"VectorB4\000"
 3340      6F724234 
 3340      00
 3341              	.LASF148:
 3342 01cc 5F726573 		.ascii	"_resvd10\000"
 3342      76643130 
 3342      00
 3343              	.LASF161:
 3344 01d5 73746174 		.ascii	"state\000"
 3344      6500
 3345              	.LASF173:
 3346 01db 6368616E 		.ascii	"channels\000"
 3346      6E656C73 
 3346      00
 3347              	.LASF8:
 3348 01e4 6C6F6E67 		.ascii	"long int\000"
 3348      20696E74 
 3348      00
 3349              	.LASF154:
 3350 01ed 5F726573 		.ascii	"_resvd14\000"
 3350      76643134 
 3350      00
 3351              	.LASF178:
 3352 01f6 70776D5F 		.ascii	"pwm_lld_start\000"
 3352      6C6C645F 
 3352      73746172 
 3352      7400
 3353              	.LASF112:
 3354 0204 41504232 		.ascii	"APB2RSTR\000"
 3354      52535452 
ARM GAS  C:\Users\LAB_ME~1\AppData\Local\Temp\ccSBjzI2.s 			page 62


 3354      00
 3355              	.LASF39:
 3356 020d 444D4131 		.ascii	"DMA1_Stream5_IRQn\000"
 3356      5F537472 
 3356      65616D35 
 3356      5F495251 
 3356      6E00
 3357              	.LASF46:
 3358 021f 45585449 		.ascii	"EXTI9_5_IRQn\000"
 3358      395F355F 
 3358      4952516E 
 3358      00
 3359              	.LASF145:
 3360 022c 43434552 		.ascii	"CCER\000"
 3360      00
 3361              	.LASF85:
 3362 0231 4554485F 		.ascii	"ETH_WKUP_IRQn\000"
 3362      574B5550 
 3362      5F495251 
 3362      6E00
 3363              	.LASF5:
 3364 023f 75696E74 		.ascii	"uint16_t\000"
 3364      31365F74 
 3364      00
 3365              	.LASF70:
 3366 0248 444D4131 		.ascii	"DMA1_Stream7_IRQn\000"
 3366      5F537472 
 3366      65616D37 
 3366      5F495251 
 3366      6E00
 3367              	.LASF77:
 3368 025a 54494D36 		.ascii	"TIM6_DAC_IRQn\000"
 3368      5F444143 
 3368      5F495251 
 3368      6E00
 3369              	.LASF105:
 3370 0268 504C4C43 		.ascii	"PLLCFGR\000"
 3370      46475200 
 3371              	.LASF75:
 3372 0270 55415254 		.ascii	"UART4_IRQn\000"
 3372      345F4952 
 3372      516E00
 3373              	.LASF65:
 3374 027b 4F54475F 		.ascii	"OTG_FS_WKUP_IRQn\000"
 3374      46535F57 
 3374      4B55505F 
 3374      4952516E 
 3374      00
 3375              	.LASF91:
 3376 028c 444D4132 		.ascii	"DMA2_Stream5_IRQn\000"
 3376      5F537472 
 3376      65616D35 
 3376      5F495251 
 3376      6E00
 3377              	.LASF67:
 3378 029e 54494D38 		.ascii	"TIM8_UP_TIM13_IRQn\000"
 3378      5F55505F 
ARM GAS  C:\Users\LAB_ME~1\AppData\Local\Temp\ccSBjzI2.s 			page 63


 3378      54494D31 
 3378      335F4952 
 3378      516E00
 3379              	.LASF188:
 3380 02b1 50574D44 		.ascii	"PWMD3\000"
 3380      3300
 3381              	.LASF189:
 3382 02b7 50574D44 		.ascii	"PWMD4\000"
 3382      3400
 3383              	.LASF176:
 3384 02bd 56656374 		.ascii	"VectorB8\000"
 3384      6F724238 
 3384      00
 3385              	.LASF108:
 3386 02c6 41484232 		.ascii	"AHB2RSTR\000"
 3386      52535452 
 3386      00
 3387              	.LASF17:
 3388 02cf 42757346 		.ascii	"BusFault_IRQn\000"
 3388      61756C74 
 3388      5F495251 
 3388      6E00
 3389              	.LASF69:
 3390 02dd 54494D38 		.ascii	"TIM8_CC_IRQn\000"
 3390      5F43435F 
 3390      4952516E 
 3390      00
 3391              	.LASF21:
 3392 02ea 50656E64 		.ascii	"PendSV_IRQn\000"
 3392      53565F49 
 3392      52516E00 
 3393              	.LASF93:
 3394 02f6 444D4132 		.ascii	"DMA2_Stream7_IRQn\000"
 3394      5F537472 
 3394      65616D37 
 3394      5F495251 
 3394      6E00
 3395              	.LASF149:
 3396 0308 42445452 		.ascii	"BDTR\000"
 3396      00
 3397              	.LASF0:
 3398 030d 756E7369 		.ascii	"unsigned int\000"
 3398      676E6564 
 3398      20696E74 
 3398      00
 3399              	.LASF37:
 3400 031a 444D4131 		.ascii	"DMA1_Stream3_IRQn\000"
 3400      5F537472 
 3400      65616D33 
 3400      5F495251 
 3400      6E00
 3401              	.LASF40:
 3402 032c 444D4131 		.ascii	"DMA1_Stream6_IRQn\000"
 3402      5F537472 
 3402      65616D36 
 3402      5F495251 
 3402      6E00
ARM GAS  C:\Users\LAB_ME~1\AppData\Local\Temp\ccSBjzI2.s 			page 64


 3403              	.LASF16:
 3404 033e 4D656D6F 		.ascii	"MemoryManagement_IRQn\000"
 3404      72794D61 
 3404      6E616765 
 3404      6D656E74 
 3404      5F495251 
 3405              	.LASF95:
 3406 0354 49324333 		.ascii	"I2C3_EV_IRQn\000"
 3406      5F45565F 
 3406      4952516E 
 3406      00
 3407              	.LASF10:
 3408 0361 6C6F6E67 		.ascii	"long unsigned int\000"
 3408      20756E73 
 3408      69676E65 
 3408      6420696E 
 3408      7400
 3409              	.LASF132:
 3410 0373 5243435F 		.ascii	"RCC_TypeDef\000"
 3410      54797065 
 3410      44656600 
 3411              	.LASF97:
 3412 037f 4F54475F 		.ascii	"OTG_HS_EP1_OUT_IRQn\000"
 3412      48535F45 
 3412      50315F4F 
 3412      55545F49 
 3412      52516E00 
 3413              	.LASF72:
 3414 0393 5344494F 		.ascii	"SDIO_IRQn\000"
 3414      5F495251 
 3414      6E00
 3415              	.LASF184:
 3416 039d 77696474 		.ascii	"width\000"
 3416      6800
 3417              	.LASF19:
 3418 03a3 53564361 		.ascii	"SVCall_IRQn\000"
 3418      6C6C5F49 
 3418      52516E00 
 3419              	.LASF135:
 3420 03af 534D4352 		.ascii	"SMCR\000"
 3420      00
 3421              	.LASF81:
 3422 03b4 444D4132 		.ascii	"DMA2_Stream2_IRQn\000"
 3422      5F537472 
 3422      65616D32 
 3422      5F495251 
 3422      6E00
 3423              	.LASF131:
 3424 03c6 504C4C49 		.ascii	"PLLI2SCFGR\000"
 3424      32534346 
 3424      475200
 3425              	.LASF42:
 3426 03d1 43414E31 		.ascii	"CAN1_TX_IRQn\000"
 3426      5F54585F 
 3426      4952516E 
 3426      00
 3427              	.LASF109:
ARM GAS  C:\Users\LAB_ME~1\AppData\Local\Temp\ccSBjzI2.s 			page 65


 3428 03de 41484233 		.ascii	"AHB3RSTR\000"
 3428      52535452 
 3428      00
 3429              	.LASF63:
 3430 03e7 45585449 		.ascii	"EXTI15_10_IRQn\000"
 3430      31355F31 
 3430      305F4952 
 3430      516E00
 3431              	.LASF58:
 3432 03f6 53504931 		.ascii	"SPI1_IRQn\000"
 3432      5F495251 
 3432      6E00
 3433              	.LASF170:
 3434 0400 63616C6C 		.ascii	"callback\000"
 3434      6261636B 
 3434      00
 3435              	.LASF155:
 3436 0409 73746D33 		.ascii	"stm32_tim_t\000"
 3436      325F7469 
 3436      6D5F7400 
 3437              	.LASF126:
 3438 0415 41504232 		.ascii	"APB2LPENR\000"
 3438      4C50454E 
 3438      5200
 3439              	.LASF180:
 3440 041f 63636572 		.ascii	"ccer\000"
 3440      00
 3441              	.LASF66:
 3442 0424 54494D38 		.ascii	"TIM8_BRK_TIM12_IRQn\000"
 3442      5F42524B 
 3442      5F54494D 
 3442      31325F49 
 3442      52516E00 
 3443              	.LASF179:
 3444 0438 70776D70 		.ascii	"pwmp\000"
 3444      00
 3445              	.LASF22:
 3446 043d 53797354 		.ascii	"SysTick_IRQn\000"
 3446      69636B5F 
 3446      4952516E 
 3446      00
 3447              	.LASF50:
 3448 044a 54494D31 		.ascii	"TIM1_CC_IRQn\000"
 3448      5F43435F 
 3448      4952516E 
 3448      00
 3449              	.LASF68:
 3450 0457 54494D38 		.ascii	"TIM8_TRG_COM_TIM14_IRQn\000"
 3450      5F545247 
 3450      5F434F4D 
 3450      5F54494D 
 3450      31345F49 
 3451              	.LASF195:
 3452 046f 4952516E 		.ascii	"IRQn\000"
 3452      00
 3453              	.LASF13:
 3454 0474 73697A65 		.ascii	"sizetype\000"
ARM GAS  C:\Users\LAB_ME~1\AppData\Local\Temp\ccSBjzI2.s 			page 66


 3454      74797065 
 3454      00
 3455              	.LASF84:
 3456 047d 4554485F 		.ascii	"ETH_IRQn\000"
 3456      4952516E 
 3456      00
 3457              	.LASF48:
 3458 0486 54494D31 		.ascii	"TIM1_UP_TIM10_IRQn\000"
 3458      5F55505F 
 3458      54494D31 
 3458      305F4952 
 3458      516E00
 3459              	.LASF82:
 3460 0499 444D4132 		.ascii	"DMA2_Stream3_IRQn\000"
 3460      5F537472 
 3460      65616D33 
 3460      5F495251 
 3460      6E00
 3461              	.LASF38:
 3462 04ab 444D4131 		.ascii	"DMA1_Stream4_IRQn\000"
 3462      5F537472 
 3462      65616D34 
 3462      5F495251 
 3462      6E00
 3463              	.LASF94:
 3464 04bd 55534152 		.ascii	"USART6_IRQn\000"
 3464      54365F49 
 3464      52516E00 
 3465              	.LASF73:
 3466 04c9 54494D35 		.ascii	"TIM5_IRQn\000"
 3466      5F495251 
 3466      6E00
 3467              	.LASF32:
 3468 04d3 45585449 		.ascii	"EXTI3_IRQn\000"
 3468      335F4952 
 3468      516E00
 3469              	.LASF59:
 3470 04de 53504932 		.ascii	"SPI2_IRQn\000"
 3470      5F495251 
 3470      6E00
 3471              	.LASF36:
 3472 04e8 444D4131 		.ascii	"DMA1_Stream2_IRQn\000"
 3472      5F537472 
 3472      65616D32 
 3472      5F495251 
 3472      6E00
 3473              	.LASF86:
 3474 04fa 43414E32 		.ascii	"CAN2_TX_IRQn\000"
 3474      5F54585F 
 3474      4952516E 
 3474      00
 3475              	.LASF122:
 3476 0507 41484232 		.ascii	"AHB2LPENR\000"
 3476      4C50454E 
 3476      5200
 3477              	.LASF194:
 3478 0511 433A5C43 		.ascii	"C:\\Chibios\\demos\\FirmwareV2\000"
ARM GAS  C:\Users\LAB_ME~1\AppData\Local\Temp\ccSBjzI2.s 			page 67


 3478      68696269 
 3478      6F735C64 
 3478      656D6F73 
 3478      5C466972 
 3479              	.LASF192:
 3480 052d 474E5520 		.ascii	"GNU C 4.7.2\000"
 3480      4320342E 
 3480      372E3200 
 3481              	.LASF111:
 3482 0539 41504231 		.ascii	"APB1RSTR\000"
 3482      52535452 
 3482      00
 3483              	.LASF193:
 3484 0542 2E2E2F2E 		.ascii	"../../os/hal/platforms/STM32/pwm_lld.c\000"
 3484      2E2F6F73 
 3484      2F68616C 
 3484      2F706C61 
 3484      74666F72 
 3485              	.LASF100:
 3486 0569 4F54475F 		.ascii	"OTG_HS_IRQn\000"
 3486      48535F49 
 3486      52516E00 
 3487              	.LASF165:
 3488 0575 70776D63 		.ascii	"pwmcallback_t\000"
 3488      616C6C62 
 3488      61636B5F 
 3488      7400
 3489              	.LASF110:
 3490 0583 52455345 		.ascii	"RESERVED0\000"
 3490      52564544 
 3490      3000
 3491              	.LASF113:
 3492 058d 52455345 		.ascii	"RESERVED1\000"
 3492      52564544 
 3492      3100
 3493              	.LASF117:
 3494 0597 52455345 		.ascii	"RESERVED2\000"
 3494      52564544 
 3494      3200
 3495              	.LASF120:
 3496 05a1 52455345 		.ascii	"RESERVED3\000"
 3496      52564544 
 3496      3300
 3497              	.LASF124:
 3498 05ab 52455345 		.ascii	"RESERVED4\000"
 3498      52564544 
 3498      3400
 3499              	.LASF127:
 3500 05b5 52455345 		.ascii	"RESERVED5\000"
 3500      52564544 
 3500      3500
 3501              	.LASF129:
 3502 05bf 52455345 		.ascii	"RESERVED6\000"
 3502      52564544 
 3502      3600
 3503              	.LASF74:
 3504 05c9 53504933 		.ascii	"SPI3_IRQn\000"
ARM GAS  C:\Users\LAB_ME~1\AppData\Local\Temp\ccSBjzI2.s 			page 68


 3504      5F495251 
 3504      6E00
 3505              	.LASF83:
 3506 05d3 444D4132 		.ascii	"DMA2_Stream4_IRQn\000"
 3506      5F537472 
 3506      65616D34 
 3506      5F495251 
 3506      6E00
 3507              	.LASF71:
 3508 05e5 46534D43 		.ascii	"FSMC_IRQn\000"
 3508      5F495251 
 3508      6E00
 3509              	.LASF7:
 3510 05ef 696E7433 		.ascii	"int32_t\000"
 3510      325F7400 
 3511              	.LASF2:
 3512 05f7 756E7369 		.ascii	"unsigned char\000"
 3512      676E6564 
 3512      20636861 
 3512      7200
 3513              	.LASF47:
 3514 0605 54494D31 		.ascii	"TIM1_BRK_TIM9_IRQn\000"
 3514      5F42524B 
 3514      5F54494D 
 3514      395F4952 
 3514      516E00
 3515              	.LASF187:
 3516 0618 49544D5F 		.ascii	"ITM_RxBuffer\000"
 3516      52784275 
 3516      66666572 
 3516      00
 3517              	.LASF33:
 3518 0625 45585449 		.ascii	"EXTI4_IRQn\000"
 3518      345F4952 
 3518      516E00
 3519              	.LASF103:
 3520 0630 48415348 		.ascii	"HASH_RNG_IRQn\000"
 3520      5F524E47 
 3520      5F495251 
 3520      6E00
 3521              	.LASF3:
 3522 063e 73686F72 		.ascii	"short int\000"
 3522      7420696E 
 3522      7400
 3523              	.LASF123:
 3524 0648 41484233 		.ascii	"AHB3LPENR\000"
 3524      4C50454E 
 3524      5200
 3525              	.LASF76:
 3526 0652 55415254 		.ascii	"UART5_IRQn\000"
 3526      355F4952 
 3526      516E00
 3527              	.LASF49:
 3528 065d 54494D31 		.ascii	"TIM1_TRG_COM_TIM11_IRQn\000"
 3528      5F545247 
 3528      5F434F4D 
 3528      5F54494D 
ARM GAS  C:\Users\LAB_ME~1\AppData\Local\Temp\ccSBjzI2.s 			page 69


 3528      31315F49 
 3529              	.LASF6:
 3530 0675 73686F72 		.ascii	"short unsigned int\000"
 3530      7420756E 
 3530      7369676E 
 3530      65642069 
 3530      6E7400
 3531              	.LASF31:
 3532 0688 45585449 		.ascii	"EXTI2_IRQn\000"
 3532      325F4952 
 3532      516E00
 3533              	.LASF119:
 3534 0693 41504232 		.ascii	"APB2ENR\000"
 3534      454E5200 
 3535              	.LASF183:
 3536 069b 6368616E 		.ascii	"channel\000"
 3536      6E656C00 
 3537              	.LASF116:
 3538 06a3 41484233 		.ascii	"AHB3ENR\000"
 3538      454E5200 
 3539              	.LASF27:
 3540 06ab 464C4153 		.ascii	"FLASH_IRQn\000"
 3540      485F4952 
 3540      516E00
 3541              	.LASF181:
 3542 06b6 70776D5F 		.ascii	"pwm_lld_stop\000"
 3542      6C6C645F 
 3542      73746F70 
 3542      00
 3543              	.LASF90:
 3544 06c3 4F54475F 		.ascii	"OTG_FS_IRQn\000"
 3544      46535F49 
 3544      52516E00 
 3545              	.LASF9:
 3546 06cf 75696E74 		.ascii	"uint32_t\000"
 3546      33325F74 
 3546      00
 3547              	.LASF61:
 3548 06d8 55534152 		.ascii	"USART2_IRQn\000"
 3548      54325F49 
 3548      52516E00 
 3549              	.LASF18:
 3550 06e4 55736167 		.ascii	"UsageFault_IRQn\000"
 3550      65466175 
 3550      6C745F49 
 3550      52516E00 
 3551              	.LASF174:
 3552 06f4 50574D43 		.ascii	"PWMConfig\000"
 3552      6F6E6669 
 3552      6700
 3553              	.LASF198:
 3554 06fe 6E766963 		.ascii	"nvicDisableVector\000"
 3554      44697361 
 3554      626C6556 
 3554      6563746F 
 3554      7200
 3555              	.LASF136:
ARM GAS  C:\Users\LAB_ME~1\AppData\Local\Temp\ccSBjzI2.s 			page 70


 3556 0710 5F726573 		.ascii	"_resvd2\000"
 3556      76643200 
 3557              	.LASF182:
 3558 0718 70776D5F 		.ascii	"pwm_lld_enable_channel\000"
 3558      6C6C645F 
 3558      656E6162 
 3558      6C655F63 
 3558      68616E6E 
 3559              	.LASF157:
 3560 072f 50574D5F 		.ascii	"PWM_STOP\000"
 3560      53544F50 
 3560      00
 3561              	.LASF14:
 3562 0738 63686172 		.ascii	"char\000"
 3562      00
 3563              	.LASF169:
 3564 073d 6D6F6465 		.ascii	"mode\000"
 3564      00
 3565              	.LASF102:
 3566 0742 43525950 		.ascii	"CRYP_IRQn\000"
 3566      5F495251 
 3566      6E00
 3567              	.LASF162:
 3568 074c 636F6E66 		.ascii	"config\000"
 3568      696700
 3569              	.LASF152:
 3570 0753 444D4152 		.ascii	"DMAR\000"
 3570      00
 3571              	.LASF78:
 3572 0758 54494D37 		.ascii	"TIM7_IRQn\000"
 3572      5F495251 
 3572      6E00
 3573              	.LASF35:
 3574 0762 444D4131 		.ascii	"DMA1_Stream1_IRQn\000"
 3574      5F537472 
 3574      65616D31 
 3574      5F495251 
 3574      6E00
 3575              	.LASF98:
 3576 0774 4F54475F 		.ascii	"OTG_HS_EP1_IN_IRQn\000"
 3576      48535F45 
 3576      50315F49 
 3576      4E5F4952 
 3576      516E00
 3577              	.LASF15:
 3578 0787 4E6F6E4D 		.ascii	"NonMaskableInt_IRQn\000"
 3578      61736B61 
 3578      626C6549 
 3578      6E745F49 
 3578      52516E00 
 3579              	.LASF118:
 3580 079b 41504231 		.ascii	"APB1ENR\000"
 3580      454E5200 
 3581              	.LASF115:
 3582 07a3 41484232 		.ascii	"AHB2ENR\000"
 3582      454E5200 
 3583              	.LASF25:
ARM GAS  C:\Users\LAB_ME~1\AppData\Local\Temp\ccSBjzI2.s 			page 71


 3584 07ab 54414D50 		.ascii	"TAMP_STAMP_IRQn\000"
 3584      5F535441 
 3584      4D505F49 
 3584      52516E00 
 3585              	.LASF171:
 3586 07bb 50574D43 		.ascii	"PWMChannelConfig\000"
 3586      68616E6E 
 3586      656C436F 
 3586      6E666967 
 3586      00
 3587              	.LASF20:
 3588 07cc 44656275 		.ascii	"DebugMonitor_IRQn\000"
 3588      674D6F6E 
 3588      69746F72 
 3588      5F495251 
 3588      6E00
 3589              	.LASF79:
 3590 07de 444D4132 		.ascii	"DMA2_Stream0_IRQn\000"
 3590      5F537472 
 3590      65616D30 
 3590      5F495251 
 3590      6E00
 3591              	.LASF56:
 3592 07f0 49324332 		.ascii	"I2C2_EV_IRQn\000"
 3592      5F45565F 
 3592      4952516E 
 3592      00
 3593              	.LASF62:
 3594 07fd 55534152 		.ascii	"USART3_IRQn\000"
 3594      54335F49 
 3594      52516E00 
 3595              	.LASF130:
 3596 0809 53534347 		.ascii	"SSCGR\000"
 3596      5200
 3597              	.LASF51:
 3598 080f 54494D32 		.ascii	"TIM2_IRQn\000"
 3598      5F495251 
 3598      6E00
 3599              	.LASF29:
 3600 0819 45585449 		.ascii	"EXTI0_IRQn\000"
 3600      305F4952 
 3600      516E00
 3601              	.LASF60:
 3602 0824 55534152 		.ascii	"USART1_IRQn\000"
 3602      54315F49 
 3602      52516E00 
 3603              	.LASF128:
 3604 0830 42444352 		.ascii	"BDCR\000"
 3604      00
 3605              	.LASF197:
 3606 0835 5F706F72 		.ascii	"_port_irq_epilogue\000"
 3606      745F6972 
 3606      715F6570 
 3606      696C6F67 
 3606      756500
 3607              	.LASF4:
 3608 0848 75696E74 		.ascii	"uint8_t\000"
ARM GAS  C:\Users\LAB_ME~1\AppData\Local\Temp\ccSBjzI2.s 			page 72


 3608      385F7400 
 3609              	.LASF160:
 3610 0850 50574D44 		.ascii	"PWMDriver\000"
 3610      72697665 
 3610      7200
 3611              	.LASF101:
 3612 085a 44434D49 		.ascii	"DCMI_IRQn\000"
 3612      5F495251 
 3612      6E00
 3613              	.LASF159:
 3614 0864 70776D73 		.ascii	"pwmstate_t\000"
 3614      74617465 
 3614      5F7400
 3615              	.LASF168:
 3616 086f 70776D63 		.ascii	"pwmcnt_t\000"
 3616      6E745F74 
 3616      00
 3617              	.LASF114:
 3618 0878 41484231 		.ascii	"AHB1ENR\000"
 3618      454E5200 
 3619              	.LASF137:
 3620 0880 44494552 		.ascii	"DIER\000"
 3620      00
 3621              	.LASF104:
 3622 0885 4650555F 		.ascii	"FPU_IRQn\000"
 3622      4952516E 
 3622      00
 3623              	.LASF106:
 3624 088e 43464752 		.ascii	"CFGR\000"
 3624      00
 3625              	.LASF186:
 3626 0893 70776D5F 		.ascii	"pwm_lld_disable_channel\000"
 3626      6C6C645F 
 3626      64697361 
 3626      626C655F 
 3626      6368616E 
 3627              	.LASF164:
 3628 08ab 636C6F63 		.ascii	"clock\000"
 3628      6B00
 3629              	.LASF55:
 3630 08b1 49324331 		.ascii	"I2C1_ER_IRQn\000"
 3630      5F45525F 
 3630      4952516E 
 3630      00
 3631              	.LASF177:
 3632 08be 70776D5F 		.ascii	"pwm_lld_init\000"
 3632      6C6C645F 
 3632      696E6974 
 3632      00
 3633              	.LASF41:
 3634 08cb 4144435F 		.ascii	"ADC_IRQn\000"
 3634      4952516E 
 3634      00
 3635              	.LASF80:
 3636 08d4 444D4132 		.ascii	"DMA2_Stream1_IRQn\000"
 3636      5F537472 
 3636      65616D31 
ARM GAS  C:\Users\LAB_ME~1\AppData\Local\Temp\ccSBjzI2.s 			page 73


 3636      5F495251 
 3636      6E00
 3637              	.LASF156:
 3638 08e6 50574D5F 		.ascii	"PWM_UNINIT\000"
 3638      554E494E 
 3638      495400
 3639              	.LASF45:
 3640 08f1 43414E31 		.ascii	"CAN1_SCE_IRQn\000"
 3640      5F534345 
 3640      5F495251 
 3640      6E00
 3641              	.LASF190:
 3642 08ff 70776D4F 		.ascii	"pwmObjectInit\000"
 3642      626A6563 
 3642      74496E69 
 3642      7400
 3643              	.LASF89:
 3644 090d 43414E32 		.ascii	"CAN2_SCE_IRQn\000"
 3644      5F534345 
 3644      5F495251 
 3644      6E00
 3645              	.LASF28:
 3646 091b 5243435F 		.ascii	"RCC_IRQn\000"
 3646      4952516E 
 3646      00
 3647              	.LASF99:
 3648 0924 4F54475F 		.ascii	"OTG_HS_WKUP_IRQn\000"
 3648      48535F57 
 3648      4B55505F 
 3648      4952516E 
 3648      00
 3649              	.LASF52:
 3650 0935 54494D33 		.ascii	"TIM3_IRQn\000"
 3650      5F495251 
 3650      6E00
 3651              	.LASF30:
 3652 093f 45585449 		.ascii	"EXTI1_IRQn\000"
 3652      315F4952 
 3652      516E00
 3653              	.LASF185:
 3654 094a 64696572 		.ascii	"dier\000"
 3654      00
 3655              	.LASF34:
 3656 094f 444D4131 		.ascii	"DMA1_Stream0_IRQn\000"
 3656      5F537472 
 3656      65616D30 
 3656      5F495251 
 3656      6E00
 3657              		.ident	"GCC: (Sourcery CodeBench Lite 2012.09-63) 4.7.2"
ARM GAS  C:\Users\LAB_ME~1\AppData\Local\Temp\ccSBjzI2.s 			page 74


DEFINED SYMBOLS
                            *ABS*:00000000 pwm_lld.c
C:\Users\LAB_ME~1\AppData\Local\Temp\ccSBjzI2.s:19     .text.pwm_lld_serve_interrupt:00000000 $t
C:\Users\LAB_ME~1\AppData\Local\Temp\ccSBjzI2.s:24     .text.pwm_lld_serve_interrupt:00000000 pwm_lld_serve_interrupt
C:\Users\LAB_ME~1\AppData\Local\Temp\ccSBjzI2.s:123    .text.VectorB4:00000000 $t
C:\Users\LAB_ME~1\AppData\Local\Temp\ccSBjzI2.s:129    .text.VectorB4:00000000 VectorB4
C:\Users\LAB_ME~1\AppData\Local\Temp\ccSBjzI2.s:152    .text.VectorB4:00000010 $d
C:\Users\LAB_ME~1\AppData\Local\Temp\ccSBjzI2.s:157    .text.VectorB8:00000000 $t
C:\Users\LAB_ME~1\AppData\Local\Temp\ccSBjzI2.s:163    .text.VectorB8:00000000 VectorB8
C:\Users\LAB_ME~1\AppData\Local\Temp\ccSBjzI2.s:186    .text.VectorB8:00000010 $d
C:\Users\LAB_ME~1\AppData\Local\Temp\ccSBjzI2.s:191    .text.pwm_lld_init:00000000 $t
C:\Users\LAB_ME~1\AppData\Local\Temp\ccSBjzI2.s:197    .text.pwm_lld_init:00000000 pwm_lld_init
C:\Users\LAB_ME~1\AppData\Local\Temp\ccSBjzI2.s:234    .text.pwm_lld_init:0000001c $d
C:\Users\LAB_ME~1\AppData\Local\Temp\ccSBjzI2.s:242    .text.pwm_lld_start:00000000 $t
C:\Users\LAB_ME~1\AppData\Local\Temp\ccSBjzI2.s:248    .text.pwm_lld_start:00000000 pwm_lld_start
C:\Users\LAB_ME~1\AppData\Local\Temp\ccSBjzI2.s:497    .text.pwm_lld_start:00000118 $d
C:\Users\LAB_ME~1\AppData\Local\Temp\ccSBjzI2.s:505    .text.pwm_lld_stop:00000000 $t
C:\Users\LAB_ME~1\AppData\Local\Temp\ccSBjzI2.s:511    .text.pwm_lld_stop:00000000 pwm_lld_stop
C:\Users\LAB_ME~1\AppData\Local\Temp\ccSBjzI2.s:575    .text.pwm_lld_stop:00000044 $d
C:\Users\LAB_ME~1\AppData\Local\Temp\ccSBjzI2.s:582    .text.pwm_lld_enable_channel:00000000 $t
C:\Users\LAB_ME~1\AppData\Local\Temp\ccSBjzI2.s:588    .text.pwm_lld_enable_channel:00000000 pwm_lld_enable_channel
C:\Users\LAB_ME~1\AppData\Local\Temp\ccSBjzI2.s:649    .text.pwm_lld_disable_channel:00000000 $t
C:\Users\LAB_ME~1\AppData\Local\Temp\ccSBjzI2.s:655    .text.pwm_lld_disable_channel:00000000 pwm_lld_disable_channel
C:\Users\LAB_ME~1\AppData\Local\Temp\ccSBjzI2.s:696    .bss.PWMD4:00000000 PWMD4
C:\Users\LAB_ME~1\AppData\Local\Temp\ccSBjzI2.s:689    .bss.PWMD3:00000000 PWMD3
C:\Users\LAB_ME~1\AppData\Local\Temp\ccSBjzI2.s:685    .bss.PWMD3:00000000 $d
C:\Users\LAB_ME~1\AppData\Local\Temp\ccSBjzI2.s:692    .bss.PWMD4:00000000 $d
                     .debug_frame:00000010 $d
C:\Users\LAB_ME~1\AppData\Local\Temp\ccSBjzI2.s:156    .text.VectorB4:00000014 $t
C:\Users\LAB_ME~1\AppData\Local\Temp\ccSBjzI2.s:190    .text.VectorB8:00000014 $t
C:\Users\LAB_ME~1\AppData\Local\Temp\ccSBjzI2.s:241    .text.pwm_lld_init:0000002c $t
C:\Users\LAB_ME~1\AppData\Local\Temp\ccSBjzI2.s:504    .text.pwm_lld_start:00000128 $t

UNDEFINED SYMBOLS
_port_irq_epilogue
pwmObjectInit
nvicEnableVector
nvicDisableVector
