ARM GAS  C:\Users\LAB_ME~1\AppData\Local\Temp\ccSBjzI2.s 			page 1


   1              		.syntax unified
   2              		.cpu cortex-m4
   3              		.fpu softvfp
   4              		.eabi_attribute 20, 1
   5              		.eabi_attribute 21, 1
   6              		.eabi_attribute 23, 3
   7              		.eabi_attribute 24, 1
   8              		.eabi_attribute 25, 1
   9              		.eabi_attribute 26, 1
  10              		.eabi_attribute 30, 2
  11              		.eabi_attribute 34, 1
  12              		.eabi_attribute 18, 4
  13              		.thumb
  14              		.file	"pwm_lld.c"
  15              		.text
  16              	.Ltext0:
  17              		.cfi_sections	.debug_frame
  18              		.section	.text.pwm_lld_serve_interrupt,"ax",%progbits
  19              		.align	2
  20              		.p2align 4,,15
  21              		.thumb
  22              		.thumb_func
  23              		.type	pwm_lld_serve_interrupt, %function
  24              	pwm_lld_serve_interrupt:
  25              	.LFB118:
  26              		.file 1 "../../os/hal/platforms/STM32/pwm_lld.c"
  27              		.loc 1 104 0
  28              		.cfi_startproc
  29              		@ args = 0, pretend = 0, frame = 0
  30              		@ frame_needed = 0, uses_anonymous_args = 0
  31              	.LVL0:
  32 0000 38B5     		push	{r3, r4, r5, lr}
  33              	.LCFI0:
  34              		.cfi_def_cfa_offset 16
  35              		.cfi_offset 3, -16
  36              		.cfi_offset 4, -12
  37              		.cfi_offset 5, -8
  38              		.cfi_offset 14, -4
  39              		.loc 1 107 0
  40 0002 0369     		ldr	r3, [r0, #16]
  41 0004 1A8A     		ldrh	r2, [r3, #16]
  42              	.LVL1:
  43              		.loc 1 108 0
  44 0006 9C89     		ldrh	r4, [r3, #12]
  45 0008 1440     		ands	r4, r4, r2
  46              	.LVL2:
  47              		.loc 1 110 0
  48 000a 04F00202 		and	r2, r4, #2
  49              		.loc 1 109 0
  50 000e E143     		mvns	r1, r4
  51              		.loc 1 110 0
  52 0010 92B2     		uxth	r2, r2
  53              		.loc 1 104 0
  54 0012 0546     		mov	r5, r0
  55              		.loc 1 109 0
  56 0014 1982     		strh	r1, [r3, #16]	@ movhi
  57              		.loc 1 110 0
ARM GAS  C:\Users\LAB_ME~1\AppData\Local\Temp\ccSBjzI2.s 			page 2


  58 0016 0ABB     		cbnz	r2, .L23
  59              	.LVL3:
  60              	.L2:
  61              		.loc 1 112 0
  62 0018 04F00403 		and	r3, r4, #4
  63 001c 9BB2     		uxth	r3, r3
  64 001e C3B9     		cbnz	r3, .L24
  65              	.L3:
  66              		.loc 1 114 0
  67 0020 04F00803 		and	r3, r4, #8
  68 0024 9BB2     		uxth	r3, r3
  69 0026 7BB9     		cbnz	r3, .L25
  70              	.L4:
  71              		.loc 1 116 0
  72 0028 04F01003 		and	r3, r4, #16
  73 002c 9BB2     		uxth	r3, r3
  74 002e 33B9     		cbnz	r3, .L26
  75              	.L5:
  76              		.loc 1 118 0
  77 0030 E307     		lsls	r3, r4, #31
  78 0032 03D5     		bpl	.L1
  79              		.loc 1 119 0
  80 0034 6B68     		ldr	r3, [r5, #4]
  81 0036 2846     		mov	r0, r5
  82 0038 9B68     		ldr	r3, [r3, #8]
  83 003a 9847     		blx	r3
  84              	.LVL4:
  85              	.L1:
  86 003c 38BD     		pop	{r3, r4, r5, pc}
  87              	.L26:
  88              		.loc 1 117 0
  89 003e 6B68     		ldr	r3, [r5, #4]
  90 0040 2846     		mov	r0, r5
  91 0042 9B6A     		ldr	r3, [r3, #40]
  92 0044 9847     		blx	r3
  93              	.LVL5:
  94 0046 F3E7     		b	.L5
  95              	.L25:
  96              		.loc 1 115 0
  97 0048 6B68     		ldr	r3, [r5, #4]
  98 004a 2846     		mov	r0, r5
  99 004c 1B6A     		ldr	r3, [r3, #32]
 100 004e 9847     		blx	r3
 101              	.LVL6:
 102 0050 EAE7     		b	.L4
 103              	.L24:
 104              		.loc 1 113 0
 105 0052 6B68     		ldr	r3, [r5, #4]
 106 0054 2846     		mov	r0, r5
 107 0056 9B69     		ldr	r3, [r3, #24]
 108 0058 9847     		blx	r3
 109              	.LVL7:
 110 005a E1E7     		b	.L3
 111              	.LVL8:
 112              	.L23:
 113              		.loc 1 111 0
 114 005c 4368     		ldr	r3, [r0, #4]
ARM GAS  C:\Users\LAB_ME~1\AppData\Local\Temp\ccSBjzI2.s 			page 3


 115 005e 1B69     		ldr	r3, [r3, #16]
 116 0060 9847     		blx	r3
 117              	.LVL9:
 118 0062 D9E7     		b	.L2
 119              		.cfi_endproc
 120              	.LFE118:
 121              		.size	pwm_lld_serve_interrupt, .-pwm_lld_serve_interrupt
 122 0064 AFF30080 		.section	.text.VectorB4,"ax",%progbits
 122      AFF30080 
 122      AFF30080 
 123              		.align	2
 124              		.p2align 4,,15
 125              		.global	VectorB4
 126              		.thumb
 127              		.thumb_func
 128              		.type	VectorB4, %function
 129              	VectorB4:
 130              	.LFB119:
 131              		.loc 1 209 0
 132              		.cfi_startproc
 133              		@ args = 0, pretend = 0, frame = 0
 134              		@ frame_needed = 0, uses_anonymous_args = 0
 135 0000 08B5     		push	{r3, lr}
 136              	.LCFI1:
 137              		.cfi_def_cfa_offset 8
 138              		.cfi_offset 3, -8
 139              		.cfi_offset 14, -4
 140              		.loc 1 213 0
 141 0002 0348     		ldr	r0, .L28
 142 0004 FFF7FEFF 		bl	pwm_lld_serve_interrupt
 143              	.LVL10:
 144              		.loc 1 216 0
 145 0008 BDE80840 		pop	{r3, lr}
 146              		.loc 1 215 0
 147 000c FFF7FEBF 		b	_port_irq_epilogue
 148              	.LVL11:
 149              	.L29:
 150              		.align	2
 151              	.L28:
 152 0010 00000000 		.word	.LANCHOR0
 153              		.cfi_endproc
 154              	.LFE119:
 155              		.size	VectorB4, .-VectorB4
 156 0014 AFF30080 		.section	.text.VectorB8,"ax",%progbits
 156      AFF30080 
 156      AFF30080 
 157              		.align	2
 158              		.p2align 4,,15
 159              		.global	VectorB8
 160              		.thumb
 161              		.thumb_func
 162              		.type	VectorB8, %function
 163              	VectorB8:
 164              	.LFB120:
 165              		.loc 1 228 0
 166              		.cfi_startproc
 167              		@ args = 0, pretend = 0, frame = 0
ARM GAS  C:\Users\LAB_ME~1\AppData\Local\Temp\ccSBjzI2.s 			page 4


 168              		@ frame_needed = 0, uses_anonymous_args = 0
 169 0000 08B5     		push	{r3, lr}
 170              	.LCFI2:
 171              		.cfi_def_cfa_offset 8
 172              		.cfi_offset 3, -8
 173              		.cfi_offset 14, -4
 174              		.loc 1 232 0
 175 0002 0348     		ldr	r0, .L31
 176 0004 FFF7FEFF 		bl	pwm_lld_serve_interrupt
 177              	.LVL12:
 178              		.loc 1 235 0
 179 0008 BDE80840 		pop	{r3, lr}
 180              		.loc 1 234 0
 181 000c FFF7FEBF 		b	_port_irq_epilogue
 182              	.LVL13:
 183              	.L32:
 184              		.align	2
 185              	.L31:
 186 0010 00000000 		.word	.LANCHOR1
 187              		.cfi_endproc
 188              	.LFE120:
 189              		.size	VectorB8, .-VectorB8
 190 0014 AFF30080 		.section	.text.pwm_lld_init,"ax",%progbits
 190      AFF30080 
 190      AFF30080 
 191              		.align	2
 192              		.p2align 4,,15
 193              		.global	pwm_lld_init
 194              		.thumb
 195              		.thumb_func
 196              		.type	pwm_lld_init, %function
 197              	pwm_lld_init:
 198              	.LFB121:
 199              		.loc 1 320 0
 200              		.cfi_startproc
 201              		@ args = 0, pretend = 0, frame = 0
 202              		@ frame_needed = 0, uses_anonymous_args = 0
 203 0000 38B5     		push	{r3, r4, r5, lr}
 204              	.LCFI3:
 205              		.cfi_def_cfa_offset 16
 206              		.cfi_offset 3, -16
 207              		.cfi_offset 4, -12
 208              		.cfi_offset 5, -8
 209              		.cfi_offset 14, -4
 210              		.loc 1 336 0
 211 0002 064D     		ldr	r5, .L34
 212              		.loc 1 342 0
 213 0004 064C     		ldr	r4, .L34+4
 214              		.loc 1 336 0
 215 0006 2846     		mov	r0, r5
 216 0008 FFF7FEFF 		bl	pwmObjectInit
 217              	.LVL14:
 218              		.loc 1 337 0
 219 000c 054B     		ldr	r3, .L34+8
 220              		.loc 1 342 0
 221 000e 2046     		mov	r0, r4
 222              		.loc 1 337 0
ARM GAS  C:\Users\LAB_ME~1\AppData\Local\Temp\ccSBjzI2.s 			page 5


 223 0010 2B61     		str	r3, [r5, #16]
 224              		.loc 1 342 0
 225 0012 FFF7FEFF 		bl	pwmObjectInit
 226              	.LVL15:
 227              		.loc 1 343 0
 228 0016 044B     		ldr	r3, .L34+12
 229 0018 2361     		str	r3, [r4, #16]
 230 001a 38BD     		pop	{r3, r4, r5, pc}
 231              	.L35:
 232              		.align	2
 233              	.L34:
 234 001c 00000000 		.word	.LANCHOR0
 235 0020 00000000 		.word	.LANCHOR1
 236 0024 00040040 		.word	1073742848
 237 0028 00080040 		.word	1073743872
 238              		.cfi_endproc
 239              	.LFE121:
 240              		.size	pwm_lld_init, .-pwm_lld_init
 241 002c AFF30080 		.section	.text.pwm_lld_start,"ax",%progbits
 242              		.align	2
 243              		.p2align 4,,15
 244              		.global	pwm_lld_start
 245              		.thumb
 246              		.thumb_func
 247              		.type	pwm_lld_start, %function
 248              	pwm_lld_start:
 249              	.LFB122:
 250              		.loc 1 368 0
 251              		.cfi_startproc
 252              		@ args = 0, pretend = 0, frame = 0
 253              		@ frame_needed = 0, uses_anonymous_args = 0
 254              	.LVL16:
 255              		.loc 1 372 0
 256 0000 0378     		ldrb	r3, [r0, #0]	@ zero_extendqisi2
 257 0002 012B     		cmp	r3, #1
 258              		.loc 1 368 0
 259 0004 70B5     		push	{r4, r5, r6, lr}
 260              	.LCFI4:
 261              		.cfi_def_cfa_offset 16
 262              		.cfi_offset 4, -16
 263              		.cfi_offset 5, -12
 264              		.cfi_offset 6, -8
 265              		.cfi_offset 14, -4
 266              		.loc 1 368 0
 267 0006 0446     		mov	r4, r0
 268              		.loc 1 372 0
 269 0008 5ED0     		beq	.L65
 270              		.loc 1 447 0
 271 000a 0369     		ldr	r3, [r0, #16]
 272 000c 0022     		movs	r2, #0
 273 000e 1A80     		strh	r2, [r3, #0]	@ movhi
 274              		.loc 1 448 0
 275 0010 9A81     		strh	r2, [r3, #12]	@ movhi
 276              		.loc 1 449 0
 277 0012 1A82     		strh	r2, [r3, #16]	@ movhi
 278              		.loc 1 450 0
 279 0014 5A63     		str	r2, [r3, #52]
ARM GAS  C:\Users\LAB_ME~1\AppData\Local\Temp\ccSBjzI2.s 			page 6


 280              		.loc 1 451 0
 281 0016 9A63     		str	r2, [r3, #56]
 282              		.loc 1 452 0
 283 0018 DA63     		str	r2, [r3, #60]
 284              		.loc 1 453 0
 285 001a 1A64     		str	r2, [r3, #64]
 286              		.loc 1 454 0
 287 001c 5A62     		str	r2, [r3, #36]
 288              	.LVL17:
 289              	.L40:
 290              		.loc 1 458 0
 291 001e 6168     		ldr	r1, [r4, #4]
 292              	.LVL18:
 293 0020 E668     		ldr	r6, [r4, #12]
 294              		.loc 1 463 0
 295 0022 2589     		ldrh	r5, [r4, #8]
 296              		.loc 1 458 0
 297 0024 0868     		ldr	r0, [r1, #0]
 298              		.loc 1 468 0
 299 0026 CA68     		ldr	r2, [r1, #12]
 300              		.loc 1 464 0
 301 0028 8C8D     		ldrh	r4, [r1, #44]
 302              	.LVL19:
 303              		.loc 1 463 0
 304 002a 013D     		subs	r5, r5, #1
 305              		.loc 1 458 0
 306 002c B6FBF0F0 		udiv	r0, r6, r0
 307              		.loc 1 468 0
 308 0030 02F00F02 		and	r2, r2, #15
 309              		.loc 1 458 0
 310 0034 0138     		subs	r0, r0, #1
 311              	.LVL20:
 312              		.loc 1 463 0
 313 0036 ADB2     		uxth	r5, r5
 314              		.loc 1 468 0
 315 0038 012A     		cmp	r2, #1
 316              		.loc 1 462 0
 317 003a 1885     		strh	r0, [r3, #40]	@ movhi
 318              		.loc 1 463 0
 319 003c DD62     		str	r5, [r3, #44]
 320              		.loc 1 464 0
 321 003e 9C80     		strh	r4, [r3, #4]	@ movhi
 322              	.LVL21:
 323              		.loc 1 468 0
 324 0040 03D0     		beq	.L41
 325              		.loc 1 467 0
 326 0042 022A     		cmp	r2, #2
 327 0044 0CBF     		ite	eq
 328 0046 0322     		moveq	r2, #3
 329 0048 0022     		movne	r2, #0
 330              	.L41:
 331              	.LVL22:
 332              		.loc 1 476 0
 333 004a 4869     		ldr	r0, [r1, #20]
 334              	.LVL23:
 335 004c 00F00F00 		and	r0, r0, #15
 336 0050 0128     		cmp	r0, #1
ARM GAS  C:\Users\LAB_ME~1\AppData\Local\Temp\ccSBjzI2.s 			page 7


 337 0052 1ED0     		beq	.L45
 338 0054 0228     		cmp	r0, #2
 339 0056 1AD0     		beq	.L66
 340              		.loc 1 484 0
 341 0058 C869     		ldr	r0, [r1, #28]
 342 005a 00F00F00 		and	r0, r0, #15
 343 005e 0128     		cmp	r0, #1
 344 0060 1ED0     		beq	.L48
 345              	.LVL24:
 346              	.L69:
 347 0062 0228     		cmp	r0, #2
 348 0064 2BD0     		beq	.L67
 349              	.LVL25:
 350              		.loc 1 492 0
 351 0066 486A     		ldr	r0, [r1, #36]
 352 0068 00F00F00 		and	r0, r0, #15
 353 006c 0128     		cmp	r0, #1
 354 006e 1ED0     		beq	.L51
 355              	.LVL26:
 356              	.L70:
 357 0070 0228     		cmp	r0, #2
 358 0072 1FD0     		beq	.L68
 359              	.L50:
 360              	.LVL27:
 361              		.loc 1 539 0
 362 0074 8968     		ldr	r1, [r1, #8]
 363              	.LVL28:
 364              		.loc 1 537 0
 365 0076 1A84     		strh	r2, [r3, #32]	@ movhi
 366              		.loc 1 539 0
 367 0078 0A1C     		adds	r2, r1, #0
 368              	.LVL29:
 369 007a 18BF     		it	ne
 370 007c 0122     		movne	r2, #1
 371              		.loc 1 538 0
 372 007e 0121     		movs	r1, #1
 373 0080 9982     		strh	r1, [r3, #20]	@ movhi
 374              		.loc 1 539 0
 375 0082 9A81     		strh	r2, [r3, #12]	@ movhi
 376              		.loc 1 540 0
 377 0084 0022     		movs	r2, #0
 378 0086 1A82     		strh	r2, [r3, #16]	@ movhi
 379              		.loc 1 549 0
 380 0088 8522     		movs	r2, #133
 381 008a 1A80     		strh	r2, [r3, #0]	@ movhi
 382 008c 70BD     		pop	{r4, r5, r6, pc}
 383              	.LVL30:
 384              	.L66:
 385              		.loc 1 478 0
 386 008e 42F02002 		orr	r2, r2, #32
 387              	.LVL31:
 388              	.L45:
 389              		.loc 1 484 0
 390 0092 C869     		ldr	r0, [r1, #28]
 391 0094 00F00F00 		and	r0, r0, #15
 392 0098 0128     		cmp	r0, #1
 393              		.loc 1 480 0
ARM GAS  C:\Users\LAB_ME~1\AppData\Local\Temp\ccSBjzI2.s 			page 8


 394 009a 42F01002 		orr	r2, r2, #16
 395              	.LVL32:
 396              		.loc 1 484 0
 397 009e E0D1     		bne	.L69
 398              	.LVL33:
 399              	.L48:
 400              		.loc 1 488 0
 401 00a0 42F48072 		orr	r2, r2, #256
 402              	.LVL34:
 403              	.L71:
 404              		.loc 1 492 0
 405 00a4 486A     		ldr	r0, [r1, #36]
 406 00a6 00F00F00 		and	r0, r0, #15
 407 00aa 0128     		cmp	r0, #1
 408 00ac E0D1     		bne	.L70
 409              	.LVL35:
 410              	.L51:
 411              		.loc 1 496 0
 412 00ae 42F48052 		orr	r2, r2, #4096
 413              	.LVL36:
 414 00b2 DFE7     		b	.L50
 415              	.LVL37:
 416              	.L68:
 417              		.loc 1 494 0
 418 00b4 42F40052 		orr	r2, r2, #8192
 419              	.LVL38:
 420              		.loc 1 496 0
 421 00b8 42F48052 		orr	r2, r2, #4096
 422              	.LVL39:
 423 00bc DAE7     		b	.L50
 424              	.LVL40:
 425              	.L67:
 426              		.loc 1 486 0
 427 00be 42F40072 		orr	r2, r2, #512
 428              	.LVL41:
 429              		.loc 1 488 0
 430 00c2 42F48072 		orr	r2, r2, #256
 431              	.LVL42:
 432 00c6 EDE7     		b	.L71
 433              	.LVL43:
 434              	.L65:
 435              		.loc 1 395 0
 436 00c8 134B     		ldr	r3, .L74
 437 00ca 9842     		cmp	r0, r3
 438 00cc 08D0     		beq	.L72
 439              		.loc 1 404 0
 440 00ce 134B     		ldr	r3, .L74+4
 441 00d0 9842     		cmp	r0, r3
 442 00d2 17D0     		beq	.L73
 443              	.LVL44:
 444              	.L39:
 445              		.loc 1 436 0
 446 00d4 2369     		ldr	r3, [r4, #16]
 447 00d6 46F66802 		movw	r2, #26728
 448 00da 1A83     		strh	r2, [r3, #24]	@ movhi
 449              		.loc 1 440 0
 450 00dc 9A83     		strh	r2, [r3, #28]	@ movhi
ARM GAS  C:\Users\LAB_ME~1\AppData\Local\Temp\ccSBjzI2.s 			page 9


 451 00de 9EE7     		b	.L40
 452              	.LVL45:
 453              	.L72:
 454              		.loc 1 396 0
 455 00e0 0F4B     		ldr	r3, .L74+8
 456 00e2 1A6C     		ldr	r2, [r3, #64]
 457 00e4 42F00202 		orr	r2, r2, #2
 458 00e8 1A64     		str	r2, [r3, #64]
 459              		.loc 1 397 0
 460 00ea 1A6A     		ldr	r2, [r3, #32]
 461              		.loc 1 398 0
 462 00ec 1D20     		movs	r0, #29
 463              	.LVL46:
 464              		.loc 1 397 0
 465 00ee 42F00202 		orr	r2, r2, #2
 466              	.L64:
 467              		.loc 1 406 0
 468 00f2 1A62     		str	r2, [r3, #32]
 469 00f4 0022     		movs	r2, #0
 470 00f6 1A62     		str	r2, [r3, #32]
 471              		.loc 1 407 0
 472 00f8 7021     		movs	r1, #112
 473 00fa FFF7FEFF 		bl	nvicEnableVector
 474              	.LVL47:
 475              		.loc 1 409 0
 476 00fe 094B     		ldr	r3, .L74+12
 477 0100 E360     		str	r3, [r4, #12]
 478 0102 E7E7     		b	.L39
 479              	.LVL48:
 480              	.L73:
 481              		.loc 1 405 0
 482 0104 064B     		ldr	r3, .L74+8
 483 0106 1A6C     		ldr	r2, [r3, #64]
 484 0108 42F00402 		orr	r2, r2, #4
 485 010c 1A64     		str	r2, [r3, #64]
 486              		.loc 1 406 0
 487 010e 1A6A     		ldr	r2, [r3, #32]
 488              		.loc 1 407 0
 489 0110 1E20     		movs	r0, #30
 490              	.LVL49:
 491              		.loc 1 406 0
 492 0112 42F00402 		orr	r2, r2, #4
 493 0116 ECE7     		b	.L64
 494              	.L75:
 495              		.align	2
 496              	.L74:
 497 0118 00000000 		.word	.LANCHOR0
 498 011c 00000000 		.word	.LANCHOR1
 499 0120 00380240 		.word	1073887232
 500 0124 00BD0105 		.word	84000000
 501              		.cfi_endproc
 502              	.LFE122:
 503              		.size	pwm_lld_start, .-pwm_lld_start
 504 0128 AFF30080 		.section	.text.pwm_lld_stop,"ax",%progbits
 504      AFF30080 
 505              		.align	2
 506              		.p2align 4,,15
ARM GAS  C:\Users\LAB_ME~1\AppData\Local\Temp\ccSBjzI2.s 			page 10


 507              		.global	pwm_lld_stop
 508              		.thumb
 509              		.thumb_func
 510              		.type	pwm_lld_stop, %function
 511              	pwm_lld_stop:
 512              	.LFB123:
 513              		.loc 1 559 0
 514              		.cfi_startproc
 515              		@ args = 0, pretend = 0, frame = 0
 516              		@ frame_needed = 0, uses_anonymous_args = 0
 517              	.LVL50:
 518 0000 08B5     		push	{r3, lr}
 519              	.LCFI5:
 520              		.cfi_def_cfa_offset 8
 521              		.cfi_offset 3, -8
 522              		.cfi_offset 14, -4
 523              		.loc 1 562 0
 524 0002 0378     		ldrb	r3, [r0, #0]	@ zero_extendqisi2
 525 0004 022B     		cmp	r3, #2
 526 0006 00D0     		beq	.L81
 527              	.LVL51:
 528              	.L76:
 529 0008 08BD     		pop	{r3, pc}
 530              	.LVL52:
 531              	.L81:
 532              		.loc 1 563 0
 533 000a 0369     		ldr	r3, [r0, #16]
 534 000c 0022     		movs	r2, #0
 535 000e 1A80     		strh	r2, [r3, #0]	@ movhi
 536              		.loc 1 564 0
 537 0010 9A81     		strh	r2, [r3, #12]	@ movhi
 538              		.loc 1 565 0
 539 0012 1A82     		strh	r2, [r3, #16]	@ movhi
 540              		.loc 1 584 0
 541 0014 0B4B     		ldr	r3, .L83
 542 0016 9842     		cmp	r0, r3
 543 0018 0BD0     		beq	.L82
 544              		.loc 1 590 0
 545 001a 0B4B     		ldr	r3, .L83+4
 546 001c 9842     		cmp	r0, r3
 547 001e F3D1     		bne	.L76
 548              		.loc 1 591 0
 549 0020 1E20     		movs	r0, #30
 550              	.LVL53:
 551 0022 FFF7FEFF 		bl	nvicDisableVector
 552              	.LVL54:
 553              		.loc 1 592 0
 554 0026 094B     		ldr	r3, .L83+8
 555 0028 1A6C     		ldr	r2, [r3, #64]
 556 002a 22F00402 		bic	r2, r2, #4
 557 002e 1A64     		str	r2, [r3, #64]
 558 0030 EAE7     		b	.L76
 559              	.LVL55:
 560              	.L82:
 561              		.loc 1 585 0
 562 0032 1D20     		movs	r0, #29
 563              	.LVL56:
ARM GAS  C:\Users\LAB_ME~1\AppData\Local\Temp\ccSBjzI2.s 			page 11


 564 0034 FFF7FEFF 		bl	nvicDisableVector
 565              	.LVL57:
 566              		.loc 1 586 0
 567 0038 044B     		ldr	r3, .L83+8
 568 003a 1A6C     		ldr	r2, [r3, #64]
 569 003c 22F00202 		bic	r2, r2, #2
 570 0040 1A64     		str	r2, [r3, #64]
 571 0042 08BD     		pop	{r3, pc}
 572              	.L84:
 573              		.align	2
 574              	.L83:
 575 0044 00000000 		.word	.LANCHOR0
 576 0048 00000000 		.word	.LANCHOR1
 577 004c 00380240 		.word	1073887232
 578              		.cfi_endproc
 579              	.LFE123:
 580              		.size	pwm_lld_stop, .-pwm_lld_stop
 581              		.section	.text.pwm_lld_enable_channel,"ax",%progbits
 582              		.align	2
 583              		.p2align 4,,15
 584              		.global	pwm_lld_enable_channel
 585              		.thumb
 586              		.thumb_func
 587              		.type	pwm_lld_enable_channel, %function
 588              	pwm_lld_enable_channel:
 589              	.LFB124:
 590              		.loc 1 625 0
 591              		.cfi_startproc
 592              		@ args = 0, pretend = 0, frame = 0
 593              		@ frame_needed = 0, uses_anonymous_args = 0
 594              		@ link register save eliminated.
 595              	.LVL58:
 596 0000 10B4     		push	{r4}
 597              	.LCFI6:
 598              		.cfi_def_cfa_offset 4
 599              		.cfi_offset 4, -4
 600              		.loc 1 630 0
 601 0002 4468     		ldr	r4, [r0, #4]
 602              		.loc 1 627 0
 603 0004 0369     		ldr	r3, [r0, #16]
 604              		.loc 1 630 0
 605 0006 04EBC100 		add	r0, r4, r1, lsl #3
 606              	.LVL59:
 607              		.loc 1 627 0
 608 000a 01F10C04 		add	r4, r1, #12
 609 000e 03EB8404 		add	r4, r3, r4, lsl #2
 610              		.loc 1 630 0
 611 0012 0069     		ldr	r0, [r0, #16]
 612              		.loc 1 627 0
 613 0014 6260     		str	r2, [r4, #4]
 614              		.loc 1 630 0
 615 0016 58B1     		cbz	r0, .L85
 616              	.LBB2:
 617              		.loc 1 631 0
 618 0018 9A89     		ldrh	r2, [r3, #12]
 619              	.LVL60:
 620              		.loc 1 634 0
ARM GAS  C:\Users\LAB_ME~1\AppData\Local\Temp\ccSBjzI2.s 			page 12


 621 001a 0220     		movs	r0, #2
 622              		.loc 1 631 0
 623 001c 92B2     		uxth	r2, r2
 624              	.LVL61:
 625              		.loc 1 634 0
 626 001e 00FA01F1 		lsl	r1, r0, r1
 627              	.LVL62:
 628 0022 1142     		tst	r1, r2
 629 0024 04D1     		bne	.L85
 630              		.loc 1 635 0
 631 0026 89B2     		uxth	r1, r1
 632              		.loc 1 636 0
 633 0028 C843     		mvns	r0, r1
 634              		.loc 1 635 0
 635 002a 1143     		orrs	r1, r1, r2
 636 002c 9981     		strh	r1, [r3, #12]	@ movhi
 637              		.loc 1 636 0
 638 002e 1882     		strh	r0, [r3, #16]	@ movhi
 639              	.LVL63:
 640              	.L85:
 641              	.LBE2:
 642              		.loc 1 639 0
 643 0030 10BC     		pop	{r4}
 644 0032 7047     		bx	lr
 645              		.cfi_endproc
 646              	.LFE124:
 647              		.size	pwm_lld_enable_channel, .-pwm_lld_enable_channel
 648 0034 AFF30080 		.section	.text.pwm_lld_disable_channel,"ax",%progbits
 648      AFF30080 
 648      AFF30080 
 649              		.align	2
 650              		.p2align 4,,15
 651              		.global	pwm_lld_disable_channel
 652              		.thumb
 653              		.thumb_func
 654              		.type	pwm_lld_disable_channel, %function
 655              	pwm_lld_disable_channel:
 656              	.LFB125:
 657              		.loc 1 653 0
 658              		.cfi_startproc
 659              		@ args = 0, pretend = 0, frame = 0
 660              		@ frame_needed = 0, uses_anonymous_args = 0
 661              		@ link register save eliminated.
 662              	.LVL64:
 663              		.loc 1 655 0
 664 0000 0369     		ldr	r3, [r0, #16]
 665 0002 01F10C02 		add	r2, r1, #12
 666 0006 03EB8202 		add	r2, r3, r2, lsl #2
 667 000a 0020     		movs	r0, #0
 668              	.LVL65:
 669 000c 5060     		str	r0, [r2, #4]
 670              		.loc 1 656 0
 671 000e 9A89     		ldrh	r2, [r3, #12]
 672 0010 0220     		movs	r0, #2
 673 0012 92B2     		uxth	r2, r2
 674 0014 00FA01F1 		lsl	r1, r0, r1
 675              	.LVL66:
ARM GAS  C:\Users\LAB_ME~1\AppData\Local\Temp\ccSBjzI2.s 			page 13


 676 0018 22EA0101 		bic	r1, r2, r1
 677 001c 9981     		strh	r1, [r3, #12]	@ movhi
 678 001e 7047     		bx	lr
 679              		.cfi_endproc
 680              	.LFE125:
 681              		.size	pwm_lld_disable_channel, .-pwm_lld_disable_channel
 682              		.global	PWMD4
 683              		.global	PWMD3
 684              		.section	.bss.PWMD3,"aw",%nobits
 685              		.align	2
 686              		.set	.LANCHOR0,. + 0
 687              		.type	PWMD3, %object
 688              		.size	PWMD3, 20
 689              	PWMD3:
 690 0000 00000000 		.space	20
 690      00000000 
 690      00000000 
 690      00000000 
 690      00000000 
 691              		.section	.bss.PWMD4,"aw",%nobits
 692              		.align	2
 693              		.set	.LANCHOR1,. + 0
 694              		.type	PWMD4, %object
 695              		.size	PWMD4, 20
 696              	PWMD4:
 697 0000 00000000 		.space	20
 697      00000000 
 697      00000000 
 697      00000000 
 697      00000000 
 698              		.text
 699              	.Letext0:
 700              		.file 2 "c:\\program files (x86)\\codesourcery\\sourcery_codebench_lite_for_arm_eabi\\bin\\../lib/
 701              		.file 3 "../../os/hal/platforms/STM32F4xx/stm32f4xx.h"
 702              		.file 4 "../../os/hal/platforms/STM32/stm32.h"
 703              		.file 5 "../../os/hal/include/pwm.h"
 704              		.file 6 "../../os/hal/platforms/STM32/pwm_lld.h"
 705              		.file 7 "../../os/ports/common/ARMCMx/CMSIS/include/core_cm4.h"
 706              		.file 8 "../../os/ports/common/ARMCMx/nvic.h"
 707              		.file 9 "../../os/ports/GCC/ARMCMx/chcore_v7m.h"