ARM GAS  C:\Users\LAB_ME~1\AppData\Local\Temp\ccLKfcip.s 			page 1


   1              		.syntax unified
   2              		.cpu cortex-m4
   3              		.fpu softvfp
   4              		.eabi_attribute 20, 1
   5              		.eabi_attribute 21, 1
   6              		.eabi_attribute 23, 3
   7              		.eabi_attribute 24, 1
   8              		.eabi_attribute 25, 1
   9              		.eabi_attribute 26, 1
  10              		.eabi_attribute 30, 2
  11              		.eabi_attribute 34, 1
  12              		.eabi_attribute 18, 4
  13              		.thumb
  14              		.file	"testsem.c"
  15              		.text
  16              	.Ltext0:
  17              		.cfi_sections	.debug_frame
  18              		.section	.text.sem3_setup,"ax",%progbits
  19              		.align	2
  20              		.p2align 4,,15
  21              		.thumb
  22              		.thumb_func
  23              		.type	sem3_setup, %function
  24              	sem3_setup:
  25              	.LFB13:
  26              		.file 1 "../../test/testsem.c"
  27              		.loc 1 208 0
  28              		.cfi_startproc
  29              		@ args = 0, pretend = 0, frame = 0
  30              		@ frame_needed = 0, uses_anonymous_args = 0
  31              		@ link register save eliminated.
  32              		.loc 1 210 0
  33 0000 0148     		ldr	r0, .L2
  34 0002 0021     		movs	r1, #0
  35              		.loc 1 211 0
  36              		.loc 1 210 0
  37 0004 FFF7FEBF 		b	chSemInit
  38              	.LVL0:
  39              	.L3:
  40              		.align	2
  41              	.L2:
  42 0008 00000000 		.word	.LANCHOR0
  43              		.cfi_endproc
  44              	.LFE13:
  45              		.size	sem3_setup, .-sem3_setup
  46 000c AFF30080 		.section	.text.sem2_setup,"ax",%progbits
  47              		.align	2
  48              		.p2align 4,,15
  49              		.thumb
  50              		.thumb_func
  51              		.type	sem2_setup, %function
  52              	sem2_setup:
  53              	.LFB10:
  54              		.loc 1 132 0
  55              		.cfi_startproc
  56              		@ args = 0, pretend = 0, frame = 0
  57              		@ frame_needed = 0, uses_anonymous_args = 0
ARM GAS  C:\Users\LAB_ME~1\AppData\Local\Temp\ccLKfcip.s 			page 2


  58              		@ link register save eliminated.
  59              		.loc 1 134 0
  60 0000 0148     		ldr	r0, .L5
  61 0002 0021     		movs	r1, #0
  62              		.loc 1 135 0
  63              		.loc 1 134 0
  64 0004 FFF7FEBF 		b	chSemInit
  65              	.LVL1:
  66              	.L6:
  67              		.align	2
  68              	.L5:
  69 0008 00000000 		.word	.LANCHOR0
  70              		.cfi_endproc
  71              	.LFE10:
  72              		.size	sem2_setup, .-sem2_setup
  73 000c AFF30080 		.section	.text.sem1_setup,"ax",%progbits
  74              		.align	2
  75              		.p2align 4,,15
  76              		.thumb
  77              		.thumb_func
  78              		.type	sem1_setup, %function
  79              	sem1_setup:
  80              	.LFB7:
  81              		.loc 1 76 0
  82              		.cfi_startproc
  83              		@ args = 0, pretend = 0, frame = 0
  84              		@ frame_needed = 0, uses_anonymous_args = 0
  85              		@ link register save eliminated.
  86              		.loc 1 78 0
  87 0000 0148     		ldr	r0, .L8
  88 0002 0021     		movs	r1, #0
  89              		.loc 1 79 0
  90              		.loc 1 78 0
  91 0004 FFF7FEBF 		b	chSemInit
  92              	.LVL2:
  93              	.L9:
  94              		.align	2
  95              	.L8:
  96 0008 00000000 		.word	.LANCHOR0
  97              		.cfi_endproc
  98              	.LFE7:
  99              		.size	sem1_setup, .-sem1_setup
 100 000c AFF30080 		.section	.text.sem4_execute,"ax",%progbits
 101              		.align	2
 102              		.p2align 4,,15
 103              		.thumb
 104              		.thumb_func
 105              		.type	sem4_execute, %function
 106              	sem4_execute:
 107              	.LFB17:
 108              		.loc 1 255 0
 109              		.cfi_startproc
 110              		@ args = 0, pretend = 0, frame = 16
 111              		@ frame_needed = 0, uses_anonymous_args = 0
 112 0000 00B5     		push	{lr}
 113              	.LCFI0:
 114              		.cfi_def_cfa_offset 4
ARM GAS  C:\Users\LAB_ME~1\AppData\Local\Temp\ccLKfcip.s 			page 3


 115              		.cfi_offset 14, -4
 116 0002 87B0     		sub	sp, sp, #28
 117              	.LCFI1:
 118              		.cfi_def_cfa_offset 32
 119              		.loc 1 259 0
 120 0004 0021     		movs	r1, #0
 121 0006 03A8     		add	r0, sp, #12
 122 0008 FFF7FEFF 		bl	chSemInit
 123              	.LVL3:
 124              		.loc 1 260 0
 125 000c 0021     		movs	r1, #0
 126 000e 03A8     		add	r0, sp, #12
 127 0010 FFF7FEFF 		bl	chSemReset
 128              	.LVL4:
 129              		.loc 1 261 0
 130 0014 0599     		ldr	r1, [sp, #20]
 131 0016 0120     		movs	r0, #1
 132 0018 0029     		cmp	r1, #0
 133 001a CCBF     		ite	gt
 134 001c 0021     		movgt	r1, #0
 135 001e 0121     		movle	r1, #1
 136 0020 FFF7FEFF 		bl	_test_assert
 137              	.LVL5:
 138 0024 08B1     		cbz	r0, .L16
 139              	.L10:
 140              		.loc 1 283 0
 141 0026 07B0     		add	sp, sp, #28
 142 0028 00BD     		pop	{pc}
 143              	.L16:
 144              		.loc 1 265 0
 145 002a 2F4B     		ldr	r3, .L19
 146              		.loc 1 264 0
 147 002c 2F48     		ldr	r0, .L19+4
 148              		.loc 1 265 0
 149 002e 9B69     		ldr	r3, [r3, #24]
 150              		.loc 1 264 0
 151 0030 0068     		ldr	r0, [r0, #0]
 152 0032 9A68     		ldr	r2, [r3, #8]
 153 0034 2E4B     		ldr	r3, .L19+8
 154 0036 03A9     		add	r1, sp, #12
 155 0038 013A     		subs	r2, r2, #1
 156 003a 0091     		str	r1, [sp, #0]
 157 003c 4FF49871 		mov	r1, #304
 158 0040 FFF7FEFF 		bl	chThdCreateStatic
 159              	.LVL6:
 160 0044 2B4B     		ldr	r3, .L19+12
 161 0046 1860     		str	r0, [r3, #0]
 162              		.loc 1 268 0
 163 0048 03A8     		add	r0, sp, #12
 164 004a FFF7FEFF 		bl	chSemWait
 165              	.LVL7:
 166              		.loc 1 271 0
 167 004e 0599     		ldr	r1, [sp, #20]
 168 0050 0220     		movs	r0, #2
 169 0052 0029     		cmp	r1, #0
 170 0054 CCBF     		ite	gt
 171 0056 0021     		movgt	r1, #0
ARM GAS  C:\Users\LAB_ME~1\AppData\Local\Temp\ccLKfcip.s 			page 4


 172 0058 0121     		movle	r1, #1
 173 005a FFF7FEFF 		bl	_test_assert
 174              	.LVL8:
 175 005e 0028     		cmp	r0, #0
 176 0060 E1D1     		bne	.L10
 177              	.LBB2:
 178              		.loc 1 275 0
 179 0062 2023     		movs	r3, #32
 180              	.LVL9:
 181              	@ 275 "../../test/testsem.c" 1
 182 0064 83F31188 		msr     BASEPRI, r3
 183              	@ 0 "" 2
 184              	.LVL10:
 185              		.thumb
 186              	.LBE2:
 187 0068 059B     		ldr	r3, [sp, #20]
 188              	.LVL11:
 189 006a 002B     		cmp	r3, #0
 190 006c 34DD     		ble	.L17
 191              	.L12:
 192              		.loc 1 275 0 is_stmt 0 discriminator 2
 193 006e FFF7FEFF 		bl	chSchRescheduleS
 194              	.LVL12:
 195              	.LBB3:
 196 0072 0023     		movs	r3, #0
 197              	.LVL13:
 198              	@ 275 "../../test/testsem.c" 1
 199 0074 83F31188 		msr     BASEPRI, r3
 200              	@ 0 "" 2
 201              	.LVL14:
 202              		.thumb
 203              	.LBE3:
 204              		.loc 1 276 0 is_stmt 1 discriminator 2
 205 0078 0599     		ldr	r1, [sp, #20]
 206 007a 0320     		movs	r0, #3
 207 007c 9942     		cmp	r1, r3
 208              	.LVL15:
 209 007e D4BF     		ite	le
 210 0080 0021     		movle	r1, #0
 211 0082 0121     		movgt	r1, #1
 212 0084 FFF7FEFF 		bl	_test_assert
 213              	.LVL16:
 214 0088 0028     		cmp	r0, #0
 215 008a CCD1     		bne	.L10
 216              		.loc 1 277 0
 217 008c 0599     		ldr	r1, [sp, #20]
 218 008e 0420     		movs	r0, #4
 219 0090 4A1E     		subs	r2, r1, #1
 220 0092 5142     		rsbs	r1, r2, #0
 221 0094 5141     		adcs	r1, r1, r2
 222 0096 FFF7FEFF 		bl	_test_assert
 223              	.LVL17:
 224 009a 0028     		cmp	r0, #0
 225 009c C3D1     		bne	.L10
 226              	.LBB4:
 227              		.loc 1 280 0
 228 009e 2023     		movs	r3, #32
ARM GAS  C:\Users\LAB_ME~1\AppData\Local\Temp\ccLKfcip.s 			page 5


 229              	.LVL18:
 230              	@ 280 "../../test/testsem.c" 1
 231 00a0 83F31188 		msr     BASEPRI, r3
 232              	@ 0 "" 2
 233              	.LVL19:
 234              		.thumb
 235              	.LBE4:
 236 00a4 059B     		ldr	r3, [sp, #20]
 237              	.LVL20:
 238 00a6 002B     		cmp	r3, #0
 239 00a8 1ADD     		ble	.L18
 240              	.L13:
 241              		.loc 1 280 0 is_stmt 0 discriminator 2
 242 00aa FFF7FEFF 		bl	chSchRescheduleS
 243              	.LVL21:
 244              	.LBB5:
 245 00ae 0023     		movs	r3, #0
 246              	.LVL22:
 247              	@ 280 "../../test/testsem.c" 1
 248 00b0 83F31188 		msr     BASEPRI, r3
 249              	@ 0 "" 2
 250              	.LVL23:
 251              		.thumb
 252              	.LBE5:
 253              		.loc 1 281 0 is_stmt 1 discriminator 2
 254 00b4 0599     		ldr	r1, [sp, #20]
 255 00b6 0320     		movs	r0, #3
 256 00b8 9942     		cmp	r1, r3
 257              	.LVL24:
 258 00ba D4BF     		ite	le
 259 00bc 0021     		movle	r1, #0
 260 00be 0121     		movgt	r1, #1
 261 00c0 FFF7FEFF 		bl	_test_assert
 262              	.LVL25:
 263 00c4 0028     		cmp	r0, #0
 264 00c6 AED1     		bne	.L10
 265              		.loc 1 282 0
 266 00c8 0599     		ldr	r1, [sp, #20]
 267 00ca 0520     		movs	r0, #5
 268 00cc 4B1E     		subs	r3, r1, #1
 269 00ce 5942     		rsbs	r1, r3, #0
 270 00d0 5941     		adcs	r1, r1, r3
 271 00d2 FFF7FEFF 		bl	_test_assert
 272              	.LVL26:
 273 00d6 A6E7     		b	.L10
 274              	.L17:
 275              		.loc 1 275 0 discriminator 1
 276 00d8 03A8     		add	r0, sp, #12
 277 00da FFF7FEFF 		bl	chSemSignalI
 278              	.LVL27:
 279 00de C6E7     		b	.L12
 280              	.L18:
 281              		.loc 1 280 0 discriminator 1
 282 00e0 03A8     		add	r0, sp, #12
 283 00e2 FFF7FEFF 		bl	chSemSignalI
 284              	.LVL28:
 285 00e6 E0E7     		b	.L13
ARM GAS  C:\Users\LAB_ME~1\AppData\Local\Temp\ccLKfcip.s 			page 6


 286              	.L20:
 287              		.align	2
 288              	.L19:
 289 00e8 00000000 		.word	rlist
 290 00ec 00000000 		.word	wa
 291 00f0 00000000 		.word	thread4
 292 00f4 00000000 		.word	threads
 293              		.cfi_endproc
 294              	.LFE17:
 295              		.size	sem4_execute, .-sem4_execute
 296 00f8 AFF30080 		.section	.text.thread4,"ax",%progbits
 296      AFF30080 
 297              		.align	2
 298              		.p2align 4,,15
 299              		.thumb
 300              		.thumb_func
 301              		.type	thread4, %function
 302              	thread4:
 303              	.LFB16:
 304              		.loc 1 249 0
 305              		.cfi_startproc
 306              		@ args = 0, pretend = 0, frame = 0
 307              		@ frame_needed = 0, uses_anonymous_args = 0
 308              	.LVL29:
 309 0000 08B5     		push	{r3, lr}
 310              	.LCFI2:
 311              		.cfi_def_cfa_offset 8
 312              		.cfi_offset 3, -8
 313              		.cfi_offset 14, -4
 314              	.LBB6:
 315              		.loc 1 251 0
 316 0002 2023     		movs	r3, #32
 317              	.LVL30:
 318              	@ 251 "../../test/testsem.c" 1
 319 0004 83F31188 		msr     BASEPRI, r3
 320              	@ 0 "" 2
 321              	.LVL31:
 322              		.thumb
 323              	.LBE6:
 324 0008 8368     		ldr	r3, [r0, #8]
 325              	.LVL32:
 326 000a 002B     		cmp	r3, #0
 327 000c 06DD     		ble	.L23
 328              	.LVL33:
 329              	.L22:
 330              		.loc 1 251 0 is_stmt 0 discriminator 2
 331 000e FFF7FEFF 		bl	chSchRescheduleS
 332              	.LVL34:
 333              	.LBB7:
 334 0012 0023     		movs	r3, #0
 335              	.LVL35:
 336              	@ 251 "../../test/testsem.c" 1
 337 0014 83F31188 		msr     BASEPRI, r3
 338              	@ 0 "" 2
 339              	.LVL36:
 340              		.thumb
 341              	.LBE7:
ARM GAS  C:\Users\LAB_ME~1\AppData\Local\Temp\ccLKfcip.s 			page 7


 342              		.loc 1 253 0 is_stmt 1 discriminator 2
 343 0018 1846     		mov	r0, r3
 344 001a 08BD     		pop	{r3, pc}
 345              	.LVL37:
 346              	.L23:
 347              		.loc 1 251 0 discriminator 1
 348 001c FFF7FEFF 		bl	chSemSignalI
 349              	.LVL38:
 350 0020 F5E7     		b	.L22
 351              		.cfi_endproc
 352              	.LFE16:
 353              		.size	thread4, .-thread4
 354 0022 00BFAFF3 		.section	.text.thread3,"ax",%progbits
 354      0080AFF3 
 354      0080AFF3 
 354      0080
 355              		.align	2
 356              		.p2align 4,,15
 357              		.thumb
 358              		.thumb_func
 359              		.type	thread3, %function
 360              	thread3:
 361              	.LFB14:
 362              		.loc 1 213 0
 363              		.cfi_startproc
 364              		@ args = 0, pretend = 0, frame = 0
 365              		@ frame_needed = 0, uses_anonymous_args = 0
 366              	.LVL39:
 367 0000 10B5     		push	{r4, lr}
 368              	.LCFI3:
 369              		.cfi_def_cfa_offset 8
 370              		.cfi_offset 4, -8
 371              		.cfi_offset 14, -4
 372              		.loc 1 216 0
 373 0002 044C     		ldr	r4, .L25
 374 0004 2046     		mov	r0, r4
 375              	.LVL40:
 376 0006 FFF7FEFF 		bl	chSemWait
 377              	.LVL41:
 378              		.loc 1 217 0
 379 000a 2046     		mov	r0, r4
 380 000c FFF7FEFF 		bl	chSemSignal
 381              	.LVL42:
 382              		.loc 1 219 0
 383 0010 0020     		movs	r0, #0
 384 0012 10BD     		pop	{r4, pc}
 385              	.L26:
 386              		.align	2
 387              	.L25:
 388 0014 00000000 		.word	.LANCHOR0
 389              		.cfi_endproc
 390              	.LFE14:
 391              		.size	thread3, .-thread3
 392 0018 AFF30080 		.section	.text.thread1,"ax",%progbits
 392      AFF30080 
 393              		.align	2
 394              		.p2align 4,,15
ARM GAS  C:\Users\LAB_ME~1\AppData\Local\Temp\ccLKfcip.s 			page 8


 395              		.thumb
 396              		.thumb_func
 397              		.type	thread1, %function
 398              	thread1:
 399              	.LFB8:
 400              		.loc 1 81 0
 401              		.cfi_startproc
 402              		@ args = 0, pretend = 0, frame = 0
 403              		@ frame_needed = 0, uses_anonymous_args = 0
 404              	.LVL43:
 405 0000 10B5     		push	{r4, lr}
 406              	.LCFI4:
 407              		.cfi_def_cfa_offset 8
 408              		.cfi_offset 4, -8
 409              		.cfi_offset 14, -4
 410              		.loc 1 81 0
 411 0002 0446     		mov	r4, r0
 412              		.loc 1 83 0
 413 0004 0348     		ldr	r0, .L28
 414              	.LVL44:
 415 0006 FFF7FEFF 		bl	chSemWait
 416              	.LVL45:
 417              		.loc 1 84 0
 418 000a 2078     		ldrb	r0, [r4, #0]	@ zero_extendqisi2
 419 000c FFF7FEFF 		bl	test_emit_token
 420              	.LVL46:
 421              		.loc 1 86 0
 422 0010 0020     		movs	r0, #0
 423 0012 10BD     		pop	{r4, pc}
 424              	.L29:
 425              		.align	2
 426              	.L28:
 427 0014 00000000 		.word	.LANCHOR0
 428              		.cfi_endproc
 429              	.LFE8:
 430              		.size	thread1, .-thread1
 431 0018 AFF30080 		.section	.text.thread2,"ax",%progbits
 431      AFF30080 
 432              		.align	2
 433              		.p2align 4,,15
 434              		.thumb
 435              		.thumb_func
 436              		.type	thread2, %function
 437              	thread2:
 438              	.LFB11:
 439              		.loc 1 137 0
 440              		.cfi_startproc
 441              		@ args = 0, pretend = 0, frame = 0
 442              		@ frame_needed = 0, uses_anonymous_args = 0
 443              	.LVL47:
 444 0000 08B5     		push	{r3, lr}
 445              	.LCFI5:
 446              		.cfi_def_cfa_offset 8
 447              		.cfi_offset 3, -8
 448              		.cfi_offset 14, -4
 449              		.loc 1 140 0
 450 0002 3220     		movs	r0, #50
ARM GAS  C:\Users\LAB_ME~1\AppData\Local\Temp\ccLKfcip.s 			page 9


 451              	.LVL48:
 452 0004 FFF7FEFF 		bl	chThdSleep
 453              	.LVL49:
 454              	.LBB8:
 455              		.loc 1 141 0
 456 0008 2023     		movs	r3, #32
 457              	.LVL50:
 458              	@ 141 "../../test/testsem.c" 1
 459 000a 83F31188 		msr     BASEPRI, r3
 460              	@ 0 "" 2
 461              	.LVL51:
 462              		.thumb
 463              	.LBE8:
 464              		.loc 1 142 0
 465 000e 0548     		ldr	r0, .L31
 466 0010 FFF7FEFF 		bl	chSemSignalI
 467              	.LVL52:
 468              		.loc 1 143 0
 469 0014 FFF7FEFF 		bl	chSchRescheduleS
 470              	.LVL53:
 471              	.LBB9:
 472              		.loc 1 144 0
 473 0018 0023     		movs	r3, #0
 474              	.LVL54:
 475              	@ 144 "../../test/testsem.c" 1
 476 001a 83F31188 		msr     BASEPRI, r3
 477              	@ 0 "" 2
 478              	.LVL55:
 479              		.thumb
 480              	.LBE9:
 481              		.loc 1 146 0
 482 001e 1846     		mov	r0, r3
 483 0020 08BD     		pop	{r3, pc}
 484              	.L32:
 485 0022 00BF     		.align	2
 486              	.L31:
 487 0024 00000000 		.word	.LANCHOR0
 488              		.cfi_endproc
 489              	.LFE11:
 490              		.size	thread2, .-thread2
 491 0028 AFF30080 		.section	.text.sem1_execute,"ax",%progbits
 491      AFF30080 
 492              		.align	2
 493              		.p2align 4,,15
 494              		.thumb
 495              		.thumb_func
 496              		.type	sem1_execute, %function
 497              	sem1_execute:
 498              	.LFB9:
 499              		.loc 1 88 0
 500              		.cfi_startproc
 501              		@ args = 0, pretend = 0, frame = 8
 502              		@ frame_needed = 0, uses_anonymous_args = 0
 503 0000 2DE9F043 		push	{r4, r5, r6, r7, r8, r9, lr}
 504              	.LCFI6:
 505              		.cfi_def_cfa_offset 28
 506              		.cfi_offset 4, -28
ARM GAS  C:\Users\LAB_ME~1\AppData\Local\Temp\ccLKfcip.s 			page 10


 507              		.cfi_offset 5, -24
 508              		.cfi_offset 6, -20
 509              		.cfi_offset 7, -16
 510              		.cfi_offset 8, -12
 511              		.cfi_offset 9, -8
 512              		.cfi_offset 14, -4
 513              		.loc 1 90 0
 514 0004 DFF84081 		ldr	r8, .L36+40
 515 0008 454C     		ldr	r4, .L36
 516 000a D8F81830 		ldr	r3, [r8, #24]
 517 000e 2668     		ldr	r6, [r4, #0]
 518 0010 9A68     		ldr	r2, [r3, #8]
 519 0012 444F     		ldr	r7, .L36+4
 520 0014 444B     		ldr	r3, .L36+8
 521 0016 454D     		ldr	r5, .L36+12
 522              		.loc 1 88 0
 523 0018 85B0     		sub	sp, sp, #20
 524              	.LCFI7:
 525              		.cfi_def_cfa_offset 48
 526              		.loc 1 90 0
 527 001a 4FF49871 		mov	r1, #304
 528 001e 0532     		adds	r2, r2, #5
 529 0020 0097     		str	r7, [sp, #0]
 530 0022 3046     		mov	r0, r6
 531 0024 FFF7FEFF 		bl	chThdCreateStatic
 532              	.LVL56:
 533              		.loc 1 91 0
 534 0028 D8F81830 		ldr	r3, [r8, #24]
 535 002c 9A68     		ldr	r2, [r3, #8]
 536 002e 6368     		ldr	r3, [r4, #4]
 537              		.loc 1 90 0
 538 0030 2860     		str	r0, [r5, #0]
 539              		.loc 1 91 0
 540 0032 3F48     		ldr	r0, .L36+16
 541 0034 0393     		str	r3, [sp, #12]
 542 0036 4FF49871 		mov	r1, #304
 543 003a 0132     		adds	r2, r2, #1
 544 003c 3A4B     		ldr	r3, .L36+8
 545 003e 0090     		str	r0, [sp, #0]
 546 0040 0398     		ldr	r0, [sp, #12]
 547 0042 FFF7FEFF 		bl	chThdCreateStatic
 548              	.LVL57:
 549              		.loc 1 92 0
 550 0046 A268     		ldr	r2, [r4, #8]
 551 0048 D8F81830 		ldr	r3, [r8, #24]
 552 004c 0392     		str	r2, [sp, #12]
 553 004e 9A68     		ldr	r2, [r3, #8]
 554              		.loc 1 91 0
 555 0050 6860     		str	r0, [r5, #4]
 556              		.loc 1 92 0
 557 0052 3848     		ldr	r0, .L36+20
 558 0054 344B     		ldr	r3, .L36+8
 559 0056 0090     		str	r0, [sp, #0]
 560 0058 4FF49871 		mov	r1, #304
 561 005c 0332     		adds	r2, r2, #3
 562 005e 0398     		ldr	r0, [sp, #12]
 563 0060 FFF7FEFF 		bl	chThdCreateStatic
ARM GAS  C:\Users\LAB_ME~1\AppData\Local\Temp\ccLKfcip.s 			page 11


 564              	.LVL58:
 565              		.loc 1 93 0
 566 0064 E268     		ldr	r2, [r4, #12]
 567 0066 D8F81830 		ldr	r3, [r8, #24]
 568 006a 0392     		str	r2, [sp, #12]
 569 006c 9A68     		ldr	r2, [r3, #8]
 570              		.loc 1 92 0
 571 006e A860     		str	r0, [r5, #8]
 572              		.loc 1 93 0
 573 0070 3148     		ldr	r0, .L36+24
 574 0072 2D4B     		ldr	r3, .L36+8
 575 0074 0090     		str	r0, [sp, #0]
 576 0076 4FF49871 		mov	r1, #304
 577 007a 0432     		adds	r2, r2, #4
 578 007c 0398     		ldr	r0, [sp, #12]
 579 007e FFF7FEFF 		bl	chThdCreateStatic
 580              	.LVL59:
 581              		.loc 1 94 0
 582 0082 D8F81830 		ldr	r3, [r8, #24]
 583 0086 2469     		ldr	r4, [r4, #16]
 584 0088 9A68     		ldr	r2, [r3, #8]
 585              		.loc 1 93 0
 586 008a E860     		str	r0, [r5, #12]
 587              		.loc 1 94 0
 588 008c 2B48     		ldr	r0, .L36+28
 589 008e 264B     		ldr	r3, .L36+8
 590 0090 0090     		str	r0, [sp, #0]
 591 0092 4FF49871 		mov	r1, #304
 592 0096 0232     		adds	r2, r2, #2
 593 0098 2046     		mov	r0, r4
 594 009a FFF7FEFF 		bl	chThdCreateStatic
 595              	.LVL60:
 596              		.loc 1 95 0
 597 009e 284C     		ldr	r4, .L36+32
 598              		.loc 1 94 0
 599 00a0 2861     		str	r0, [r5, #16]
 600              		.loc 1 95 0
 601 00a2 2046     		mov	r0, r4
 602 00a4 FFF7FEFF 		bl	chSemSignal
 603              	.LVL61:
 604              		.loc 1 96 0
 605 00a8 2046     		mov	r0, r4
 606 00aa FFF7FEFF 		bl	chSemSignal
 607              	.LVL62:
 608              		.loc 1 97 0
 609 00ae 2046     		mov	r0, r4
 610 00b0 FFF7FEFF 		bl	chSemSignal
 611              	.LVL63:
 612              		.loc 1 98 0
 613 00b4 2046     		mov	r0, r4
 614 00b6 FFF7FEFF 		bl	chSemSignal
 615              	.LVL64:
 616              		.loc 1 99 0
 617 00ba 2046     		mov	r0, r4
 618 00bc FFF7FEFF 		bl	chSemSignal
 619              	.LVL65:
 620              		.loc 1 100 0
ARM GAS  C:\Users\LAB_ME~1\AppData\Local\Temp\ccLKfcip.s 			page 12


 621 00c0 FFF7FEFF 		bl	test_wait_threads
 622              	.LVL66:
 623              		.loc 1 104 0
 624 00c4 0120     		movs	r0, #1
 625 00c6 1F49     		ldr	r1, .L36+36
 626 00c8 FFF7FEFF 		bl	_test_assert_sequence
 627              	.LVL67:
 628 00cc 8146     		mov	r9, r0
 629 00ce 10B1     		cbz	r0, .L35
 630              		.loc 1 112 0
 631 00d0 05B0     		add	sp, sp, #20
 632 00d2 BDE8F083 		pop	{r4, r5, r6, r7, r8, r9, pc}
 633              	.L35:
 634              		.loc 1 106 0
 635 00d6 D8F81820 		ldr	r2, [r8, #24]
 636 00da 134B     		ldr	r3, .L36+8
 637 00dc 9268     		ldr	r2, [r2, #8]
 638 00de 0097     		str	r7, [sp, #0]
 639 00e0 3046     		mov	r0, r6
 640 00e2 4FF49871 		mov	r1, #304
 641 00e6 0532     		adds	r2, r2, #5
 642 00e8 FFF7FEFF 		bl	chThdCreateStatic
 643              	.LVL68:
 644              	.LBB10:
 645              		.loc 1 107 0
 646 00ec 2023     		movs	r3, #32
 647              	.LVL69:
 648              	.LBE10:
 649              		.loc 1 106 0
 650 00ee 2860     		str	r0, [r5, #0]
 651              	.LBB11:
 652              		.loc 1 107 0
 653              	@ 107 "../../test/testsem.c" 1
 654 00f0 83F31188 		msr     BASEPRI, r3
 655              	@ 0 "" 2
 656              	.LVL70:
 657              		.thumb
 658              	.LBE11:
 659              		.loc 1 108 0
 660 00f4 0221     		movs	r1, #2
 661 00f6 2046     		mov	r0, r4
 662 00f8 FFF7FEFF 		bl	chSemAddCounterI
 663              	.LVL71:
 664              	.LBB12:
 665              		.loc 1 109 0
 666 00fc 4B46     		mov	r3, r9
 667              	.LVL72:
 668              	@ 109 "../../test/testsem.c" 1
 669 00fe 83F31188 		msr     BASEPRI, r3
 670              	@ 0 "" 2
 671              	.LVL73:
 672              		.thumb
 673              	.LBE12:
 674              		.loc 1 110 0
 675 0102 FFF7FEFF 		bl	test_wait_threads
 676              	.LVL74:
 677              		.loc 1 111 0
ARM GAS  C:\Users\LAB_ME~1\AppData\Local\Temp\ccLKfcip.s 			page 13


 678 0106 A168     		ldr	r1, [r4, #8]
 679 0108 0220     		movs	r0, #2
 680 010a B1F1010E 		subs	lr, r1, #1
 681 010e DEF10001 		rsbs	r1, lr, #0
 682 0112 51EB0E01 		adcs	r1, r1, lr
 683              		.loc 1 112 0
 684 0116 05B0     		add	sp, sp, #20
 685 0118 BDE8F043 		pop	{r4, r5, r6, r7, r8, r9, lr}
 686              		.loc 1 111 0
 687 011c FFF7FEBF 		b	_test_assert
 688              	.LVL75:
 689              	.L37:
 690              		.align	2
 691              	.L36:
 692 0120 00000000 		.word	wa
 693 0124 00000000 		.word	.LC0
 694 0128 00000000 		.word	thread1
 695 012c 00000000 		.word	threads
 696 0130 04000000 		.word	.LC1
 697 0134 08000000 		.word	.LC2
 698 0138 0C000000 		.word	.LC3
 699 013c 10000000 		.word	.LC4
 700 0140 00000000 		.word	.LANCHOR0
 701 0144 14000000 		.word	.LC5
 702 0148 00000000 		.word	rlist
 703              		.cfi_endproc
 704              	.LFE9:
 705              		.size	sem1_execute, .-sem1_execute
 706 014c AFF30080 		.section	.text.sem3_execute,"ax",%progbits
 707              		.align	2
 708              		.p2align 4,,15
 709              		.thumb
 710              		.thumb_func
 711              		.type	sem3_execute, %function
 712              	sem3_execute:
 713              	.LFB15:
 714              		.loc 1 221 0
 715              		.cfi_startproc
 716              		@ args = 0, pretend = 0, frame = 0
 717              		@ frame_needed = 0, uses_anonymous_args = 0
 718 0000 10B5     		push	{r4, lr}
 719              	.LCFI8:
 720              		.cfi_def_cfa_offset 8
 721              		.cfi_offset 4, -8
 722              		.cfi_offset 14, -4
 723              		.loc 1 223 0
 724 0002 224B     		ldr	r3, .L43
 725              		.loc 1 224 0
 726 0004 224C     		ldr	r4, .L43+4
 727              		.loc 1 223 0
 728 0006 9B69     		ldr	r3, [r3, #24]
 729              		.loc 1 221 0
 730 0008 82B0     		sub	sp, sp, #8
 731              	.LCFI9:
 732              		.cfi_def_cfa_offset 16
 733              		.loc 1 223 0
 734 000a 0020     		movs	r0, #0
ARM GAS  C:\Users\LAB_ME~1\AppData\Local\Temp\ccLKfcip.s 			page 14


 735 000c 9A68     		ldr	r2, [r3, #8]
 736 000e 0090     		str	r0, [sp, #0]
 737 0010 2048     		ldr	r0, .L43+8
 738 0012 214B     		ldr	r3, .L43+12
 739 0014 0068     		ldr	r0, [r0, #0]
 740 0016 0132     		adds	r2, r2, #1
 741 0018 4FF49871 		mov	r1, #304
 742 001c FFF7FEFF 		bl	chThdCreateStatic
 743              	.LVL76:
 744 0020 1E4B     		ldr	r3, .L43+16
 745              		.loc 1 224 0
 746 0022 2146     		mov	r1, r4
 747              		.loc 1 223 0
 748 0024 1860     		str	r0, [r3, #0]
 749              		.loc 1 224 0
 750 0026 2046     		mov	r0, r4
 751 0028 FFF7FEFF 		bl	chSemSignalWait
 752              	.LVL77:
 753              		.loc 1 225 0
 754 002c 2168     		ldr	r1, [r4, #0]
 755 002e 0120     		movs	r0, #1
 756 0030 0B1B     		subs	r3, r1, r4
 757 0032 5942     		rsbs	r1, r3, #0
 758 0034 5941     		adcs	r1, r1, r3
 759 0036 FFF7FEFF 		bl	_test_assert
 760              	.LVL78:
 761 003a 08B1     		cbz	r0, .L42
 762              	.L38:
 763              		.loc 1 231 0
 764 003c 02B0     		add	sp, sp, #8
 765 003e 10BD     		pop	{r4, pc}
 766              	.L42:
 767              		.loc 1 226 0
 768 0040 A168     		ldr	r1, [r4, #8]
 769 0042 0220     		movs	r0, #2
 770 0044 D1F10101 		rsbs	r1, r1, #1
 771 0048 38BF     		it	cc
 772 004a 0021     		movcc	r1, #0
 773 004c FFF7FEFF 		bl	_test_assert
 774              	.LVL79:
 775 0050 0028     		cmp	r0, #0
 776 0052 F3D1     		bne	.L38
 777              	.LBB15:
 778              	.LBB16:
 779              		.loc 1 228 0
 780 0054 2146     		mov	r1, r4
 781 0056 2046     		mov	r0, r4
 782 0058 FFF7FEFF 		bl	chSemSignalWait
 783              	.LVL80:
 784              		.loc 1 229 0
 785 005c 2168     		ldr	r1, [r4, #0]
 786 005e 0320     		movs	r0, #3
 787 0060 B1EB040C 		subs	ip, r1, r4
 788 0064 DCF10001 		rsbs	r1, ip, #0
 789 0068 51EB0C01 		adcs	r1, r1, ip
 790 006c FFF7FEFF 		bl	_test_assert
 791              	.LVL81:
ARM GAS  C:\Users\LAB_ME~1\AppData\Local\Temp\ccLKfcip.s 			page 15


 792 0070 0028     		cmp	r0, #0
 793 0072 E3D1     		bne	.L38
 794              		.loc 1 230 0
 795 0074 A168     		ldr	r1, [r4, #8]
 796 0076 0420     		movs	r0, #4
 797 0078 D1F10101 		rsbs	r1, r1, #1
 798 007c 38BF     		it	cc
 799 007e 0021     		movcc	r1, #0
 800              	.LBE16:
 801              	.LBE15:
 802              		.loc 1 231 0
 803 0080 02B0     		add	sp, sp, #8
 804 0082 BDE81040 		pop	{r4, lr}
 805              	.LBB18:
 806              	.LBB17:
 807              		.loc 1 230 0
 808 0086 FFF7FEBF 		b	_test_assert
 809              	.LVL82:
 810              	.L44:
 811 008a 00BF     		.align	2
 812              	.L43:
 813 008c 00000000 		.word	rlist
 814 0090 00000000 		.word	.LANCHOR0
 815 0094 00000000 		.word	wa
 816 0098 00000000 		.word	thread3
 817 009c 00000000 		.word	threads
 818              	.LBE17:
 819              	.LBE18:
 820              		.cfi_endproc
 821              	.LFE15:
 822              		.size	sem3_execute, .-sem3_execute
 823              		.section	.text.sem2_execute,"ax",%progbits
 824              		.align	2
 825              		.p2align 4,,15
 826              		.thumb
 827              		.thumb_func
 828              		.type	sem2_execute, %function
 829              	sem2_execute:
 830              	.LFB12:
 831              		.loc 1 148 0
 832              		.cfi_startproc
 833              		@ args = 0, pretend = 0, frame = 0
 834              		@ frame_needed = 0, uses_anonymous_args = 0
 835 0000 70B5     		push	{r4, r5, r6, lr}
 836              	.LCFI10:
 837              		.cfi_def_cfa_offset 16
 838              		.cfi_offset 4, -16
 839              		.cfi_offset 5, -12
 840              		.cfi_offset 6, -8
 841              		.cfi_offset 14, -4
 842              		.loc 1 156 0
 843 0002 4C4C     		ldr	r4, .L52
 844 0004 0021     		movs	r1, #0
 845              		.loc 1 148 0
 846 0006 82B0     		sub	sp, sp, #8
 847              	.LCFI11:
 848              		.cfi_def_cfa_offset 24
ARM GAS  C:\Users\LAB_ME~1\AppData\Local\Temp\ccLKfcip.s 			page 16


 849              		.loc 1 156 0
 850 0008 2046     		mov	r0, r4
 851 000a FFF7FEFF 		bl	chSemWaitTimeout
 852              	.LVL83:
 853              		.loc 1 157 0
 854 000e B0F1FF33 		subs	r3, r0, #-1
 855 0012 5942     		rsbs	r1, r3, #0
 856 0014 5941     		adcs	r1, r1, r3
 857 0016 0120     		movs	r0, #1
 858              	.LVL84:
 859 0018 FFF7FEFF 		bl	_test_assert
 860              	.LVL85:
 861 001c 08B1     		cbz	r0, .L51
 862              	.L45:
 863              		.loc 1 186 0
 864 001e 02B0     		add	sp, sp, #8
 865 0020 70BD     		pop	{r4, r5, r6, pc}
 866              	.L51:
 867              		.loc 1 158 0
 868 0022 2168     		ldr	r1, [r4, #0]
 869 0024 0220     		movs	r0, #2
 870 0026 B1EB040C 		subs	ip, r1, r4
 871 002a DCF10001 		rsbs	r1, ip, #0
 872 002e 51EB0C01 		adcs	r1, r1, ip
 873 0032 FFF7FEFF 		bl	_test_assert
 874              	.LVL86:
 875 0036 0028     		cmp	r0, #0
 876 0038 F1D1     		bne	.L45
 877              		.loc 1 159 0
 878 003a A168     		ldr	r1, [r4, #8]
 879 003c 0320     		movs	r0, #3
 880 003e D1F10101 		rsbs	r1, r1, #1
 881 0042 38BF     		it	cc
 882 0044 0021     		movcc	r1, #0
 883 0046 FFF7FEFF 		bl	_test_assert
 884              	.LVL87:
 885 004a 0028     		cmp	r0, #0
 886 004c E7D1     		bne	.L45
 887              	.LBB21:
 888              	.LBB22:
 889              		.loc 1 164 0
 890 004e 3A4B     		ldr	r3, .L52+4
 891 0050 9B69     		ldr	r3, [r3, #24]
 892 0052 9A68     		ldr	r2, [r3, #8]
 893 0054 0090     		str	r0, [sp, #0]
 894 0056 3948     		ldr	r0, .L52+8
 895 0058 394B     		ldr	r3, .L52+12
 896 005a 0068     		ldr	r0, [r0, #0]
 897 005c 013A     		subs	r2, r2, #1
 898 005e 4FF49871 		mov	r1, #304
 899 0062 FFF7FEFF 		bl	chThdCreateStatic
 900              	.LVL88:
 901 0066 374B     		ldr	r3, .L52+16
 902              		.loc 1 166 0
 903 0068 4FF4FA71 		mov	r1, #500
 904              		.loc 1 164 0
 905 006c 1860     		str	r0, [r3, #0]
ARM GAS  C:\Users\LAB_ME~1\AppData\Local\Temp\ccLKfcip.s 			page 17


 906              		.loc 1 166 0
 907 006e 2046     		mov	r0, r4
 908 0070 FFF7FEFF 		bl	chSemWaitTimeout
 909              	.LVL89:
 910 0074 0546     		mov	r5, r0
 911              	.LVL90:
 912              		.loc 1 167 0
 913 0076 FFF7FEFF 		bl	test_wait_threads
 914              	.LVL91:
 915              		.loc 1 168 0
 916 007a 0420     		movs	r0, #4
 917 007c D5F10101 		rsbs	r1, r5, #1
 918 0080 38BF     		it	cc
 919 0082 0021     		movcc	r1, #0
 920 0084 FFF7FEFF 		bl	_test_assert
 921              	.LVL92:
 922 0088 0028     		cmp	r0, #0
 923 008a C8D1     		bne	.L45
 924              		.loc 1 169 0
 925 008c 2168     		ldr	r1, [r4, #0]
 926 008e 0520     		movs	r0, #5
 927 0090 B1EB040E 		subs	lr, r1, r4
 928 0094 DEF10001 		rsbs	r1, lr, #0
 929 0098 51EB0E01 		adcs	r1, r1, lr
 930 009c FFF7FEFF 		bl	_test_assert
 931              	.LVL93:
 932 00a0 0028     		cmp	r0, #0
 933 00a2 BCD1     		bne	.L45
 934              		.loc 1 170 0
 935 00a4 A168     		ldr	r1, [r4, #8]
 936 00a6 0620     		movs	r0, #6
 937 00a8 D1F10101 		rsbs	r1, r1, #1
 938 00ac 38BF     		it	cc
 939 00ae 0021     		movcc	r1, #0
 940 00b0 FFF7FEFF 		bl	_test_assert
 941              	.LVL94:
 942 00b4 0028     		cmp	r0, #0
 943 00b6 B2D1     		bne	.L45
 944              		.loc 1 175 0
 945 00b8 FFF7FEFF 		bl	test_wait_tick
 946              	.LVL95:
 947              		.loc 1 176 0
 948 00bc 224B     		ldr	r3, .L52+20
 949 00be DE68     		ldr	r6, [r3, #12]
 950              	.LVL96:
 951 00c0 4125     		movs	r5, #65
 952              	.LVL97:
 953              	.L49:
 954              		.loc 1 178 0
 955 00c2 2846     		mov	r0, r5
 956 00c4 FFF7FEFF 		bl	test_emit_token
 957              	.LVL98:
 958              		.loc 1 179 0
 959 00c8 4FF4FA71 		mov	r1, #500
 960 00cc 1948     		ldr	r0, .L52
 961 00ce FFF7FEFF 		bl	chSemWaitTimeout
 962              	.LVL99:
ARM GAS  C:\Users\LAB_ME~1\AppData\Local\Temp\ccLKfcip.s 			page 18


 963              		.loc 1 180 0
 964 00d2 B0F1FF30 		subs	r0, r0, #-1
 965              	.LVL100:
 966 00d6 4142     		rsbs	r1, r0, #0
 967 00d8 4141     		adcs	r1, r1, r0
 968 00da 0720     		movs	r0, #7
 969              	.LVL101:
 970 00dc FFF7FEFF 		bl	_test_assert
 971              	.LVL102:
 972 00e0 0028     		cmp	r0, #0
 973 00e2 9CD1     		bne	.L45
 974              		.loc 1 181 0
 975 00e4 2168     		ldr	r1, [r4, #0]
 976 00e6 0820     		movs	r0, #8
 977 00e8 0A1B     		subs	r2, r1, r4
 978 00ea 5142     		rsbs	r1, r2, #0
 979 00ec 5141     		adcs	r1, r1, r2
 980 00ee FFF7FEFF 		bl	_test_assert
 981              	.LVL103:
 982 00f2 0028     		cmp	r0, #0
 983 00f4 93D1     		bne	.L45
 984              		.loc 1 182 0
 985 00f6 A168     		ldr	r1, [r4, #8]
 986 00f8 0920     		movs	r0, #9
 987 00fa D1F10101 		rsbs	r1, r1, #1
 988 00fe 38BF     		it	cc
 989 0100 0021     		movcc	r1, #0
 990 0102 FFF7FEFF 		bl	_test_assert
 991              	.LVL104:
 992 0106 0135     		adds	r5, r5, #1
 993 0108 EDB2     		uxtb	r5, r5
 994 010a 0028     		cmp	r0, #0
 995 010c 87D1     		bne	.L45
 996              		.loc 1 177 0
 997 010e 462D     		cmp	r5, #70
 998 0110 D7D1     		bne	.L49
 999              		.loc 1 184 0
 1000 0112 0A20     		movs	r0, #10
 1001 0114 0D49     		ldr	r1, .L52+24
 1002 0116 FFF7FEFF 		bl	_test_assert_sequence
 1003              	.LVL105:
 1004 011a 0028     		cmp	r0, #0
 1005 011c 7FF47FAF 		bne	.L45
 1006              		.loc 1 185 0
 1007 0120 0B20     		movs	r0, #11
 1008 0122 06F6C411 		addw	r1, r6, #2500
 1009 0126 06F6C912 		addw	r2, r6, #2505
 1010              	.LBE22:
 1011              	.LBE21:
 1012              		.loc 1 186 0
 1013 012a 02B0     		add	sp, sp, #8
 1014 012c BDE87040 		pop	{r4, r5, r6, lr}
 1015              	.LBB24:
 1016              	.LBB23:
 1017              		.loc 1 185 0
 1018 0130 FFF7FEBF 		b	_test_assert_time_window
 1019              	.LVL106:
ARM GAS  C:\Users\LAB_ME~1\AppData\Local\Temp\ccLKfcip.s 			page 19


 1020              	.L53:
 1021              		.align	2
 1022              	.L52:
 1023 0134 00000000 		.word	.LANCHOR0
 1024 0138 00000000 		.word	rlist
 1025 013c 00000000 		.word	wa
 1026 0140 00000000 		.word	thread2
 1027 0144 00000000 		.word	threads
 1028 0148 00000000 		.word	vtlist
 1029 014c 14000000 		.word	.LC5
 1030              	.LBE23:
 1031              	.LBE24:
 1032              		.cfi_endproc
 1033              	.LFE12:
 1034              		.size	sem2_execute, .-sem2_execute
 1035              		.global	patternsem
 1036              		.global	testsem4
 1037              		.global	testsem3
 1038              		.global	testsem2
 1039              		.global	testsem1
 1040              		.section	.rodata.testsem1,"a",%progbits
 1041              		.align	2
 1042              		.type	testsem1, %object
 1043              		.size	testsem1, 16
 1044              	testsem1:
 1045 0000 74000000 		.word	.LC9
 1046 0004 00000000 		.word	sem1_setup
 1047 0008 00000000 		.word	0
 1048 000c 00000000 		.word	sem1_execute
 1049              		.section	.rodata.testsem2,"a",%progbits
 1050              		.align	2
 1051              		.type	testsem2, %object
 1052              		.size	testsem2, 16
 1053              	testsem2:
 1054 0000 60000000 		.word	.LC8
 1055 0004 00000000 		.word	sem2_setup
 1056 0008 00000000 		.word	0
 1057 000c 00000000 		.word	sem2_execute
 1058              		.section	.rodata.testsem3,"a",%progbits
 1059              		.align	2
 1060              		.type	testsem3, %object
 1061              		.size	testsem3, 16
 1062              	testsem3:
 1063 0000 40000000 		.word	.LC7
 1064 0004 00000000 		.word	sem3_setup
 1065 0008 00000000 		.word	0
 1066 000c 00000000 		.word	sem3_execute
 1067              		.section	.rodata.testsem4,"a",%progbits
 1068              		.align	2
 1069              		.type	testsem4, %object
 1070              		.size	testsem4, 16
 1071              	testsem4:
 1072 0000 1C000000 		.word	.LC6
 1073 0004 00000000 		.word	0
 1074 0008 00000000 		.word	0
 1075 000c 00000000 		.word	sem4_execute
 1076              		.section	.data.sem1,"aw",%progbits
ARM GAS  C:\Users\LAB_ME~1\AppData\Local\Temp\ccLKfcip.s 			page 20


 1077              		.align	2
 1078              		.set	.LANCHOR0,. + 0
 1079              		.type	sem1, %object
 1080              		.size	sem1, 12
 1081              	sem1:
 1082 0000 00000000 		.word	sem1
 1083 0004 00000000 		.word	sem1
 1084 0008 00000000 		.word	0
 1085              		.section	.rodata.patternsem,"a",%progbits
 1086              		.align	2
 1087              		.type	patternsem, %object
 1088              		.size	patternsem, 20
 1089              	patternsem:
 1090 0000 00000000 		.word	testsem1
 1091 0004 00000000 		.word	testsem2
 1092 0008 00000000 		.word	testsem3
 1093 000c 00000000 		.word	testsem4
 1094 0010 00000000 		.word	0
 1095              		.section	.rodata.str1.4,"aMS",%progbits,1
 1096              		.align	2
 1097              	.LC0:
 1098 0000 4100     		.ascii	"A\000"
 1099 0002 0000     		.space	2
 1100              	.LC1:
 1101 0004 4200     		.ascii	"B\000"
 1102 0006 0000     		.space	2
 1103              	.LC2:
 1104 0008 4300     		.ascii	"C\000"
 1105 000a 0000     		.space	2
 1106              	.LC3:
 1107 000c 4400     		.ascii	"D\000"
 1108 000e 0000     		.space	2
 1109              	.LC4:
 1110 0010 4500     		.ascii	"E\000"
 1111 0012 0000     		.space	2
 1112              	.LC5:
 1113 0014 41424344 		.ascii	"ABCDE\000"
 1113      4500
 1114 001a 0000     		.space	2
 1115              	.LC6:
 1116 001c 42696E61 		.ascii	"Binary Semaphores, functionality\000"
 1116      72792053 
 1116      656D6170 
 1116      686F7265 
 1116      732C2066 
 1117 003d 000000   		.space	3
 1118              	.LC7:
 1119 0040 53656D61 		.ascii	"Semaphores, atomic signal-wait\000"
 1119      70686F72 
 1119      65732C20 
 1119      61746F6D 
 1119      69632073 
 1120 005f 00       		.space	1
 1121              	.LC8:
 1122 0060 53656D61 		.ascii	"Semaphores, timeout\000"
 1122      70686F72 
 1122      65732C20 
ARM GAS  C:\Users\LAB_ME~1\AppData\Local\Temp\ccLKfcip.s 			page 21


 1122      74696D65 
 1122      6F757400 
 1123              	.LC9:
 1124 0074 53656D61 		.ascii	"Semaphores, enqueuing\000"
 1124      70686F72 
 1124      65732C20 
 1124      656E7175 
 1124      6575696E 
 1125 008a 0000     		.text
 1126              	.Letext0:
 1127              		.file 2 "c:\\program files (x86)\\codesourcery\\sourcery_codebench_lite_for_arm_eabi\\bin\\../lib/
 1128              		.file 3 "c:\\program files (x86)\\codesourcery\\sourcery_codebench_lite_for_arm_eabi\\bin\\../lib/
 1129              		.file 4 "../../os/ports/GCC/ARMCMx/chtypes.h"
 1130              		.file 5 "../../os/kernel/include/chlists.h"
 1131              		.file 6 "../../os/kernel/include/chthreads.h"
 1132              		.file 7 "../../os/ports/GCC/ARMCMx/chcore_v7m.h"
 1133              		.file 8 "../../os/kernel/include/chvt.h"
 1134              		.file 9 "../../os/kernel/include/chschd.h"
 1135              		.file 10 "../../os/kernel/include/chsem.h"
 1136              		.file 11 "../../os/kernel/include/chbsem.h"
 1137              		.file 12 "../../os/kernel/include/chmtx.h"
 1138              		.file 13 "../../test/test.h"
 1139              		.section	.debug_info,"",%progbits
 1140              	.Ldebug_info0:
 1141 0000 63110000 		.4byte	0x1163
 1142 0004 0200     		.2byte	0x2
 1143 0006 00000000 		.4byte	.Ldebug_abbrev0
 1144 000a 04       		.byte	0x4
 1145 000b 01       		.uleb128 0x1
 1146 000c ED020000 		.4byte	.LASF121
 1147 0010 01       		.byte	0x1
 1148 0011 64030000 		.4byte	.LASF122
 1149 0015 D5040000 		.4byte	.LASF123
 1150 0019 60000000 		.4byte	.Ldebug_ranges0+0x60
 1151 001d 00000000 		.4byte	0
 1152 0021 00000000 		.4byte	0
 1153 0025 00000000 		.4byte	.Ldebug_line0
 1154 0029 02       		.uleb128 0x2
 1155 002a 04       		.byte	0x4
 1156 002b 05       		.byte	0x5
 1157 002c 696E7400 		.ascii	"int\000"
 1158 0030 03       		.uleb128 0x3
 1159 0031 1B000000 		.4byte	.LASF2
 1160 0035 02       		.byte	0x2
 1161 0036 D5       		.byte	0xd5
 1162 0037 3B000000 		.4byte	0x3b
 1163 003b 04       		.uleb128 0x4
 1164 003c 04       		.byte	0x4
 1165 003d 07       		.byte	0x7
 1166 003e 6B010000 		.4byte	.LASF0
 1167 0042 04       		.uleb128 0x4
 1168 0043 01       		.byte	0x1
 1169 0044 06       		.byte	0x6
 1170 0045 81000000 		.4byte	.LASF1
 1171 0049 03       		.uleb128 0x3
 1172 004a 91040000 		.4byte	.LASF3
 1173 004e 03       		.byte	0x3
ARM GAS  C:\Users\LAB_ME~1\AppData\Local\Temp\ccLKfcip.s 			page 22


 1174 004f 2A       		.byte	0x2a
 1175 0050 54000000 		.4byte	0x54
 1176 0054 04       		.uleb128 0x4
 1177 0055 01       		.byte	0x1
 1178 0056 08       		.byte	0x8
 1179 0057 3D030000 		.4byte	.LASF4
 1180 005b 04       		.uleb128 0x4
 1181 005c 02       		.byte	0x2
 1182 005d 05       		.byte	0x5
 1183 005e 39020000 		.4byte	.LASF5
 1184 0062 04       		.uleb128 0x4
 1185 0063 02       		.byte	0x2
 1186 0064 07       		.byte	0x7
 1187 0065 F0010000 		.4byte	.LASF6
 1188 0069 03       		.uleb128 0x3
 1189 006a 35030000 		.4byte	.LASF7
 1190 006e 03       		.byte	0x3
 1191 006f 4F       		.byte	0x4f
 1192 0070 74000000 		.4byte	0x74
 1193 0074 04       		.uleb128 0x4
 1194 0075 04       		.byte	0x4
 1195 0076 05       		.byte	0x5
 1196 0077 E3000000 		.4byte	.LASF8
 1197 007b 03       		.uleb128 0x3
 1198 007c D8030000 		.4byte	.LASF9
 1199 0080 03       		.byte	0x3
 1200 0081 50       		.byte	0x50
 1201 0082 86000000 		.4byte	0x86
 1202 0086 04       		.uleb128 0x4
 1203 0087 04       		.byte	0x4
 1204 0088 07       		.byte	0x7
 1205 0089 C2010000 		.4byte	.LASF10
 1206 008d 04       		.uleb128 0x4
 1207 008e 08       		.byte	0x8
 1208 008f 05       		.byte	0x5
 1209 0090 73000000 		.4byte	.LASF11
 1210 0094 04       		.uleb128 0x4
 1211 0095 08       		.byte	0x8
 1212 0096 07       		.byte	0x7
 1213 0097 3B000000 		.4byte	.LASF12
 1214 009b 03       		.uleb128 0x3
 1215 009c A5000000 		.4byte	.LASF13
 1216 00a0 04       		.byte	0x4
 1217 00a1 27       		.byte	0x27
 1218 00a2 69000000 		.4byte	0x69
 1219 00a6 03       		.uleb128 0x3
 1220 00a7 19020000 		.4byte	.LASF14
 1221 00ab 04       		.byte	0x4
 1222 00ac 28       		.byte	0x28
 1223 00ad 49000000 		.4byte	0x49
 1224 00b1 03       		.uleb128 0x3
 1225 00b2 F8000000 		.4byte	.LASF15
 1226 00b6 04       		.byte	0x4
 1227 00b7 29       		.byte	0x29
 1228 00b8 49000000 		.4byte	0x49
 1229 00bc 03       		.uleb128 0x3
 1230 00bd 16030000 		.4byte	.LASF16
ARM GAS  C:\Users\LAB_ME~1\AppData\Local\Temp\ccLKfcip.s 			page 23


 1231 00c1 04       		.byte	0x4
 1232 00c2 2A       		.byte	0x2a
 1233 00c3 49000000 		.4byte	0x49
 1234 00c7 03       		.uleb128 0x3
 1235 00c8 CC000000 		.4byte	.LASF17
 1236 00cc 04       		.byte	0x4
 1237 00cd 2B       		.byte	0x2b
 1238 00ce 49000000 		.4byte	0x49
 1239 00d2 03       		.uleb128 0x3
 1240 00d3 2D030000 		.4byte	.LASF18
 1241 00d7 04       		.byte	0x4
 1242 00d8 2C       		.byte	0x2c
 1243 00d9 7B000000 		.4byte	0x7b
 1244 00dd 03       		.uleb128 0x3
 1245 00de 13020000 		.4byte	.LASF19
 1246 00e2 04       		.byte	0x4
 1247 00e3 2D       		.byte	0x2d
 1248 00e4 69000000 		.4byte	0x69
 1249 00e8 03       		.uleb128 0x3
 1250 00e9 2D020000 		.4byte	.LASF20
 1251 00ed 04       		.byte	0x4
 1252 00ee 2F       		.byte	0x2f
 1253 00ef 7B000000 		.4byte	0x7b
 1254 00f3 03       		.uleb128 0x3
 1255 00f4 12040000 		.4byte	.LASF21
 1256 00f8 04       		.byte	0x4
 1257 00f9 31       		.byte	0x31
 1258 00fa 7B000000 		.4byte	0x7b
 1259 00fe 03       		.uleb128 0x3
 1260 00ff 65010000 		.4byte	.LASF22
 1261 0103 04       		.byte	0x4
 1262 0104 32       		.byte	0x32
 1263 0105 69000000 		.4byte	0x69
 1264 0109 03       		.uleb128 0x3
 1265 010a B0030000 		.4byte	.LASF23
 1266 010e 05       		.byte	0x5
 1267 010f 23       		.byte	0x23
 1268 0110 14010000 		.4byte	0x114
 1269 0114 05       		.uleb128 0x5
 1270 0115 B0030000 		.4byte	.LASF23
 1271 0119 48       		.byte	0x48
 1272 011a 06       		.byte	0x6
 1273 011b 57       		.byte	0x57
 1274 011c 39020000 		.4byte	0x239
 1275 0120 06       		.uleb128 0x6
 1276 0121 A1030000 		.4byte	.LASF24
 1277 0125 06       		.byte	0x6
 1278 0126 58       		.byte	0x58
 1279 0127 5E020000 		.4byte	0x25e
 1280 012b 02       		.byte	0x2
 1281 012c 23       		.byte	0x23
 1282 012d 00       		.uleb128 0
 1283 012e 06       		.uleb128 0x6
 1284 012f 1E030000 		.4byte	.LASF25
 1285 0133 06       		.byte	0x6
 1286 0134 5A       		.byte	0x5a
 1287 0135 5E020000 		.4byte	0x25e
ARM GAS  C:\Users\LAB_ME~1\AppData\Local\Temp\ccLKfcip.s 			page 24


 1288 0139 02       		.byte	0x2
 1289 013a 23       		.byte	0x23
 1290 013b 04       		.uleb128 0x4
 1291 013c 06       		.uleb128 0x6
 1292 013d 6C000000 		.4byte	.LASF26
 1293 0141 06       		.byte	0x6
 1294 0142 5C       		.byte	0x5c
 1295 0143 D2000000 		.4byte	0xd2
 1296 0147 02       		.byte	0x2
 1297 0148 23       		.byte	0x23
 1298 0149 08       		.uleb128 0x8
 1299 014a 06       		.uleb128 0x6
 1300 014b F1040000 		.4byte	.LASF27
 1301 014f 06       		.byte	0x6
 1302 0150 5D       		.byte	0x5d
 1303 0151 2C030000 		.4byte	0x32c
 1304 0155 02       		.byte	0x2
 1305 0156 23       		.byte	0x23
 1306 0157 0C       		.uleb128 0xc
 1307 0158 06       		.uleb128 0x6
 1308 0159 26010000 		.4byte	.LASF28
 1309 015d 06       		.byte	0x6
 1310 015e 5F       		.byte	0x5f
 1311 015f 5E020000 		.4byte	0x25e
 1312 0163 02       		.byte	0x2
 1313 0164 23       		.byte	0x23
 1314 0165 10       		.uleb128 0x10
 1315 0166 06       		.uleb128 0x6
 1316 0167 9E020000 		.4byte	.LASF29
 1317 016b 06       		.byte	0x6
 1318 016c 60       		.byte	0x60
 1319 016d 5E020000 		.4byte	0x25e
 1320 0171 02       		.byte	0x2
 1321 0172 23       		.byte	0x23
 1322 0173 14       		.uleb128 0x14
 1323 0174 06       		.uleb128 0x6
 1324 0175 A0040000 		.4byte	.LASF30
 1325 0179 06       		.byte	0x6
 1326 017a 67       		.byte	0x67
 1327 017b 63050000 		.4byte	0x563
 1328 017f 02       		.byte	0x2
 1329 0180 23       		.byte	0x23
 1330 0181 18       		.uleb128 0x18
 1331 0182 06       		.uleb128 0x6
 1332 0183 79030000 		.4byte	.LASF31
 1333 0187 06       		.byte	0x6
 1334 0188 72       		.byte	0x72
 1335 0189 B1000000 		.4byte	0xb1
 1336 018d 02       		.byte	0x2
 1337 018e 23       		.byte	0x23
 1338 018f 1C       		.uleb128 0x1c
 1339 0190 06       		.uleb128 0x6
 1340 0191 A8030000 		.4byte	.LASF32
 1341 0195 06       		.byte	0x6
 1342 0196 76       		.byte	0x76
 1343 0197 A6000000 		.4byte	0xa6
 1344 019b 02       		.byte	0x2
ARM GAS  C:\Users\LAB_ME~1\AppData\Local\Temp\ccLKfcip.s 			page 25


 1345 019c 23       		.byte	0x23
 1346 019d 1D       		.uleb128 0x1d
 1347 019e 06       		.uleb128 0x6
 1348 019f 7A040000 		.4byte	.LASF33
 1349 01a3 06       		.byte	0x6
 1350 01a4 7B       		.byte	0x7b
 1351 01a5 BC000000 		.4byte	0xbc
 1352 01a9 02       		.byte	0x2
 1353 01aa 23       		.byte	0x23
 1354 01ab 1E       		.uleb128 0x1e
 1355 01ac 06       		.uleb128 0x6
 1356 01ad 81030000 		.4byte	.LASF34
 1357 01b1 06       		.byte	0x6
 1358 01b2 81       		.byte	0x81
 1359 01b3 C7000000 		.4byte	0xc7
 1360 01b7 02       		.byte	0x2
 1361 01b8 23       		.byte	0x23
 1362 01b9 1F       		.uleb128 0x1f
 1363 01ba 06       		.uleb128 0x6
 1364 01bb 3A040000 		.4byte	.LASF35
 1365 01bf 06       		.byte	0x6
 1366 01c0 88       		.byte	0x88
 1367 01c1 18040000 		.4byte	0x418
 1368 01c5 02       		.byte	0x2
 1369 01c6 23       		.byte	0x23
 1370 01c7 20       		.uleb128 0x20
 1371 01c8 07       		.uleb128 0x7
 1372 01c9 705F7500 		.ascii	"p_u\000"
 1373 01cd 06       		.byte	0x6
 1374 01ce AD       		.byte	0xad
 1375 01cf 2E050000 		.4byte	0x52e
 1376 01d3 02       		.byte	0x2
 1377 01d4 23       		.byte	0x23
 1378 01d5 24       		.uleb128 0x24
 1379 01d6 06       		.uleb128 0x6
 1380 01d7 F7040000 		.4byte	.LASF36
 1381 01db 06       		.byte	0x6
 1382 01dc B2       		.byte	0xb2
 1383 01dd 86020000 		.4byte	0x286
 1384 01e1 02       		.byte	0x2
 1385 01e2 23       		.byte	0x23
 1386 01e3 28       		.uleb128 0x28
 1387 01e4 06       		.uleb128 0x6
 1388 01e5 48040000 		.4byte	.LASF37
 1389 01e9 06       		.byte	0x6
 1390 01ea B8       		.byte	0xb8
 1391 01eb 64020000 		.4byte	0x264
 1392 01ef 02       		.byte	0x2
 1393 01f0 23       		.byte	0x23
 1394 01f1 2C       		.uleb128 0x2c
 1395 01f2 06       		.uleb128 0x6
 1396 01f3 08000000 		.4byte	.LASF38
 1397 01f7 06       		.byte	0x6
 1398 01f8 BC       		.byte	0xbc
 1399 01f9 DD000000 		.4byte	0xdd
 1400 01fd 02       		.byte	0x2
 1401 01fe 23       		.byte	0x23
ARM GAS  C:\Users\LAB_ME~1\AppData\Local\Temp\ccLKfcip.s 			page 26


 1402 01ff 34       		.uleb128 0x34
 1403 0200 06       		.uleb128 0x6
 1404 0201 C0030000 		.4byte	.LASF39
 1405 0205 06       		.byte	0x6
 1406 0206 C2       		.byte	0xc2
 1407 0207 E8000000 		.4byte	0xe8
 1408 020b 02       		.byte	0x2
 1409 020c 23       		.byte	0x23
 1410 020d 38       		.uleb128 0x38
 1411 020e 06       		.uleb128 0x6
 1412 020f 5A030000 		.4byte	.LASF40
 1413 0213 06       		.byte	0x6
 1414 0214 C9       		.byte	0xc9
 1415 0215 75050000 		.4byte	0x575
 1416 0219 02       		.byte	0x2
 1417 021a 23       		.byte	0x23
 1418 021b 3C       		.uleb128 0x3c
 1419 021c 06       		.uleb128 0x6
 1420 021d 1C040000 		.4byte	.LASF41
 1421 0221 06       		.byte	0x6
 1422 0222 CD       		.byte	0xcd
 1423 0223 D2000000 		.4byte	0xd2
 1424 0227 02       		.byte	0x2
 1425 0228 23       		.byte	0x23
 1426 0229 40       		.uleb128 0x40
 1427 022a 06       		.uleb128 0x6
 1428 022b 9D000000 		.4byte	.LASF42
 1429 022f 06       		.byte	0x6
 1430 0230 D3       		.byte	0xd3
 1431 0231 9C020000 		.4byte	0x29c
 1432 0235 02       		.byte	0x2
 1433 0236 23       		.byte	0x23
 1434 0237 44       		.uleb128 0x44
 1435 0238 00       		.byte	0
 1436 0239 08       		.uleb128 0x8
 1437 023a 08       		.byte	0x8
 1438 023b 05       		.byte	0x5
 1439 023c 5A       		.byte	0x5a
 1440 023d 5E020000 		.4byte	0x25e
 1441 0241 06       		.uleb128 0x6
 1442 0242 A1030000 		.4byte	.LASF24
 1443 0246 05       		.byte	0x5
 1444 0247 5B       		.byte	0x5b
 1445 0248 5E020000 		.4byte	0x25e
 1446 024c 02       		.byte	0x2
 1447 024d 23       		.byte	0x23
 1448 024e 00       		.uleb128 0
 1449 024f 06       		.uleb128 0x6
 1450 0250 1E030000 		.4byte	.LASF25
 1451 0254 05       		.byte	0x5
 1452 0255 5D       		.byte	0x5d
 1453 0256 5E020000 		.4byte	0x25e
 1454 025a 02       		.byte	0x2
 1455 025b 23       		.byte	0x23
 1456 025c 04       		.uleb128 0x4
 1457 025d 00       		.byte	0
 1458 025e 09       		.uleb128 0x9
ARM GAS  C:\Users\LAB_ME~1\AppData\Local\Temp\ccLKfcip.s 			page 27


 1459 025f 04       		.byte	0x4
 1460 0260 09010000 		.4byte	0x109
 1461 0264 03       		.uleb128 0x3
 1462 0265 C4020000 		.4byte	.LASF43
 1463 0269 05       		.byte	0x5
 1464 026a 5F       		.byte	0x5f
 1465 026b 39020000 		.4byte	0x239
 1466 026f 08       		.uleb128 0x8
 1467 0270 04       		.byte	0x4
 1468 0271 05       		.byte	0x5
 1469 0272 64       		.byte	0x64
 1470 0273 86020000 		.4byte	0x286
 1471 0277 06       		.uleb128 0x6
 1472 0278 A1030000 		.4byte	.LASF24
 1473 027c 05       		.byte	0x5
 1474 027d 66       		.byte	0x66
 1475 027e 5E020000 		.4byte	0x25e
 1476 0282 02       		.byte	0x2
 1477 0283 23       		.byte	0x23
 1478 0284 00       		.uleb128 0
 1479 0285 00       		.byte	0
 1480 0286 03       		.uleb128 0x3
 1481 0287 21020000 		.4byte	.LASF44
 1482 028b 05       		.byte	0x5
 1483 028c 69       		.byte	0x69
 1484 028d 6F020000 		.4byte	0x26f
 1485 0291 03       		.uleb128 0x3
 1486 0292 4F010000 		.4byte	.LASF45
 1487 0296 07       		.byte	0x7
 1488 0297 DE       		.byte	0xde
 1489 0298 9C020000 		.4byte	0x29c
 1490 029c 0A       		.uleb128 0xa
 1491 029d 04       		.byte	0x4
 1492 029e 0B       		.uleb128 0xb
 1493 029f 41040000 		.4byte	.LASF46
 1494 02a3 24       		.byte	0x24
 1495 02a4 07       		.byte	0x7
 1496 02a5 0501     		.2byte	0x105
 1497 02a7 2C030000 		.4byte	0x32c
 1498 02ab 0C       		.uleb128 0xc
 1499 02ac 723400   		.ascii	"r4\000"
 1500 02af 07       		.byte	0x7
 1501 02b0 1801     		.2byte	0x118
 1502 02b2 91020000 		.4byte	0x291
 1503 02b6 02       		.byte	0x2
 1504 02b7 23       		.byte	0x23
 1505 02b8 00       		.uleb128 0
 1506 02b9 0C       		.uleb128 0xc
 1507 02ba 723500   		.ascii	"r5\000"
 1508 02bd 07       		.byte	0x7
 1509 02be 1901     		.2byte	0x119
 1510 02c0 91020000 		.4byte	0x291
 1511 02c4 02       		.byte	0x2
 1512 02c5 23       		.byte	0x23
 1513 02c6 04       		.uleb128 0x4
 1514 02c7 0C       		.uleb128 0xc
 1515 02c8 723600   		.ascii	"r6\000"
ARM GAS  C:\Users\LAB_ME~1\AppData\Local\Temp\ccLKfcip.s 			page 28


 1516 02cb 07       		.byte	0x7
 1517 02cc 1A01     		.2byte	0x11a
 1518 02ce 91020000 		.4byte	0x291
 1519 02d2 02       		.byte	0x2
 1520 02d3 23       		.byte	0x23
 1521 02d4 08       		.uleb128 0x8
 1522 02d5 0C       		.uleb128 0xc
 1523 02d6 723700   		.ascii	"r7\000"
 1524 02d9 07       		.byte	0x7
 1525 02da 1B01     		.2byte	0x11b
 1526 02dc 91020000 		.4byte	0x291
 1527 02e0 02       		.byte	0x2
 1528 02e1 23       		.byte	0x23
 1529 02e2 0C       		.uleb128 0xc
 1530 02e3 0C       		.uleb128 0xc
 1531 02e4 723800   		.ascii	"r8\000"
 1532 02e7 07       		.byte	0x7
 1533 02e8 1C01     		.2byte	0x11c
 1534 02ea 91020000 		.4byte	0x291
 1535 02ee 02       		.byte	0x2
 1536 02ef 23       		.byte	0x23
 1537 02f0 10       		.uleb128 0x10
 1538 02f1 0C       		.uleb128 0xc
 1539 02f2 723900   		.ascii	"r9\000"
 1540 02f5 07       		.byte	0x7
 1541 02f6 1D01     		.2byte	0x11d
 1542 02f8 91020000 		.4byte	0x291
 1543 02fc 02       		.byte	0x2
 1544 02fd 23       		.byte	0x23
 1545 02fe 14       		.uleb128 0x14
 1546 02ff 0C       		.uleb128 0xc
 1547 0300 72313000 		.ascii	"r10\000"
 1548 0304 07       		.byte	0x7
 1549 0305 1E01     		.2byte	0x11e
 1550 0307 91020000 		.4byte	0x291
 1551 030b 02       		.byte	0x2
 1552 030c 23       		.byte	0x23
 1553 030d 18       		.uleb128 0x18
 1554 030e 0C       		.uleb128 0xc
 1555 030f 72313100 		.ascii	"r11\000"
 1556 0313 07       		.byte	0x7
 1557 0314 1F01     		.2byte	0x11f
 1558 0316 91020000 		.4byte	0x291
 1559 031a 02       		.byte	0x2
 1560 031b 23       		.byte	0x23
 1561 031c 1C       		.uleb128 0x1c
 1562 031d 0C       		.uleb128 0xc
 1563 031e 6C7200   		.ascii	"lr\000"
 1564 0321 07       		.byte	0x7
 1565 0322 2001     		.2byte	0x120
 1566 0324 91020000 		.4byte	0x291
 1567 0328 02       		.byte	0x2
 1568 0329 23       		.byte	0x23
 1569 032a 20       		.uleb128 0x20
 1570 032b 00       		.byte	0
 1571 032c 0B       		.uleb128 0xb
 1572 032d E8010000 		.4byte	.LASF47
ARM GAS  C:\Users\LAB_ME~1\AppData\Local\Temp\ccLKfcip.s 			page 29


 1573 0331 04       		.byte	0x4
 1574 0332 07       		.byte	0x7
 1575 0333 2A01     		.2byte	0x12a
 1576 0335 49030000 		.4byte	0x349
 1577 0339 0C       		.uleb128 0xc
 1578 033a 72313300 		.ascii	"r13\000"
 1579 033e 07       		.byte	0x7
 1580 033f 2B01     		.2byte	0x12b
 1581 0341 49030000 		.4byte	0x349
 1582 0345 02       		.byte	0x2
 1583 0346 23       		.byte	0x23
 1584 0347 00       		.uleb128 0
 1585 0348 00       		.byte	0
 1586 0349 09       		.uleb128 0x9
 1587 034a 04       		.byte	0x4
 1588 034b 9E020000 		.4byte	0x29e
 1589 034f 04       		.uleb128 0x4
 1590 0350 04       		.byte	0x4
 1591 0351 07       		.byte	0x7
 1592 0352 70020000 		.4byte	.LASF48
 1593 0356 03       		.uleb128 0x3
 1594 0357 27040000 		.4byte	.LASF49
 1595 035b 08       		.byte	0x8
 1596 035c 4E       		.byte	0x4e
 1597 035d 61030000 		.4byte	0x361
 1598 0361 09       		.uleb128 0x9
 1599 0362 04       		.byte	0x4
 1600 0363 67030000 		.4byte	0x367
 1601 0367 0D       		.uleb128 0xd
 1602 0368 01       		.byte	0x1
 1603 0369 73030000 		.4byte	0x373
 1604 036d 0E       		.uleb128 0xe
 1605 036e 9C020000 		.4byte	0x29c
 1606 0372 00       		.byte	0
 1607 0373 03       		.uleb128 0x3
 1608 0374 E9030000 		.4byte	.LASF50
 1609 0378 08       		.byte	0x8
 1610 0379 53       		.byte	0x53
 1611 037a 7E030000 		.4byte	0x37e
 1612 037e 05       		.uleb128 0x5
 1613 037f E9030000 		.4byte	.LASF50
 1614 0383 14       		.byte	0x14
 1615 0384 08       		.byte	0x8
 1616 0385 5A       		.byte	0x5a
 1617 0386 D1030000 		.4byte	0x3d1
 1618 038a 06       		.uleb128 0x6
 1619 038b 89010000 		.4byte	.LASF51
 1620 038f 08       		.byte	0x8
 1621 0390 5B       		.byte	0x5b
 1622 0391 D1030000 		.4byte	0x3d1
 1623 0395 02       		.byte	0x2
 1624 0396 23       		.byte	0x23
 1625 0397 00       		.uleb128 0
 1626 0398 06       		.uleb128 0x6
 1627 0399 58010000 		.4byte	.LASF52
 1628 039d 08       		.byte	0x8
 1629 039e 5D       		.byte	0x5d
ARM GAS  C:\Users\LAB_ME~1\AppData\Local\Temp\ccLKfcip.s 			page 30


 1630 039f D1030000 		.4byte	0x3d1
 1631 03a3 02       		.byte	0x2
 1632 03a4 23       		.byte	0x23
 1633 03a5 04       		.uleb128 0x4
 1634 03a6 06       		.uleb128 0x6
 1635 03a7 68020000 		.4byte	.LASF53
 1636 03ab 08       		.byte	0x8
 1637 03ac 5F       		.byte	0x5f
 1638 03ad F3000000 		.4byte	0xf3
 1639 03b1 02       		.byte	0x2
 1640 03b2 23       		.byte	0x23
 1641 03b3 08       		.uleb128 0x8
 1642 03b4 06       		.uleb128 0x6
 1643 03b5 79020000 		.4byte	.LASF54
 1644 03b9 08       		.byte	0x8
 1645 03ba 60       		.byte	0x60
 1646 03bb 56030000 		.4byte	0x356
 1647 03bf 02       		.byte	0x2
 1648 03c0 23       		.byte	0x23
 1649 03c1 0C       		.uleb128 0xc
 1650 03c2 06       		.uleb128 0x6
 1651 03c3 53040000 		.4byte	.LASF55
 1652 03c7 08       		.byte	0x8
 1653 03c8 62       		.byte	0x62
 1654 03c9 9C020000 		.4byte	0x29c
 1655 03cd 02       		.byte	0x2
 1656 03ce 23       		.byte	0x23
 1657 03cf 10       		.uleb128 0x10
 1658 03d0 00       		.byte	0
 1659 03d1 09       		.uleb128 0x9
 1660 03d2 04       		.byte	0x4
 1661 03d3 73030000 		.4byte	0x373
 1662 03d7 08       		.uleb128 0x8
 1663 03d8 10       		.byte	0x10
 1664 03d9 08       		.byte	0x8
 1665 03da 6C       		.byte	0x6c
 1666 03db 18040000 		.4byte	0x418
 1667 03df 06       		.uleb128 0x6
 1668 03e0 89010000 		.4byte	.LASF51
 1669 03e4 08       		.byte	0x8
 1670 03e5 6D       		.byte	0x6d
 1671 03e6 D1030000 		.4byte	0x3d1
 1672 03ea 02       		.byte	0x2
 1673 03eb 23       		.byte	0x23
 1674 03ec 00       		.uleb128 0
 1675 03ed 06       		.uleb128 0x6
 1676 03ee 58010000 		.4byte	.LASF52
 1677 03f2 08       		.byte	0x8
 1678 03f3 6F       		.byte	0x6f
 1679 03f4 D1030000 		.4byte	0x3d1
 1680 03f8 02       		.byte	0x2
 1681 03f9 23       		.byte	0x23
 1682 03fa 04       		.uleb128 0x4
 1683 03fb 06       		.uleb128 0x6
 1684 03fc 68020000 		.4byte	.LASF53
 1685 0400 08       		.byte	0x8
 1686 0401 71       		.byte	0x71
ARM GAS  C:\Users\LAB_ME~1\AppData\Local\Temp\ccLKfcip.s 			page 31


 1687 0402 F3000000 		.4byte	0xf3
 1688 0406 02       		.byte	0x2
 1689 0407 23       		.byte	0x23
 1690 0408 08       		.uleb128 0x8
 1691 0409 06       		.uleb128 0x6
 1692 040a B4040000 		.4byte	.LASF56
 1693 040e 08       		.byte	0x8
 1694 040f 72       		.byte	0x72
 1695 0410 18040000 		.4byte	0x418
 1696 0414 02       		.byte	0x2
 1697 0415 23       		.byte	0x23
 1698 0416 0C       		.uleb128 0xc
 1699 0417 00       		.byte	0
 1700 0418 0F       		.uleb128 0xf
 1701 0419 F3000000 		.4byte	0xf3
 1702 041d 03       		.uleb128 0x3
 1703 041e C6040000 		.4byte	.LASF57
 1704 0422 08       		.byte	0x8
 1705 0423 73       		.byte	0x73
 1706 0424 D7030000 		.4byte	0x3d7
 1707 0428 08       		.uleb128 0x8
 1708 0429 1C       		.byte	0x1c
 1709 042a 09       		.byte	0x9
 1710 042b 57       		.byte	0x57
 1711 042c 85040000 		.4byte	0x485
 1712 0430 06       		.uleb128 0x6
 1713 0431 E1030000 		.4byte	.LASF58
 1714 0435 09       		.byte	0x9
 1715 0436 58       		.byte	0x58
 1716 0437 64020000 		.4byte	0x264
 1717 043b 02       		.byte	0x2
 1718 043c 23       		.byte	0x23
 1719 043d 00       		.uleb128 0
 1720 043e 06       		.uleb128 0x6
 1721 043f 93030000 		.4byte	.LASF59
 1722 0443 09       		.byte	0x9
 1723 0444 59       		.byte	0x59
 1724 0445 D2000000 		.4byte	0xd2
 1725 0449 02       		.byte	0x2
 1726 044a 23       		.byte	0x23
 1727 044b 08       		.uleb128 0x8
 1728 044c 06       		.uleb128 0x6
 1729 044d B6020000 		.4byte	.LASF60
 1730 0451 09       		.byte	0x9
 1731 0452 5B       		.byte	0x5b
 1732 0453 2C030000 		.4byte	0x32c
 1733 0457 02       		.byte	0x2
 1734 0458 23       		.byte	0x23
 1735 0459 0C       		.uleb128 0xc
 1736 045a 06       		.uleb128 0x6
 1737 045b 47010000 		.4byte	.LASF61
 1738 045f 09       		.byte	0x9
 1739 0460 5E       		.byte	0x5e
 1740 0461 5E020000 		.4byte	0x25e
 1741 0465 02       		.byte	0x2
 1742 0466 23       		.byte	0x23
 1743 0467 10       		.uleb128 0x10
ARM GAS  C:\Users\LAB_ME~1\AppData\Local\Temp\ccLKfcip.s 			page 32


 1744 0468 06       		.uleb128 0x6
 1745 0469 03030000 		.4byte	.LASF62
 1746 046d 09       		.byte	0x9
 1747 046e 5F       		.byte	0x5f
 1748 046f 5E020000 		.4byte	0x25e
 1749 0473 02       		.byte	0x2
 1750 0474 23       		.byte	0x23
 1751 0475 14       		.uleb128 0x14
 1752 0476 06       		.uleb128 0x6
 1753 0477 F9020000 		.4byte	.LASF63
 1754 047b 09       		.byte	0x9
 1755 047c 62       		.byte	0x62
 1756 047d 5E020000 		.4byte	0x25e
 1757 0481 02       		.byte	0x2
 1758 0482 23       		.byte	0x23
 1759 0483 18       		.uleb128 0x18
 1760 0484 00       		.byte	0
 1761 0485 03       		.uleb128 0x3
 1762 0486 81040000 		.4byte	.LASF64
 1763 048a 09       		.byte	0x9
 1764 048b 64       		.byte	0x64
 1765 048c 28040000 		.4byte	0x428
 1766 0490 05       		.uleb128 0x5
 1767 0491 5A040000 		.4byte	.LASF65
 1768 0495 0C       		.byte	0xc
 1769 0496 0A       		.byte	0xa
 1770 0497 25       		.byte	0x25
 1771 0498 B9040000 		.4byte	0x4b9
 1772 049c 06       		.uleb128 0x6
 1773 049d 2E010000 		.4byte	.LASF66
 1774 04a1 0A       		.byte	0xa
 1775 04a2 26       		.byte	0x26
 1776 04a3 64020000 		.4byte	0x264
 1777 04a7 02       		.byte	0x2
 1778 04a8 23       		.byte	0x23
 1779 04a9 00       		.uleb128 0
 1780 04aa 06       		.uleb128 0x6
 1781 04ab E2010000 		.4byte	.LASF67
 1782 04af 0A       		.byte	0xa
 1783 04b0 28       		.byte	0x28
 1784 04b1 FE000000 		.4byte	0xfe
 1785 04b5 02       		.byte	0x2
 1786 04b6 23       		.byte	0x23
 1787 04b7 08       		.uleb128 0x8
 1788 04b8 00       		.byte	0
 1789 04b9 03       		.uleb128 0x3
 1790 04ba 5A040000 		.4byte	.LASF65
 1791 04be 0A       		.byte	0xa
 1792 04bf 29       		.byte	0x29
 1793 04c0 90040000 		.4byte	0x490
 1794 04c4 08       		.uleb128 0x8
 1795 04c5 0C       		.byte	0xc
 1796 04c6 0B       		.byte	0xb
 1797 04c7 3D       		.byte	0x3d
 1798 04c8 DB040000 		.4byte	0x4db
 1799 04cc 06       		.uleb128 0x6
 1800 04cd BF040000 		.4byte	.LASF68
ARM GAS  C:\Users\LAB_ME~1\AppData\Local\Temp\ccLKfcip.s 			page 33


 1801 04d1 0B       		.byte	0xb
 1802 04d2 3E       		.byte	0x3e
 1803 04d3 B9040000 		.4byte	0x4b9
 1804 04d7 02       		.byte	0x2
 1805 04d8 23       		.byte	0x23
 1806 04d9 00       		.uleb128 0
 1807 04da 00       		.byte	0
 1808 04db 03       		.uleb128 0x3
 1809 04dc FB030000 		.4byte	.LASF69
 1810 04e0 0B       		.byte	0xb
 1811 04e1 3F       		.byte	0x3f
 1812 04e2 C4040000 		.4byte	0x4c4
 1813 04e6 05       		.uleb128 0x5
 1814 04e7 43020000 		.4byte	.LASF70
 1815 04eb 10       		.byte	0x10
 1816 04ec 0C       		.byte	0xc
 1817 04ed 25       		.byte	0x25
 1818 04ee 1D050000 		.4byte	0x51d
 1819 04f2 06       		.uleb128 0x6
 1820 04f3 AC000000 		.4byte	.LASF71
 1821 04f7 0C       		.byte	0xc
 1822 04f8 26       		.byte	0x26
 1823 04f9 64020000 		.4byte	0x264
 1824 04fd 02       		.byte	0x2
 1825 04fe 23       		.byte	0x23
 1826 04ff 00       		.uleb128 0
 1827 0500 06       		.uleb128 0x6
 1828 0501 CD040000 		.4byte	.LASF72
 1829 0505 0C       		.byte	0xc
 1830 0506 28       		.byte	0x28
 1831 0507 5E020000 		.4byte	0x25e
 1832 050b 02       		.byte	0x2
 1833 050c 23       		.byte	0x23
 1834 050d 08       		.uleb128 0x8
 1835 050e 06       		.uleb128 0x6
 1836 050f 0B040000 		.4byte	.LASF73
 1837 0513 0C       		.byte	0xc
 1838 0514 2A       		.byte	0x2a
 1839 0515 1D050000 		.4byte	0x51d
 1840 0519 02       		.byte	0x2
 1841 051a 23       		.byte	0x23
 1842 051b 0C       		.uleb128 0xc
 1843 051c 00       		.byte	0
 1844 051d 09       		.uleb128 0x9
 1845 051e 04       		.byte	0x4
 1846 051f E6040000 		.4byte	0x4e6
 1847 0523 03       		.uleb128 0x3
 1848 0524 43020000 		.4byte	.LASF70
 1849 0528 0C       		.byte	0xc
 1850 0529 2C       		.byte	0x2c
 1851 052a E6040000 		.4byte	0x4e6
 1852 052e 10       		.uleb128 0x10
 1853 052f 04       		.byte	0x4
 1854 0530 06       		.byte	0x6
 1855 0531 8F       		.byte	0x8f
 1856 0532 63050000 		.4byte	0x563
 1857 0536 11       		.uleb128 0x11
ARM GAS  C:\Users\LAB_ME~1\AppData\Local\Temp\ccLKfcip.s 			page 34


 1858 0537 22000000 		.4byte	.LASF74
 1859 053b 06       		.byte	0x6
 1860 053c 96       		.byte	0x96
 1861 053d DD000000 		.4byte	0xdd
 1862 0541 11       		.uleb128 0x11
 1863 0542 52000000 		.4byte	.LASF75
 1864 0546 06       		.byte	0x6
 1865 0547 9D       		.byte	0x9d
 1866 0548 DD000000 		.4byte	0xdd
 1867 054c 11       		.uleb128 0x11
 1868 054d 99040000 		.4byte	.LASF76
 1869 0551 06       		.byte	0x6
 1870 0552 A4       		.byte	0xa4
 1871 0553 9C020000 		.4byte	0x29c
 1872 0557 11       		.uleb128 0x11
 1873 0558 9A030000 		.4byte	.LASF77
 1874 055c 06       		.byte	0x6
 1875 055d AB       		.byte	0xab
 1876 055e E8000000 		.4byte	0xe8
 1877 0562 00       		.byte	0
 1878 0563 09       		.uleb128 0x9
 1879 0564 04       		.byte	0x4
 1880 0565 69050000 		.4byte	0x569
 1881 0569 12       		.uleb128 0x12
 1882 056a 6E050000 		.4byte	0x56e
 1883 056e 04       		.uleb128 0x4
 1884 056f 01       		.byte	0x1
 1885 0570 08       		.byte	0x8
 1886 0571 F6030000 		.4byte	.LASF78
 1887 0575 09       		.uleb128 0x9
 1888 0576 04       		.byte	0x4
 1889 0577 23050000 		.4byte	0x523
 1890 057b 03       		.uleb128 0x3
 1891 057c 00000000 		.4byte	.LASF79
 1892 0580 06       		.byte	0x6
 1893 0581 DE       		.byte	0xde
 1894 0582 86050000 		.4byte	0x586
 1895 0586 09       		.uleb128 0x9
 1896 0587 04       		.byte	0x4
 1897 0588 8C050000 		.4byte	0x58c
 1898 058c 13       		.uleb128 0x13
 1899 058d 01       		.byte	0x1
 1900 058e DD000000 		.4byte	0xdd
 1901 0592 9C050000 		.4byte	0x59c
 1902 0596 0E       		.uleb128 0xe
 1903 0597 9C020000 		.4byte	0x29c
 1904 059b 00       		.byte	0
 1905 059c 05       		.uleb128 0x5
 1906 059d B7030000 		.4byte	.LASF80
 1907 05a1 10       		.byte	0x10
 1908 05a2 0D       		.byte	0xd
 1909 05a3 3F       		.byte	0x3f
 1910 05a4 E1050000 		.4byte	0x5e1
 1911 05a8 06       		.uleb128 0x6
 1912 05a9 DD010000 		.4byte	.LASF81
 1913 05ad 0D       		.byte	0xd
 1914 05ae 40       		.byte	0x40
ARM GAS  C:\Users\LAB_ME~1\AppData\Local\Temp\ccLKfcip.s 			page 35


 1915 05af 63050000 		.4byte	0x563
 1916 05b3 02       		.byte	0x2
 1917 05b4 23       		.byte	0x23
 1918 05b5 00       		.uleb128 0
 1919 05b6 06       		.uleb128 0x6
 1920 05b7 D1020000 		.4byte	.LASF82
 1921 05bb 0D       		.byte	0xd
 1922 05bc 41       		.byte	0x41
 1923 05bd E3050000 		.4byte	0x5e3
 1924 05c1 02       		.byte	0x2
 1925 05c2 23       		.byte	0x23
 1926 05c3 04       		.uleb128 0x4
 1927 05c4 06       		.uleb128 0x6
 1928 05c5 D4010000 		.4byte	.LASF83
 1929 05c9 0D       		.byte	0xd
 1930 05ca 42       		.byte	0x42
 1931 05cb E3050000 		.4byte	0x5e3
 1932 05cf 02       		.byte	0x2
 1933 05d0 23       		.byte	0x23
 1934 05d1 08       		.uleb128 0x8
 1935 05d2 06       		.uleb128 0x6
 1936 05d3 25030000 		.4byte	.LASF84
 1937 05d7 0D       		.byte	0xd
 1938 05d8 43       		.byte	0x43
 1939 05d9 E3050000 		.4byte	0x5e3
 1940 05dd 02       		.byte	0x2
 1941 05de 23       		.byte	0x23
 1942 05df 0C       		.uleb128 0xc
 1943 05e0 00       		.byte	0
 1944 05e1 14       		.uleb128 0x14
 1945 05e2 01       		.byte	0x1
 1946 05e3 09       		.uleb128 0x9
 1947 05e4 04       		.byte	0x4
 1948 05e5 E1050000 		.4byte	0x5e1
 1949 05e9 15       		.uleb128 0x15
 1950 05ea 91010000 		.4byte	.LASF124
 1951 05ee 01       		.byte	0x1
 1952 05ef DD       		.byte	0xdd
 1953 05f0 01       		.byte	0x1
 1954 05f1 01       		.byte	0x1
 1955 05f2 16       		.uleb128 0x16
 1956 05f3 D6000000 		.4byte	.LASF125
 1957 05f7 01       		.byte	0x1
 1958 05f8 94       		.byte	0x94
 1959 05f9 01       		.byte	0x1
 1960 05fa 01       		.byte	0x1
 1961 05fb 1F060000 		.4byte	0x61f
 1962 05ff 17       		.uleb128 0x17
 1963 0600 6900     		.ascii	"i\000"
 1964 0602 01       		.byte	0x1
 1965 0603 95       		.byte	0x95
 1966 0604 29000000 		.4byte	0x29
 1967 0608 18       		.uleb128 0x18
 1968 0609 EC000000 		.4byte	.LASF85
 1969 060d 01       		.byte	0x1
 1970 060e 96       		.byte	0x96
 1971 060f F3000000 		.4byte	0xf3
ARM GAS  C:\Users\LAB_ME~1\AppData\Local\Temp\ccLKfcip.s 			page 36


 1972 0613 17       		.uleb128 0x17
 1973 0614 6D736700 		.ascii	"msg\000"
 1974 0618 01       		.byte	0x1
 1975 0619 97       		.byte	0x97
 1976 061a DD000000 		.4byte	0xdd
 1977 061e 00       		.byte	0
 1978 061f 19       		.uleb128 0x19
 1979 0620 64040000 		.4byte	.LASF86
 1980 0624 01       		.byte	0x1
 1981 0625 D0       		.byte	0xd0
 1982 0626 01       		.byte	0x1
 1983 0627 00000000 		.4byte	.LFB13
 1984 062b 0C000000 		.4byte	.LFE13
 1985 062f 02       		.byte	0x2
 1986 0630 7D       		.byte	0x7d
 1987 0631 00       		.sleb128 0
 1988 0632 01       		.byte	0x1
 1989 0633 51060000 		.4byte	0x651
 1990 0637 1A       		.uleb128 0x1a
 1991 0638 08000000 		.4byte	.LVL0
 1992 063c 01       		.byte	0x1
 1993 063d C50F0000 		.4byte	0xfc5
 1994 0641 1B       		.uleb128 0x1b
 1995 0642 01       		.byte	0x1
 1996 0643 51       		.byte	0x51
 1997 0644 01       		.byte	0x1
 1998 0645 30       		.byte	0x30
 1999 0646 1B       		.uleb128 0x1b
 2000 0647 01       		.byte	0x1
 2001 0648 50       		.byte	0x50
 2002 0649 05       		.byte	0x5
 2003 064a 03       		.byte	0x3
 2004 064b 00000000 		.4byte	.LANCHOR0
 2005 064f 00       		.byte	0
 2006 0650 00       		.byte	0
 2007 0651 19       		.uleb128 0x19
 2008 0652 29000000 		.4byte	.LASF87
 2009 0656 01       		.byte	0x1
 2010 0657 84       		.byte	0x84
 2011 0658 01       		.byte	0x1
 2012 0659 00000000 		.4byte	.LFB10
 2013 065d 0C000000 		.4byte	.LFE10
 2014 0661 02       		.byte	0x2
 2015 0662 7D       		.byte	0x7d
 2016 0663 00       		.sleb128 0
 2017 0664 01       		.byte	0x1
 2018 0665 83060000 		.4byte	0x683
 2019 0669 1A       		.uleb128 0x1a
 2020 066a 08000000 		.4byte	.LVL1
 2021 066e 01       		.byte	0x1
 2022 066f C50F0000 		.4byte	0xfc5
 2023 0673 1B       		.uleb128 0x1b
 2024 0674 01       		.byte	0x1
 2025 0675 51       		.byte	0x51
 2026 0676 01       		.byte	0x1
 2027 0677 30       		.byte	0x30
 2028 0678 1B       		.uleb128 0x1b
ARM GAS  C:\Users\LAB_ME~1\AppData\Local\Temp\ccLKfcip.s 			page 37


 2029 0679 01       		.byte	0x1
 2030 067a 50       		.byte	0x50
 2031 067b 05       		.byte	0x5
 2032 067c 03       		.byte	0x3
 2033 067d 00000000 		.4byte	.LANCHOR0
 2034 0681 00       		.byte	0
 2035 0682 00       		.byte	0
 2036 0683 19       		.uleb128 0x19
 2037 0684 81020000 		.4byte	.LASF88
 2038 0688 01       		.byte	0x1
 2039 0689 4C       		.byte	0x4c
 2040 068a 01       		.byte	0x1
 2041 068b 00000000 		.4byte	.LFB7
 2042 068f 0C000000 		.4byte	.LFE7
 2043 0693 02       		.byte	0x2
 2044 0694 7D       		.byte	0x7d
 2045 0695 00       		.sleb128 0
 2046 0696 01       		.byte	0x1
 2047 0697 B5060000 		.4byte	0x6b5
 2048 069b 1A       		.uleb128 0x1a
 2049 069c 08000000 		.4byte	.LVL2
 2050 06a0 01       		.byte	0x1
 2051 06a1 C50F0000 		.4byte	0xfc5
 2052 06a5 1B       		.uleb128 0x1b
 2053 06a6 01       		.byte	0x1
 2054 06a7 51       		.byte	0x51
 2055 06a8 01       		.byte	0x1
 2056 06a9 30       		.byte	0x30
 2057 06aa 1B       		.uleb128 0x1b
 2058 06ab 01       		.byte	0x1
 2059 06ac 50       		.byte	0x50
 2060 06ad 05       		.byte	0x5
 2061 06ae 03       		.byte	0x3
 2062 06af 00000000 		.4byte	.LANCHOR0
 2063 06b3 00       		.byte	0
 2064 06b4 00       		.byte	0
 2065 06b5 1C       		.uleb128 0x1c
 2066 06b6 5B020000 		.4byte	.LASF89
 2067 06ba 01       		.byte	0x1
 2068 06bb FF       		.byte	0xff
 2069 06bc 01       		.byte	0x1
 2070 06bd 00000000 		.4byte	.LFB17
 2071 06c1 F8000000 		.4byte	.LFE17
 2072 06c5 00000000 		.4byte	.LLST0
 2073 06c9 01       		.byte	0x1
 2074 06ca 69080000 		.4byte	0x869
 2075 06ce 1D       		.uleb128 0x1d
 2076 06cf 0E020000 		.4byte	.LASF90
 2077 06d3 01       		.byte	0x1
 2078 06d4 0001     		.2byte	0x100
 2079 06d6 DB040000 		.4byte	0x4db
 2080 06da 02       		.byte	0x2
 2081 06db 91       		.byte	0x91
 2082 06dc 6C       		.sleb128 -20
 2083 06dd 1E       		.uleb128 0x1e
 2084 06de 62000000 		.4byte	.LBB2
 2085 06e2 68000000 		.4byte	.LBE2
ARM GAS  C:\Users\LAB_ME~1\AppData\Local\Temp\ccLKfcip.s 			page 38


 2086 06e6 FB060000 		.4byte	0x6fb
 2087 06ea 1F       		.uleb128 0x1f
 2088 06eb 746D7000 		.ascii	"tmp\000"
 2089 06ef 01       		.byte	0x1
 2090 06f0 1301     		.2byte	0x113
 2091 06f2 7B000000 		.4byte	0x7b
 2092 06f6 2C000000 		.4byte	.LLST1
 2093 06fa 00       		.byte	0
 2094 06fb 1E       		.uleb128 0x1e
 2095 06fc 72000000 		.4byte	.LBB3
 2096 0700 78000000 		.4byte	.LBE3
 2097 0704 19070000 		.4byte	0x719
 2098 0708 1F       		.uleb128 0x1f
 2099 0709 746D7000 		.ascii	"tmp\000"
 2100 070d 01       		.byte	0x1
 2101 070e 1301     		.2byte	0x113
 2102 0710 7B000000 		.4byte	0x7b
 2103 0714 3F000000 		.4byte	.LLST2
 2104 0718 00       		.byte	0
 2105 0719 1E       		.uleb128 0x1e
 2106 071a 9E000000 		.4byte	.LBB4
 2107 071e A4000000 		.4byte	.LBE4
 2108 0722 37070000 		.4byte	0x737
 2109 0726 1F       		.uleb128 0x1f
 2110 0727 746D7000 		.ascii	"tmp\000"
 2111 072b 01       		.byte	0x1
 2112 072c 1801     		.2byte	0x118
 2113 072e 7B000000 		.4byte	0x7b
 2114 0732 52000000 		.4byte	.LLST3
 2115 0736 00       		.byte	0
 2116 0737 1E       		.uleb128 0x1e
 2117 0738 AE000000 		.4byte	.LBB5
 2118 073c B4000000 		.4byte	.LBE5
 2119 0740 55070000 		.4byte	0x755
 2120 0744 1F       		.uleb128 0x1f
 2121 0745 746D7000 		.ascii	"tmp\000"
 2122 0749 01       		.byte	0x1
 2123 074a 1801     		.2byte	0x118
 2124 074c 7B000000 		.4byte	0x7b
 2125 0750 65000000 		.4byte	.LLST4
 2126 0754 00       		.byte	0
 2127 0755 20       		.uleb128 0x20
 2128 0756 0C000000 		.4byte	.LVL3
 2129 075a C50F0000 		.4byte	0xfc5
 2130 075e 6E070000 		.4byte	0x76e
 2131 0762 1B       		.uleb128 0x1b
 2132 0763 01       		.byte	0x1
 2133 0764 51       		.byte	0x51
 2134 0765 01       		.byte	0x1
 2135 0766 30       		.byte	0x30
 2136 0767 1B       		.uleb128 0x1b
 2137 0768 01       		.byte	0x1
 2138 0769 50       		.byte	0x50
 2139 076a 02       		.byte	0x2
 2140 076b 91       		.byte	0x91
 2141 076c 6C       		.sleb128 -20
 2142 076d 00       		.byte	0
ARM GAS  C:\Users\LAB_ME~1\AppData\Local\Temp\ccLKfcip.s 			page 39


 2143 076e 20       		.uleb128 0x20
 2144 076f 14000000 		.4byte	.LVL4
 2145 0773 E40F0000 		.4byte	0xfe4
 2146 0777 87070000 		.4byte	0x787
 2147 077b 1B       		.uleb128 0x1b
 2148 077c 01       		.byte	0x1
 2149 077d 51       		.byte	0x51
 2150 077e 01       		.byte	0x1
 2151 077f 30       		.byte	0x30
 2152 0780 1B       		.uleb128 0x1b
 2153 0781 01       		.byte	0x1
 2154 0782 50       		.byte	0x50
 2155 0783 02       		.byte	0x2
 2156 0784 91       		.byte	0x91
 2157 0785 6C       		.sleb128 -20
 2158 0786 00       		.byte	0
 2159 0787 20       		.uleb128 0x20
 2160 0788 24000000 		.4byte	.LVL5
 2161 078c FD0F0000 		.4byte	0xffd
 2162 0790 9A070000 		.4byte	0x79a
 2163 0794 1B       		.uleb128 0x1b
 2164 0795 01       		.byte	0x1
 2165 0796 50       		.byte	0x50
 2166 0797 01       		.byte	0x1
 2167 0798 31       		.byte	0x31
 2168 0799 00       		.byte	0
 2169 079a 20       		.uleb128 0x20
 2170 079b 44000000 		.4byte	.LVL6
 2171 079f 1A100000 		.4byte	0x101a
 2172 07a3 BF070000 		.4byte	0x7bf
 2173 07a7 1B       		.uleb128 0x1b
 2174 07a8 01       		.byte	0x1
 2175 07a9 53       		.byte	0x53
 2176 07aa 05       		.byte	0x5
 2177 07ab 03       		.byte	0x3
 2178 07ac 00000000 		.4byte	thread4
 2179 07b0 1B       		.uleb128 0x1b
 2180 07b1 01       		.byte	0x1
 2181 07b2 51       		.byte	0x51
 2182 07b3 03       		.byte	0x3
 2183 07b4 0A       		.byte	0xa
 2184 07b5 3001     		.2byte	0x130
 2185 07b7 1B       		.uleb128 0x1b
 2186 07b8 02       		.byte	0x2
 2187 07b9 7D       		.byte	0x7d
 2188 07ba 00       		.sleb128 0
 2189 07bb 02       		.byte	0x2
 2190 07bc 91       		.byte	0x91
 2191 07bd 6C       		.sleb128 -20
 2192 07be 00       		.byte	0
 2193 07bf 20       		.uleb128 0x20
 2194 07c0 4E000000 		.4byte	.LVL7
 2195 07c4 47100000 		.4byte	0x1047
 2196 07c8 D3070000 		.4byte	0x7d3
 2197 07cc 1B       		.uleb128 0x1b
 2198 07cd 01       		.byte	0x1
 2199 07ce 50       		.byte	0x50
ARM GAS  C:\Users\LAB_ME~1\AppData\Local\Temp\ccLKfcip.s 			page 40


 2200 07cf 02       		.byte	0x2
 2201 07d0 91       		.byte	0x91
 2202 07d1 6C       		.sleb128 -20
 2203 07d2 00       		.byte	0
 2204 07d3 20       		.uleb128 0x20
 2205 07d4 5E000000 		.4byte	.LVL8
 2206 07d8 FD0F0000 		.4byte	0xffd
 2207 07dc E6070000 		.4byte	0x7e6
 2208 07e0 1B       		.uleb128 0x1b
 2209 07e1 01       		.byte	0x1
 2210 07e2 50       		.byte	0x50
 2211 07e3 01       		.byte	0x1
 2212 07e4 32       		.byte	0x32
 2213 07e5 00       		.byte	0
 2214 07e6 21       		.uleb128 0x21
 2215 07e7 72000000 		.4byte	.LVL12
 2216 07eb 5F100000 		.4byte	0x105f
 2217 07ef 20       		.uleb128 0x20
 2218 07f0 88000000 		.4byte	.LVL16
 2219 07f4 FD0F0000 		.4byte	0xffd
 2220 07f8 02080000 		.4byte	0x802
 2221 07fc 1B       		.uleb128 0x1b
 2222 07fd 01       		.byte	0x1
 2223 07fe 50       		.byte	0x50
 2224 07ff 01       		.byte	0x1
 2225 0800 33       		.byte	0x33
 2226 0801 00       		.byte	0
 2227 0802 20       		.uleb128 0x20
 2228 0803 9A000000 		.4byte	.LVL17
 2229 0807 FD0F0000 		.4byte	0xffd
 2230 080b 15080000 		.4byte	0x815
 2231 080f 1B       		.uleb128 0x1b
 2232 0810 01       		.byte	0x1
 2233 0811 50       		.byte	0x50
 2234 0812 01       		.byte	0x1
 2235 0813 34       		.byte	0x34
 2236 0814 00       		.byte	0
 2237 0815 21       		.uleb128 0x21
 2238 0816 AE000000 		.4byte	.LVL21
 2239 081a 5F100000 		.4byte	0x105f
 2240 081e 20       		.uleb128 0x20
 2241 081f C4000000 		.4byte	.LVL25
 2242 0823 FD0F0000 		.4byte	0xffd
 2243 0827 31080000 		.4byte	0x831
 2244 082b 1B       		.uleb128 0x1b
 2245 082c 01       		.byte	0x1
 2246 082d 50       		.byte	0x50
 2247 082e 01       		.byte	0x1
 2248 082f 33       		.byte	0x33
 2249 0830 00       		.byte	0
 2250 0831 20       		.uleb128 0x20
 2251 0832 D6000000 		.4byte	.LVL26
 2252 0836 FD0F0000 		.4byte	0xffd
 2253 083a 44080000 		.4byte	0x844
 2254 083e 1B       		.uleb128 0x1b
 2255 083f 01       		.byte	0x1
 2256 0840 50       		.byte	0x50
ARM GAS  C:\Users\LAB_ME~1\AppData\Local\Temp\ccLKfcip.s 			page 41


 2257 0841 01       		.byte	0x1
 2258 0842 35       		.byte	0x35
 2259 0843 00       		.byte	0
 2260 0844 20       		.uleb128 0x20
 2261 0845 DE000000 		.4byte	.LVL27
 2262 0849 69100000 		.4byte	0x1069
 2263 084d 58080000 		.4byte	0x858
 2264 0851 1B       		.uleb128 0x1b
 2265 0852 01       		.byte	0x1
 2266 0853 50       		.byte	0x50
 2267 0854 02       		.byte	0x2
 2268 0855 91       		.byte	0x91
 2269 0856 6C       		.sleb128 -20
 2270 0857 00       		.byte	0
 2271 0858 22       		.uleb128 0x22
 2272 0859 E6000000 		.4byte	.LVL28
 2273 085d 69100000 		.4byte	0x1069
 2274 0861 1B       		.uleb128 0x1b
 2275 0862 01       		.byte	0x1
 2276 0863 50       		.byte	0x50
 2277 0864 02       		.byte	0x2
 2278 0865 91       		.byte	0x91
 2279 0866 6C       		.sleb128 -20
 2280 0867 00       		.byte	0
 2281 0868 00       		.byte	0
 2282 0869 23       		.uleb128 0x23
 2283 086a BC020000 		.4byte	.LASF91
 2284 086e 01       		.byte	0x1
 2285 086f F9       		.byte	0xf9
 2286 0870 01       		.byte	0x1
 2287 0871 DD000000 		.4byte	0xdd
 2288 0875 00000000 		.4byte	.LFB16
 2289 0879 22000000 		.4byte	.LFE16
 2290 087d 78000000 		.4byte	.LLST5
 2291 0881 01       		.byte	0x1
 2292 0882 E0080000 		.4byte	0x8e0
 2293 0886 24       		.uleb128 0x24
 2294 0887 7000     		.ascii	"p\000"
 2295 0889 01       		.byte	0x1
 2296 088a F9       		.byte	0xf9
 2297 088b 9C020000 		.4byte	0x29c
 2298 088f 98000000 		.4byte	.LLST6
 2299 0893 1E       		.uleb128 0x1e
 2300 0894 02000000 		.4byte	.LBB6
 2301 0898 08000000 		.4byte	.LBE6
 2302 089c B0080000 		.4byte	0x8b0
 2303 08a0 25       		.uleb128 0x25
 2304 08a1 746D7000 		.ascii	"tmp\000"
 2305 08a5 01       		.byte	0x1
 2306 08a6 FB       		.byte	0xfb
 2307 08a7 7B000000 		.4byte	0x7b
 2308 08ab D2000000 		.4byte	.LLST7
 2309 08af 00       		.byte	0
 2310 08b0 1E       		.uleb128 0x1e
 2311 08b1 12000000 		.4byte	.LBB7
 2312 08b5 18000000 		.4byte	.LBE7
 2313 08b9 CD080000 		.4byte	0x8cd
ARM GAS  C:\Users\LAB_ME~1\AppData\Local\Temp\ccLKfcip.s 			page 42


 2314 08bd 25       		.uleb128 0x25
 2315 08be 746D7000 		.ascii	"tmp\000"
 2316 08c2 01       		.byte	0x1
 2317 08c3 FB       		.byte	0xfb
 2318 08c4 7B000000 		.4byte	0x7b
 2319 08c8 E5000000 		.4byte	.LLST8
 2320 08cc 00       		.byte	0
 2321 08cd 21       		.uleb128 0x21
 2322 08ce 12000000 		.4byte	.LVL34
 2323 08d2 5F100000 		.4byte	0x105f
 2324 08d6 21       		.uleb128 0x21
 2325 08d7 20000000 		.4byte	.LVL38
 2326 08db 69100000 		.4byte	0x1069
 2327 08df 00       		.byte	0
 2328 08e0 23       		.uleb128 0x23
 2329 08e1 B4000000 		.4byte	.LASF92
 2330 08e5 01       		.byte	0x1
 2331 08e6 D5       		.byte	0xd5
 2332 08e7 01       		.byte	0x1
 2333 08e8 DD000000 		.4byte	0xdd
 2334 08ec 00000000 		.4byte	.LFB14
 2335 08f0 18000000 		.4byte	.LFE14
 2336 08f4 F8000000 		.4byte	.LLST9
 2337 08f8 01       		.byte	0x1
 2338 08f9 2F090000 		.4byte	0x92f
 2339 08fd 24       		.uleb128 0x24
 2340 08fe 7000     		.ascii	"p\000"
 2341 0900 01       		.byte	0x1
 2342 0901 D5       		.byte	0xd5
 2343 0902 9C020000 		.4byte	0x29c
 2344 0906 18010000 		.4byte	.LLST10
 2345 090a 20       		.uleb128 0x20
 2346 090b 0A000000 		.4byte	.LVL41
 2347 090f 47100000 		.4byte	0x1047
 2348 0913 1E090000 		.4byte	0x91e
 2349 0917 1B       		.uleb128 0x1b
 2350 0918 01       		.byte	0x1
 2351 0919 50       		.byte	0x50
 2352 091a 02       		.byte	0x2
 2353 091b 74       		.byte	0x74
 2354 091c 00       		.sleb128 0
 2355 091d 00       		.byte	0
 2356 091e 22       		.uleb128 0x22
 2357 091f 10000000 		.4byte	.LVL42
 2358 0923 7D100000 		.4byte	0x107d
 2359 0927 1B       		.uleb128 0x1b
 2360 0928 01       		.byte	0x1
 2361 0929 50       		.byte	0x50
 2362 092a 02       		.byte	0x2
 2363 092b 74       		.byte	0x74
 2364 092c 00       		.sleb128 0
 2365 092d 00       		.byte	0
 2366 092e 00       		.byte	0
 2367 092f 23       		.uleb128 0x23
 2368 0930 A6020000 		.4byte	.LASF93
 2369 0934 01       		.byte	0x1
 2370 0935 51       		.byte	0x51
ARM GAS  C:\Users\LAB_ME~1\AppData\Local\Temp\ccLKfcip.s 			page 43


 2371 0936 01       		.byte	0x1
 2372 0937 DD000000 		.4byte	0xdd
 2373 093b 00000000 		.4byte	.LFB8
 2374 093f 18000000 		.4byte	.LFE8
 2375 0943 39010000 		.4byte	.LLST11
 2376 0947 01       		.byte	0x1
 2377 0948 7A090000 		.4byte	0x97a
 2378 094c 24       		.uleb128 0x24
 2379 094d 7000     		.ascii	"p\000"
 2380 094f 01       		.byte	0x1
 2381 0950 51       		.byte	0x51
 2382 0951 9C020000 		.4byte	0x29c
 2383 0955 59010000 		.4byte	.LLST12
 2384 0959 20       		.uleb128 0x20
 2385 095a 0A000000 		.4byte	.LVL45
 2386 095e 47100000 		.4byte	0x1047
 2387 0962 70090000 		.4byte	0x970
 2388 0966 1B       		.uleb128 0x1b
 2389 0967 01       		.byte	0x1
 2390 0968 50       		.byte	0x50
 2391 0969 05       		.byte	0x5
 2392 096a 03       		.byte	0x3
 2393 096b 00000000 		.4byte	.LANCHOR0
 2394 096f 00       		.byte	0
 2395 0970 21       		.uleb128 0x21
 2396 0971 10000000 		.4byte	.LVL46
 2397 0975 91100000 		.4byte	0x1091
 2398 0979 00       		.byte	0
 2399 097a 23       		.uleb128 0x23
 2400 097b AE020000 		.4byte	.LASF94
 2401 097f 01       		.byte	0x1
 2402 0980 89       		.byte	0x89
 2403 0981 01       		.byte	0x1
 2404 0982 DD000000 		.4byte	0xdd
 2405 0986 00000000 		.4byte	.LFB11
 2406 098a 28000000 		.4byte	.LFE11
 2407 098e 77010000 		.4byte	.LLST13
 2408 0992 01       		.byte	0x1
 2409 0993 130A0000 		.4byte	0xa13
 2410 0997 24       		.uleb128 0x24
 2411 0998 7000     		.ascii	"p\000"
 2412 099a 01       		.byte	0x1
 2413 099b 89       		.byte	0x89
 2414 099c 9C020000 		.4byte	0x29c
 2415 09a0 97010000 		.4byte	.LLST14
 2416 09a4 1E       		.uleb128 0x1e
 2417 09a5 08000000 		.4byte	.LBB8
 2418 09a9 0E000000 		.4byte	.LBE8
 2419 09ad C1090000 		.4byte	0x9c1
 2420 09b1 25       		.uleb128 0x25
 2421 09b2 746D7000 		.ascii	"tmp\000"
 2422 09b6 01       		.byte	0x1
 2423 09b7 8D       		.byte	0x8d
 2424 09b8 7B000000 		.4byte	0x7b
 2425 09bc B8010000 		.4byte	.LLST15
 2426 09c0 00       		.byte	0
 2427 09c1 1E       		.uleb128 0x1e
ARM GAS  C:\Users\LAB_ME~1\AppData\Local\Temp\ccLKfcip.s 			page 44


 2428 09c2 18000000 		.4byte	.LBB9
 2429 09c6 1E000000 		.4byte	.LBE9
 2430 09ca DE090000 		.4byte	0x9de
 2431 09ce 25       		.uleb128 0x25
 2432 09cf 746D7000 		.ascii	"tmp\000"
 2433 09d3 01       		.byte	0x1
 2434 09d4 90       		.byte	0x90
 2435 09d5 7B000000 		.4byte	0x7b
 2436 09d9 CB010000 		.4byte	.LLST16
 2437 09dd 00       		.byte	0
 2438 09de 20       		.uleb128 0x20
 2439 09df 08000000 		.4byte	.LVL49
 2440 09e3 A5100000 		.4byte	0x10a5
 2441 09e7 F2090000 		.4byte	0x9f2
 2442 09eb 1B       		.uleb128 0x1b
 2443 09ec 01       		.byte	0x1
 2444 09ed 50       		.byte	0x50
 2445 09ee 02       		.byte	0x2
 2446 09ef 08       		.byte	0x8
 2447 09f0 32       		.byte	0x32
 2448 09f1 00       		.byte	0
 2449 09f2 20       		.uleb128 0x20
 2450 09f3 14000000 		.4byte	.LVL52
 2451 09f7 69100000 		.4byte	0x1069
 2452 09fb 090A0000 		.4byte	0xa09
 2453 09ff 1B       		.uleb128 0x1b
 2454 0a00 01       		.byte	0x1
 2455 0a01 50       		.byte	0x50
 2456 0a02 05       		.byte	0x5
 2457 0a03 03       		.byte	0x3
 2458 0a04 00000000 		.4byte	.LANCHOR0
 2459 0a08 00       		.byte	0
 2460 0a09 21       		.uleb128 0x21
 2461 0a0a 18000000 		.4byte	.LVL53
 2462 0a0e 5F100000 		.4byte	0x105f
 2463 0a12 00       		.byte	0
 2464 0a13 1C       		.uleb128 0x1c
 2465 0a14 CB030000 		.4byte	.LASF95
 2466 0a18 01       		.byte	0x1
 2467 0a19 58       		.byte	0x58
 2468 0a1a 01       		.byte	0x1
 2469 0a1b 00000000 		.4byte	.LFB9
 2470 0a1f 4C010000 		.4byte	.LFE9
 2471 0a23 DE010000 		.4byte	.LLST17
 2472 0a27 01       		.byte	0x1
 2473 0a28 2F0C0000 		.4byte	0xc2f
 2474 0a2c 26       		.uleb128 0x26
 2475 0a2d 00000000 		.4byte	.Ldebug_ranges0+0
 2476 0a31 450A0000 		.4byte	0xa45
 2477 0a35 25       		.uleb128 0x25
 2478 0a36 746D7000 		.ascii	"tmp\000"
 2479 0a3a 01       		.byte	0x1
 2480 0a3b 6B       		.byte	0x6b
 2481 0a3c 7B000000 		.4byte	0x7b
 2482 0a40 0A020000 		.4byte	.LLST18
 2483 0a44 00       		.byte	0
 2484 0a45 1E       		.uleb128 0x1e
ARM GAS  C:\Users\LAB_ME~1\AppData\Local\Temp\ccLKfcip.s 			page 45


 2485 0a46 FC000000 		.4byte	.LBB12
 2486 0a4a 02010000 		.4byte	.LBE12
 2487 0a4e 620A0000 		.4byte	0xa62
 2488 0a52 25       		.uleb128 0x25
 2489 0a53 746D7000 		.ascii	"tmp\000"
 2490 0a57 01       		.byte	0x1
 2491 0a58 6D       		.byte	0x6d
 2492 0a59 7B000000 		.4byte	0x7b
 2493 0a5d 1D020000 		.4byte	.LLST19
 2494 0a61 00       		.byte	0
 2495 0a62 20       		.uleb128 0x20
 2496 0a63 28000000 		.4byte	.LVL56
 2497 0a67 1A100000 		.4byte	0x101a
 2498 0a6b 8D0A0000 		.4byte	0xa8d
 2499 0a6f 1B       		.uleb128 0x1b
 2500 0a70 01       		.byte	0x1
 2501 0a71 53       		.byte	0x53
 2502 0a72 05       		.byte	0x5
 2503 0a73 03       		.byte	0x3
 2504 0a74 00000000 		.4byte	thread1
 2505 0a78 1B       		.uleb128 0x1b
 2506 0a79 01       		.byte	0x1
 2507 0a7a 51       		.byte	0x51
 2508 0a7b 03       		.byte	0x3
 2509 0a7c 0A       		.byte	0xa
 2510 0a7d 3001     		.2byte	0x130
 2511 0a7f 1B       		.uleb128 0x1b
 2512 0a80 01       		.byte	0x1
 2513 0a81 50       		.byte	0x50
 2514 0a82 02       		.byte	0x2
 2515 0a83 76       		.byte	0x76
 2516 0a84 00       		.sleb128 0
 2517 0a85 1B       		.uleb128 0x1b
 2518 0a86 02       		.byte	0x2
 2519 0a87 7D       		.byte	0x7d
 2520 0a88 00       		.sleb128 0
 2521 0a89 02       		.byte	0x2
 2522 0a8a 77       		.byte	0x77
 2523 0a8b 00       		.sleb128 0
 2524 0a8c 00       		.byte	0
 2525 0a8d 20       		.uleb128 0x20
 2526 0a8e 46000000 		.4byte	.LVL57
 2527 0a92 1A100000 		.4byte	0x101a
 2528 0a96 BC0A0000 		.4byte	0xabc
 2529 0a9a 1B       		.uleb128 0x1b
 2530 0a9b 01       		.byte	0x1
 2531 0a9c 53       		.byte	0x53
 2532 0a9d 05       		.byte	0x5
 2533 0a9e 03       		.byte	0x3
 2534 0a9f 00000000 		.4byte	thread1
 2535 0aa3 1B       		.uleb128 0x1b
 2536 0aa4 01       		.byte	0x1
 2537 0aa5 51       		.byte	0x51
 2538 0aa6 03       		.byte	0x3
 2539 0aa7 0A       		.byte	0xa
 2540 0aa8 3001     		.2byte	0x130
 2541 0aaa 1B       		.uleb128 0x1b
ARM GAS  C:\Users\LAB_ME~1\AppData\Local\Temp\ccLKfcip.s 			page 46


 2542 0aab 01       		.byte	0x1
 2543 0aac 50       		.byte	0x50
 2544 0aad 03       		.byte	0x3
 2545 0aae 74       		.byte	0x74
 2546 0aaf 04       		.sleb128 4
 2547 0ab0 06       		.byte	0x6
 2548 0ab1 1B       		.uleb128 0x1b
 2549 0ab2 02       		.byte	0x2
 2550 0ab3 7D       		.byte	0x7d
 2551 0ab4 00       		.sleb128 0
 2552 0ab5 05       		.byte	0x5
 2553 0ab6 03       		.byte	0x3
 2554 0ab7 04000000 		.4byte	.LC1
 2555 0abb 00       		.byte	0
 2556 0abc 20       		.uleb128 0x20
 2557 0abd 64000000 		.4byte	.LVL58
 2558 0ac1 1A100000 		.4byte	0x101a
 2559 0ac5 EB0A0000 		.4byte	0xaeb
 2560 0ac9 1B       		.uleb128 0x1b
 2561 0aca 01       		.byte	0x1
 2562 0acb 53       		.byte	0x53
 2563 0acc 05       		.byte	0x5
 2564 0acd 03       		.byte	0x3
 2565 0ace 00000000 		.4byte	thread1
 2566 0ad2 1B       		.uleb128 0x1b
 2567 0ad3 01       		.byte	0x1
 2568 0ad4 51       		.byte	0x51
 2569 0ad5 03       		.byte	0x3
 2570 0ad6 0A       		.byte	0xa
 2571 0ad7 3001     		.2byte	0x130
 2572 0ad9 1B       		.uleb128 0x1b
 2573 0ada 01       		.byte	0x1
 2574 0adb 50       		.byte	0x50
 2575 0adc 03       		.byte	0x3
 2576 0add 91       		.byte	0x91
 2577 0ade 5C       		.sleb128 -36
 2578 0adf 06       		.byte	0x6
 2579 0ae0 1B       		.uleb128 0x1b
 2580 0ae1 02       		.byte	0x2
 2581 0ae2 7D       		.byte	0x7d
 2582 0ae3 00       		.sleb128 0
 2583 0ae4 05       		.byte	0x5
 2584 0ae5 03       		.byte	0x3
 2585 0ae6 08000000 		.4byte	.LC2
 2586 0aea 00       		.byte	0
 2587 0aeb 20       		.uleb128 0x20
 2588 0aec 82000000 		.4byte	.LVL59
 2589 0af0 1A100000 		.4byte	0x101a
 2590 0af4 1A0B0000 		.4byte	0xb1a
 2591 0af8 1B       		.uleb128 0x1b
 2592 0af9 01       		.byte	0x1
 2593 0afa 53       		.byte	0x53
 2594 0afb 05       		.byte	0x5
 2595 0afc 03       		.byte	0x3
 2596 0afd 00000000 		.4byte	thread1
 2597 0b01 1B       		.uleb128 0x1b
 2598 0b02 01       		.byte	0x1
ARM GAS  C:\Users\LAB_ME~1\AppData\Local\Temp\ccLKfcip.s 			page 47


 2599 0b03 51       		.byte	0x51
 2600 0b04 03       		.byte	0x3
 2601 0b05 0A       		.byte	0xa
 2602 0b06 3001     		.2byte	0x130
 2603 0b08 1B       		.uleb128 0x1b
 2604 0b09 01       		.byte	0x1
 2605 0b0a 50       		.byte	0x50
 2606 0b0b 03       		.byte	0x3
 2607 0b0c 91       		.byte	0x91
 2608 0b0d 5C       		.sleb128 -36
 2609 0b0e 06       		.byte	0x6
 2610 0b0f 1B       		.uleb128 0x1b
 2611 0b10 02       		.byte	0x2
 2612 0b11 7D       		.byte	0x7d
 2613 0b12 00       		.sleb128 0
 2614 0b13 05       		.byte	0x5
 2615 0b14 03       		.byte	0x3
 2616 0b15 0C000000 		.4byte	.LC3
 2617 0b19 00       		.byte	0
 2618 0b1a 20       		.uleb128 0x20
 2619 0b1b 9E000000 		.4byte	.LVL60
 2620 0b1f 1A100000 		.4byte	0x101a
 2621 0b23 480B0000 		.4byte	0xb48
 2622 0b27 1B       		.uleb128 0x1b
 2623 0b28 01       		.byte	0x1
 2624 0b29 53       		.byte	0x53
 2625 0b2a 05       		.byte	0x5
 2626 0b2b 03       		.byte	0x3
 2627 0b2c 00000000 		.4byte	thread1
 2628 0b30 1B       		.uleb128 0x1b
 2629 0b31 01       		.byte	0x1
 2630 0b32 51       		.byte	0x51
 2631 0b33 03       		.byte	0x3
 2632 0b34 0A       		.byte	0xa
 2633 0b35 3001     		.2byte	0x130
 2634 0b37 1B       		.uleb128 0x1b
 2635 0b38 01       		.byte	0x1
 2636 0b39 50       		.byte	0x50
 2637 0b3a 02       		.byte	0x2
 2638 0b3b 74       		.byte	0x74
 2639 0b3c 00       		.sleb128 0
 2640 0b3d 1B       		.uleb128 0x1b
 2641 0b3e 02       		.byte	0x2
 2642 0b3f 7D       		.byte	0x7d
 2643 0b40 00       		.sleb128 0
 2644 0b41 05       		.byte	0x5
 2645 0b42 03       		.byte	0x3
 2646 0b43 10000000 		.4byte	.LC4
 2647 0b47 00       		.byte	0
 2648 0b48 20       		.uleb128 0x20
 2649 0b49 A8000000 		.4byte	.LVL61
 2650 0b4d 7D100000 		.4byte	0x107d
 2651 0b51 5C0B0000 		.4byte	0xb5c
 2652 0b55 1B       		.uleb128 0x1b
 2653 0b56 01       		.byte	0x1
 2654 0b57 50       		.byte	0x50
 2655 0b58 02       		.byte	0x2
ARM GAS  C:\Users\LAB_ME~1\AppData\Local\Temp\ccLKfcip.s 			page 48


 2656 0b59 74       		.byte	0x74
 2657 0b5a 00       		.sleb128 0
 2658 0b5b 00       		.byte	0
 2659 0b5c 20       		.uleb128 0x20
 2660 0b5d AE000000 		.4byte	.LVL62
 2661 0b61 7D100000 		.4byte	0x107d
 2662 0b65 700B0000 		.4byte	0xb70
 2663 0b69 1B       		.uleb128 0x1b
 2664 0b6a 01       		.byte	0x1
 2665 0b6b 50       		.byte	0x50
 2666 0b6c 02       		.byte	0x2
 2667 0b6d 74       		.byte	0x74
 2668 0b6e 00       		.sleb128 0
 2669 0b6f 00       		.byte	0
 2670 0b70 20       		.uleb128 0x20
 2671 0b71 B4000000 		.4byte	.LVL63
 2672 0b75 7D100000 		.4byte	0x107d
 2673 0b79 840B0000 		.4byte	0xb84
 2674 0b7d 1B       		.uleb128 0x1b
 2675 0b7e 01       		.byte	0x1
 2676 0b7f 50       		.byte	0x50
 2677 0b80 02       		.byte	0x2
 2678 0b81 74       		.byte	0x74
 2679 0b82 00       		.sleb128 0
 2680 0b83 00       		.byte	0
 2681 0b84 20       		.uleb128 0x20
 2682 0b85 BA000000 		.4byte	.LVL64
 2683 0b89 7D100000 		.4byte	0x107d
 2684 0b8d 980B0000 		.4byte	0xb98
 2685 0b91 1B       		.uleb128 0x1b
 2686 0b92 01       		.byte	0x1
 2687 0b93 50       		.byte	0x50
 2688 0b94 02       		.byte	0x2
 2689 0b95 74       		.byte	0x74
 2690 0b96 00       		.sleb128 0
 2691 0b97 00       		.byte	0
 2692 0b98 20       		.uleb128 0x20
 2693 0b99 C0000000 		.4byte	.LVL65
 2694 0b9d 7D100000 		.4byte	0x107d
 2695 0ba1 AC0B0000 		.4byte	0xbac
 2696 0ba5 1B       		.uleb128 0x1b
 2697 0ba6 01       		.byte	0x1
 2698 0ba7 50       		.byte	0x50
 2699 0ba8 02       		.byte	0x2
 2700 0ba9 74       		.byte	0x74
 2701 0baa 00       		.sleb128 0
 2702 0bab 00       		.byte	0
 2703 0bac 21       		.uleb128 0x21
 2704 0bad C4000000 		.4byte	.LVL66
 2705 0bb1 BA100000 		.4byte	0x10ba
 2706 0bb5 20       		.uleb128 0x20
 2707 0bb6 CC000000 		.4byte	.LVL67
 2708 0bba C4100000 		.4byte	0x10c4
 2709 0bbe D10B0000 		.4byte	0xbd1
 2710 0bc2 1B       		.uleb128 0x1b
 2711 0bc3 01       		.byte	0x1
 2712 0bc4 51       		.byte	0x51
ARM GAS  C:\Users\LAB_ME~1\AppData\Local\Temp\ccLKfcip.s 			page 49


 2713 0bc5 05       		.byte	0x5
 2714 0bc6 03       		.byte	0x3
 2715 0bc7 14000000 		.4byte	.LC5
 2716 0bcb 1B       		.uleb128 0x1b
 2717 0bcc 01       		.byte	0x1
 2718 0bcd 50       		.byte	0x50
 2719 0bce 01       		.byte	0x1
 2720 0bcf 31       		.byte	0x31
 2721 0bd0 00       		.byte	0
 2722 0bd1 20       		.uleb128 0x20
 2723 0bd2 EC000000 		.4byte	.LVL68
 2724 0bd6 1A100000 		.4byte	0x101a
 2725 0bda FC0B0000 		.4byte	0xbfc
 2726 0bde 1B       		.uleb128 0x1b
 2727 0bdf 01       		.byte	0x1
 2728 0be0 53       		.byte	0x53
 2729 0be1 05       		.byte	0x5
 2730 0be2 03       		.byte	0x3
 2731 0be3 00000000 		.4byte	thread1
 2732 0be7 1B       		.uleb128 0x1b
 2733 0be8 01       		.byte	0x1
 2734 0be9 51       		.byte	0x51
 2735 0bea 03       		.byte	0x3
 2736 0beb 0A       		.byte	0xa
 2737 0bec 3001     		.2byte	0x130
 2738 0bee 1B       		.uleb128 0x1b
 2739 0bef 01       		.byte	0x1
 2740 0bf0 50       		.byte	0x50
 2741 0bf1 02       		.byte	0x2
 2742 0bf2 76       		.byte	0x76
 2743 0bf3 00       		.sleb128 0
 2744 0bf4 1B       		.uleb128 0x1b
 2745 0bf5 02       		.byte	0x2
 2746 0bf6 7D       		.byte	0x7d
 2747 0bf7 00       		.sleb128 0
 2748 0bf8 02       		.byte	0x2
 2749 0bf9 77       		.byte	0x77
 2750 0bfa 00       		.sleb128 0
 2751 0bfb 00       		.byte	0
 2752 0bfc 20       		.uleb128 0x20
 2753 0bfd FC000000 		.4byte	.LVL71
 2754 0c01 E7100000 		.4byte	0x10e7
 2755 0c05 150C0000 		.4byte	0xc15
 2756 0c09 1B       		.uleb128 0x1b
 2757 0c0a 01       		.byte	0x1
 2758 0c0b 51       		.byte	0x51
 2759 0c0c 01       		.byte	0x1
 2760 0c0d 32       		.byte	0x32
 2761 0c0e 1B       		.uleb128 0x1b
 2762 0c0f 01       		.byte	0x1
 2763 0c10 50       		.byte	0x50
 2764 0c11 02       		.byte	0x2
 2765 0c12 74       		.byte	0x74
 2766 0c13 00       		.sleb128 0
 2767 0c14 00       		.byte	0
 2768 0c15 21       		.uleb128 0x21
 2769 0c16 06010000 		.4byte	.LVL74
ARM GAS  C:\Users\LAB_ME~1\AppData\Local\Temp\ccLKfcip.s 			page 50


 2770 0c1a BA100000 		.4byte	0x10ba
 2771 0c1e 1A       		.uleb128 0x1a
 2772 0c1f 20010000 		.4byte	.LVL75
 2773 0c23 01       		.byte	0x1
 2774 0c24 FD0F0000 		.4byte	0xffd
 2775 0c28 1B       		.uleb128 0x1b
 2776 0c29 01       		.byte	0x1
 2777 0c2a 50       		.byte	0x50
 2778 0c2b 01       		.byte	0x1
 2779 0c2c 32       		.byte	0x32
 2780 0c2d 00       		.byte	0
 2781 0c2e 00       		.byte	0
 2782 0c2f 27       		.uleb128 0x27
 2783 0c30 E9050000 		.4byte	0x5e9
 2784 0c34 00000000 		.4byte	.LFB15
 2785 0c38 A0000000 		.4byte	.LFE15
 2786 0c3c 30020000 		.4byte	.LLST20
 2787 0c40 01       		.byte	0x1
 2788 0c41 F70C0000 		.4byte	0xcf7
 2789 0c45 28       		.uleb128 0x28
 2790 0c46 E9050000 		.4byte	0x5e9
 2791 0c4a 54000000 		.4byte	.LBB15
 2792 0c4e 18000000 		.4byte	.Ldebug_ranges0+0x18
 2793 0c52 01       		.byte	0x1
 2794 0c53 DD       		.byte	0xdd
 2795 0c54 960C0000 		.4byte	0xc96
 2796 0c58 20       		.uleb128 0x20
 2797 0c59 5C000000 		.4byte	.LVL80
 2798 0c5d 00110000 		.4byte	0x1100
 2799 0c61 720C0000 		.4byte	0xc72
 2800 0c65 1B       		.uleb128 0x1b
 2801 0c66 01       		.byte	0x1
 2802 0c67 51       		.byte	0x51
 2803 0c68 02       		.byte	0x2
 2804 0c69 74       		.byte	0x74
 2805 0c6a 00       		.sleb128 0
 2806 0c6b 1B       		.uleb128 0x1b
 2807 0c6c 01       		.byte	0x1
 2808 0c6d 50       		.byte	0x50
 2809 0c6e 02       		.byte	0x2
 2810 0c6f 74       		.byte	0x74
 2811 0c70 00       		.sleb128 0
 2812 0c71 00       		.byte	0
 2813 0c72 20       		.uleb128 0x20
 2814 0c73 70000000 		.4byte	.LVL81
 2815 0c77 FD0F0000 		.4byte	0xffd
 2816 0c7b 850C0000 		.4byte	0xc85
 2817 0c7f 1B       		.uleb128 0x1b
 2818 0c80 01       		.byte	0x1
 2819 0c81 50       		.byte	0x50
 2820 0c82 01       		.byte	0x1
 2821 0c83 33       		.byte	0x33
 2822 0c84 00       		.byte	0
 2823 0c85 1A       		.uleb128 0x1a
 2824 0c86 8A000000 		.4byte	.LVL82
 2825 0c8a 01       		.byte	0x1
 2826 0c8b FD0F0000 		.4byte	0xffd
ARM GAS  C:\Users\LAB_ME~1\AppData\Local\Temp\ccLKfcip.s 			page 51


 2827 0c8f 1B       		.uleb128 0x1b
 2828 0c90 01       		.byte	0x1
 2829 0c91 50       		.byte	0x50
 2830 0c92 01       		.byte	0x1
 2831 0c93 34       		.byte	0x34
 2832 0c94 00       		.byte	0
 2833 0c95 00       		.byte	0
 2834 0c96 20       		.uleb128 0x20
 2835 0c97 20000000 		.4byte	.LVL76
 2836 0c9b 1A100000 		.4byte	0x101a
 2837 0c9f BA0C0000 		.4byte	0xcba
 2838 0ca3 1B       		.uleb128 0x1b
 2839 0ca4 01       		.byte	0x1
 2840 0ca5 53       		.byte	0x53
 2841 0ca6 05       		.byte	0x5
 2842 0ca7 03       		.byte	0x3
 2843 0ca8 00000000 		.4byte	thread3
 2844 0cac 1B       		.uleb128 0x1b
 2845 0cad 01       		.byte	0x1
 2846 0cae 51       		.byte	0x51
 2847 0caf 03       		.byte	0x3
 2848 0cb0 0A       		.byte	0xa
 2849 0cb1 3001     		.2byte	0x130
 2850 0cb3 1B       		.uleb128 0x1b
 2851 0cb4 02       		.byte	0x2
 2852 0cb5 7D       		.byte	0x7d
 2853 0cb6 00       		.sleb128 0
 2854 0cb7 01       		.byte	0x1
 2855 0cb8 30       		.byte	0x30
 2856 0cb9 00       		.byte	0
 2857 0cba 20       		.uleb128 0x20
 2858 0cbb 2C000000 		.4byte	.LVL77
 2859 0cbf 00110000 		.4byte	0x1100
 2860 0cc3 D40C0000 		.4byte	0xcd4
 2861 0cc7 1B       		.uleb128 0x1b
 2862 0cc8 01       		.byte	0x1
 2863 0cc9 51       		.byte	0x51
 2864 0cca 02       		.byte	0x2
 2865 0ccb 74       		.byte	0x74
 2866 0ccc 00       		.sleb128 0
 2867 0ccd 1B       		.uleb128 0x1b
 2868 0cce 01       		.byte	0x1
 2869 0ccf 50       		.byte	0x50
 2870 0cd0 02       		.byte	0x2
 2871 0cd1 74       		.byte	0x74
 2872 0cd2 00       		.sleb128 0
 2873 0cd3 00       		.byte	0
 2874 0cd4 20       		.uleb128 0x20
 2875 0cd5 3A000000 		.4byte	.LVL78
 2876 0cd9 FD0F0000 		.4byte	0xffd
 2877 0cdd E70C0000 		.4byte	0xce7
 2878 0ce1 1B       		.uleb128 0x1b
 2879 0ce2 01       		.byte	0x1
 2880 0ce3 50       		.byte	0x50
 2881 0ce4 01       		.byte	0x1
 2882 0ce5 31       		.byte	0x31
 2883 0ce6 00       		.byte	0
ARM GAS  C:\Users\LAB_ME~1\AppData\Local\Temp\ccLKfcip.s 			page 52


 2884 0ce7 22       		.uleb128 0x22
 2885 0ce8 50000000 		.4byte	.LVL79
 2886 0cec FD0F0000 		.4byte	0xffd
 2887 0cf0 1B       		.uleb128 0x1b
 2888 0cf1 01       		.byte	0x1
 2889 0cf2 50       		.byte	0x50
 2890 0cf3 01       		.byte	0x1
 2891 0cf4 32       		.byte	0x32
 2892 0cf5 00       		.byte	0
 2893 0cf6 00       		.byte	0
 2894 0cf7 27       		.uleb128 0x27
 2895 0cf8 F2050000 		.4byte	0x5f2
 2896 0cfc 00000000 		.4byte	.LFB12
 2897 0d00 50010000 		.4byte	.LFE12
 2898 0d04 5C020000 		.4byte	.LLST21
 2899 0d08 01       		.byte	0x1
 2900 0d09 E50E0000 		.4byte	0xee5
 2901 0d0d 29       		.uleb128 0x29
 2902 0d0e FF050000 		.4byte	0x5ff
 2903 0d12 29       		.uleb128 0x29
 2904 0d13 08060000 		.4byte	0x608
 2905 0d17 2A       		.uleb128 0x2a
 2906 0d18 13060000 		.4byte	0x613
 2907 0d1c 88020000 		.4byte	.LLST22
 2908 0d20 28       		.uleb128 0x28
 2909 0d21 F2050000 		.4byte	0x5f2
 2910 0d25 4E000000 		.4byte	.LBB21
 2911 0d29 30000000 		.4byte	.Ldebug_ranges0+0x30
 2912 0d2d 01       		.byte	0x1
 2913 0d2e 94       		.byte	0x94
 2914 0d2f 960E0000 		.4byte	0xe96
 2915 0d33 2B       		.uleb128 0x2b
 2916 0d34 48000000 		.4byte	.Ldebug_ranges0+0x48
 2917 0d38 2A       		.uleb128 0x2a
 2918 0d39 FF050000 		.4byte	0x5ff
 2919 0d3d A8020000 		.4byte	.LLST23
 2920 0d41 2C       		.uleb128 0x2c
 2921 0d42 08060000 		.4byte	0x608
 2922 0d46 04       		.byte	0x4
 2923 0d47 76       		.byte	0x76
 2924 0d48 C413     		.sleb128 2500
 2925 0d4a 9F       		.byte	0x9f
 2926 0d4b 2A       		.uleb128 0x2a
 2927 0d4c 13060000 		.4byte	0x613
 2928 0d50 BC020000 		.4byte	.LLST24
 2929 0d54 20       		.uleb128 0x20
 2930 0d55 66000000 		.4byte	.LVL88
 2931 0d59 1A100000 		.4byte	0x101a
 2932 0d5d 720D0000 		.4byte	0xd72
 2933 0d61 1B       		.uleb128 0x1b
 2934 0d62 01       		.byte	0x1
 2935 0d63 53       		.byte	0x53
 2936 0d64 05       		.byte	0x5
 2937 0d65 03       		.byte	0x3
 2938 0d66 00000000 		.4byte	thread2
 2939 0d6a 1B       		.uleb128 0x1b
 2940 0d6b 01       		.byte	0x1
ARM GAS  C:\Users\LAB_ME~1\AppData\Local\Temp\ccLKfcip.s 			page 53


 2941 0d6c 51       		.byte	0x51
 2942 0d6d 03       		.byte	0x3
 2943 0d6e 0A       		.byte	0xa
 2944 0d6f 3001     		.2byte	0x130
 2945 0d71 00       		.byte	0
 2946 0d72 20       		.uleb128 0x20
 2947 0d73 74000000 		.4byte	.LVL89
 2948 0d77 1D110000 		.4byte	0x111d
 2949 0d7b 8D0D0000 		.4byte	0xd8d
 2950 0d7f 1B       		.uleb128 0x1b
 2951 0d80 01       		.byte	0x1
 2952 0d81 51       		.byte	0x51
 2953 0d82 03       		.byte	0x3
 2954 0d83 0A       		.byte	0xa
 2955 0d84 F401     		.2byte	0x1f4
 2956 0d86 1B       		.uleb128 0x1b
 2957 0d87 01       		.byte	0x1
 2958 0d88 50       		.byte	0x50
 2959 0d89 02       		.byte	0x2
 2960 0d8a 74       		.byte	0x74
 2961 0d8b 00       		.sleb128 0
 2962 0d8c 00       		.byte	0
 2963 0d8d 21       		.uleb128 0x21
 2964 0d8e 7A000000 		.4byte	.LVL91
 2965 0d92 BA100000 		.4byte	0x10ba
 2966 0d96 20       		.uleb128 0x20
 2967 0d97 88000000 		.4byte	.LVL92
 2968 0d9b FD0F0000 		.4byte	0xffd
 2969 0d9f C30D0000 		.4byte	0xdc3
 2970 0da3 1B       		.uleb128 0x1b
 2971 0da4 01       		.byte	0x1
 2972 0da5 51       		.byte	0x51
 2973 0da6 16       		.byte	0x16
 2974 0da7 30       		.byte	0x30
 2975 0da8 31       		.byte	0x31
 2976 0da9 75       		.byte	0x75
 2977 0daa 00       		.sleb128 0
 2978 0dab 1C       		.byte	0x1c
 2979 0dac 31       		.byte	0x31
 2980 0dad 40       		.byte	0x40
 2981 0dae 4B       		.byte	0x4b
 2982 0daf 24       		.byte	0x24
 2983 0db0 22       		.byte	0x22
 2984 0db1 75       		.byte	0x75
 2985 0db2 00       		.sleb128 0
 2986 0db3 40       		.byte	0x40
 2987 0db4 4B       		.byte	0x4b
 2988 0db5 24       		.byte	0x24
 2989 0db6 22       		.byte	0x22
 2990 0db7 2D       		.byte	0x2d
 2991 0db8 28       		.byte	0x28
 2992 0db9 0100     		.2byte	0x1
 2993 0dbb 16       		.byte	0x16
 2994 0dbc 13       		.byte	0x13
 2995 0dbd 1B       		.uleb128 0x1b
 2996 0dbe 01       		.byte	0x1
 2997 0dbf 50       		.byte	0x50
ARM GAS  C:\Users\LAB_ME~1\AppData\Local\Temp\ccLKfcip.s 			page 54


 2998 0dc0 01       		.byte	0x1
 2999 0dc1 34       		.byte	0x34
 3000 0dc2 00       		.byte	0
 3001 0dc3 20       		.uleb128 0x20
 3002 0dc4 A0000000 		.4byte	.LVL93
 3003 0dc8 FD0F0000 		.4byte	0xffd
 3004 0dcc D60D0000 		.4byte	0xdd6
 3005 0dd0 1B       		.uleb128 0x1b
 3006 0dd1 01       		.byte	0x1
 3007 0dd2 50       		.byte	0x50
 3008 0dd3 01       		.byte	0x1
 3009 0dd4 35       		.byte	0x35
 3010 0dd5 00       		.byte	0
 3011 0dd6 20       		.uleb128 0x20
 3012 0dd7 B4000000 		.4byte	.LVL94
 3013 0ddb FD0F0000 		.4byte	0xffd
 3014 0ddf E90D0000 		.4byte	0xde9
 3015 0de3 1B       		.uleb128 0x1b
 3016 0de4 01       		.byte	0x1
 3017 0de5 50       		.byte	0x50
 3018 0de6 01       		.byte	0x1
 3019 0de7 36       		.byte	0x36
 3020 0de8 00       		.byte	0
 3021 0de9 21       		.uleb128 0x21
 3022 0dea BC000000 		.4byte	.LVL95
 3023 0dee 3A110000 		.4byte	0x113a
 3024 0df2 20       		.uleb128 0x20
 3025 0df3 C8000000 		.4byte	.LVL98
 3026 0df7 91100000 		.4byte	0x1091
 3027 0dfb 060E0000 		.4byte	0xe06
 3028 0dff 1B       		.uleb128 0x1b
 3029 0e00 01       		.byte	0x1
 3030 0e01 50       		.byte	0x50
 3031 0e02 02       		.byte	0x2
 3032 0e03 75       		.byte	0x75
 3033 0e04 00       		.sleb128 0
 3034 0e05 00       		.byte	0
 3035 0e06 20       		.uleb128 0x20
 3036 0e07 D2000000 		.4byte	.LVL99
 3037 0e0b 1D110000 		.4byte	0x111d
 3038 0e0f 210E0000 		.4byte	0xe21
 3039 0e13 1B       		.uleb128 0x1b
 3040 0e14 01       		.byte	0x1
 3041 0e15 51       		.byte	0x51
 3042 0e16 03       		.byte	0x3
 3043 0e17 0A       		.byte	0xa
 3044 0e18 F401     		.2byte	0x1f4
 3045 0e1a 1B       		.uleb128 0x1b
 3046 0e1b 01       		.byte	0x1
 3047 0e1c 50       		.byte	0x50
 3048 0e1d 02       		.byte	0x2
 3049 0e1e 74       		.byte	0x74
 3050 0e1f 00       		.sleb128 0
 3051 0e20 00       		.byte	0
 3052 0e21 20       		.uleb128 0x20
 3053 0e22 E0000000 		.4byte	.LVL102
 3054 0e26 FD0F0000 		.4byte	0xffd
ARM GAS  C:\Users\LAB_ME~1\AppData\Local\Temp\ccLKfcip.s 			page 55


 3055 0e2a 340E0000 		.4byte	0xe34
 3056 0e2e 1B       		.uleb128 0x1b
 3057 0e2f 01       		.byte	0x1
 3058 0e30 50       		.byte	0x50
 3059 0e31 01       		.byte	0x1
 3060 0e32 37       		.byte	0x37
 3061 0e33 00       		.byte	0
 3062 0e34 20       		.uleb128 0x20
 3063 0e35 F2000000 		.4byte	.LVL103
 3064 0e39 FD0F0000 		.4byte	0xffd
 3065 0e3d 470E0000 		.4byte	0xe47
 3066 0e41 1B       		.uleb128 0x1b
 3067 0e42 01       		.byte	0x1
 3068 0e43 50       		.byte	0x50
 3069 0e44 01       		.byte	0x1
 3070 0e45 38       		.byte	0x38
 3071 0e46 00       		.byte	0
 3072 0e47 20       		.uleb128 0x20
 3073 0e48 06010000 		.4byte	.LVL104
 3074 0e4c FD0F0000 		.4byte	0xffd
 3075 0e50 5A0E0000 		.4byte	0xe5a
 3076 0e54 1B       		.uleb128 0x1b
 3077 0e55 01       		.byte	0x1
 3078 0e56 50       		.byte	0x50
 3079 0e57 01       		.byte	0x1
 3080 0e58 39       		.byte	0x39
 3081 0e59 00       		.byte	0
 3082 0e5a 20       		.uleb128 0x20
 3083 0e5b 1A010000 		.4byte	.LVL105
 3084 0e5f C4100000 		.4byte	0x10c4
 3085 0e63 760E0000 		.4byte	0xe76
 3086 0e67 1B       		.uleb128 0x1b
 3087 0e68 01       		.byte	0x1
 3088 0e69 51       		.byte	0x51
 3089 0e6a 05       		.byte	0x5
 3090 0e6b 03       		.byte	0x3
 3091 0e6c 14000000 		.4byte	.LC5
 3092 0e70 1B       		.uleb128 0x1b
 3093 0e71 01       		.byte	0x1
 3094 0e72 50       		.byte	0x50
 3095 0e73 01       		.byte	0x1
 3096 0e74 3A       		.byte	0x3a
 3097 0e75 00       		.byte	0
 3098 0e76 1A       		.uleb128 0x1a
 3099 0e77 34010000 		.4byte	.LVL106
 3100 0e7b 01       		.byte	0x1
 3101 0e7c 48110000 		.4byte	0x1148
 3102 0e80 1B       		.uleb128 0x1b
 3103 0e81 01       		.byte	0x1
 3104 0e82 52       		.byte	0x52
 3105 0e83 03       		.byte	0x3
 3106 0e84 76       		.byte	0x76
 3107 0e85 C913     		.sleb128 2505
 3108 0e87 1B       		.uleb128 0x1b
 3109 0e88 01       		.byte	0x1
 3110 0e89 51       		.byte	0x51
 3111 0e8a 03       		.byte	0x3
ARM GAS  C:\Users\LAB_ME~1\AppData\Local\Temp\ccLKfcip.s 			page 56


 3112 0e8b 76       		.byte	0x76
 3113 0e8c C413     		.sleb128 2500
 3114 0e8e 1B       		.uleb128 0x1b
 3115 0e8f 01       		.byte	0x1
 3116 0e90 50       		.byte	0x50
 3117 0e91 01       		.byte	0x1
 3118 0e92 3B       		.byte	0x3b
 3119 0e93 00       		.byte	0
 3120 0e94 00       		.byte	0
 3121 0e95 00       		.byte	0
 3122 0e96 20       		.uleb128 0x20
 3123 0e97 0E000000 		.4byte	.LVL83
 3124 0e9b 1D110000 		.4byte	0x111d
 3125 0e9f AF0E0000 		.4byte	0xeaf
 3126 0ea3 1B       		.uleb128 0x1b
 3127 0ea4 01       		.byte	0x1
 3128 0ea5 51       		.byte	0x51
 3129 0ea6 01       		.byte	0x1
 3130 0ea7 30       		.byte	0x30
 3131 0ea8 1B       		.uleb128 0x1b
 3132 0ea9 01       		.byte	0x1
 3133 0eaa 50       		.byte	0x50
 3134 0eab 02       		.byte	0x2
 3135 0eac 74       		.byte	0x74
 3136 0ead 00       		.sleb128 0
 3137 0eae 00       		.byte	0
 3138 0eaf 20       		.uleb128 0x20
 3139 0eb0 1C000000 		.4byte	.LVL85
 3140 0eb4 FD0F0000 		.4byte	0xffd
 3141 0eb8 C20E0000 		.4byte	0xec2
 3142 0ebc 1B       		.uleb128 0x1b
 3143 0ebd 01       		.byte	0x1
 3144 0ebe 50       		.byte	0x50
 3145 0ebf 01       		.byte	0x1
 3146 0ec0 31       		.byte	0x31
 3147 0ec1 00       		.byte	0
 3148 0ec2 20       		.uleb128 0x20
 3149 0ec3 36000000 		.4byte	.LVL86
 3150 0ec7 FD0F0000 		.4byte	0xffd
 3151 0ecb D50E0000 		.4byte	0xed5
 3152 0ecf 1B       		.uleb128 0x1b
 3153 0ed0 01       		.byte	0x1
 3154 0ed1 50       		.byte	0x50
 3155 0ed2 01       		.byte	0x1
 3156 0ed3 32       		.byte	0x32
 3157 0ed4 00       		.byte	0
 3158 0ed5 22       		.uleb128 0x22
 3159 0ed6 4A000000 		.4byte	.LVL87
 3160 0eda FD0F0000 		.4byte	0xffd
 3161 0ede 1B       		.uleb128 0x1b
 3162 0edf 01       		.byte	0x1
 3163 0ee0 50       		.byte	0x50
 3164 0ee1 01       		.byte	0x1
 3165 0ee2 33       		.byte	0x33
 3166 0ee3 00       		.byte	0
 3167 0ee4 00       		.byte	0
 3168 0ee5 2D       		.uleb128 0x2d
ARM GAS  C:\Users\LAB_ME~1\AppData\Local\Temp\ccLKfcip.s 			page 57


 3169 0ee6 60010000 		.4byte	.LASF96
 3170 0eea 01       		.byte	0x1
 3171 0eeb 3F       		.byte	0x3f
 3172 0eec B9040000 		.4byte	0x4b9
 3173 0ef0 05       		.byte	0x5
 3174 0ef1 03       		.byte	0x3
 3175 0ef2 00000000 		.4byte	sem1
 3176 0ef6 2E       		.uleb128 0x2e
 3177 0ef7 34000000 		.4byte	.LASF97
 3178 0efb 08       		.byte	0x8
 3179 0efc D1       		.byte	0xd1
 3180 0efd 1D040000 		.4byte	0x41d
 3181 0f01 01       		.byte	0x1
 3182 0f02 01       		.byte	0x1
 3183 0f03 2E       		.uleb128 0x2e
 3184 0f04 8B040000 		.4byte	.LASF98
 3185 0f08 09       		.byte	0x9
 3186 0f09 68       		.byte	0x68
 3187 0f0a 85040000 		.4byte	0x485
 3188 0f0e 01       		.byte	0x1
 3189 0f0f 01       		.byte	0x1
 3190 0f10 2F       		.uleb128 0x2f
 3191 0f11 5E020000 		.4byte	0x25e
 3192 0f15 200F0000 		.4byte	0xf20
 3193 0f19 30       		.uleb128 0x30
 3194 0f1a 4F030000 		.4byte	0x34f
 3195 0f1e 04       		.byte	0x4
 3196 0f1f 00       		.byte	0
 3197 0f20 2E       		.uleb128 0x2e
 3198 0f21 8B030000 		.4byte	.LASF99
 3199 0f25 0D       		.byte	0xd
 3200 0f26 A9       		.byte	0xa9
 3201 0f27 100F0000 		.4byte	0xf10
 3202 0f2b 01       		.byte	0x1
 3203 0f2c 01       		.byte	0x1
 3204 0f2d 2F       		.uleb128 0x2f
 3205 0f2e 9C020000 		.4byte	0x29c
 3206 0f32 380F0000 		.4byte	0xf38
 3207 0f36 31       		.uleb128 0x31
 3208 0f37 00       		.byte	0
 3209 0f38 32       		.uleb128 0x32
 3210 0f39 776100   		.ascii	"wa\000"
 3211 0f3c 0D       		.byte	0xd
 3212 0f3d AB       		.byte	0xab
 3213 0f3e 440F0000 		.4byte	0xf44
 3214 0f42 01       		.byte	0x1
 3215 0f43 01       		.byte	0x1
 3216 0f44 12       		.uleb128 0x12
 3217 0f45 2D0F0000 		.4byte	0xf2d
 3218 0f49 33       		.uleb128 0x33
 3219 0f4a 9E010000 		.4byte	.LASF100
 3220 0f4e 01       		.byte	0x1
 3221 0f4f 72       		.byte	0x72
 3222 0f50 5B0F0000 		.4byte	0xf5b
 3223 0f54 01       		.byte	0x1
 3224 0f55 05       		.byte	0x5
 3225 0f56 03       		.byte	0x3
ARM GAS  C:\Users\LAB_ME~1\AppData\Local\Temp\ccLKfcip.s 			page 58


 3226 0f57 00000000 		.4byte	testsem1
 3227 0f5b 12       		.uleb128 0x12
 3228 0f5c 9C050000 		.4byte	0x59c
 3229 0f60 33       		.uleb128 0x33
 3230 0f61 A7010000 		.4byte	.LASF101
 3231 0f65 01       		.byte	0x1
 3232 0f66 BC       		.byte	0xbc
 3233 0f67 5B0F0000 		.4byte	0xf5b
 3234 0f6b 01       		.byte	0x1
 3235 0f6c 05       		.byte	0x5
 3236 0f6d 03       		.byte	0x3
 3237 0f6e 00000000 		.4byte	testsem2
 3238 0f72 33       		.uleb128 0x33
 3239 0f73 B0010000 		.4byte	.LASF102
 3240 0f77 01       		.byte	0x1
 3241 0f78 E9       		.byte	0xe9
 3242 0f79 5B0F0000 		.4byte	0xf5b
 3243 0f7d 01       		.byte	0x1
 3244 0f7e 05       		.byte	0x5
 3245 0f7f 03       		.byte	0x3
 3246 0f80 00000000 		.4byte	testsem3
 3247 0f84 34       		.uleb128 0x34
 3248 0f85 B9010000 		.4byte	.LASF103
 3249 0f89 01       		.byte	0x1
 3250 0f8a 1D01     		.2byte	0x11d
 3251 0f8c 5B0F0000 		.4byte	0xf5b
 3252 0f90 01       		.byte	0x1
 3253 0f91 05       		.byte	0x5
 3254 0f92 03       		.byte	0x3
 3255 0f93 00000000 		.4byte	testsem4
 3256 0f97 2F       		.uleb128 0x2f
 3257 0f98 A70F0000 		.4byte	0xfa7
 3258 0f9c A70F0000 		.4byte	0xfa7
 3259 0fa0 30       		.uleb128 0x30
 3260 0fa1 4F030000 		.4byte	0x34f
 3261 0fa5 04       		.byte	0x4
 3262 0fa6 00       		.byte	0
 3263 0fa7 09       		.uleb128 0x9
 3264 0fa8 04       		.byte	0x4
 3265 0fa9 5B0F0000 		.4byte	0xf5b
 3266 0fad 34       		.uleb128 0x34
 3267 0fae 0B030000 		.4byte	.LASF104
 3268 0fb2 01       		.byte	0x1
 3269 0fb3 2801     		.2byte	0x128
 3270 0fb5 C00F0000 		.4byte	0xfc0
 3271 0fb9 01       		.byte	0x1
 3272 0fba 05       		.byte	0x5
 3273 0fbb 03       		.byte	0x3
 3274 0fbc 00000000 		.4byte	patternsem
 3275 0fc0 12       		.uleb128 0x12
 3276 0fc1 970F0000 		.4byte	0xf97
 3277 0fc5 35       		.uleb128 0x35
 3278 0fc6 01       		.byte	0x1
 3279 0fc7 01050000 		.4byte	.LASF105
 3280 0fcb 0A       		.byte	0xa
 3281 0fcc 2E       		.byte	0x2e
 3282 0fcd 01       		.byte	0x1
ARM GAS  C:\Users\LAB_ME~1\AppData\Local\Temp\ccLKfcip.s 			page 59


 3283 0fce 01       		.byte	0x1
 3284 0fcf DE0F0000 		.4byte	0xfde
 3285 0fd3 0E       		.uleb128 0xe
 3286 0fd4 DE0F0000 		.4byte	0xfde
 3287 0fd8 0E       		.uleb128 0xe
 3288 0fd9 FE000000 		.4byte	0xfe
 3289 0fdd 00       		.byte	0
 3290 0fde 09       		.uleb128 0x9
 3291 0fdf 04       		.byte	0x4
 3292 0fe0 B9040000 		.4byte	0x4b9
 3293 0fe4 35       		.uleb128 0x35
 3294 0fe5 01       		.byte	0x1
 3295 0fe6 03020000 		.4byte	.LASF106
 3296 0fea 0A       		.byte	0xa
 3297 0feb 2F       		.byte	0x2f
 3298 0fec 01       		.byte	0x1
 3299 0fed 01       		.byte	0x1
 3300 0fee FD0F0000 		.4byte	0xffd
 3301 0ff2 0E       		.uleb128 0xe
 3302 0ff3 DE0F0000 		.4byte	0xfde
 3303 0ff7 0E       		.uleb128 0xe
 3304 0ff8 FE000000 		.4byte	0xfe
 3305 0ffc 00       		.byte	0
 3306 0ffd 36       		.uleb128 0x36
 3307 0ffe 01       		.byte	0x1
 3308 0fff A7040000 		.4byte	.LASF107
 3309 1003 0D       		.byte	0xd
 3310 1004 5C       		.byte	0x5c
 3311 1005 01       		.byte	0x1
 3312 1006 9B000000 		.4byte	0x9b
 3313 100a 01       		.byte	0x1
 3314 100b 1A100000 		.4byte	0x101a
 3315 100f 0E       		.uleb128 0xe
 3316 1010 3B000000 		.4byte	0x3b
 3317 1014 0E       		.uleb128 0xe
 3318 1015 9B000000 		.4byte	0x9b
 3319 1019 00       		.byte	0
 3320 101a 37       		.uleb128 0x37
 3321 101b 01       		.byte	0x1
 3322 101c 49020000 		.4byte	.LASF108
 3323 1020 06       		.byte	0x6
 3324 1021 6901     		.2byte	0x169
 3325 1023 01       		.byte	0x1
 3326 1024 5E020000 		.4byte	0x25e
 3327 1028 01       		.byte	0x1
 3328 1029 47100000 		.4byte	0x1047
 3329 102d 0E       		.uleb128 0xe
 3330 102e 9C020000 		.4byte	0x29c
 3331 1032 0E       		.uleb128 0xe
 3332 1033 30000000 		.4byte	0x30
 3333 1037 0E       		.uleb128 0xe
 3334 1038 D2000000 		.4byte	0xd2
 3335 103c 0E       		.uleb128 0xe
 3336 103d 7B050000 		.4byte	0x57b
 3337 1041 0E       		.uleb128 0xe
 3338 1042 9C020000 		.4byte	0x29c
 3339 1046 00       		.byte	0
ARM GAS  C:\Users\LAB_ME~1\AppData\Local\Temp\ccLKfcip.s 			page 60


 3340 1047 36       		.uleb128 0x36
 3341 1048 01       		.byte	0x1
 3342 1049 30040000 		.4byte	.LASF109
 3343 104d 0A       		.byte	0xa
 3344 104e 31       		.byte	0x31
 3345 104f 01       		.byte	0x1
 3346 1050 DD000000 		.4byte	0xdd
 3347 1054 01       		.byte	0x1
 3348 1055 5F100000 		.4byte	0x105f
 3349 1059 0E       		.uleb128 0xe
 3350 105a DE0F0000 		.4byte	0xfde
 3351 105e 00       		.byte	0
 3352 105f 38       		.uleb128 0x38
 3353 1060 01       		.byte	0x1
 3354 1061 36010000 		.4byte	.LASF114
 3355 1065 09       		.byte	0x9
 3356 1066 95       		.byte	0x95
 3357 1067 01       		.byte	0x1
 3358 1068 01       		.byte	0x1
 3359 1069 35       		.uleb128 0x35
 3360 106a 01       		.byte	0x1
 3361 106b 0E000000 		.4byte	.LASF110
 3362 106f 0A       		.byte	0xa
 3363 1070 36       		.byte	0x36
 3364 1071 01       		.byte	0x1
 3365 1072 01       		.byte	0x1
 3366 1073 7D100000 		.4byte	0x107d
 3367 1077 0E       		.uleb128 0xe
 3368 1078 DE0F0000 		.4byte	0xfde
 3369 107c 00       		.byte	0
 3370 107d 35       		.uleb128 0x35
 3371 107e 01       		.byte	0x1
 3372 107f 1A010000 		.4byte	.LASF111
 3373 1083 0A       		.byte	0xa
 3374 1084 35       		.byte	0x35
 3375 1085 01       		.byte	0x1
 3376 1086 01       		.byte	0x1
 3377 1087 91100000 		.4byte	0x1091
 3378 108b 0E       		.uleb128 0xe
 3379 108c DE0F0000 		.4byte	0xfde
 3380 1090 00       		.byte	0
 3381 1091 35       		.uleb128 0x35
 3382 1092 01       		.byte	0x1
 3383 1093 BC000000 		.4byte	.LASF112
 3384 1097 0D       		.byte	0xd
 3385 1098 5A       		.byte	0x5a
 3386 1099 01       		.byte	0x1
 3387 109a 01       		.byte	0x1
 3388 109b A5100000 		.4byte	0x10a5
 3389 109f 0E       		.uleb128 0xe
 3390 10a0 6E050000 		.4byte	0x56e
 3391 10a4 00       		.byte	0
 3392 10a5 39       		.uleb128 0x39
 3393 10a6 01       		.byte	0x1
 3394 10a7 6F040000 		.4byte	.LASF113
 3395 10ab 06       		.byte	0x6
 3396 10ac 6E01     		.2byte	0x16e
ARM GAS  C:\Users\LAB_ME~1\AppData\Local\Temp\ccLKfcip.s 			page 61


 3397 10ae 01       		.byte	0x1
 3398 10af 01       		.byte	0x1
 3399 10b0 BA100000 		.4byte	0x10ba
 3400 10b4 0E       		.uleb128 0xe
 3401 10b5 F3000000 		.4byte	0xf3
 3402 10b9 00       		.byte	0
 3403 10ba 38       		.uleb128 0x38
 3404 10bb 01       		.byte	0x1
 3405 10bc 8C020000 		.4byte	.LASF115
 3406 10c0 0D       		.byte	0xd
 3407 10c1 60       		.byte	0x60
 3408 10c2 01       		.byte	0x1
 3409 10c3 01       		.byte	0x1
 3410 10c4 36       		.uleb128 0x36
 3411 10c5 01       		.byte	0x1
 3412 10c6 D7020000 		.4byte	.LASF116
 3413 10ca 0D       		.byte	0xd
 3414 10cb 5D       		.byte	0x5d
 3415 10cc 01       		.byte	0x1
 3416 10cd 9B000000 		.4byte	0x9b
 3417 10d1 01       		.byte	0x1
 3418 10d2 E1100000 		.4byte	0x10e1
 3419 10d6 0E       		.uleb128 0xe
 3420 10d7 3B000000 		.4byte	0x3b
 3421 10db 0E       		.uleb128 0xe
 3422 10dc E1100000 		.4byte	0x10e1
 3423 10e0 00       		.byte	0
 3424 10e1 09       		.uleb128 0x9
 3425 10e2 04       		.byte	0x4
 3426 10e3 6E050000 		.4byte	0x56e
 3427 10e7 35       		.uleb128 0x35
 3428 10e8 01       		.byte	0x1
 3429 10e9 5B000000 		.4byte	.LASF117
 3430 10ed 0A       		.byte	0xa
 3431 10ee 37       		.byte	0x37
 3432 10ef 01       		.byte	0x1
 3433 10f0 01       		.byte	0x1
 3434 10f1 00110000 		.4byte	0x1100
 3435 10f5 0E       		.uleb128 0xe
 3436 10f6 DE0F0000 		.4byte	0xfde
 3437 10fa 0E       		.uleb128 0xe
 3438 10fb FE000000 		.4byte	0xfe
 3439 10ff 00       		.byte	0
 3440 1100 36       		.uleb128 0x36
 3441 1101 01       		.byte	0x1
 3442 1102 8D000000 		.4byte	.LASF118
 3443 1106 0A       		.byte	0xa
 3444 1107 39       		.byte	0x39
 3445 1108 01       		.byte	0x1
 3446 1109 DD000000 		.4byte	0xdd
 3447 110d 01       		.byte	0x1
 3448 110e 1D110000 		.4byte	0x111d
 3449 1112 0E       		.uleb128 0xe
 3450 1113 DE0F0000 		.4byte	0xfde
 3451 1117 0E       		.uleb128 0xe
 3452 1118 DE0F0000 		.4byte	0xfde
 3453 111c 00       		.byte	0
ARM GAS  C:\Users\LAB_ME~1\AppData\Local\Temp\ccLKfcip.s 			page 62


 3454 111d 36       		.uleb128 0x36
 3455 111e 01       		.byte	0x1
 3456 111f 78010000 		.4byte	.LASF119
 3457 1123 0A       		.byte	0xa
 3458 1124 33       		.byte	0x33
 3459 1125 01       		.byte	0x1
 3460 1126 DD000000 		.4byte	0xdd
 3461 112a 01       		.byte	0x1
 3462 112b 3A110000 		.4byte	0x113a
 3463 112f 0E       		.uleb128 0xe
 3464 1130 DE0F0000 		.4byte	0xfde
 3465 1134 0E       		.uleb128 0xe
 3466 1135 F3000000 		.4byte	0xf3
 3467 1139 00       		.byte	0
 3468 113a 3A       		.uleb128 0x3a
 3469 113b 01       		.byte	0x1
 3470 113c 4B030000 		.4byte	.LASF126
 3471 1140 0D       		.byte	0xd
 3472 1141 61       		.byte	0x61
 3473 1142 01       		.byte	0x1
 3474 1143 F3000000 		.4byte	0xf3
 3475 1147 01       		.byte	0x1
 3476 1148 3B       		.uleb128 0x3b
 3477 1149 01       		.byte	0x1
 3478 114a 01010000 		.4byte	.LASF120
 3479 114e 0D       		.byte	0xd
 3480 114f 5E       		.byte	0x5e
 3481 1150 01       		.byte	0x1
 3482 1151 9B000000 		.4byte	0x9b
 3483 1155 01       		.byte	0x1
 3484 1156 0E       		.uleb128 0xe
 3485 1157 3B000000 		.4byte	0x3b
 3486 115b 0E       		.uleb128 0xe
 3487 115c F3000000 		.4byte	0xf3
 3488 1160 0E       		.uleb128 0xe
 3489 1161 F3000000 		.4byte	0xf3
 3490 1165 00       		.byte	0
 3491 1166 00       		.byte	0
 3492              		.section	.debug_abbrev,"",%progbits
 3493              	.Ldebug_abbrev0:
 3494 0000 01       		.uleb128 0x1
 3495 0001 11       		.uleb128 0x11
 3496 0002 01       		.byte	0x1
 3497 0003 25       		.uleb128 0x25
 3498 0004 0E       		.uleb128 0xe
 3499 0005 13       		.uleb128 0x13
 3500 0006 0B       		.uleb128 0xb
 3501 0007 03       		.uleb128 0x3
 3502 0008 0E       		.uleb128 0xe
 3503 0009 1B       		.uleb128 0x1b
 3504 000a 0E       		.uleb128 0xe
 3505 000b 55       		.uleb128 0x55
 3506 000c 06       		.uleb128 0x6
 3507 000d 11       		.uleb128 0x11
 3508 000e 01       		.uleb128 0x1
 3509 000f 52       		.uleb128 0x52
 3510 0010 01       		.uleb128 0x1
ARM GAS  C:\Users\LAB_ME~1\AppData\Local\Temp\ccLKfcip.s 			page 63


 3511 0011 10       		.uleb128 0x10
 3512 0012 06       		.uleb128 0x6
 3513 0013 00       		.byte	0
 3514 0014 00       		.byte	0
 3515 0015 02       		.uleb128 0x2
 3516 0016 24       		.uleb128 0x24
 3517 0017 00       		.byte	0
 3518 0018 0B       		.uleb128 0xb
 3519 0019 0B       		.uleb128 0xb
 3520 001a 3E       		.uleb128 0x3e
 3521 001b 0B       		.uleb128 0xb
 3522 001c 03       		.uleb128 0x3
 3523 001d 08       		.uleb128 0x8
 3524 001e 00       		.byte	0
 3525 001f 00       		.byte	0
 3526 0020 03       		.uleb128 0x3
 3527 0021 16       		.uleb128 0x16
 3528 0022 00       		.byte	0
 3529 0023 03       		.uleb128 0x3
 3530 0024 0E       		.uleb128 0xe
 3531 0025 3A       		.uleb128 0x3a
 3532 0026 0B       		.uleb128 0xb
 3533 0027 3B       		.uleb128 0x3b
 3534 0028 0B       		.uleb128 0xb
 3535 0029 49       		.uleb128 0x49
 3536 002a 13       		.uleb128 0x13
 3537 002b 00       		.byte	0
 3538 002c 00       		.byte	0
 3539 002d 04       		.uleb128 0x4
 3540 002e 24       		.uleb128 0x24
 3541 002f 00       		.byte	0
 3542 0030 0B       		.uleb128 0xb
 3543 0031 0B       		.uleb128 0xb
 3544 0032 3E       		.uleb128 0x3e
 3545 0033 0B       		.uleb128 0xb
 3546 0034 03       		.uleb128 0x3
 3547 0035 0E       		.uleb128 0xe
 3548 0036 00       		.byte	0
 3549 0037 00       		.byte	0
 3550 0038 05       		.uleb128 0x5
 3551 0039 13       		.uleb128 0x13
 3552 003a 01       		.byte	0x1
 3553 003b 03       		.uleb128 0x3
 3554 003c 0E       		.uleb128 0xe
 3555 003d 0B       		.uleb128 0xb
 3556 003e 0B       		.uleb128 0xb
 3557 003f 3A       		.uleb128 0x3a
 3558 0040 0B       		.uleb128 0xb
 3559 0041 3B       		.uleb128 0x3b
 3560 0042 0B       		.uleb128 0xb
 3561 0043 01       		.uleb128 0x1
 3562 0044 13       		.uleb128 0x13
 3563 0045 00       		.byte	0
 3564 0046 00       		.byte	0
 3565 0047 06       		.uleb128 0x6
 3566 0048 0D       		.uleb128 0xd
 3567 0049 00       		.byte	0
ARM GAS  C:\Users\LAB_ME~1\AppData\Local\Temp\ccLKfcip.s 			page 64


 3568 004a 03       		.uleb128 0x3
 3569 004b 0E       		.uleb128 0xe
 3570 004c 3A       		.uleb128 0x3a
 3571 004d 0B       		.uleb128 0xb
 3572 004e 3B       		.uleb128 0x3b
 3573 004f 0B       		.uleb128 0xb
 3574 0050 49       		.uleb128 0x49
 3575 0051 13       		.uleb128 0x13
 3576 0052 38       		.uleb128 0x38
 3577 0053 0A       		.uleb128 0xa
 3578 0054 00       		.byte	0
 3579 0055 00       		.byte	0
 3580 0056 07       		.uleb128 0x7
 3581 0057 0D       		.uleb128 0xd
 3582 0058 00       		.byte	0
 3583 0059 03       		.uleb128 0x3
 3584 005a 08       		.uleb128 0x8
 3585 005b 3A       		.uleb128 0x3a
 3586 005c 0B       		.uleb128 0xb
 3587 005d 3B       		.uleb128 0x3b
 3588 005e 0B       		.uleb128 0xb
 3589 005f 49       		.uleb128 0x49
 3590 0060 13       		.uleb128 0x13
 3591 0061 38       		.uleb128 0x38
 3592 0062 0A       		.uleb128 0xa
 3593 0063 00       		.byte	0
 3594 0064 00       		.byte	0
 3595 0065 08       		.uleb128 0x8
 3596 0066 13       		.uleb128 0x13
 3597 0067 01       		.byte	0x1
 3598 0068 0B       		.uleb128 0xb
 3599 0069 0B       		.uleb128 0xb
 3600 006a 3A       		.uleb128 0x3a
 3601 006b 0B       		.uleb128 0xb
 3602 006c 3B       		.uleb128 0x3b
 3603 006d 0B       		.uleb128 0xb
 3604 006e 01       		.uleb128 0x1
 3605 006f 13       		.uleb128 0x13
 3606 0070 00       		.byte	0
 3607 0071 00       		.byte	0
 3608 0072 09       		.uleb128 0x9
 3609 0073 0F       		.uleb128 0xf
 3610 0074 00       		.byte	0
 3611 0075 0B       		.uleb128 0xb
 3612 0076 0B       		.uleb128 0xb
 3613 0077 49       		.uleb128 0x49
 3614 0078 13       		.uleb128 0x13
 3615 0079 00       		.byte	0
 3616 007a 00       		.byte	0
 3617 007b 0A       		.uleb128 0xa
 3618 007c 0F       		.uleb128 0xf
 3619 007d 00       		.byte	0
 3620 007e 0B       		.uleb128 0xb
 3621 007f 0B       		.uleb128 0xb
 3622 0080 00       		.byte	0
 3623 0081 00       		.byte	0
 3624 0082 0B       		.uleb128 0xb
ARM GAS  C:\Users\LAB_ME~1\AppData\Local\Temp\ccLKfcip.s 			page 65


 3625 0083 13       		.uleb128 0x13
 3626 0084 01       		.byte	0x1
 3627 0085 03       		.uleb128 0x3
 3628 0086 0E       		.uleb128 0xe
 3629 0087 0B       		.uleb128 0xb
 3630 0088 0B       		.uleb128 0xb
 3631 0089 3A       		.uleb128 0x3a
 3632 008a 0B       		.uleb128 0xb
 3633 008b 3B       		.uleb128 0x3b
 3634 008c 05       		.uleb128 0x5
 3635 008d 01       		.uleb128 0x1
 3636 008e 13       		.uleb128 0x13
 3637 008f 00       		.byte	0
 3638 0090 00       		.byte	0
 3639 0091 0C       		.uleb128 0xc
 3640 0092 0D       		.uleb128 0xd
 3641 0093 00       		.byte	0
 3642 0094 03       		.uleb128 0x3
 3643 0095 08       		.uleb128 0x8
 3644 0096 3A       		.uleb128 0x3a
 3645 0097 0B       		.uleb128 0xb
 3646 0098 3B       		.uleb128 0x3b
 3647 0099 05       		.uleb128 0x5
 3648 009a 49       		.uleb128 0x49
 3649 009b 13       		.uleb128 0x13
 3650 009c 38       		.uleb128 0x38
 3651 009d 0A       		.uleb128 0xa
 3652 009e 00       		.byte	0
 3653 009f 00       		.byte	0
 3654 00a0 0D       		.uleb128 0xd
 3655 00a1 15       		.uleb128 0x15
 3656 00a2 01       		.byte	0x1
 3657 00a3 27       		.uleb128 0x27
 3658 00a4 0C       		.uleb128 0xc
 3659 00a5 01       		.uleb128 0x1
 3660 00a6 13       		.uleb128 0x13
 3661 00a7 00       		.byte	0
 3662 00a8 00       		.byte	0
 3663 00a9 0E       		.uleb128 0xe
 3664 00aa 05       		.uleb128 0x5
 3665 00ab 00       		.byte	0
 3666 00ac 49       		.uleb128 0x49
 3667 00ad 13       		.uleb128 0x13
 3668 00ae 00       		.byte	0
 3669 00af 00       		.byte	0
 3670 00b0 0F       		.uleb128 0xf
 3671 00b1 35       		.uleb128 0x35
 3672 00b2 00       		.byte	0
 3673 00b3 49       		.uleb128 0x49
 3674 00b4 13       		.uleb128 0x13
 3675 00b5 00       		.byte	0
 3676 00b6 00       		.byte	0
 3677 00b7 10       		.uleb128 0x10
 3678 00b8 17       		.uleb128 0x17
 3679 00b9 01       		.byte	0x1
 3680 00ba 0B       		.uleb128 0xb
 3681 00bb 0B       		.uleb128 0xb
ARM GAS  C:\Users\LAB_ME~1\AppData\Local\Temp\ccLKfcip.s 			page 66


 3682 00bc 3A       		.uleb128 0x3a
 3683 00bd 0B       		.uleb128 0xb
 3684 00be 3B       		.uleb128 0x3b
 3685 00bf 0B       		.uleb128 0xb
 3686 00c0 01       		.uleb128 0x1
 3687 00c1 13       		.uleb128 0x13
 3688 00c2 00       		.byte	0
 3689 00c3 00       		.byte	0
 3690 00c4 11       		.uleb128 0x11
 3691 00c5 0D       		.uleb128 0xd
 3692 00c6 00       		.byte	0
 3693 00c7 03       		.uleb128 0x3
 3694 00c8 0E       		.uleb128 0xe
 3695 00c9 3A       		.uleb128 0x3a
 3696 00ca 0B       		.uleb128 0xb
 3697 00cb 3B       		.uleb128 0x3b
 3698 00cc 0B       		.uleb128 0xb
 3699 00cd 49       		.uleb128 0x49
 3700 00ce 13       		.uleb128 0x13
 3701 00cf 00       		.byte	0
 3702 00d0 00       		.byte	0
 3703 00d1 12       		.uleb128 0x12
 3704 00d2 26       		.uleb128 0x26
 3705 00d3 00       		.byte	0
 3706 00d4 49       		.uleb128 0x49
 3707 00d5 13       		.uleb128 0x13
 3708 00d6 00       		.byte	0
 3709 00d7 00       		.byte	0
 3710 00d8 13       		.uleb128 0x13
 3711 00d9 15       		.uleb128 0x15
 3712 00da 01       		.byte	0x1
 3713 00db 27       		.uleb128 0x27
 3714 00dc 0C       		.uleb128 0xc
 3715 00dd 49       		.uleb128 0x49
 3716 00de 13       		.uleb128 0x13
 3717 00df 01       		.uleb128 0x1
 3718 00e0 13       		.uleb128 0x13
 3719 00e1 00       		.byte	0
 3720 00e2 00       		.byte	0
 3721 00e3 14       		.uleb128 0x14
 3722 00e4 15       		.uleb128 0x15
 3723 00e5 00       		.byte	0
 3724 00e6 27       		.uleb128 0x27
 3725 00e7 0C       		.uleb128 0xc
 3726 00e8 00       		.byte	0
 3727 00e9 00       		.byte	0
 3728 00ea 15       		.uleb128 0x15
 3729 00eb 2E       		.uleb128 0x2e
 3730 00ec 00       		.byte	0
 3731 00ed 03       		.uleb128 0x3
 3732 00ee 0E       		.uleb128 0xe
 3733 00ef 3A       		.uleb128 0x3a
 3734 00f0 0B       		.uleb128 0xb
 3735 00f1 3B       		.uleb128 0x3b
 3736 00f2 0B       		.uleb128 0xb
 3737 00f3 27       		.uleb128 0x27
 3738 00f4 0C       		.uleb128 0xc
ARM GAS  C:\Users\LAB_ME~1\AppData\Local\Temp\ccLKfcip.s 			page 67


 3739 00f5 20       		.uleb128 0x20
 3740 00f6 0B       		.uleb128 0xb
 3741 00f7 00       		.byte	0
 3742 00f8 00       		.byte	0
 3743 00f9 16       		.uleb128 0x16
 3744 00fa 2E       		.uleb128 0x2e
 3745 00fb 01       		.byte	0x1
 3746 00fc 03       		.uleb128 0x3
 3747 00fd 0E       		.uleb128 0xe
 3748 00fe 3A       		.uleb128 0x3a
 3749 00ff 0B       		.uleb128 0xb
 3750 0100 3B       		.uleb128 0x3b
 3751 0101 0B       		.uleb128 0xb
 3752 0102 27       		.uleb128 0x27
 3753 0103 0C       		.uleb128 0xc
 3754 0104 20       		.uleb128 0x20
 3755 0105 0B       		.uleb128 0xb
 3756 0106 01       		.uleb128 0x1
 3757 0107 13       		.uleb128 0x13
 3758 0108 00       		.byte	0
 3759 0109 00       		.byte	0
 3760 010a 17       		.uleb128 0x17
 3761 010b 34       		.uleb128 0x34
 3762 010c 00       		.byte	0
 3763 010d 03       		.uleb128 0x3
 3764 010e 08       		.uleb128 0x8
 3765 010f 3A       		.uleb128 0x3a
 3766 0110 0B       		.uleb128 0xb
 3767 0111 3B       		.uleb128 0x3b
 3768 0112 0B       		.uleb128 0xb
 3769 0113 49       		.uleb128 0x49
 3770 0114 13       		.uleb128 0x13
 3771 0115 00       		.byte	0
 3772 0116 00       		.byte	0
 3773 0117 18       		.uleb128 0x18
 3774 0118 34       		.uleb128 0x34
 3775 0119 00       		.byte	0
 3776 011a 03       		.uleb128 0x3
 3777 011b 0E       		.uleb128 0xe
 3778 011c 3A       		.uleb128 0x3a
 3779 011d 0B       		.uleb128 0xb
 3780 011e 3B       		.uleb128 0x3b
 3781 011f 0B       		.uleb128 0xb
 3782 0120 49       		.uleb128 0x49
 3783 0121 13       		.uleb128 0x13
 3784 0122 00       		.byte	0
 3785 0123 00       		.byte	0
 3786 0124 19       		.uleb128 0x19
 3787 0125 2E       		.uleb128 0x2e
 3788 0126 01       		.byte	0x1
 3789 0127 03       		.uleb128 0x3
 3790 0128 0E       		.uleb128 0xe
 3791 0129 3A       		.uleb128 0x3a
 3792 012a 0B       		.uleb128 0xb
 3793 012b 3B       		.uleb128 0x3b
 3794 012c 0B       		.uleb128 0xb
 3795 012d 27       		.uleb128 0x27
ARM GAS  C:\Users\LAB_ME~1\AppData\Local\Temp\ccLKfcip.s 			page 68


 3796 012e 0C       		.uleb128 0xc
 3797 012f 11       		.uleb128 0x11
 3798 0130 01       		.uleb128 0x1
 3799 0131 12       		.uleb128 0x12
 3800 0132 01       		.uleb128 0x1
 3801 0133 40       		.uleb128 0x40
 3802 0134 0A       		.uleb128 0xa
 3803 0135 9742     		.uleb128 0x2117
 3804 0137 0C       		.uleb128 0xc
 3805 0138 01       		.uleb128 0x1
 3806 0139 13       		.uleb128 0x13
 3807 013a 00       		.byte	0
 3808 013b 00       		.byte	0
 3809 013c 1A       		.uleb128 0x1a
 3810 013d 898201   		.uleb128 0x4109
 3811 0140 01       		.byte	0x1
 3812 0141 11       		.uleb128 0x11
 3813 0142 01       		.uleb128 0x1
 3814 0143 9542     		.uleb128 0x2115
 3815 0145 0C       		.uleb128 0xc
 3816 0146 31       		.uleb128 0x31
 3817 0147 13       		.uleb128 0x13
 3818 0148 00       		.byte	0
 3819 0149 00       		.byte	0
 3820 014a 1B       		.uleb128 0x1b
 3821 014b 8A8201   		.uleb128 0x410a
 3822 014e 00       		.byte	0
 3823 014f 02       		.uleb128 0x2
 3824 0150 0A       		.uleb128 0xa
 3825 0151 9142     		.uleb128 0x2111
 3826 0153 0A       		.uleb128 0xa
 3827 0154 00       		.byte	0
 3828 0155 00       		.byte	0
 3829 0156 1C       		.uleb128 0x1c
 3830 0157 2E       		.uleb128 0x2e
 3831 0158 01       		.byte	0x1
 3832 0159 03       		.uleb128 0x3
 3833 015a 0E       		.uleb128 0xe
 3834 015b 3A       		.uleb128 0x3a
 3835 015c 0B       		.uleb128 0xb
 3836 015d 3B       		.uleb128 0x3b
 3837 015e 0B       		.uleb128 0xb
 3838 015f 27       		.uleb128 0x27
 3839 0160 0C       		.uleb128 0xc
 3840 0161 11       		.uleb128 0x11
 3841 0162 01       		.uleb128 0x1
 3842 0163 12       		.uleb128 0x12
 3843 0164 01       		.uleb128 0x1
 3844 0165 40       		.uleb128 0x40
 3845 0166 06       		.uleb128 0x6
 3846 0167 9742     		.uleb128 0x2117
 3847 0169 0C       		.uleb128 0xc
 3848 016a 01       		.uleb128 0x1
 3849 016b 13       		.uleb128 0x13
 3850 016c 00       		.byte	0
 3851 016d 00       		.byte	0
 3852 016e 1D       		.uleb128 0x1d
ARM GAS  C:\Users\LAB_ME~1\AppData\Local\Temp\ccLKfcip.s 			page 69


 3853 016f 34       		.uleb128 0x34
 3854 0170 00       		.byte	0
 3855 0171 03       		.uleb128 0x3
 3856 0172 0E       		.uleb128 0xe
 3857 0173 3A       		.uleb128 0x3a
 3858 0174 0B       		.uleb128 0xb
 3859 0175 3B       		.uleb128 0x3b
 3860 0176 05       		.uleb128 0x5
 3861 0177 49       		.uleb128 0x49
 3862 0178 13       		.uleb128 0x13
 3863 0179 02       		.uleb128 0x2
 3864 017a 0A       		.uleb128 0xa
 3865 017b 00       		.byte	0
 3866 017c 00       		.byte	0
 3867 017d 1E       		.uleb128 0x1e
 3868 017e 0B       		.uleb128 0xb
 3869 017f 01       		.byte	0x1
 3870 0180 11       		.uleb128 0x11
 3871 0181 01       		.uleb128 0x1
 3872 0182 12       		.uleb128 0x12
 3873 0183 01       		.uleb128 0x1
 3874 0184 01       		.uleb128 0x1
 3875 0185 13       		.uleb128 0x13
 3876 0186 00       		.byte	0
 3877 0187 00       		.byte	0
 3878 0188 1F       		.uleb128 0x1f
 3879 0189 34       		.uleb128 0x34
 3880 018a 00       		.byte	0
 3881 018b 03       		.uleb128 0x3
 3882 018c 08       		.uleb128 0x8
 3883 018d 3A       		.uleb128 0x3a
 3884 018e 0B       		.uleb128 0xb
 3885 018f 3B       		.uleb128 0x3b
 3886 0190 05       		.uleb128 0x5
 3887 0191 49       		.uleb128 0x49
 3888 0192 13       		.uleb128 0x13
 3889 0193 02       		.uleb128 0x2
 3890 0194 06       		.uleb128 0x6
 3891 0195 00       		.byte	0
 3892 0196 00       		.byte	0
 3893 0197 20       		.uleb128 0x20
 3894 0198 898201   		.uleb128 0x4109
 3895 019b 01       		.byte	0x1
 3896 019c 11       		.uleb128 0x11
 3897 019d 01       		.uleb128 0x1
 3898 019e 31       		.uleb128 0x31
 3899 019f 13       		.uleb128 0x13
 3900 01a0 01       		.uleb128 0x1
 3901 01a1 13       		.uleb128 0x13
 3902 01a2 00       		.byte	0
 3903 01a3 00       		.byte	0
 3904 01a4 21       		.uleb128 0x21
 3905 01a5 898201   		.uleb128 0x4109
 3906 01a8 00       		.byte	0
 3907 01a9 11       		.uleb128 0x11
 3908 01aa 01       		.uleb128 0x1
 3909 01ab 31       		.uleb128 0x31
ARM GAS  C:\Users\LAB_ME~1\AppData\Local\Temp\ccLKfcip.s 			page 70


 3910 01ac 13       		.uleb128 0x13
 3911 01ad 00       		.byte	0
 3912 01ae 00       		.byte	0
 3913 01af 22       		.uleb128 0x22
 3914 01b0 898201   		.uleb128 0x4109
 3915 01b3 01       		.byte	0x1
 3916 01b4 11       		.uleb128 0x11
 3917 01b5 01       		.uleb128 0x1
 3918 01b6 31       		.uleb128 0x31
 3919 01b7 13       		.uleb128 0x13
 3920 01b8 00       		.byte	0
 3921 01b9 00       		.byte	0
 3922 01ba 23       		.uleb128 0x23
 3923 01bb 2E       		.uleb128 0x2e
 3924 01bc 01       		.byte	0x1
 3925 01bd 03       		.uleb128 0x3
 3926 01be 0E       		.uleb128 0xe
 3927 01bf 3A       		.uleb128 0x3a
 3928 01c0 0B       		.uleb128 0xb
 3929 01c1 3B       		.uleb128 0x3b
 3930 01c2 0B       		.uleb128 0xb
 3931 01c3 27       		.uleb128 0x27
 3932 01c4 0C       		.uleb128 0xc
 3933 01c5 49       		.uleb128 0x49
 3934 01c6 13       		.uleb128 0x13
 3935 01c7 11       		.uleb128 0x11
 3936 01c8 01       		.uleb128 0x1
 3937 01c9 12       		.uleb128 0x12
 3938 01ca 01       		.uleb128 0x1
 3939 01cb 40       		.uleb128 0x40
 3940 01cc 06       		.uleb128 0x6
 3941 01cd 9742     		.uleb128 0x2117
 3942 01cf 0C       		.uleb128 0xc
 3943 01d0 01       		.uleb128 0x1
 3944 01d1 13       		.uleb128 0x13
 3945 01d2 00       		.byte	0
 3946 01d3 00       		.byte	0
 3947 01d4 24       		.uleb128 0x24
 3948 01d5 05       		.uleb128 0x5
 3949 01d6 00       		.byte	0
 3950 01d7 03       		.uleb128 0x3
 3951 01d8 08       		.uleb128 0x8
 3952 01d9 3A       		.uleb128 0x3a
 3953 01da 0B       		.uleb128 0xb
 3954 01db 3B       		.uleb128 0x3b
 3955 01dc 0B       		.uleb128 0xb
 3956 01dd 49       		.uleb128 0x49
 3957 01de 13       		.uleb128 0x13
 3958 01df 02       		.uleb128 0x2
 3959 01e0 06       		.uleb128 0x6
 3960 01e1 00       		.byte	0
 3961 01e2 00       		.byte	0
 3962 01e3 25       		.uleb128 0x25
 3963 01e4 34       		.uleb128 0x34
 3964 01e5 00       		.byte	0
 3965 01e6 03       		.uleb128 0x3
 3966 01e7 08       		.uleb128 0x8
ARM GAS  C:\Users\LAB_ME~1\AppData\Local\Temp\ccLKfcip.s 			page 71


 3967 01e8 3A       		.uleb128 0x3a
 3968 01e9 0B       		.uleb128 0xb
 3969 01ea 3B       		.uleb128 0x3b
 3970 01eb 0B       		.uleb128 0xb
 3971 01ec 49       		.uleb128 0x49
 3972 01ed 13       		.uleb128 0x13
 3973 01ee 02       		.uleb128 0x2
 3974 01ef 06       		.uleb128 0x6
 3975 01f0 00       		.byte	0
 3976 01f1 00       		.byte	0
 3977 01f2 26       		.uleb128 0x26
 3978 01f3 0B       		.uleb128 0xb
 3979 01f4 01       		.byte	0x1
 3980 01f5 55       		.uleb128 0x55
 3981 01f6 06       		.uleb128 0x6
 3982 01f7 01       		.uleb128 0x1
 3983 01f8 13       		.uleb128 0x13
 3984 01f9 00       		.byte	0
 3985 01fa 00       		.byte	0
 3986 01fb 27       		.uleb128 0x27
 3987 01fc 2E       		.uleb128 0x2e
 3988 01fd 01       		.byte	0x1
 3989 01fe 31       		.uleb128 0x31
 3990 01ff 13       		.uleb128 0x13
 3991 0200 11       		.uleb128 0x11
 3992 0201 01       		.uleb128 0x1
 3993 0202 12       		.uleb128 0x12
 3994 0203 01       		.uleb128 0x1
 3995 0204 40       		.uleb128 0x40
 3996 0205 06       		.uleb128 0x6
 3997 0206 9742     		.uleb128 0x2117
 3998 0208 0C       		.uleb128 0xc
 3999 0209 01       		.uleb128 0x1
 4000 020a 13       		.uleb128 0x13
 4001 020b 00       		.byte	0
 4002 020c 00       		.byte	0
 4003 020d 28       		.uleb128 0x28
 4004 020e 1D       		.uleb128 0x1d
 4005 020f 01       		.byte	0x1
 4006 0210 31       		.uleb128 0x31
 4007 0211 13       		.uleb128 0x13
 4008 0212 52       		.uleb128 0x52
 4009 0213 01       		.uleb128 0x1
 4010 0214 55       		.uleb128 0x55
 4011 0215 06       		.uleb128 0x6
 4012 0216 58       		.uleb128 0x58
 4013 0217 0B       		.uleb128 0xb
 4014 0218 59       		.uleb128 0x59
 4015 0219 0B       		.uleb128 0xb
 4016 021a 01       		.uleb128 0x1
 4017 021b 13       		.uleb128 0x13
 4018 021c 00       		.byte	0
 4019 021d 00       		.byte	0
 4020 021e 29       		.uleb128 0x29
 4021 021f 34       		.uleb128 0x34
 4022 0220 00       		.byte	0
 4023 0221 31       		.uleb128 0x31
ARM GAS  C:\Users\LAB_ME~1\AppData\Local\Temp\ccLKfcip.s 			page 72


 4024 0222 13       		.uleb128 0x13
 4025 0223 00       		.byte	0
 4026 0224 00       		.byte	0
 4027 0225 2A       		.uleb128 0x2a
 4028 0226 34       		.uleb128 0x34
 4029 0227 00       		.byte	0
 4030 0228 31       		.uleb128 0x31
 4031 0229 13       		.uleb128 0x13
 4032 022a 02       		.uleb128 0x2
 4033 022b 06       		.uleb128 0x6
 4034 022c 00       		.byte	0
 4035 022d 00       		.byte	0
 4036 022e 2B       		.uleb128 0x2b
 4037 022f 0B       		.uleb128 0xb
 4038 0230 01       		.byte	0x1
 4039 0231 55       		.uleb128 0x55
 4040 0232 06       		.uleb128 0x6
 4041 0233 00       		.byte	0
 4042 0234 00       		.byte	0
 4043 0235 2C       		.uleb128 0x2c
 4044 0236 34       		.uleb128 0x34
 4045 0237 00       		.byte	0
 4046 0238 31       		.uleb128 0x31
 4047 0239 13       		.uleb128 0x13
 4048 023a 02       		.uleb128 0x2
 4049 023b 0A       		.uleb128 0xa
 4050 023c 00       		.byte	0
 4051 023d 00       		.byte	0
 4052 023e 2D       		.uleb128 0x2d
 4053 023f 34       		.uleb128 0x34
 4054 0240 00       		.byte	0
 4055 0241 03       		.uleb128 0x3
 4056 0242 0E       		.uleb128 0xe
 4057 0243 3A       		.uleb128 0x3a
 4058 0244 0B       		.uleb128 0xb
 4059 0245 3B       		.uleb128 0x3b
 4060 0246 0B       		.uleb128 0xb
 4061 0247 49       		.uleb128 0x49
 4062 0248 13       		.uleb128 0x13
 4063 0249 02       		.uleb128 0x2
 4064 024a 0A       		.uleb128 0xa
 4065 024b 00       		.byte	0
 4066 024c 00       		.byte	0
 4067 024d 2E       		.uleb128 0x2e
 4068 024e 34       		.uleb128 0x34
 4069 024f 00       		.byte	0
 4070 0250 03       		.uleb128 0x3
 4071 0251 0E       		.uleb128 0xe
 4072 0252 3A       		.uleb128 0x3a
 4073 0253 0B       		.uleb128 0xb
 4074 0254 3B       		.uleb128 0x3b
 4075 0255 0B       		.uleb128 0xb
 4076 0256 49       		.uleb128 0x49
 4077 0257 13       		.uleb128 0x13
 4078 0258 3F       		.uleb128 0x3f
 4079 0259 0C       		.uleb128 0xc
 4080 025a 3C       		.uleb128 0x3c
ARM GAS  C:\Users\LAB_ME~1\AppData\Local\Temp\ccLKfcip.s 			page 73


 4081 025b 0C       		.uleb128 0xc
 4082 025c 00       		.byte	0
 4083 025d 00       		.byte	0
 4084 025e 2F       		.uleb128 0x2f
 4085 025f 01       		.uleb128 0x1
 4086 0260 01       		.byte	0x1
 4087 0261 49       		.uleb128 0x49
 4088 0262 13       		.uleb128 0x13
 4089 0263 01       		.uleb128 0x1
 4090 0264 13       		.uleb128 0x13
 4091 0265 00       		.byte	0
 4092 0266 00       		.byte	0
 4093 0267 30       		.uleb128 0x30
 4094 0268 21       		.uleb128 0x21
 4095 0269 00       		.byte	0
 4096 026a 49       		.uleb128 0x49
 4097 026b 13       		.uleb128 0x13
 4098 026c 2F       		.uleb128 0x2f
 4099 026d 0B       		.uleb128 0xb
 4100 026e 00       		.byte	0
 4101 026f 00       		.byte	0
 4102 0270 31       		.uleb128 0x31
 4103 0271 21       		.uleb128 0x21
 4104 0272 00       		.byte	0
 4105 0273 00       		.byte	0
 4106 0274 00       		.byte	0
 4107 0275 32       		.uleb128 0x32
 4108 0276 34       		.uleb128 0x34
 4109 0277 00       		.byte	0
 4110 0278 03       		.uleb128 0x3
 4111 0279 08       		.uleb128 0x8
 4112 027a 3A       		.uleb128 0x3a
 4113 027b 0B       		.uleb128 0xb
 4114 027c 3B       		.uleb128 0x3b
 4115 027d 0B       		.uleb128 0xb
 4116 027e 49       		.uleb128 0x49
 4117 027f 13       		.uleb128 0x13
 4118 0280 3F       		.uleb128 0x3f
 4119 0281 0C       		.uleb128 0xc
 4120 0282 3C       		.uleb128 0x3c
 4121 0283 0C       		.uleb128 0xc
 4122 0284 00       		.byte	0
 4123 0285 00       		.byte	0
 4124 0286 33       		.uleb128 0x33
 4125 0287 34       		.uleb128 0x34
 4126 0288 00       		.byte	0
 4127 0289 03       		.uleb128 0x3
 4128 028a 0E       		.uleb128 0xe
 4129 028b 3A       		.uleb128 0x3a
 4130 028c 0B       		.uleb128 0xb
 4131 028d 3B       		.uleb128 0x3b
 4132 028e 0B       		.uleb128 0xb
 4133 028f 49       		.uleb128 0x49
 4134 0290 13       		.uleb128 0x13
 4135 0291 3F       		.uleb128 0x3f
 4136 0292 0C       		.uleb128 0xc
 4137 0293 02       		.uleb128 0x2
ARM GAS  C:\Users\LAB_ME~1\AppData\Local\Temp\ccLKfcip.s 			page 74


 4138 0294 0A       		.uleb128 0xa
 4139 0295 00       		.byte	0
 4140 0296 00       		.byte	0
 4141 0297 34       		.uleb128 0x34
 4142 0298 34       		.uleb128 0x34
 4143 0299 00       		.byte	0
 4144 029a 03       		.uleb128 0x3
 4145 029b 0E       		.uleb128 0xe
 4146 029c 3A       		.uleb128 0x3a
 4147 029d 0B       		.uleb128 0xb
 4148 029e 3B       		.uleb128 0x3b
 4149 029f 05       		.uleb128 0x5
 4150 02a0 49       		.uleb128 0x49
 4151 02a1 13       		.uleb128 0x13
 4152 02a2 3F       		.uleb128 0x3f
 4153 02a3 0C       		.uleb128 0xc
 4154 02a4 02       		.uleb128 0x2
 4155 02a5 0A       		.uleb128 0xa
 4156 02a6 00       		.byte	0
 4157 02a7 00       		.byte	0
 4158 02a8 35       		.uleb128 0x35
 4159 02a9 2E       		.uleb128 0x2e
 4160 02aa 01       		.byte	0x1
 4161 02ab 3F       		.uleb128 0x3f
 4162 02ac 0C       		.uleb128 0xc
 4163 02ad 03       		.uleb128 0x3
 4164 02ae 0E       		.uleb128 0xe
 4165 02af 3A       		.uleb128 0x3a
 4166 02b0 0B       		.uleb128 0xb
 4167 02b1 3B       		.uleb128 0x3b
 4168 02b2 0B       		.uleb128 0xb
 4169 02b3 27       		.uleb128 0x27
 4170 02b4 0C       		.uleb128 0xc
 4171 02b5 3C       		.uleb128 0x3c
 4172 02b6 0C       		.uleb128 0xc
 4173 02b7 01       		.uleb128 0x1
 4174 02b8 13       		.uleb128 0x13
 4175 02b9 00       		.byte	0
 4176 02ba 00       		.byte	0
 4177 02bb 36       		.uleb128 0x36
 4178 02bc 2E       		.uleb128 0x2e
 4179 02bd 01       		.byte	0x1
 4180 02be 3F       		.uleb128 0x3f
 4181 02bf 0C       		.uleb128 0xc
 4182 02c0 03       		.uleb128 0x3
 4183 02c1 0E       		.uleb128 0xe
 4184 02c2 3A       		.uleb128 0x3a
 4185 02c3 0B       		.uleb128 0xb
 4186 02c4 3B       		.uleb128 0x3b
 4187 02c5 0B       		.uleb128 0xb
 4188 02c6 27       		.uleb128 0x27
 4189 02c7 0C       		.uleb128 0xc
 4190 02c8 49       		.uleb128 0x49
 4191 02c9 13       		.uleb128 0x13
 4192 02ca 3C       		.uleb128 0x3c
 4193 02cb 0C       		.uleb128 0xc
 4194 02cc 01       		.uleb128 0x1
ARM GAS  C:\Users\LAB_ME~1\AppData\Local\Temp\ccLKfcip.s 			page 75


 4195 02cd 13       		.uleb128 0x13
 4196 02ce 00       		.byte	0
 4197 02cf 00       		.byte	0
 4198 02d0 37       		.uleb128 0x37
 4199 02d1 2E       		.uleb128 0x2e
 4200 02d2 01       		.byte	0x1
 4201 02d3 3F       		.uleb128 0x3f
 4202 02d4 0C       		.uleb128 0xc
 4203 02d5 03       		.uleb128 0x3
 4204 02d6 0E       		.uleb128 0xe
 4205 02d7 3A       		.uleb128 0x3a
 4206 02d8 0B       		.uleb128 0xb
 4207 02d9 3B       		.uleb128 0x3b
 4208 02da 05       		.uleb128 0x5
 4209 02db 27       		.uleb128 0x27
 4210 02dc 0C       		.uleb128 0xc
 4211 02dd 49       		.uleb128 0x49
 4212 02de 13       		.uleb128 0x13
 4213 02df 3C       		.uleb128 0x3c
 4214 02e0 0C       		.uleb128 0xc
 4215 02e1 01       		.uleb128 0x1
 4216 02e2 13       		.uleb128 0x13
 4217 02e3 00       		.byte	0
 4218 02e4 00       		.byte	0
 4219 02e5 38       		.uleb128 0x38
 4220 02e6 2E       		.uleb128 0x2e
 4221 02e7 00       		.byte	0
 4222 02e8 3F       		.uleb128 0x3f
 4223 02e9 0C       		.uleb128 0xc
 4224 02ea 03       		.uleb128 0x3
 4225 02eb 0E       		.uleb128 0xe
 4226 02ec 3A       		.uleb128 0x3a
 4227 02ed 0B       		.uleb128 0xb
 4228 02ee 3B       		.uleb128 0x3b
 4229 02ef 0B       		.uleb128 0xb
 4230 02f0 27       		.uleb128 0x27
 4231 02f1 0C       		.uleb128 0xc
 4232 02f2 3C       		.uleb128 0x3c
 4233 02f3 0C       		.uleb128 0xc
 4234 02f4 00       		.byte	0
 4235 02f5 00       		.byte	0
 4236 02f6 39       		.uleb128 0x39
 4237 02f7 2E       		.uleb128 0x2e
 4238 02f8 01       		.byte	0x1
 4239 02f9 3F       		.uleb128 0x3f
 4240 02fa 0C       		.uleb128 0xc
 4241 02fb 03       		.uleb128 0x3
 4242 02fc 0E       		.uleb128 0xe
 4243 02fd 3A       		.uleb128 0x3a
 4244 02fe 0B       		.uleb128 0xb
 4245 02ff 3B       		.uleb128 0x3b
 4246 0300 05       		.uleb128 0x5
 4247 0301 27       		.uleb128 0x27
 4248 0302 0C       		.uleb128 0xc
 4249 0303 3C       		.uleb128 0x3c
 4250 0304 0C       		.uleb128 0xc
 4251 0305 01       		.uleb128 0x1
ARM GAS  C:\Users\LAB_ME~1\AppData\Local\Temp\ccLKfcip.s 			page 76


 4252 0306 13       		.uleb128 0x13
 4253 0307 00       		.byte	0
 4254 0308 00       		.byte	0
 4255 0309 3A       		.uleb128 0x3a
 4256 030a 2E       		.uleb128 0x2e
 4257 030b 00       		.byte	0
 4258 030c 3F       		.uleb128 0x3f
 4259 030d 0C       		.uleb128 0xc
 4260 030e 03       		.uleb128 0x3
 4261 030f 0E       		.uleb128 0xe
 4262 0310 3A       		.uleb128 0x3a
 4263 0311 0B       		.uleb128 0xb
 4264 0312 3B       		.uleb128 0x3b
 4265 0313 0B       		.uleb128 0xb
 4266 0314 27       		.uleb128 0x27
 4267 0315 0C       		.uleb128 0xc
 4268 0316 49       		.uleb128 0x49
 4269 0317 13       		.uleb128 0x13
 4270 0318 3C       		.uleb128 0x3c
 4271 0319 0C       		.uleb128 0xc
 4272 031a 00       		.byte	0
 4273 031b 00       		.byte	0
 4274 031c 3B       		.uleb128 0x3b
 4275 031d 2E       		.uleb128 0x2e
 4276 031e 01       		.byte	0x1
 4277 031f 3F       		.uleb128 0x3f
 4278 0320 0C       		.uleb128 0xc
 4279 0321 03       		.uleb128 0x3
 4280 0322 0E       		.uleb128 0xe
 4281 0323 3A       		.uleb128 0x3a
 4282 0324 0B       		.uleb128 0xb
 4283 0325 3B       		.uleb128 0x3b
 4284 0326 0B       		.uleb128 0xb
 4285 0327 27       		.uleb128 0x27
 4286 0328 0C       		.uleb128 0xc
 4287 0329 49       		.uleb128 0x49
 4288 032a 13       		.uleb128 0x13
 4289 032b 3C       		.uleb128 0x3c
 4290 032c 0C       		.uleb128 0xc
 4291 032d 00       		.byte	0
 4292 032e 00       		.byte	0
 4293 032f 00       		.byte	0
 4294              		.section	.debug_loc,"",%progbits
 4295              	.Ldebug_loc0:
 4296              	.LLST0:
 4297 0000 00000000 		.4byte	.LFB17
 4298 0004 02000000 		.4byte	.LCFI0
 4299 0008 0200     		.2byte	0x2
 4300 000a 7D       		.byte	0x7d
 4301 000b 00       		.sleb128 0
 4302 000c 02000000 		.4byte	.LCFI0
 4303 0010 04000000 		.4byte	.LCFI1
 4304 0014 0200     		.2byte	0x2
 4305 0016 7D       		.byte	0x7d
 4306 0017 04       		.sleb128 4
 4307 0018 04000000 		.4byte	.LCFI1
 4308 001c F8000000 		.4byte	.LFE17
ARM GAS  C:\Users\LAB_ME~1\AppData\Local\Temp\ccLKfcip.s 			page 77


 4309 0020 0200     		.2byte	0x2
 4310 0022 7D       		.byte	0x7d
 4311 0023 20       		.sleb128 32
 4312 0024 00000000 		.4byte	0
 4313 0028 00000000 		.4byte	0
 4314              	.LLST1:
 4315 002c 68000000 		.4byte	.LVL10
 4316 0030 6A000000 		.4byte	.LVL11
 4317 0034 0100     		.2byte	0x1
 4318 0036 53       		.byte	0x53
 4319 0037 00000000 		.4byte	0
 4320 003b 00000000 		.4byte	0
 4321              	.LLST2:
 4322 003f 78000000 		.4byte	.LVL14
 4323 0043 7E000000 		.4byte	.LVL15
 4324 0047 0100     		.2byte	0x1
 4325 0049 53       		.byte	0x53
 4326 004a 00000000 		.4byte	0
 4327 004e 00000000 		.4byte	0
 4328              	.LLST3:
 4329 0052 A4000000 		.4byte	.LVL19
 4330 0056 A6000000 		.4byte	.LVL20
 4331 005a 0100     		.2byte	0x1
 4332 005c 53       		.byte	0x53
 4333 005d 00000000 		.4byte	0
 4334 0061 00000000 		.4byte	0
 4335              	.LLST4:
 4336 0065 B4000000 		.4byte	.LVL23
 4337 0069 BA000000 		.4byte	.LVL24
 4338 006d 0100     		.2byte	0x1
 4339 006f 53       		.byte	0x53
 4340 0070 00000000 		.4byte	0
 4341 0074 00000000 		.4byte	0
 4342              	.LLST5:
 4343 0078 00000000 		.4byte	.LFB16
 4344 007c 02000000 		.4byte	.LCFI2
 4345 0080 0200     		.2byte	0x2
 4346 0082 7D       		.byte	0x7d
 4347 0083 00       		.sleb128 0
 4348 0084 02000000 		.4byte	.LCFI2
 4349 0088 22000000 		.4byte	.LFE16
 4350 008c 0200     		.2byte	0x2
 4351 008e 7D       		.byte	0x7d
 4352 008f 08       		.sleb128 8
 4353 0090 00000000 		.4byte	0
 4354 0094 00000000 		.4byte	0
 4355              	.LLST6:
 4356 0098 00000000 		.4byte	.LVL29
 4357 009c 0E000000 		.4byte	.LVL33
 4358 00a0 0100     		.2byte	0x1
 4359 00a2 50       		.byte	0x50
 4360 00a3 0E000000 		.4byte	.LVL33
 4361 00a7 1C000000 		.4byte	.LVL37
 4362 00ab 0400     		.2byte	0x4
 4363 00ad F3       		.byte	0xf3
 4364 00ae 01       		.uleb128 0x1
 4365 00af 50       		.byte	0x50
ARM GAS  C:\Users\LAB_ME~1\AppData\Local\Temp\ccLKfcip.s 			page 78


 4366 00b0 9F       		.byte	0x9f
 4367 00b1 1C000000 		.4byte	.LVL37
 4368 00b5 1F000000 		.4byte	.LVL38-1
 4369 00b9 0100     		.2byte	0x1
 4370 00bb 50       		.byte	0x50
 4371 00bc 1F000000 		.4byte	.LVL38-1
 4372 00c0 22000000 		.4byte	.LFE16
 4373 00c4 0400     		.2byte	0x4
 4374 00c6 F3       		.byte	0xf3
 4375 00c7 01       		.uleb128 0x1
 4376 00c8 50       		.byte	0x50
 4377 00c9 9F       		.byte	0x9f
 4378 00ca 00000000 		.4byte	0
 4379 00ce 00000000 		.4byte	0
 4380              	.LLST7:
 4381 00d2 08000000 		.4byte	.LVL31
 4382 00d6 0A000000 		.4byte	.LVL32
 4383 00da 0100     		.2byte	0x1
 4384 00dc 53       		.byte	0x53
 4385 00dd 00000000 		.4byte	0
 4386 00e1 00000000 		.4byte	0
 4387              	.LLST8:
 4388 00e5 18000000 		.4byte	.LVL36
 4389 00e9 1C000000 		.4byte	.LVL37
 4390 00ed 0100     		.2byte	0x1
 4391 00ef 53       		.byte	0x53
 4392 00f0 00000000 		.4byte	0
 4393 00f4 00000000 		.4byte	0
 4394              	.LLST9:
 4395 00f8 00000000 		.4byte	.LFB14
 4396 00fc 02000000 		.4byte	.LCFI3
 4397 0100 0200     		.2byte	0x2
 4398 0102 7D       		.byte	0x7d
 4399 0103 00       		.sleb128 0
 4400 0104 02000000 		.4byte	.LCFI3
 4401 0108 18000000 		.4byte	.LFE14
 4402 010c 0200     		.2byte	0x2
 4403 010e 7D       		.byte	0x7d
 4404 010f 08       		.sleb128 8
 4405 0110 00000000 		.4byte	0
 4406 0114 00000000 		.4byte	0
 4407              	.LLST10:
 4408 0118 00000000 		.4byte	.LVL39
 4409 011c 06000000 		.4byte	.LVL40
 4410 0120 0100     		.2byte	0x1
 4411 0122 50       		.byte	0x50
 4412 0123 06000000 		.4byte	.LVL40
 4413 0127 18000000 		.4byte	.LFE14
 4414 012b 0400     		.2byte	0x4
 4415 012d F3       		.byte	0xf3
 4416 012e 01       		.uleb128 0x1
 4417 012f 50       		.byte	0x50
 4418 0130 9F       		.byte	0x9f
 4419 0131 00000000 		.4byte	0
 4420 0135 00000000 		.4byte	0
 4421              	.LLST11:
 4422 0139 00000000 		.4byte	.LFB8
ARM GAS  C:\Users\LAB_ME~1\AppData\Local\Temp\ccLKfcip.s 			page 79


 4423 013d 02000000 		.4byte	.LCFI4
 4424 0141 0200     		.2byte	0x2
 4425 0143 7D       		.byte	0x7d
 4426 0144 00       		.sleb128 0
 4427 0145 02000000 		.4byte	.LCFI4
 4428 0149 18000000 		.4byte	.LFE8
 4429 014d 0200     		.2byte	0x2
 4430 014f 7D       		.byte	0x7d
 4431 0150 08       		.sleb128 8
 4432 0151 00000000 		.4byte	0
 4433 0155 00000000 		.4byte	0
 4434              	.LLST12:
 4435 0159 00000000 		.4byte	.LVL43
 4436 015d 06000000 		.4byte	.LVL44
 4437 0161 0100     		.2byte	0x1
 4438 0163 50       		.byte	0x50
 4439 0164 06000000 		.4byte	.LVL44
 4440 0168 18000000 		.4byte	.LFE8
 4441 016c 0100     		.2byte	0x1
 4442 016e 54       		.byte	0x54
 4443 016f 00000000 		.4byte	0
 4444 0173 00000000 		.4byte	0
 4445              	.LLST13:
 4446 0177 00000000 		.4byte	.LFB11
 4447 017b 02000000 		.4byte	.LCFI5
 4448 017f 0200     		.2byte	0x2
 4449 0181 7D       		.byte	0x7d
 4450 0182 00       		.sleb128 0
 4451 0183 02000000 		.4byte	.LCFI5
 4452 0187 28000000 		.4byte	.LFE11
 4453 018b 0200     		.2byte	0x2
 4454 018d 7D       		.byte	0x7d
 4455 018e 08       		.sleb128 8
 4456 018f 00000000 		.4byte	0
 4457 0193 00000000 		.4byte	0
 4458              	.LLST14:
 4459 0197 00000000 		.4byte	.LVL47
 4460 019b 04000000 		.4byte	.LVL48
 4461 019f 0100     		.2byte	0x1
 4462 01a1 50       		.byte	0x50
 4463 01a2 04000000 		.4byte	.LVL48
 4464 01a6 28000000 		.4byte	.LFE11
 4465 01aa 0400     		.2byte	0x4
 4466 01ac F3       		.byte	0xf3
 4467 01ad 01       		.uleb128 0x1
 4468 01ae 50       		.byte	0x50
 4469 01af 9F       		.byte	0x9f
 4470 01b0 00000000 		.4byte	0
 4471 01b4 00000000 		.4byte	0
 4472              	.LLST15:
 4473 01b8 0E000000 		.4byte	.LVL51
 4474 01bc 13000000 		.4byte	.LVL52-1
 4475 01c0 0100     		.2byte	0x1
 4476 01c2 53       		.byte	0x53
 4477 01c3 00000000 		.4byte	0
 4478 01c7 00000000 		.4byte	0
 4479              	.LLST16:
ARM GAS  C:\Users\LAB_ME~1\AppData\Local\Temp\ccLKfcip.s 			page 80


 4480 01cb 1E000000 		.4byte	.LVL55
 4481 01cf 28000000 		.4byte	.LFE11
 4482 01d3 0100     		.2byte	0x1
 4483 01d5 53       		.byte	0x53
 4484 01d6 00000000 		.4byte	0
 4485 01da 00000000 		.4byte	0
 4486              	.LLST17:
 4487 01de 00000000 		.4byte	.LFB9
 4488 01e2 04000000 		.4byte	.LCFI6
 4489 01e6 0200     		.2byte	0x2
 4490 01e8 7D       		.byte	0x7d
 4491 01e9 00       		.sleb128 0
 4492 01ea 04000000 		.4byte	.LCFI6
 4493 01ee 1A000000 		.4byte	.LCFI7
 4494 01f2 0200     		.2byte	0x2
 4495 01f4 7D       		.byte	0x7d
 4496 01f5 1C       		.sleb128 28
 4497 01f6 1A000000 		.4byte	.LCFI7
 4498 01fa 4C010000 		.4byte	.LFE9
 4499 01fe 0200     		.2byte	0x2
 4500 0200 7D       		.byte	0x7d
 4501 0201 30       		.sleb128 48
 4502 0202 00000000 		.4byte	0
 4503 0206 00000000 		.4byte	0
 4504              	.LLST18:
 4505 020a F4000000 		.4byte	.LVL70
 4506 020e FB000000 		.4byte	.LVL71-1
 4507 0212 0100     		.2byte	0x1
 4508 0214 53       		.byte	0x53
 4509 0215 00000000 		.4byte	0
 4510 0219 00000000 		.4byte	0
 4511              	.LLST19:
 4512 021d 02010000 		.4byte	.LVL73
 4513 0221 05010000 		.4byte	.LVL74-1
 4514 0225 0100     		.2byte	0x1
 4515 0227 53       		.byte	0x53
 4516 0228 00000000 		.4byte	0
 4517 022c 00000000 		.4byte	0
 4518              	.LLST20:
 4519 0230 00000000 		.4byte	.LFB15
 4520 0234 02000000 		.4byte	.LCFI8
 4521 0238 0200     		.2byte	0x2
 4522 023a 7D       		.byte	0x7d
 4523 023b 00       		.sleb128 0
 4524 023c 02000000 		.4byte	.LCFI8
 4525 0240 0A000000 		.4byte	.LCFI9
 4526 0244 0200     		.2byte	0x2
 4527 0246 7D       		.byte	0x7d
 4528 0247 08       		.sleb128 8
 4529 0248 0A000000 		.4byte	.LCFI9
 4530 024c A0000000 		.4byte	.LFE15
 4531 0250 0200     		.2byte	0x2
 4532 0252 7D       		.byte	0x7d
 4533 0253 10       		.sleb128 16
 4534 0254 00000000 		.4byte	0
 4535 0258 00000000 		.4byte	0
 4536              	.LLST21:
ARM GAS  C:\Users\LAB_ME~1\AppData\Local\Temp\ccLKfcip.s 			page 81


 4537 025c 00000000 		.4byte	.LFB12
 4538 0260 02000000 		.4byte	.LCFI10
 4539 0264 0200     		.2byte	0x2
 4540 0266 7D       		.byte	0x7d
 4541 0267 00       		.sleb128 0
 4542 0268 02000000 		.4byte	.LCFI10
 4543 026c 08000000 		.4byte	.LCFI11
 4544 0270 0200     		.2byte	0x2
 4545 0272 7D       		.byte	0x7d
 4546 0273 10       		.sleb128 16
 4547 0274 08000000 		.4byte	.LCFI11
 4548 0278 50010000 		.4byte	.LFE12
 4549 027c 0200     		.2byte	0x2
 4550 027e 7D       		.byte	0x7d
 4551 027f 18       		.sleb128 24
 4552 0280 00000000 		.4byte	0
 4553 0284 00000000 		.4byte	0
 4554              	.LLST22:
 4555 0288 0E000000 		.4byte	.LVL83
 4556 028c 18000000 		.4byte	.LVL84
 4557 0290 0100     		.2byte	0x1
 4558 0292 50       		.byte	0x50
 4559 0293 18000000 		.4byte	.LVL84
 4560 0297 1B000000 		.4byte	.LVL85-1
 4561 029b 0300     		.2byte	0x3
 4562 029d 73       		.byte	0x73
 4563 029e 7F       		.sleb128 -1
 4564 029f 9F       		.byte	0x9f
 4565 02a0 00000000 		.4byte	0
 4566 02a4 00000000 		.4byte	0
 4567              	.LLST23:
 4568 02a8 C0000000 		.4byte	.LVL96
 4569 02ac C2000000 		.4byte	.LVL97
 4570 02b0 0200     		.2byte	0x2
 4571 02b2 30       		.byte	0x30
 4572 02b3 9F       		.byte	0x9f
 4573 02b4 00000000 		.4byte	0
 4574 02b8 00000000 		.4byte	0
 4575              	.LLST24:
 4576 02bc 76000000 		.4byte	.LVL90
 4577 02c0 79000000 		.4byte	.LVL91-1
 4578 02c4 0100     		.2byte	0x1
 4579 02c6 50       		.byte	0x50
 4580 02c7 79000000 		.4byte	.LVL91-1
 4581 02cb C2000000 		.4byte	.LVL97
 4582 02cf 0100     		.2byte	0x1
 4583 02d1 55       		.byte	0x55
 4584 02d2 D2000000 		.4byte	.LVL99
 4585 02d6 D6000000 		.4byte	.LVL100
 4586 02da 0100     		.2byte	0x1
 4587 02dc 50       		.byte	0x50
 4588 02dd D6000000 		.4byte	.LVL100
 4589 02e1 DC000000 		.4byte	.LVL101
 4590 02e5 0300     		.2byte	0x3
 4591 02e7 70       		.byte	0x70
 4592 02e8 7F       		.sleb128 -1
 4593 02e9 9F       		.byte	0x9f
ARM GAS  C:\Users\LAB_ME~1\AppData\Local\Temp\ccLKfcip.s 			page 82


 4594 02ea 00000000 		.4byte	0
 4595 02ee 00000000 		.4byte	0
 4596              		.section	.debug_aranges,"",%progbits
 4597 0000 6C000000 		.4byte	0x6c
 4598 0004 0200     		.2byte	0x2
 4599 0006 00000000 		.4byte	.Ldebug_info0
 4600 000a 04       		.byte	0x4
 4601 000b 00       		.byte	0
 4602 000c 0000     		.2byte	0
 4603 000e 0000     		.2byte	0
 4604 0010 00000000 		.4byte	.LFB13
 4605 0014 0C000000 		.4byte	.LFE13-.LFB13
 4606 0018 00000000 		.4byte	.LFB10
 4607 001c 0C000000 		.4byte	.LFE10-.LFB10
 4608 0020 00000000 		.4byte	.LFB7
 4609 0024 0C000000 		.4byte	.LFE7-.LFB7
 4610 0028 00000000 		.4byte	.LFB17
 4611 002c F8000000 		.4byte	.LFE17-.LFB17
 4612 0030 00000000 		.4byte	.LFB16
 4613 0034 22000000 		.4byte	.LFE16-.LFB16
 4614 0038 00000000 		.4byte	.LFB14
 4615 003c 18000000 		.4byte	.LFE14-.LFB14
 4616 0040 00000000 		.4byte	.LFB8
 4617 0044 18000000 		.4byte	.LFE8-.LFB8
 4618 0048 00000000 		.4byte	.LFB11
 4619 004c 28000000 		.4byte	.LFE11-.LFB11
 4620 0050 00000000 		.4byte	.LFB9
 4621 0054 4C010000 		.4byte	.LFE9-.LFB9
 4622 0058 00000000 		.4byte	.LFB15
 4623 005c A0000000 		.4byte	.LFE15-.LFB15
 4624 0060 00000000 		.4byte	.LFB12
 4625 0064 50010000 		.4byte	.LFE12-.LFB12
 4626 0068 00000000 		.4byte	0
 4627 006c 00000000 		.4byte	0
 4628              		.section	.debug_ranges,"",%progbits
 4629              	.Ldebug_ranges0:
 4630 0000 EC000000 		.4byte	.LBB10
 4631 0004 EE000000 		.4byte	.LBE10
 4632 0008 F0000000 		.4byte	.LBB11
 4633 000c F4000000 		.4byte	.LBE11
 4634 0010 00000000 		.4byte	0
 4635 0014 00000000 		.4byte	0
 4636 0018 54000000 		.4byte	.LBB15
 4637 001c 80000000 		.4byte	.LBE15
 4638 0020 86000000 		.4byte	.LBB18
 4639 0024 A0000000 		.4byte	.LBE18
 4640 0028 00000000 		.4byte	0
 4641 002c 00000000 		.4byte	0
 4642 0030 4E000000 		.4byte	.LBB21
 4643 0034 2A010000 		.4byte	.LBE21
 4644 0038 30010000 		.4byte	.LBB24
 4645 003c 50010000 		.4byte	.LBE24
 4646 0040 00000000 		.4byte	0
 4647 0044 00000000 		.4byte	0
 4648 0048 4E000000 		.4byte	.LBB22
 4649 004c 2A010000 		.4byte	.LBE22
 4650 0050 30010000 		.4byte	.LBB23
ARM GAS  C:\Users\LAB_ME~1\AppData\Local\Temp\ccLKfcip.s 			page 83


 4651 0054 50010000 		.4byte	.LBE23
 4652 0058 00000000 		.4byte	0
 4653 005c 00000000 		.4byte	0
 4654 0060 00000000 		.4byte	.LFB13
 4655 0064 0C000000 		.4byte	.LFE13
 4656 0068 00000000 		.4byte	.LFB10
 4657 006c 0C000000 		.4byte	.LFE10
 4658 0070 00000000 		.4byte	.LFB7
 4659 0074 0C000000 		.4byte	.LFE7
 4660 0078 00000000 		.4byte	.LFB17
 4661 007c F8000000 		.4byte	.LFE17
 4662 0080 00000000 		.4byte	.LFB16
 4663 0084 22000000 		.4byte	.LFE16
 4664 0088 00000000 		.4byte	.LFB14
 4665 008c 18000000 		.4byte	.LFE14
 4666 0090 00000000 		.4byte	.LFB8
 4667 0094 18000000 		.4byte	.LFE8
 4668 0098 00000000 		.4byte	.LFB11
 4669 009c 28000000 		.4byte	.LFE11
 4670 00a0 00000000 		.4byte	.LFB9
 4671 00a4 4C010000 		.4byte	.LFE9
 4672 00a8 00000000 		.4byte	.LFB15
 4673 00ac A0000000 		.4byte	.LFE15
 4674 00b0 00000000 		.4byte	.LFB12
 4675 00b4 50010000 		.4byte	.LFE12
 4676 00b8 00000000 		.4byte	0
 4677 00bc 00000000 		.4byte	0
 4678              		.section	.debug_line,"",%progbits
 4679              	.Ldebug_line0:
 4680 0000 5C030000 		.section	.debug_str,"MS",%progbits,1
 4680      0200F201 
 4680      00000201 
 4680      FB0E0D00 
 4680      01010101 
 4681              	.LASF79:
 4682 0000 7466756E 		.ascii	"tfunc_t\000"
 4682      635F7400 
 4683              	.LASF38:
 4684 0008 705F6D73 		.ascii	"p_msg\000"
 4684      6700
 4685              	.LASF110:
 4686 000e 63685365 		.ascii	"chSemSignalI\000"
 4686      6D536967 
 4686      6E616C49 
 4686      00
 4687              	.LASF2:
 4688 001b 73697A65 		.ascii	"size_t\000"
 4688      5F7400
 4689              	.LASF74:
 4690 0022 7264796D 		.ascii	"rdymsg\000"
 4690      736700
 4691              	.LASF87:
 4692 0029 73656D32 		.ascii	"sem2_setup\000"
 4692      5F736574 
 4692      757000
 4693              	.LASF97:
 4694 0034 76746C69 		.ascii	"vtlist\000"
ARM GAS  C:\Users\LAB_ME~1\AppData\Local\Temp\ccLKfcip.s 			page 84


 4694      737400
 4695              	.LASF12:
 4696 003b 6C6F6E67 		.ascii	"long long unsigned int\000"
 4696      206C6F6E 
 4696      6720756E 
 4696      7369676E 
 4696      65642069 
 4697              	.LASF75:
 4698 0052 65786974 		.ascii	"exitcode\000"
 4698      636F6465 
 4698      00
 4699              	.LASF117:
 4700 005b 63685365 		.ascii	"chSemAddCounterI\000"
 4700      6D416464 
 4700      436F756E 
 4700      74657249 
 4700      00
 4701              	.LASF26:
 4702 006c 705F7072 		.ascii	"p_prio\000"
 4702      696F00
 4703              	.LASF11:
 4704 0073 6C6F6E67 		.ascii	"long long int\000"
 4704      206C6F6E 
 4704      6720696E 
 4704      7400
 4705              	.LASF1:
 4706 0081 7369676E 		.ascii	"signed char\000"
 4706      65642063 
 4706      68617200 
 4707              	.LASF118:
 4708 008d 63685365 		.ascii	"chSemSignalWait\000"
 4708      6D536967 
 4708      6E616C57 
 4708      61697400 
 4709              	.LASF42:
 4710 009d 705F6D70 		.ascii	"p_mpool\000"
 4710      6F6F6C00 
 4711              	.LASF13:
 4712 00a5 626F6F6C 		.ascii	"bool_t\000"
 4712      5F7400
 4713              	.LASF71:
 4714 00ac 6D5F7175 		.ascii	"m_queue\000"
 4714      65756500 
 4715              	.LASF92:
 4716 00b4 74687265 		.ascii	"thread3\000"
 4716      61643300 
 4717              	.LASF112:
 4718 00bc 74657374 		.ascii	"test_emit_token\000"
 4718      5F656D69 
 4718      745F746F 
 4718      6B656E00 
 4719              	.LASF17:
 4720 00cc 74736C69 		.ascii	"tslices_t\000"
 4720      6365735F 
 4720      7400
 4721              	.LASF125:
 4722 00d6 73656D32 		.ascii	"sem2_execute\000"
ARM GAS  C:\Users\LAB_ME~1\AppData\Local\Temp\ccLKfcip.s 			page 85


 4722      5F657865 
 4722      63757465 
 4722      00
 4723              	.LASF8:
 4724 00e3 6C6F6E67 		.ascii	"long int\000"
 4724      20696E74 
 4724      00
 4725              	.LASF85:
 4726 00ec 74617267 		.ascii	"target_time\000"
 4726      65745F74 
 4726      696D6500 
 4727              	.LASF15:
 4728 00f8 74737461 		.ascii	"tstate_t\000"
 4728      74655F74 
 4728      00
 4729              	.LASF120:
 4730 0101 5F746573 		.ascii	"_test_assert_time_window\000"
 4730      745F6173 
 4730      73657274 
 4730      5F74696D 
 4730      655F7769 
 4731              	.LASF111:
 4732 011a 63685365 		.ascii	"chSemSignal\000"
 4732      6D536967 
 4732      6E616C00 
 4733              	.LASF28:
 4734 0126 705F6E65 		.ascii	"p_newer\000"
 4734      77657200 
 4735              	.LASF66:
 4736 012e 735F7175 		.ascii	"s_queue\000"
 4736      65756500 
 4737              	.LASF114:
 4738 0136 63685363 		.ascii	"chSchRescheduleS\000"
 4738      68526573 
 4738      63686564 
 4738      756C6553 
 4738      00
 4739              	.LASF61:
 4740 0147 725F6E65 		.ascii	"r_newer\000"
 4740      77657200 
 4741              	.LASF45:
 4742 014f 72656761 		.ascii	"regarm_t\000"
 4742      726D5F74 
 4742      00
 4743              	.LASF52:
 4744 0158 76745F70 		.ascii	"vt_prev\000"
 4744      72657600 
 4745              	.LASF96:
 4746 0160 73656D31 		.ascii	"sem1\000"
 4746      00
 4747              	.LASF22:
 4748 0165 636E745F 		.ascii	"cnt_t\000"
 4748      7400
 4749              	.LASF0:
 4750 016b 756E7369 		.ascii	"unsigned int\000"
 4750      676E6564 
 4750      20696E74 
ARM GAS  C:\Users\LAB_ME~1\AppData\Local\Temp\ccLKfcip.s 			page 86


 4750      00
 4751              	.LASF119:
 4752 0178 63685365 		.ascii	"chSemWaitTimeout\000"
 4752      6D576169 
 4752      7454696D 
 4752      656F7574 
 4752      00
 4753              	.LASF51:
 4754 0189 76745F6E 		.ascii	"vt_next\000"
 4754      65787400 
 4755              	.LASF124:
 4756 0191 73656D33 		.ascii	"sem3_execute\000"
 4756      5F657865 
 4756      63757465 
 4756      00
 4757              	.LASF100:
 4758 019e 74657374 		.ascii	"testsem1\000"
 4758      73656D31 
 4758      00
 4759              	.LASF101:
 4760 01a7 74657374 		.ascii	"testsem2\000"
 4760      73656D32 
 4760      00
 4761              	.LASF102:
 4762 01b0 74657374 		.ascii	"testsem3\000"
 4762      73656D33 
 4762      00
 4763              	.LASF103:
 4764 01b9 74657374 		.ascii	"testsem4\000"
 4764      73656D34 
 4764      00
 4765              	.LASF10:
 4766 01c2 6C6F6E67 		.ascii	"long unsigned int\000"
 4766      20756E73 
 4766      69676E65 
 4766      6420696E 
 4766      7400
 4767              	.LASF83:
 4768 01d4 74656172 		.ascii	"teardown\000"
 4768      646F776E 
 4768      00
 4769              	.LASF81:
 4770 01dd 6E616D65 		.ascii	"name\000"
 4770      00
 4771              	.LASF67:
 4772 01e2 735F636E 		.ascii	"s_cnt\000"
 4772      7400
 4773              	.LASF47:
 4774 01e8 636F6E74 		.ascii	"context\000"
 4774      65787400 
 4775              	.LASF6:
 4776 01f0 73686F72 		.ascii	"short unsigned int\000"
 4776      7420756E 
 4776      7369676E 
 4776      65642069 
 4776      6E7400
 4777              	.LASF106:
ARM GAS  C:\Users\LAB_ME~1\AppData\Local\Temp\ccLKfcip.s 			page 87


 4778 0203 63685365 		.ascii	"chSemReset\000"
 4778      6D526573 
 4778      657400
 4779              	.LASF90:
 4780 020e 6273656D 		.ascii	"bsem\000"
 4780      00
 4781              	.LASF19:
 4782 0213 6D73675F 		.ascii	"msg_t\000"
 4782      7400
 4783              	.LASF14:
 4784 0219 746D6F64 		.ascii	"tmode_t\000"
 4784      655F7400 
 4785              	.LASF44:
 4786 0221 54687265 		.ascii	"ThreadsList\000"
 4786      6164734C 
 4786      69737400 
 4787              	.LASF20:
 4788 022d 6576656E 		.ascii	"eventmask_t\000"
 4788      746D6173 
 4788      6B5F7400 
 4789              	.LASF5:
 4790 0239 73686F72 		.ascii	"short int\000"
 4790      7420696E 
 4790      7400
 4791              	.LASF70:
 4792 0243 4D757465 		.ascii	"Mutex\000"
 4792      7800
 4793              	.LASF108:
 4794 0249 63685468 		.ascii	"chThdCreateStatic\000"
 4794      64437265 
 4794      61746553 
 4794      74617469 
 4794      6300
 4795              	.LASF89:
 4796 025b 73656D34 		.ascii	"sem4_execute\000"
 4796      5F657865 
 4796      63757465 
 4796      00
 4797              	.LASF53:
 4798 0268 76745F74 		.ascii	"vt_time\000"
 4798      696D6500 
 4799              	.LASF48:
 4800 0270 73697A65 		.ascii	"sizetype\000"
 4800      74797065 
 4800      00
 4801              	.LASF54:
 4802 0279 76745F66 		.ascii	"vt_func\000"
 4802      756E6300 
 4803              	.LASF88:
 4804 0281 73656D31 		.ascii	"sem1_setup\000"
 4804      5F736574 
 4804      757000
 4805              	.LASF115:
 4806 028c 74657374 		.ascii	"test_wait_threads\000"
 4806      5F776169 
 4806      745F7468 
 4806      72656164 
ARM GAS  C:\Users\LAB_ME~1\AppData\Local\Temp\ccLKfcip.s 			page 88


 4806      7300
 4807              	.LASF29:
 4808 029e 705F6F6C 		.ascii	"p_older\000"
 4808      64657200 
 4809              	.LASF93:
 4810 02a6 74687265 		.ascii	"thread1\000"
 4810      61643100 
 4811              	.LASF94:
 4812 02ae 74687265 		.ascii	"thread2\000"
 4812      61643200 
 4813              	.LASF60:
 4814 02b6 725F6374 		.ascii	"r_ctx\000"
 4814      7800
 4815              	.LASF91:
 4816 02bc 74687265 		.ascii	"thread4\000"
 4816      61643400 
 4817              	.LASF43:
 4818 02c4 54687265 		.ascii	"ThreadsQueue\000"
 4818      61647351 
 4818      75657565 
 4818      00
 4819              	.LASF82:
 4820 02d1 73657475 		.ascii	"setup\000"
 4820      7000
 4821              	.LASF116:
 4822 02d7 5F746573 		.ascii	"_test_assert_sequence\000"
 4822      745F6173 
 4822      73657274 
 4822      5F736571 
 4822      75656E63 
 4823              	.LASF121:
 4824 02ed 474E5520 		.ascii	"GNU C 4.7.2\000"
 4824      4320342E 
 4824      372E3200 
 4825              	.LASF63:
 4826 02f9 725F6375 		.ascii	"r_current\000"
 4826      7272656E 
 4826      7400
 4827              	.LASF62:
 4828 0303 725F6F6C 		.ascii	"r_older\000"
 4828      64657200 
 4829              	.LASF104:
 4830 030b 70617474 		.ascii	"patternsem\000"
 4830      65726E73 
 4830      656D00
 4831              	.LASF16:
 4832 0316 74726566 		.ascii	"trefs_t\000"
 4832      735F7400 
 4833              	.LASF25:
 4834 031e 705F7072 		.ascii	"p_prev\000"
 4834      657600
 4835              	.LASF84:
 4836 0325 65786563 		.ascii	"execute\000"
 4836      75746500 
 4837              	.LASF18:
 4838 032d 74707269 		.ascii	"tprio_t\000"
 4838      6F5F7400 
ARM GAS  C:\Users\LAB_ME~1\AppData\Local\Temp\ccLKfcip.s 			page 89


 4839              	.LASF7:
 4840 0335 696E7433 		.ascii	"int32_t\000"
 4840      325F7400 
 4841              	.LASF4:
 4842 033d 756E7369 		.ascii	"unsigned char\000"
 4842      676E6564 
 4842      20636861 
 4842      7200
 4843              	.LASF126:
 4844 034b 74657374 		.ascii	"test_wait_tick\000"
 4844      5F776169 
 4844      745F7469 
 4844      636B00
 4845              	.LASF40:
 4846 035a 705F6D74 		.ascii	"p_mtxlist\000"
 4846      786C6973 
 4846      7400
 4847              	.LASF122:
 4848 0364 2E2E2F2E 		.ascii	"../../test/testsem.c\000"
 4848      2E2F7465 
 4848      73742F74 
 4848      65737473 
 4848      656D2E63 
 4849              	.LASF31:
 4850 0379 705F7374 		.ascii	"p_state\000"
 4850      61746500 
 4851              	.LASF34:
 4852 0381 705F7072 		.ascii	"p_preempt\000"
 4852      65656D70 
 4852      7400
 4853              	.LASF99:
 4854 038b 74687265 		.ascii	"threads\000"
 4854      61647300 
 4855              	.LASF59:
 4856 0393 725F7072 		.ascii	"r_prio\000"
 4856      696F00
 4857              	.LASF77:
 4858 039a 65776D61 		.ascii	"ewmask\000"
 4858      736B00
 4859              	.LASF24:
 4860 03a1 705F6E65 		.ascii	"p_next\000"
 4860      787400
 4861              	.LASF32:
 4862 03a8 705F666C 		.ascii	"p_flags\000"
 4862      61677300 
 4863              	.LASF23:
 4864 03b0 54687265 		.ascii	"Thread\000"
 4864      616400
 4865              	.LASF80:
 4866 03b7 74657374 		.ascii	"testcase\000"
 4866      63617365 
 4866      00
 4867              	.LASF39:
 4868 03c0 705F6570 		.ascii	"p_epending\000"
 4868      656E6469 
 4868      6E6700
 4869              	.LASF95:
ARM GAS  C:\Users\LAB_ME~1\AppData\Local\Temp\ccLKfcip.s 			page 90


 4870 03cb 73656D31 		.ascii	"sem1_execute\000"
 4870      5F657865 
 4870      63757465 
 4870      00
 4871              	.LASF9:
 4872 03d8 75696E74 		.ascii	"uint32_t\000"
 4872      33325F74 
 4872      00
 4873              	.LASF58:
 4874 03e1 725F7175 		.ascii	"r_queue\000"
 4874      65756500 
 4875              	.LASF50:
 4876 03e9 56697274 		.ascii	"VirtualTimer\000"
 4876      75616C54 
 4876      696D6572 
 4876      00
 4877              	.LASF78:
 4878 03f6 63686172 		.ascii	"char\000"
 4878      00
 4879              	.LASF69:
 4880 03fb 42696E61 		.ascii	"BinarySemaphore\000"
 4880      72795365 
 4880      6D617068 
 4880      6F726500 
 4881              	.LASF73:
 4882 040b 6D5F6E65 		.ascii	"m_next\000"
 4882      787400
 4883              	.LASF21:
 4884 0412 73797374 		.ascii	"systime_t\000"
 4884      696D655F 
 4884      7400
 4885              	.LASF41:
 4886 041c 705F7265 		.ascii	"p_realprio\000"
 4886      616C7072 
 4886      696F00
 4887              	.LASF49:
 4888 0427 76746675 		.ascii	"vtfunc_t\000"
 4888      6E635F74 
 4888      00
 4889              	.LASF109:
 4890 0430 63685365 		.ascii	"chSemWait\000"
 4890      6D576169 
 4890      7400
 4891              	.LASF35:
 4892 043a 705F7469 		.ascii	"p_time\000"
 4892      6D6500
 4893              	.LASF46:
 4894 0441 696E7463 		.ascii	"intctx\000"
 4894      747800
 4895              	.LASF37:
 4896 0448 705F6D73 		.ascii	"p_msgqueue\000"
 4896      67717565 
 4896      756500
 4897              	.LASF55:
 4898 0453 76745F70 		.ascii	"vt_par\000"
 4898      617200
 4899              	.LASF65:
ARM GAS  C:\Users\LAB_ME~1\AppData\Local\Temp\ccLKfcip.s 			page 91


 4900 045a 53656D61 		.ascii	"Semaphore\000"
 4900      70686F72 
 4900      6500
 4901              	.LASF86:
 4902 0464 73656D33 		.ascii	"sem3_setup\000"
 4902      5F736574 
 4902      757000
 4903              	.LASF113:
 4904 046f 63685468 		.ascii	"chThdSleep\000"
 4904      64536C65 
 4904      657000
 4905              	.LASF33:
 4906 047a 705F7265 		.ascii	"p_refs\000"
 4906      667300
 4907              	.LASF64:
 4908 0481 52656164 		.ascii	"ReadyList\000"
 4908      794C6973 
 4908      7400
 4909              	.LASF98:
 4910 048b 726C6973 		.ascii	"rlist\000"
 4910      7400
 4911              	.LASF3:
 4912 0491 75696E74 		.ascii	"uint8_t\000"
 4912      385F7400 
 4913              	.LASF76:
 4914 0499 77746F62 		.ascii	"wtobjp\000"
 4914      6A7000
 4915              	.LASF30:
 4916 04a0 705F6E61 		.ascii	"p_name\000"
 4916      6D6500
 4917              	.LASF107:
 4918 04a7 5F746573 		.ascii	"_test_assert\000"
 4918      745F6173 
 4918      73657274 
 4918      00
 4919              	.LASF56:
 4920 04b4 76745F73 		.ascii	"vt_systime\000"
 4920      79737469 
 4920      6D6500
 4921              	.LASF68:
 4922 04bf 62735F73 		.ascii	"bs_sem\000"
 4922      656D00
 4923              	.LASF57:
 4924 04c6 56544C69 		.ascii	"VTList\000"
 4924      737400
 4925              	.LASF72:
 4926 04cd 6D5F6F77 		.ascii	"m_owner\000"
 4926      6E657200 
 4927              	.LASF123:
 4928 04d5 433A5C43 		.ascii	"C:\\Chibios\\demos\\FirmwareV2\000"
 4928      68696269 
 4928      6F735C64 
 4928      656D6F73 
 4928      5C466972 
 4929              	.LASF27:
 4930 04f1 705F6374 		.ascii	"p_ctx\000"
 4930      7800
ARM GAS  C:\Users\LAB_ME~1\AppData\Local\Temp\ccLKfcip.s 			page 92


 4931              	.LASF36:
 4932 04f7 705F7761 		.ascii	"p_waiting\000"
 4932      6974696E 
 4932      6700
 4933              	.LASF105:
 4934 0501 63685365 		.ascii	"chSemInit\000"
 4934      6D496E69 
 4934      7400
 4935              		.ident	"GCC: (Sourcery CodeBench Lite 2012.09-63) 4.7.2"
ARM GAS  C:\Users\LAB_ME~1\AppData\Local\Temp\ccLKfcip.s 			page 93


DEFINED SYMBOLS
                            *ABS*:00000000 testsem.c
C:\Users\LAB_ME~1\AppData\Local\Temp\ccLKfcip.s:19     .text.sem3_setup:00000000 $t
C:\Users\LAB_ME~1\AppData\Local\Temp\ccLKfcip.s:24     .text.sem3_setup:00000000 sem3_setup
C:\Users\LAB_ME~1\AppData\Local\Temp\ccLKfcip.s:42     .text.sem3_setup:00000008 $d
C:\Users\LAB_ME~1\AppData\Local\Temp\ccLKfcip.s:47     .text.sem2_setup:00000000 $t
C:\Users\LAB_ME~1\AppData\Local\Temp\ccLKfcip.s:52     .text.sem2_setup:00000000 sem2_setup
C:\Users\LAB_ME~1\AppData\Local\Temp\ccLKfcip.s:69     .text.sem2_setup:00000008 $d
C:\Users\LAB_ME~1\AppData\Local\Temp\ccLKfcip.s:74     .text.sem1_setup:00000000 $t
C:\Users\LAB_ME~1\AppData\Local\Temp\ccLKfcip.s:79     .text.sem1_setup:00000000 sem1_setup
C:\Users\LAB_ME~1\AppData\Local\Temp\ccLKfcip.s:96     .text.sem1_setup:00000008 $d
C:\Users\LAB_ME~1\AppData\Local\Temp\ccLKfcip.s:101    .text.sem4_execute:00000000 $t
C:\Users\LAB_ME~1\AppData\Local\Temp\ccLKfcip.s:106    .text.sem4_execute:00000000 sem4_execute
C:\Users\LAB_ME~1\AppData\Local\Temp\ccLKfcip.s:289    .text.sem4_execute:000000e8 $d
C:\Users\LAB_ME~1\AppData\Local\Temp\ccLKfcip.s:302    .text.thread4:00000000 thread4
C:\Users\LAB_ME~1\AppData\Local\Temp\ccLKfcip.s:297    .text.thread4:00000000 $t
C:\Users\LAB_ME~1\AppData\Local\Temp\ccLKfcip.s:355    .text.thread3:00000000 $t
C:\Users\LAB_ME~1\AppData\Local\Temp\ccLKfcip.s:360    .text.thread3:00000000 thread3
C:\Users\LAB_ME~1\AppData\Local\Temp\ccLKfcip.s:388    .text.thread3:00000014 $d
C:\Users\LAB_ME~1\AppData\Local\Temp\ccLKfcip.s:393    .text.thread1:00000000 $t
C:\Users\LAB_ME~1\AppData\Local\Temp\ccLKfcip.s:398    .text.thread1:00000000 thread1
C:\Users\LAB_ME~1\AppData\Local\Temp\ccLKfcip.s:427    .text.thread1:00000014 $d
C:\Users\LAB_ME~1\AppData\Local\Temp\ccLKfcip.s:432    .text.thread2:00000000 $t
C:\Users\LAB_ME~1\AppData\Local\Temp\ccLKfcip.s:437    .text.thread2:00000000 thread2
C:\Users\LAB_ME~1\AppData\Local\Temp\ccLKfcip.s:487    .text.thread2:00000024 $d
C:\Users\LAB_ME~1\AppData\Local\Temp\ccLKfcip.s:492    .text.sem1_execute:00000000 $t
C:\Users\LAB_ME~1\AppData\Local\Temp\ccLKfcip.s:497    .text.sem1_execute:00000000 sem1_execute
C:\Users\LAB_ME~1\AppData\Local\Temp\ccLKfcip.s:692    .text.sem1_execute:00000120 $d
C:\Users\LAB_ME~1\AppData\Local\Temp\ccLKfcip.s:707    .text.sem3_execute:00000000 $t
C:\Users\LAB_ME~1\AppData\Local\Temp\ccLKfcip.s:712    .text.sem3_execute:00000000 sem3_execute
C:\Users\LAB_ME~1\AppData\Local\Temp\ccLKfcip.s:813    .text.sem3_execute:0000008c $d
C:\Users\LAB_ME~1\AppData\Local\Temp\ccLKfcip.s:824    .text.sem2_execute:00000000 $t
C:\Users\LAB_ME~1\AppData\Local\Temp\ccLKfcip.s:829    .text.sem2_execute:00000000 sem2_execute
C:\Users\LAB_ME~1\AppData\Local\Temp\ccLKfcip.s:1023   .text.sem2_execute:00000134 $d
C:\Users\LAB_ME~1\AppData\Local\Temp\ccLKfcip.s:1089   .rodata.patternsem:00000000 patternsem
C:\Users\LAB_ME~1\AppData\Local\Temp\ccLKfcip.s:1071   .rodata.testsem4:00000000 testsem4
C:\Users\LAB_ME~1\AppData\Local\Temp\ccLKfcip.s:1062   .rodata.testsem3:00000000 testsem3
C:\Users\LAB_ME~1\AppData\Local\Temp\ccLKfcip.s:1053   .rodata.testsem2:00000000 testsem2
C:\Users\LAB_ME~1\AppData\Local\Temp\ccLKfcip.s:1044   .rodata.testsem1:00000000 testsem1
C:\Users\LAB_ME~1\AppData\Local\Temp\ccLKfcip.s:1041   .rodata.testsem1:00000000 $d
C:\Users\LAB_ME~1\AppData\Local\Temp\ccLKfcip.s:1050   .rodata.testsem2:00000000 $d
C:\Users\LAB_ME~1\AppData\Local\Temp\ccLKfcip.s:1059   .rodata.testsem3:00000000 $d
C:\Users\LAB_ME~1\AppData\Local\Temp\ccLKfcip.s:1068   .rodata.testsem4:00000000 $d
C:\Users\LAB_ME~1\AppData\Local\Temp\ccLKfcip.s:1077   .data.sem1:00000000 $d
C:\Users\LAB_ME~1\AppData\Local\Temp\ccLKfcip.s:1081   .data.sem1:00000000 sem1
C:\Users\LAB_ME~1\AppData\Local\Temp\ccLKfcip.s:1086   .rodata.patternsem:00000000 $d
C:\Users\LAB_ME~1\AppData\Local\Temp\ccLKfcip.s:1096   .rodata.str1.4:00000000 $d
                     .debug_frame:00000010 $d
C:\Users\LAB_ME~1\AppData\Local\Temp\ccLKfcip.s:46     .text.sem3_setup:0000000c $t
C:\Users\LAB_ME~1\AppData\Local\Temp\ccLKfcip.s:73     .text.sem2_setup:0000000c $t
C:\Users\LAB_ME~1\AppData\Local\Temp\ccLKfcip.s:100    .text.sem1_setup:0000000c $t
C:\Users\LAB_ME~1\AppData\Local\Temp\ccLKfcip.s:296    .text.sem4_execute:000000f8 $t
C:\Users\LAB_ME~1\AppData\Local\Temp\ccLKfcip.s:392    .text.thread3:00000018 $t
C:\Users\LAB_ME~1\AppData\Local\Temp\ccLKfcip.s:431    .text.thread1:00000018 $t
C:\Users\LAB_ME~1\AppData\Local\Temp\ccLKfcip.s:491    .text.thread2:00000028 $t
C:\Users\LAB_ME~1\AppData\Local\Temp\ccLKfcip.s:706    .text.sem1_execute:0000014c $t

ARM GAS  C:\Users\LAB_ME~1\AppData\Local\Temp\ccLKfcip.s 			page 94


UNDEFINED SYMBOLS
chSemInit
chSemReset
_test_assert
chThdCreateStatic
chSemWait
chSchRescheduleS
chSemSignalI
rlist
wa
threads
chSemSignal
test_emit_token
chThdSleep
test_wait_threads
_test_assert_sequence
chSemAddCounterI
chSemSignalWait
chSemWaitTimeout
test_wait_tick
_test_assert_time_window
vtlist
