ARM GAS  C:\Users\LAB_ME~1\AppData\Local\Temp\cc0JaZEN.s 			page 1


   1              		.syntax unified
   2              		.cpu cortex-m4
   3              		.fpu softvfp
   4              		.eabi_attribute 20, 1
   5              		.eabi_attribute 21, 1
   6              		.eabi_attribute 23, 3
   7              		.eabi_attribute 24, 1
   8              		.eabi_attribute 25, 1
   9              		.eabi_attribute 26, 1
  10              		.eabi_attribute 30, 2
  11              		.eabi_attribute 34, 1
  12              		.eabi_attribute 18, 4
  13              		.thumb
  14              		.file	"testqueues.c"
  15              		.text
  16              	.Ltext0:
  17              		.cfi_sections	.debug_frame
  18              		.section	.text.notify,"ax",%progbits
  19              		.align	2
  20              		.p2align 4,,15
  21              		.thumb
  22              		.thumb_func
  23              		.type	notify, %function
  24              	notify:
  25              	.LFB7:
  26              		.file 1 "../../test/testqueues.c"
  27              		.loc 1 61 0
  28              		.cfi_startproc
  29              		@ args = 0, pretend = 0, frame = 0
  30              		@ frame_needed = 0, uses_anonymous_args = 0
  31              		@ link register save eliminated.
  32              	.LVL0:
  33 0000 7047     		bx	lr
  34              		.cfi_endproc
  35              	.LFE7:
  36              		.size	notify, .-notify
  37 0002 00BFAFF3 		.section	.text.thread2,"ax",%progbits
  37      0080AFF3 
  37      0080AFF3 
  37      0080
  38              		.align	2
  39              		.p2align 4,,15
  40              		.thumb
  41              		.thumb_func
  42              		.type	thread2, %function
  43              	thread2:
  44              	.LFB12:
  45              		.loc 1 174 0
  46              		.cfi_startproc
  47              		@ args = 0, pretend = 0, frame = 0
  48              		@ frame_needed = 0, uses_anonymous_args = 0
  49              	.LVL1:
  50              		.loc 1 174 0
  51 0000 08B5     		push	{r3, lr}
  52              	.LCFI0:
  53              		.cfi_def_cfa_offset 8
  54              		.cfi_offset 3, -8
ARM GAS  C:\Users\LAB_ME~1\AppData\Local\Temp\cc0JaZEN.s 			page 2


  55              		.cfi_offset 14, -4
  56              		.loc 1 177 0
  57 0002 0021     		movs	r1, #0
  58 0004 C822     		movs	r2, #200
  59 0006 0248     		ldr	r0, .L3
  60              	.LVL2:
  61 0008 FFF7FEFF 		bl	chOQPutTimeout
  62              	.LVL3:
  63              		.loc 1 179 0
  64 000c 0020     		movs	r0, #0
  65 000e 08BD     		pop	{r3, pc}
  66              	.L4:
  67              		.align	2
  68              	.L3:
  69 0010 00000000 		.word	.LANCHOR0
  70              		.cfi_endproc
  71              	.LFE12:
  72              		.size	thread2, .-thread2
  73 0014 AFF30080 		.section	.text.queues2_setup,"ax",%progbits
  73      AFF30080 
  73      AFF30080 
  74              		.align	2
  75              		.p2align 4,,15
  76              		.thumb
  77              		.thumb_func
  78              		.type	queues2_setup, %function
  79              	queues2_setup:
  80              	.LFB11:
  81              		.loc 1 169 0
  82              		.cfi_startproc
  83              		@ args = 0, pretend = 0, frame = 0
  84              		@ frame_needed = 0, uses_anonymous_args = 0
  85 0000 00B5     		push	{lr}
  86              	.LCFI1:
  87              		.cfi_def_cfa_offset 4
  88              		.cfi_offset 14, -4
  89              		.loc 1 171 0
  90 0002 064B     		ldr	r3, .L6
  91 0004 0648     		ldr	r0, .L6+4
  92 0006 1968     		ldr	r1, [r3, #0]
  93 0008 064B     		ldr	r3, .L6+8
  94              		.loc 1 169 0
  95 000a 83B0     		sub	sp, sp, #12
  96              	.LCFI2:
  97              		.cfi_def_cfa_offset 16
  98              		.loc 1 171 0
  99 000c 0022     		movs	r2, #0
 100 000e 0092     		str	r2, [sp, #0]
 101 0010 0422     		movs	r2, #4
 102 0012 FFF7FEFF 		bl	chOQInit
 103              	.LVL4:
 104              		.loc 1 172 0
 105 0016 03B0     		add	sp, sp, #12
 106 0018 00BD     		pop	{pc}
 107              	.L7:
 108 001a 00BF     		.align	2
 109              	.L6:
ARM GAS  C:\Users\LAB_ME~1\AppData\Local\Temp\cc0JaZEN.s 			page 3


 110 001c 00000000 		.word	wa
 111 0020 00000000 		.word	.LANCHOR0
 112 0024 00000000 		.word	notify
 113              		.cfi_endproc
 114              	.LFE11:
 115              		.size	queues2_setup, .-queues2_setup
 116 0028 AFF30080 		.section	.text.thread1,"ax",%progbits
 116      AFF30080 
 117              		.align	2
 118              		.p2align 4,,15
 119              		.thumb
 120              		.thumb_func
 121              		.type	thread1, %function
 122              	thread1:
 123              	.LFB9:
 124              		.loc 1 87 0
 125              		.cfi_startproc
 126              		@ args = 0, pretend = 0, frame = 0
 127              		@ frame_needed = 0, uses_anonymous_args = 0
 128              	.LVL5:
 129 0000 08B5     		push	{r3, lr}
 130              	.LCFI3:
 131              		.cfi_def_cfa_offset 8
 132              		.cfi_offset 3, -8
 133              		.cfi_offset 14, -4
 134              		.loc 1 90 0
 135 0002 C821     		movs	r1, #200
 136 0004 0248     		ldr	r0, .L9
 137              	.LVL6:
 138 0006 FFF7FEFF 		bl	chIQGetTimeout
 139              	.LVL7:
 140              		.loc 1 92 0
 141 000a 0020     		movs	r0, #0
 142 000c 08BD     		pop	{r3, pc}
 143              	.L10:
 144 000e 00BF     		.align	2
 145              	.L9:
 146 0010 00000000 		.word	.LANCHOR1
 147              		.cfi_endproc
 148              	.LFE9:
 149              		.size	thread1, .-thread1
 150 0014 AFF30080 		.section	.text.queues1_setup,"ax",%progbits
 150      AFF30080 
 150      AFF30080 
 151              		.align	2
 152              		.p2align 4,,15
 153              		.thumb
 154              		.thumb_func
 155              		.type	queues1_setup, %function
 156              	queues1_setup:
 157              	.LFB8:
 158              		.loc 1 82 0
 159              		.cfi_startproc
 160              		@ args = 0, pretend = 0, frame = 0
 161              		@ frame_needed = 0, uses_anonymous_args = 0
 162 0000 00B5     		push	{lr}
 163              	.LCFI4:
ARM GAS  C:\Users\LAB_ME~1\AppData\Local\Temp\cc0JaZEN.s 			page 4


 164              		.cfi_def_cfa_offset 4
 165              		.cfi_offset 14, -4
 166              		.loc 1 84 0
 167 0002 064B     		ldr	r3, .L12
 168 0004 0648     		ldr	r0, .L12+4
 169 0006 1968     		ldr	r1, [r3, #0]
 170 0008 064B     		ldr	r3, .L12+8
 171              		.loc 1 82 0
 172 000a 83B0     		sub	sp, sp, #12
 173              	.LCFI5:
 174              		.cfi_def_cfa_offset 16
 175              		.loc 1 84 0
 176 000c 0022     		movs	r2, #0
 177 000e 0092     		str	r2, [sp, #0]
 178 0010 0422     		movs	r2, #4
 179 0012 FFF7FEFF 		bl	chIQInit
 180              	.LVL8:
 181              		.loc 1 85 0
 182 0016 03B0     		add	sp, sp, #12
 183 0018 00BD     		pop	{pc}
 184              	.L13:
 185 001a 00BF     		.align	2
 186              	.L12:
 187 001c 00000000 		.word	wa
 188 0020 00000000 		.word	.LANCHOR1
 189 0024 00000000 		.word	notify
 190              		.cfi_endproc
 191              	.LFE8:
 192              		.size	queues1_setup, .-queues1_setup
 193 0028 AFF30080 		.section	.text.queues2_execute,"ax",%progbits
 193      AFF30080 
 194              		.align	2
 195              		.p2align 4,,15
 196              		.thumb
 197              		.thumb_func
 198              		.type	queues2_execute, %function
 199              	queues2_execute:
 200              	.LFB13:
 201              		.loc 1 181 0
 202              		.cfi_startproc
 203              		@ args = 0, pretend = 0, frame = 0
 204              		@ frame_needed = 0, uses_anonymous_args = 0
 205 0000 2DE9F041 		push	{r4, r5, r6, r7, r8, lr}
 206              	.LCFI6:
 207              		.cfi_def_cfa_offset 24
 208              		.cfi_offset 4, -24
 209              		.cfi_offset 5, -20
 210              		.cfi_offset 6, -16
 211              		.cfi_offset 7, -12
 212              		.cfi_offset 8, -8
 213              		.cfi_offset 14, -4
 214              	.LBB96:
 215              		.loc 1 186 0
 216 0004 2023     		movs	r3, #32
 217              	.LVL9:
 218              	.LBE96:
 219              		.loc 1 181 0
ARM GAS  C:\Users\LAB_ME~1\AppData\Local\Temp\cc0JaZEN.s 			page 5


 220 0006 82B0     		sub	sp, sp, #8
 221              	.LCFI7:
 222              		.cfi_def_cfa_offset 32
 223              	.LBB97:
 224              		.loc 1 186 0
 225              	@ 186 "../../test/testqueues.c" 1
 226 0008 83F31188 		msr     BASEPRI, r3
 227              	@ 0 "" 2
 228              	.LVL10:
 229              		.thumb
 230              	.LBE97:
 231 000c 904B     		ldr	r3, .L39
 232              	.LVL11:
 233 000e 5969     		ldr	r1, [r3, #20]
 234 0010 9A69     		ldr	r2, [r3, #24]
 235 0012 9142     		cmp	r1, r2
 236 0014 62D0     		beq	.L37
 237 0016 0021     		movs	r1, #0
 238              	.L15:
 239              		.loc 1 186 0 is_stmt 0 discriminator 4
 240 0018 0120     		movs	r0, #1
 241 001a FFF7FEFF 		bl	_test_assert
 242              	.LVL12:
 243 001e 0028     		cmp	r0, #0
 244 0020 39D1     		bne	.L35
 245              	.LBB98:
 246              	.LBB99:
 247              	.LBB100:
 248              		.loc 1 186 0
 249 0022 0346     		mov	r3, r0
 250              	.LVL13:
 251              	@ 186 "../../test/testqueues.c" 1
 252 0024 83F31188 		msr     BASEPRI, r3
 253              	@ 0 "" 2
 254              	.LVL14:
 255              		.thumb
 256 0028 4124     		movs	r4, #65
 257              	.LVL15:
 258              	.L18:
 259              	.LBE100:
 260              		.loc 1 190 0 is_stmt 1
 261 002a 894D     		ldr	r5, .L39
 262 002c 2146     		mov	r1, r4
 263 002e 0134     		adds	r4, r4, #1
 264 0030 2846     		mov	r0, r5
 265 0032 4FF0FF32 		mov	r2, #-1
 266 0036 E4B2     		uxtb	r4, r4
 267 0038 FFF7FEFF 		bl	chOQPutTimeout
 268              	.LVL16:
 269              		.loc 1 189 0
 270 003c 452C     		cmp	r4, #69
 271 003e F4D1     		bne	.L18
 272              	.LBB101:
 273              		.loc 1 191 0
 274 0040 2023     		movs	r3, #32
 275              	.LVL17:
 276              	@ 191 "../../test/testqueues.c" 1
ARM GAS  C:\Users\LAB_ME~1\AppData\Local\Temp\cc0JaZEN.s 			page 6


 277 0042 83F31188 		msr     BASEPRI, r3
 278              	@ 0 "" 2
 279              	.LVL18:
 280              		.thumb
 281              	.LBE101:
 282 0046 A968     		ldr	r1, [r5, #8]
 283 0048 0220     		movs	r0, #2
 284 004a D1F10101 		rsbs	r1, r1, #1
 285 004e 38BF     		it	cc
 286 0050 0021     		movcc	r1, #0
 287 0052 FFF7FEFF 		bl	_test_assert
 288              	.LVL19:
 289 0056 F0B9     		cbnz	r0, .L35
 290              	.LBB102:
 291 0058 0346     		mov	r3, r0
 292              	.LVL20:
 293              	@ 191 "../../test/testqueues.c" 1
 294 005a 83F31188 		msr     BASEPRI, r3
 295              	@ 0 "" 2
 296              	.LVL21:
 297              		.thumb
 298 005e 0424     		movs	r4, #4
 299              	.LVL22:
 300              	.L20:
 301              	.LBE102:
 302              	.LBB103:
 303              	.LBB104:
 304              		.loc 1 197 0
 305 0060 2023     		movs	r3, #32
 306              	.LVL23:
 307              	@ 197 "../../test/testqueues.c" 1
 308 0062 83F31188 		msr     BASEPRI, r3
 309              	@ 0 "" 2
 310              	.LVL24:
 311              		.thumb
 312              	.LBE104:
 313              		.loc 1 198 0
 314 0066 7A4D     		ldr	r5, .L39
 315 0068 2846     		mov	r0, r5
 316 006a FFF7FEFF 		bl	chOQGetI
 317              	.LVL25:
 318              	.LBB105:
 319              		.loc 1 199 0
 320 006e 0023     		movs	r3, #0
 321              	.LVL26:
 322              	@ 199 "../../test/testqueues.c" 1
 323 0070 83F31188 		msr     BASEPRI, r3
 324              	@ 0 "" 2
 325              	.LVL27:
 326              		.thumb
 327              	.LBE105:
 328              		.loc 1 200 0
 329 0074 C0B2     		uxtb	r0, r0
 330              	.LVL28:
 331 0076 FFF7FEFF 		bl	test_emit_token
 332              	.LVL29:
 333              	.LBE103:
ARM GAS  C:\Users\LAB_ME~1\AppData\Local\Temp\cc0JaZEN.s 			page 7


 334              		.loc 1 194 0
 335 007a 013C     		subs	r4, r4, #1
 336 007c F0D1     		bne	.L20
 337              	.LBB106:
 338              		.loc 1 202 0
 339 007e 2023     		movs	r3, #32
 340              	.LVL30:
 341              	@ 202 "../../test/testqueues.c" 1
 342 0080 83F31188 		msr     BASEPRI, r3
 343              	@ 0 "" 2
 344              	.LVL31:
 345              		.thumb
 346              	.LBE106:
 347 0084 6A69     		ldr	r2, [r5, #20]
 348 0086 AB69     		ldr	r3, [r5, #24]
 349              	.LVL32:
 350 0088 9A42     		cmp	r2, r3
 351 008a 2CD0     		beq	.L38
 352 008c 2146     		mov	r1, r4
 353              	.L21:
 354 008e 0320     		movs	r0, #3
 355 0090 FFF7FEFF 		bl	_test_assert
 356              	.LVL33:
 357 0094 28B1     		cbz	r0, .L22
 358              	.L35:
 359              	.LBB107:
 360 0096 0023     		movs	r3, #0
 361              	.LVL34:
 362              	@ 202 "../../test/testqueues.c" 1
 363 0098 83F31188 		msr     BASEPRI, r3
 364              	@ 0 "" 2
 365              	.LVL35:
 366              		.thumb
 367              	.L14:
 368              	.LBE107:
 369              	.LBE99:
 370              	.LBE98:
 371              		.loc 1 229 0
 372 009c 02B0     		add	sp, sp, #8
 373 009e BDE8F081 		pop	{r4, r5, r6, r7, r8, pc}
 374              	.LVL36:
 375              	.L22:
 376              	.LBB129:
 377              	.LBB126:
 378              	.LBB108:
 379              		.loc 1 202 0
 380 00a2 0346     		mov	r3, r0
 381              	.LVL37:
 382              	@ 202 "../../test/testqueues.c" 1
 383 00a4 83F31188 		msr     BASEPRI, r3
 384              	@ 0 "" 2
 385              	.LVL38:
 386              		.thumb
 387              	.LBE108:
 388              		.loc 1 203 0
 389 00a8 0420     		movs	r0, #4
 390 00aa 6A49     		ldr	r1, .L39+4
ARM GAS  C:\Users\LAB_ME~1\AppData\Local\Temp\cc0JaZEN.s 			page 8


 391 00ac FFF7FEFF 		bl	_test_assert_sequence
 392              	.LVL39:
 393 00b0 0446     		mov	r4, r0
 394 00b2 0028     		cmp	r0, #0
 395 00b4 F2D1     		bne	.L14
 396              	.LBB109:
 397              		.loc 1 204 0
 398 00b6 2023     		movs	r3, #32
 399              	.LVL40:
 400              	@ 204 "../../test/testqueues.c" 1
 401 00b8 83F31188 		msr     BASEPRI, r3
 402              	@ 0 "" 2
 403              	.LVL41:
 404              		.thumb
 405              	.LBE109:
 406 00bc 644D     		ldr	r5, .L39
 407 00be 2846     		mov	r0, r5
 408 00c0 FFF7FEFF 		bl	chOQGetI
 409              	.LVL42:
 410 00c4 0330     		adds	r0, r0, #3
 411 00c6 14BF     		ite	ne
 412 00c8 0021     		movne	r1, #0
 413 00ca 0121     		moveq	r1, #1
 414 00cc 0520     		movs	r0, #5
 415 00ce FFF7FEFF 		bl	_test_assert
 416              	.LVL43:
 417 00d2 68B1     		cbz	r0, .L24
 418              	.LBB110:
 419 00d4 2346     		mov	r3, r4
 420              	@ 204 "../../test/testqueues.c" 1
 421 00d6 83F31188 		msr     BASEPRI, r3
 422              	@ 0 "" 2
 423              	.LVL44:
 424              		.thumb
 425 00da DFE7     		b	.L14
 426              	.LVL45:
 427              	.L37:
 428              	.LBE110:
 429              	.LBE126:
 430              	.LBE129:
 431              		.loc 1 186 0 discriminator 1
 432 00dc 9968     		ldr	r1, [r3, #8]
 433 00de 0031     		adds	r1, r1, #0
 434 00e0 18BF     		it	ne
 435 00e2 0121     		movne	r1, #1
 436 00e4 98E7     		b	.L15
 437              	.L38:
 438              	.LBB130:
 439              	.LBB127:
 440              		.loc 1 202 0
 441 00e6 A968     		ldr	r1, [r5, #8]
 442 00e8 0031     		adds	r1, r1, #0
 443 00ea 18BF     		it	ne
 444 00ec 0121     		movne	r1, #1
 445 00ee CEE7     		b	.L21
 446              	.L24:
 447              	.LBB111:
ARM GAS  C:\Users\LAB_ME~1\AppData\Local\Temp\cc0JaZEN.s 			page 9


 448              		.loc 1 204 0
 449 00f0 0346     		mov	r3, r0
 450              	.LVL46:
 451              	@ 204 "../../test/testqueues.c" 1
 452 00f2 83F31188 		msr     BASEPRI, r3
 453              	@ 0 "" 2
 454              	.LVL47:
 455              		.thumb
 456              	.LBE111:
 457              		.loc 1 207 0
 458 00f6 584E     		ldr	r6, .L39+8
 459 00f8 7468     		ldr	r4, [r6, #4]
 460 00fa 0822     		movs	r2, #8
 461 00fc 2146     		mov	r1, r4
 462 00fe 2846     		mov	r0, r5
 463 0100 FFF7FEFF 		bl	chOQWriteTimeout
 464              	.LVL48:
 465              		.loc 1 208 0
 466 0104 031F     		subs	r3, r0, #4
 467 0106 5942     		rsbs	r1, r3, #0
 468 0108 5941     		adcs	r1, r1, r3
 469 010a 0620     		movs	r0, #6
 470              	.LVL49:
 471 010c FFF7FEFF 		bl	_test_assert
 472              	.LVL50:
 473 0110 0746     		mov	r7, r0
 474 0112 0028     		cmp	r0, #0
 475 0114 C2D1     		bne	.L14
 476              	.LBB112:
 477              		.loc 1 209 0
 478 0116 2023     		movs	r3, #32
 479              	.LVL51:
 480              	@ 209 "../../test/testqueues.c" 1
 481 0118 83F31188 		msr     BASEPRI, r3
 482              	@ 0 "" 2
 483              	.LVL52:
 484              		.thumb
 485              	.LBE112:
 486 011c A968     		ldr	r1, [r5, #8]
 487 011e 0720     		movs	r0, #7
 488 0120 D1F10101 		rsbs	r1, r1, #1
 489 0124 38BF     		it	cc
 490 0126 0021     		movcc	r1, #0
 491 0128 FFF7FEFF 		bl	_test_assert
 492              	.LVL53:
 493 012c 8046     		mov	r8, r0
 494 012e 18B1     		cbz	r0, .L26
 495              	.LBB113:
 496 0130 3B46     		mov	r3, r7
 497              	@ 209 "../../test/testqueues.c" 1
 498 0132 83F31188 		msr     BASEPRI, r3
 499              	@ 0 "" 2
 500              	.LVL54:
 501              		.thumb
 502 0136 B1E7     		b	.L14
 503              	.LVL55:
 504              	.L26:
ARM GAS  C:\Users\LAB_ME~1\AppData\Local\Temp\cc0JaZEN.s 			page 10


 505              	.LBE113:
 506              	.LBB114:
 507 0138 0346     		mov	r3, r0
 508              	.LVL56:
 509              	@ 209 "../../test/testqueues.c" 1
 510 013a 83F31188 		msr     BASEPRI, r3
 511              	@ 0 "" 2
 512              	.LVL57:
 513              		.thumb
 514              	.LBE114:
 515              		.loc 1 210 0
 516 013e 474B     		ldr	r3, .L39+12
 517              	.LVL58:
 518 0140 3068     		ldr	r0, [r6, #0]
 519 0142 9A69     		ldr	r2, [r3, #24]
 520 0144 464B     		ldr	r3, .L39+16
 521 0146 9268     		ldr	r2, [r2, #8]
 522 0148 CDF80080 		str	r8, [sp, #0]
 523 014c 0132     		adds	r2, r2, #1
 524 014e 4FF49871 		mov	r1, #304
 525 0152 FFF7FEFF 		bl	chThdCreateStatic
 526              	.LVL59:
 527 0156 434A     		ldr	r2, .L39+20
 528              	.LBB115:
 529              		.loc 1 211 0
 530 0158 2023     		movs	r3, #32
 531              	.LVL60:
 532              	.LBE115:
 533              		.loc 1 210 0
 534 015a 1060     		str	r0, [r2, #0]
 535              	.LBB116:
 536              		.loc 1 211 0
 537              	@ 211 "../../test/testqueues.c" 1
 538 015c 83F31188 		msr     BASEPRI, r3
 539              	@ 0 "" 2
 540              	.LVL61:
 541              		.thumb
 542              	.LBE116:
 543 0160 2969     		ldr	r1, [r5, #16]
 544 0162 EA68     		ldr	r2, [r5, #12]
 545 0164 AB68     		ldr	r3, [r5, #8]
 546              	.LVL62:
 547 0166 8A1A     		subs	r2, r1, r2
 548 0168 D11A     		subs	r1, r2, r3
 549 016a 0820     		movs	r0, #8
 550 016c B1F1040C 		subs	ip, r1, #4
 551 0170 DCF10001 		rsbs	r1, ip, #0
 552 0174 51EB0C01 		adcs	r1, r1, ip
 553 0178 FFF7FEFF 		bl	_test_assert
 554              	.LVL63:
 555 017c 0646     		mov	r6, r0
 556 017e 18B1     		cbz	r0, .L27
 557              	.LBB117:
 558 0180 4346     		mov	r3, r8
 559              	@ 211 "../../test/testqueues.c" 1
 560 0182 83F31188 		msr     BASEPRI, r3
 561              	@ 0 "" 2
ARM GAS  C:\Users\LAB_ME~1\AppData\Local\Temp\cc0JaZEN.s 			page 11


 562              	.LVL64:
 563              		.thumb
 564 0186 89E7     		b	.L14
 565              	.LVL65:
 566              	.L27:
 567              	.LBE117:
 568              	.LBB118:
 569 0188 0346     		mov	r3, r0
 570              	.LVL66:
 571              	@ 211 "../../test/testqueues.c" 1
 572 018a 83F31188 		msr     BASEPRI, r3
 573              	@ 0 "" 2
 574              	.LVL67:
 575              		.thumb
 576              	.LBE118:
 577              		.loc 1 212 0
 578 018e FFF7FEFF 		bl	test_wait_threads
 579              	.LVL68:
 580              	.LBB119:
 581              		.loc 1 215 0
 582 0192 2023     		movs	r3, #32
 583              	.LVL69:
 584              	@ 215 "../../test/testqueues.c" 1
 585 0194 83F31188 		msr     BASEPRI, r3
 586              	@ 0 "" 2
 587              	.LVL70:
 588              		.thumb
 589              	.LBE119:
 590              		.loc 1 216 0
 591 0198 2846     		mov	r0, r5
 592 019a FFF7FEFF 		bl	chOQResetI
 593              	.LVL71:
 594              	.LBB120:
 595              		.loc 1 217 0
 596 019e 3346     		mov	r3, r6
 597              	.LVL72:
 598              	@ 217 "../../test/testqueues.c" 1
 599 01a0 83F31188 		msr     BASEPRI, r3
 600              	@ 0 "" 2
 601              	.LVL73:
 602              		.thumb
 603              	.LBE120:
 604              	.LBB121:
 605              		.loc 1 218 0
 606 01a4 2023     		movs	r3, #32
 607              	.LVL74:
 608              	@ 218 "../../test/testqueues.c" 1
 609 01a6 83F31188 		msr     BASEPRI, r3
 610              	@ 0 "" 2
 611              	.LVL75:
 612              		.thumb
 613              	.LBE121:
 614 01aa 2969     		ldr	r1, [r5, #16]
 615 01ac EA68     		ldr	r2, [r5, #12]
 616 01ae AB68     		ldr	r3, [r5, #8]
 617              	.LVL76:
 618 01b0 891A     		subs	r1, r1, r2
ARM GAS  C:\Users\LAB_ME~1\AppData\Local\Temp\cc0JaZEN.s 			page 12


 619 01b2 0920     		movs	r0, #9
 620 01b4 B1EB030E 		subs	lr, r1, r3
 621 01b8 DEF10001 		rsbs	r1, lr, #0
 622 01bc 51EB0E01 		adcs	r1, r1, lr
 623 01c0 FFF7FEFF 		bl	_test_assert
 624              	.LVL77:
 625 01c4 0346     		mov	r3, r0
 626 01c6 18B1     		cbz	r0, .L28
 627              	.LBB122:
 628 01c8 3346     		mov	r3, r6
 629              	@ 218 "../../test/testqueues.c" 1
 630 01ca 83F31188 		msr     BASEPRI, r3
 631              	@ 0 "" 2
 632              	.LVL78:
 633              		.thumb
 634 01ce 65E7     		b	.L14
 635              	.LVL79:
 636              	.L28:
 637              	.LBE122:
 638              	.LBB123:
 639              	@ 218 "../../test/testqueues.c" 1
 640 01d0 83F31188 		msr     BASEPRI, r3
 641              	@ 0 "" 2
 642              	.LVL80:
 643              		.thumb
 644              	.LBE123:
 645              		.loc 1 221 0
 646 01d4 0222     		movs	r2, #2
 647 01d6 2146     		mov	r1, r4
 648 01d8 2846     		mov	r0, r5
 649 01da FFF7FEFF 		bl	chOQWriteTimeout
 650              	.LVL81:
 651              		.loc 1 222 0
 652 01de 0238     		subs	r0, r0, #2
 653              	.LVL82:
 654 01e0 4142     		rsbs	r1, r0, #0
 655 01e2 4141     		adcs	r1, r1, r0
 656 01e4 0A20     		movs	r0, #10
 657              	.LVL83:
 658 01e6 FFF7FEFF 		bl	_test_assert
 659              	.LVL84:
 660 01ea 0346     		mov	r3, r0
 661 01ec 0028     		cmp	r0, #0
 662 01ee 7FF455AF 		bne	.L14
 663              		.loc 1 223 0
 664 01f2 2146     		mov	r1, r4
 665 01f4 0222     		movs	r2, #2
 666 01f6 2846     		mov	r0, r5
 667 01f8 FFF7FEFF 		bl	chOQWriteTimeout
 668              	.LVL85:
 669              		.loc 1 224 0
 670 01fc 821E     		subs	r2, r0, #2
 671 01fe 5142     		rsbs	r1, r2, #0
 672 0200 5141     		adcs	r1, r1, r2
 673 0202 0B20     		movs	r0, #11
 674              	.LVL86:
 675 0204 FFF7FEFF 		bl	_test_assert
ARM GAS  C:\Users\LAB_ME~1\AppData\Local\Temp\cc0JaZEN.s 			page 13


 676              	.LVL87:
 677 0208 0028     		cmp	r0, #0
 678 020a 7FF447AF 		bne	.L14
 679              	.LBB124:
 680              		.loc 1 225 0
 681 020e 2023     		movs	r3, #32
 682              	.LVL88:
 683              	@ 225 "../../test/testqueues.c" 1
 684 0210 83F31188 		msr     BASEPRI, r3
 685              	@ 0 "" 2
 686              	.LVL89:
 687              		.thumb
 688              	.LBE124:
 689 0214 A968     		ldr	r1, [r5, #8]
 690 0216 0C20     		movs	r0, #12
 691 0218 D1F10101 		rsbs	r1, r1, #1
 692 021c 38BF     		it	cc
 693 021e 0021     		movcc	r1, #0
 694 0220 FFF7FEFF 		bl	_test_assert
 695              	.LVL90:
 696              	.LBB125:
 697 0224 0023     		movs	r3, #0
 698              	@ 225 "../../test/testqueues.c" 1
 699 0226 83F31188 		msr     BASEPRI, r3
 700              	@ 0 "" 2
 701              	.LVL91:
 702              		.thumb
 703              	.LBE125:
 704 022a 0028     		cmp	r0, #0
 705 022c 7FF436AF 		bne	.L14
 706              		.loc 1 228 0
 707 0230 1946     		mov	r1, r3
 708              	.LVL92:
 709 0232 0A22     		movs	r2, #10
 710 0234 0648     		ldr	r0, .L39
 711 0236 FFF7FEFF 		bl	chOQPutTimeout
 712              	.LVL93:
 713 023a B0F1FF33 		subs	r3, r0, #-1
 714 023e 5942     		rsbs	r1, r3, #0
 715 0240 5941     		adcs	r1, r1, r3
 716 0242 0D20     		movs	r0, #13
 717              	.LBE127:
 718              	.LBE130:
 719              		.loc 1 229 0
 720 0244 02B0     		add	sp, sp, #8
 721 0246 BDE8F041 		pop	{r4, r5, r6, r7, r8, lr}
 722              	.LBB131:
 723              	.LBB128:
 724              		.loc 1 228 0
 725 024a FFF7FEBF 		b	_test_assert
 726              	.LVL94:
 727              	.L40:
 728 024e 00BF     		.align	2
 729              	.L39:
 730 0250 00000000 		.word	.LANCHOR0
 731 0254 00000000 		.word	.LC0
 732 0258 00000000 		.word	wa
ARM GAS  C:\Users\LAB_ME~1\AppData\Local\Temp\cc0JaZEN.s 			page 14


 733 025c 00000000 		.word	rlist
 734 0260 00000000 		.word	thread2
 735 0264 00000000 		.word	threads
 736              	.LBE128:
 737              	.LBE131:
 738              		.cfi_endproc
 739              	.LFE13:
 740              		.size	queues2_execute, .-queues2_execute
 741              		.section	.text.queues1_execute,"ax",%progbits
 742              		.align	2
 743              		.p2align 4,,15
 744              		.thumb
 745              		.thumb_func
 746              		.type	queues1_execute, %function
 747              	queues1_execute:
 748              	.LFB10:
 749              		.loc 1 94 0
 750              		.cfi_startproc
 751              		@ args = 0, pretend = 0, frame = 0
 752              		@ frame_needed = 0, uses_anonymous_args = 0
 753 0000 F0B5     		push	{r4, r5, r6, r7, lr}
 754              	.LCFI8:
 755              		.cfi_def_cfa_offset 20
 756              		.cfi_offset 4, -20
 757              		.cfi_offset 5, -16
 758              		.cfi_offset 6, -12
 759              		.cfi_offset 7, -8
 760              		.cfi_offset 14, -4
 761              	.LBB168:
 762              		.loc 1 99 0
 763 0002 2023     		movs	r3, #32
 764              	.LVL95:
 765              	.LBE168:
 766              		.loc 1 94 0
 767 0004 83B0     		sub	sp, sp, #12
 768              	.LCFI9:
 769              		.cfi_def_cfa_offset 32
 770              	.LBB169:
 771              		.loc 1 99 0
 772              	@ 99 "../../test/testqueues.c" 1
 773 0006 83F31188 		msr     BASEPRI, r3
 774              	@ 0 "" 2
 775              	.LVL96:
 776              		.thumb
 777              	.LBE169:
 778 000a A24C     		ldr	r4, .L60
 779 000c A168     		ldr	r1, [r4, #8]
 780 000e 0120     		movs	r0, #1
 781 0010 D1F10101 		rsbs	r1, r1, #1
 782 0014 38BF     		it	cc
 783 0016 0021     		movcc	r1, #0
 784 0018 FFF7FEFF 		bl	_test_assert
 785              	.LVL97:
 786 001c 0546     		mov	r5, r0
 787 001e 30BB     		cbnz	r0, .L57
 788              	.LBB170:
 789              	.LBB171:
ARM GAS  C:\Users\LAB_ME~1\AppData\Local\Temp\cc0JaZEN.s 			page 15


 790              	.LBB172:
 791 0020 0346     		mov	r3, r0
 792              	.LVL98:
 793              	@ 99 "../../test/testqueues.c" 1
 794 0022 83F31188 		msr     BASEPRI, r3
 795              	@ 0 "" 2
 796              	.LVL99:
 797              		.thumb
 798              	.LBE172:
 799              	.LBB173:
 800              		.loc 1 102 0
 801 0026 2023     		movs	r3, #32
 802              	.LVL100:
 803              	@ 102 "../../test/testqueues.c" 1
 804 0028 83F31188 		msr     BASEPRI, r3
 805              	@ 0 "" 2
 806              	.LVL101:
 807              		.thumb
 808              	.LBE173:
 809              		.loc 1 104 0
 810 002c 4121     		movs	r1, #65
 811 002e 2046     		mov	r0, r4
 812 0030 FFF7FEFF 		bl	chIQPutI
 813              	.LVL102:
 814 0034 4221     		movs	r1, #66
 815 0036 2046     		mov	r0, r4
 816 0038 FFF7FEFF 		bl	chIQPutI
 817              	.LVL103:
 818 003c 4321     		movs	r1, #67
 819 003e 2046     		mov	r0, r4
 820 0040 FFF7FEFF 		bl	chIQPutI
 821              	.LVL104:
 822 0044 2046     		mov	r0, r4
 823 0046 4421     		movs	r1, #68
 824 0048 FFF7FEFF 		bl	chIQPutI
 825              	.LVL105:
 826              	.LBB174:
 827              		.loc 1 105 0
 828 004c 2B46     		mov	r3, r5
 829              	.LVL106:
 830              	@ 105 "../../test/testqueues.c" 1
 831 004e 83F31188 		msr     BASEPRI, r3
 832              	@ 0 "" 2
 833              	.LVL107:
 834              		.thumb
 835              	.LBE174:
 836              	.LBB175:
 837              		.loc 1 106 0
 838 0052 2023     		movs	r3, #32
 839              	.LVL108:
 840              	@ 106 "../../test/testqueues.c" 1
 841 0054 83F31188 		msr     BASEPRI, r3
 842              	@ 0 "" 2
 843              	.LVL109:
 844              		.thumb
 845              	.LBE175:
 846 0058 6269     		ldr	r2, [r4, #20]
ARM GAS  C:\Users\LAB_ME~1\AppData\Local\Temp\cc0JaZEN.s 			page 16


 847 005a A369     		ldr	r3, [r4, #24]
 848              	.LVL110:
 849 005c 9A42     		cmp	r2, r3
 850 005e 00F01381 		beq	.L58
 851 0062 2946     		mov	r1, r5
 852              	.L44:
 853 0064 0220     		movs	r0, #2
 854 0066 FFF7FEFF 		bl	_test_assert
 855              	.LVL111:
 856 006a 0446     		mov	r4, r0
 857 006c 20B1     		cbz	r0, .L45
 858              	.LVL112:
 859              	.L57:
 860              	.LBB176:
 861 006e 0023     		movs	r3, #0
 862              	.LVL113:
 863              	@ 106 "../../test/testqueues.c" 1
 864 0070 83F31188 		msr     BASEPRI, r3
 865              	@ 0 "" 2
 866              	.LVL114:
 867              		.thumb
 868              	.L41:
 869              	.LBE176:
 870              	.LBE171:
 871              	.LBE170:
 872              		.loc 1 151 0
 873 0074 03B0     		add	sp, sp, #12
 874 0076 F0BD     		pop	{r4, r5, r6, r7, pc}
 875              	.LVL115:
 876              	.L45:
 877              	.LBB200:
 878              	.LBB198:
 879              	.LBB177:
 880              		.loc 1 106 0
 881 0078 0346     		mov	r3, r0
 882              	.LVL116:
 883              	@ 106 "../../test/testqueues.c" 1
 884 007a 83F31188 		msr     BASEPRI, r3
 885              	@ 0 "" 2
 886              	.LVL117:
 887              		.thumb
 888              	.LBE177:
 889              	.LBB178:
 890              		.loc 1 107 0
 891 007e 2023     		movs	r3, #32
 892              	.LVL118:
 893              	@ 107 "../../test/testqueues.c" 1
 894 0080 83F31188 		msr     BASEPRI, r3
 895              	@ 0 "" 2
 896              	.LVL119:
 897              		.thumb
 898              	.LBE178:
 899 0084 8348     		ldr	r0, .L60
 900 0086 2146     		mov	r1, r4
 901 0088 FFF7FEFF 		bl	chIQPutI
 902              	.LVL120:
 903 008c 0430     		adds	r0, r0, #4
ARM GAS  C:\Users\LAB_ME~1\AppData\Local\Temp\cc0JaZEN.s 			page 17


 904 008e 14BF     		ite	ne
 905 0090 0021     		movne	r1, #0
 906 0092 0121     		moveq	r1, #1
 907 0094 0320     		movs	r0, #3
 908 0096 FFF7FEFF 		bl	_test_assert
 909              	.LVL121:
 910 009a 0028     		cmp	r0, #0
 911 009c 40F0F080 		bne	.L59
 912              	.LBB179:
 913 00a0 0346     		mov	r3, r0
 914              	.LVL122:
 915              	@ 107 "../../test/testqueues.c" 1
 916 00a2 83F31188 		msr     BASEPRI, r3
 917              	@ 0 "" 2
 918              	.LVL123:
 919              		.thumb
 920 00a6 0424     		movs	r4, #4
 921              	.LVL124:
 922              	.L47:
 923              	.LBE179:
 924              		.loc 1 111 0
 925 00a8 7A4D     		ldr	r5, .L60
 926 00aa 4FF0FF31 		mov	r1, #-1
 927 00ae 2846     		mov	r0, r5
 928 00b0 FFF7FEFF 		bl	chIQGetTimeout
 929              	.LVL125:
 930 00b4 C0B2     		uxtb	r0, r0
 931 00b6 FFF7FEFF 		bl	test_emit_token
 932              	.LVL126:
 933              		.loc 1 110 0
 934 00ba 013C     		subs	r4, r4, #1
 935 00bc F4D1     		bne	.L47
 936              	.LBB180:
 937              		.loc 1 112 0
 938 00be 2023     		movs	r3, #32
 939              	.LVL127:
 940              	@ 112 "../../test/testqueues.c" 1
 941 00c0 83F31188 		msr     BASEPRI, r3
 942              	@ 0 "" 2
 943              	.LVL128:
 944              		.thumb
 945              	.LBE180:
 946 00c4 A968     		ldr	r1, [r5, #8]
 947 00c6 0420     		movs	r0, #4
 948 00c8 D1F10101 		rsbs	r1, r1, #1
 949 00cc 38BF     		it	cc
 950 00ce 0021     		movcc	r1, #0
 951 00d0 FFF7FEFF 		bl	_test_assert
 952              	.LVL129:
 953              	.LBB181:
 954 00d4 2346     		mov	r3, r4
 955              	@ 112 "../../test/testqueues.c" 1
 956 00d6 83F31188 		msr     BASEPRI, r3
 957              	@ 0 "" 2
 958              	.LVL130:
 959              		.thumb
 960              	.LBE181:
ARM GAS  C:\Users\LAB_ME~1\AppData\Local\Temp\cc0JaZEN.s 			page 18


 961 00da 0028     		cmp	r0, #0
 962 00dc CAD1     		bne	.L41
 963              		.loc 1 113 0
 964 00de 0520     		movs	r0, #5
 965 00e0 6D49     		ldr	r1, .L60+4
 966 00e2 FFF7FEFF 		bl	_test_assert_sequence
 967              	.LVL131:
 968 00e6 0028     		cmp	r0, #0
 969 00e8 C4D1     		bne	.L41
 970              	.LBB182:
 971              		.loc 1 116 0
 972 00ea 2023     		movs	r3, #32
 973              	.LVL132:
 974              	@ 116 "../../test/testqueues.c" 1
 975 00ec 83F31188 		msr     BASEPRI, r3
 976              	@ 0 "" 2
 977              	.LVL133:
 978              		.thumb
 979              	.LBE182:
 980              		.loc 1 118 0
 981 00f0 4121     		movs	r1, #65
 982 00f2 2846     		mov	r0, r5
 983 00f4 FFF7FEFF 		bl	chIQPutI
 984              	.LVL134:
 985 00f8 4221     		movs	r1, #66
 986 00fa 2846     		mov	r0, r5
 987 00fc FFF7FEFF 		bl	chIQPutI
 988              	.LVL135:
 989 0100 4321     		movs	r1, #67
 990 0102 2846     		mov	r0, r5
 991 0104 FFF7FEFF 		bl	chIQPutI
 992              	.LVL136:
 993 0108 2846     		mov	r0, r5
 994 010a 4421     		movs	r1, #68
 995 010c FFF7FEFF 		bl	chIQPutI
 996              	.LVL137:
 997              	.LBB183:
 998              		.loc 1 119 0
 999 0110 2346     		mov	r3, r4
 1000              	.LVL138:
 1001              	@ 119 "../../test/testqueues.c" 1
 1002 0112 83F31188 		msr     BASEPRI, r3
 1003              	@ 0 "" 2
 1004              	.LVL139:
 1005              		.thumb
 1006              	.LBE183:
 1007              		.loc 1 122 0
 1008 0116 614F     		ldr	r7, .L60+8
 1009 0118 7E68     		ldr	r6, [r7, #4]
 1010 011a 0822     		movs	r2, #8
 1011 011c 3146     		mov	r1, r6
 1012 011e 2846     		mov	r0, r5
 1013 0120 FFF7FEFF 		bl	chIQReadTimeout
 1014              	.LVL140:
 1015              		.loc 1 123 0
 1016 0124 B0F1040C 		subs	ip, r0, #4
 1017 0128 DCF10001 		rsbs	r1, ip, #0
ARM GAS  C:\Users\LAB_ME~1\AppData\Local\Temp\cc0JaZEN.s 			page 19


 1018 012c 51EB0C01 		adcs	r1, r1, ip
 1019 0130 0620     		movs	r0, #6
 1020              	.LVL141:
 1021 0132 FFF7FEFF 		bl	_test_assert
 1022              	.LVL142:
 1023 0136 0028     		cmp	r0, #0
 1024 0138 9CD1     		bne	.L41
 1025              	.LBB184:
 1026              		.loc 1 124 0
 1027 013a 2023     		movs	r3, #32
 1028              	.LVL143:
 1029              	@ 124 "../../test/testqueues.c" 1
 1030 013c 83F31188 		msr     BASEPRI, r3
 1031              	@ 0 "" 2
 1032              	.LVL144:
 1033              		.thumb
 1034              	.LBE184:
 1035 0140 A968     		ldr	r1, [r5, #8]
 1036 0142 0720     		movs	r0, #7
 1037 0144 D1F10101 		rsbs	r1, r1, #1
 1038 0148 38BF     		it	cc
 1039 014a 0021     		movcc	r1, #0
 1040 014c FFF7FEFF 		bl	_test_assert
 1041              	.LVL145:
 1042              	.LBB185:
 1043 0150 2346     		mov	r3, r4
 1044              	@ 124 "../../test/testqueues.c" 1
 1045 0152 83F31188 		msr     BASEPRI, r3
 1046              	@ 0 "" 2
 1047              	.LVL146:
 1048              		.thumb
 1049              	.LBE185:
 1050 0156 0028     		cmp	r0, #0
 1051 0158 8CD1     		bne	.L41
 1052              	.LBB186:
 1053              		.loc 1 127 0
 1054 015a 2023     		movs	r3, #32
 1055              	.LVL147:
 1056              	@ 127 "../../test/testqueues.c" 1
 1057 015c 83F31188 		msr     BASEPRI, r3
 1058              	@ 0 "" 2
 1059              	.LVL148:
 1060              		.thumb
 1061              	.LBE186:
 1062              		.loc 1 129 0
 1063 0160 4121     		movs	r1, #65
 1064 0162 2846     		mov	r0, r5
 1065 0164 FFF7FEFF 		bl	chIQPutI
 1066              	.LVL149:
 1067 0168 4221     		movs	r1, #66
 1068 016a 2846     		mov	r0, r5
 1069 016c FFF7FEFF 		bl	chIQPutI
 1070              	.LVL150:
 1071 0170 4321     		movs	r1, #67
 1072 0172 2846     		mov	r0, r5
 1073 0174 FFF7FEFF 		bl	chIQPutI
 1074              	.LVL151:
ARM GAS  C:\Users\LAB_ME~1\AppData\Local\Temp\cc0JaZEN.s 			page 20


 1075 0178 2846     		mov	r0, r5
 1076 017a 4421     		movs	r1, #68
 1077 017c FFF7FEFF 		bl	chIQPutI
 1078              	.LVL152:
 1079              	.LBB187:
 1080              		.loc 1 130 0
 1081 0180 2346     		mov	r3, r4
 1082              	.LVL153:
 1083              	@ 130 "../../test/testqueues.c" 1
 1084 0182 83F31188 		msr     BASEPRI, r3
 1085              	@ 0 "" 2
 1086              	.LVL154:
 1087              		.thumb
 1088              	.LBE187:
 1089              		.loc 1 133 0
 1090 0186 0222     		movs	r2, #2
 1091 0188 3146     		mov	r1, r6
 1092 018a 2846     		mov	r0, r5
 1093 018c FFF7FEFF 		bl	chIQReadTimeout
 1094              	.LVL155:
 1095              		.loc 1 134 0
 1096 0190 B0F1020E 		subs	lr, r0, #2
 1097 0194 DEF10001 		rsbs	r1, lr, #0
 1098 0198 51EB0E01 		adcs	r1, r1, lr
 1099 019c 0820     		movs	r0, #8
 1100              	.LVL156:
 1101 019e FFF7FEFF 		bl	_test_assert
 1102              	.LVL157:
 1103 01a2 0028     		cmp	r0, #0
 1104 01a4 7FF466AF 		bne	.L41
 1105              		.loc 1 135 0
 1106 01a8 3146     		mov	r1, r6
 1107 01aa 0222     		movs	r2, #2
 1108 01ac 2846     		mov	r0, r5
 1109 01ae 2346     		mov	r3, r4
 1110 01b0 FFF7FEFF 		bl	chIQReadTimeout
 1111              	.LVL158:
 1112              		.loc 1 136 0
 1113 01b4 0238     		subs	r0, r0, #2
 1114              	.LVL159:
 1115 01b6 4142     		rsbs	r1, r0, #0
 1116 01b8 4141     		adcs	r1, r1, r0
 1117 01ba 0920     		movs	r0, #9
 1118              	.LVL160:
 1119 01bc FFF7FEFF 		bl	_test_assert
 1120              	.LVL161:
 1121 01c0 0028     		cmp	r0, #0
 1122 01c2 7FF457AF 		bne	.L41
 1123              	.LBB188:
 1124              		.loc 1 137 0
 1125 01c6 2023     		movs	r3, #32
 1126              	.LVL162:
 1127              	@ 137 "../../test/testqueues.c" 1
 1128 01c8 83F31188 		msr     BASEPRI, r3
 1129              	@ 0 "" 2
 1130              	.LVL163:
 1131              		.thumb
ARM GAS  C:\Users\LAB_ME~1\AppData\Local\Temp\cc0JaZEN.s 			page 21


 1132              	.LBE188:
 1133 01cc A968     		ldr	r1, [r5, #8]
 1134 01ce 0A20     		movs	r0, #10
 1135 01d0 D1F10101 		rsbs	r1, r1, #1
 1136 01d4 38BF     		it	cc
 1137 01d6 0021     		movcc	r1, #0
 1138 01d8 FFF7FEFF 		bl	_test_assert
 1139              	.LVL164:
 1140              	.LBB189:
 1141 01dc 2346     		mov	r3, r4
 1142              	@ 137 "../../test/testqueues.c" 1
 1143 01de 83F31188 		msr     BASEPRI, r3
 1144              	@ 0 "" 2
 1145              	.LVL165:
 1146              		.thumb
 1147              	.LBE189:
 1148 01e2 0028     		cmp	r0, #0
 1149 01e4 7FF446AF 		bne	.L41
 1150              	.LBB190:
 1151              		.loc 1 140 0
 1152 01e8 2023     		movs	r3, #32
 1153              	.LVL166:
 1154              	@ 140 "../../test/testqueues.c" 1
 1155 01ea 83F31188 		msr     BASEPRI, r3
 1156              	@ 0 "" 2
 1157              	.LVL167:
 1158              		.thumb
 1159              	.LBE190:
 1160              		.loc 1 141 0
 1161 01ee 2146     		mov	r1, r4
 1162 01f0 2846     		mov	r0, r5
 1163 01f2 FFF7FEFF 		bl	chIQPutI
 1164              	.LVL168:
 1165              		.loc 1 142 0
 1166 01f6 2846     		mov	r0, r5
 1167 01f8 FFF7FEFF 		bl	chIQResetI
 1168              	.LVL169:
 1169              	.LBB191:
 1170              		.loc 1 143 0
 1171 01fc 2346     		mov	r3, r4
 1172              	.LVL170:
 1173              	@ 143 "../../test/testqueues.c" 1
 1174 01fe 83F31188 		msr     BASEPRI, r3
 1175              	@ 0 "" 2
 1176              	.LVL171:
 1177              		.thumb
 1178              	.LBE191:
 1179              	.LBB192:
 1180              		.loc 1 144 0
 1181 0202 2023     		movs	r3, #32
 1182              	.LVL172:
 1183              	@ 144 "../../test/testqueues.c" 1
 1184 0204 83F31188 		msr     BASEPRI, r3
 1185              	@ 0 "" 2
 1186              	.LVL173:
 1187              		.thumb
 1188              	.LBE192:
ARM GAS  C:\Users\LAB_ME~1\AppData\Local\Temp\cc0JaZEN.s 			page 22


 1189 0208 A968     		ldr	r1, [r5, #8]
 1190 020a 0B20     		movs	r0, #11
 1191 020c D1F10101 		rsbs	r1, r1, #1
 1192 0210 38BF     		it	cc
 1193 0212 0021     		movcc	r1, #0
 1194 0214 FFF7FEFF 		bl	_test_assert
 1195              	.LVL174:
 1196              	.LBB193:
 1197 0218 2346     		mov	r3, r4
 1198              	@ 144 "../../test/testqueues.c" 1
 1199 021a 83F31188 		msr     BASEPRI, r3
 1200              	@ 0 "" 2
 1201              	.LVL175:
 1202              		.thumb
 1203              	.LBE193:
 1204 021e 0028     		cmp	r0, #0
 1205 0220 7FF428AF 		bne	.L41
 1206              		.loc 1 145 0
 1207 0224 1E4A     		ldr	r2, .L60+12
 1208 0226 3868     		ldr	r0, [r7, #0]
 1209 0228 9269     		ldr	r2, [r2, #24]
 1210 022a 1E4B     		ldr	r3, .L60+16
 1211              	.LVL176:
 1212 022c 9268     		ldr	r2, [r2, #8]
 1213 022e 0094     		str	r4, [sp, #0]
 1214              	.LVL177:
 1215 0230 0132     		adds	r2, r2, #1
 1216 0232 4FF49871 		mov	r1, #304
 1217 0236 FFF7FEFF 		bl	chThdCreateStatic
 1218              	.LVL178:
 1219 023a 1B4A     		ldr	r2, .L60+20
 1220              	.LBB194:
 1221              		.loc 1 146 0
 1222 023c 2023     		movs	r3, #32
 1223              	.LVL179:
 1224              	.LBE194:
 1225              		.loc 1 145 0
 1226 023e 1060     		str	r0, [r2, #0]
 1227              	.LBB195:
 1228              		.loc 1 146 0
 1229              	@ 146 "../../test/testqueues.c" 1
 1230 0240 83F31188 		msr     BASEPRI, r3
 1231              	@ 0 "" 2
 1232              	.LVL180:
 1233              		.thumb
 1234              	.LBE195:
 1235 0244 A968     		ldr	r1, [r5, #8]
 1236 0246 0C20     		movs	r0, #12
 1237 0248 D1F10101 		rsbs	r1, r1, #1
 1238 024c 38BF     		it	cc
 1239 024e 0021     		movcc	r1, #0
 1240 0250 FFF7FEFF 		bl	_test_assert
 1241              	.LVL181:
 1242              	.LBB196:
 1243 0254 0023     		movs	r3, #0
 1244              	@ 146 "../../test/testqueues.c" 1
 1245 0256 83F31188 		msr     BASEPRI, r3
ARM GAS  C:\Users\LAB_ME~1\AppData\Local\Temp\cc0JaZEN.s 			page 23


 1246              	@ 0 "" 2
 1247              	.LVL182:
 1248              		.thumb
 1249              	.LBE196:
 1250 025a 0028     		cmp	r0, #0
 1251 025c 7FF40AAF 		bne	.L41
 1252              		.loc 1 147 0
 1253 0260 FFF7FEFF 		bl	test_wait_threads
 1254              	.LVL183:
 1255              		.loc 1 150 0
 1256 0264 0A21     		movs	r1, #10
 1257 0266 0B48     		ldr	r0, .L60
 1258 0268 FFF7FEFF 		bl	chIQGetTimeout
 1259              	.LVL184:
 1260 026c B0F1FF32 		subs	r2, r0, #-1
 1261 0270 5142     		rsbs	r1, r2, #0
 1262 0272 5141     		adcs	r1, r1, r2
 1263 0274 0D20     		movs	r0, #13
 1264              	.LBE198:
 1265              	.LBE200:
 1266              		.loc 1 151 0
 1267 0276 03B0     		add	sp, sp, #12
 1268 0278 BDE8F040 		pop	{r4, r5, r6, r7, lr}
 1269              	.LBB201:
 1270              	.LBB199:
 1271              		.loc 1 150 0
 1272 027c FFF7FEBF 		b	_test_assert
 1273              	.LVL185:
 1274              	.L59:
 1275              	.LBB197:
 1276              		.loc 1 107 0
 1277 0280 2346     		mov	r3, r4
 1278              	@ 107 "../../test/testqueues.c" 1
 1279 0282 83F31188 		msr     BASEPRI, r3
 1280              	@ 0 "" 2
 1281              	.LVL186:
 1282              		.thumb
 1283 0286 F5E6     		b	.L41
 1284              	.LVL187:
 1285              	.L58:
 1286              	.LBE197:
 1287              		.loc 1 106 0
 1288 0288 A168     		ldr	r1, [r4, #8]
 1289 028a 0031     		adds	r1, r1, #0
 1290 028c 18BF     		it	ne
 1291 028e 0121     		movne	r1, #1
 1292 0290 E8E6     		b	.L44
 1293              	.L61:
 1294 0292 00BF     		.align	2
 1295              	.L60:
 1296 0294 00000000 		.word	.LANCHOR1
 1297 0298 00000000 		.word	.LC0
 1298 029c 00000000 		.word	wa
 1299 02a0 00000000 		.word	rlist
 1300 02a4 00000000 		.word	thread1
 1301 02a8 00000000 		.word	threads
 1302              	.LBE199:
ARM GAS  C:\Users\LAB_ME~1\AppData\Local\Temp\cc0JaZEN.s 			page 24


 1303              	.LBE201:
 1304              		.cfi_endproc
 1305              	.LFE10:
 1306              		.size	queues1_execute, .-queues1_execute
 1307              		.global	patternqueues
 1308              		.global	testqueues2
 1309              		.global	testqueues1
 1310 02ac AFF30080 		.section	.rodata.testqueues1,"a",%progbits
 1311              		.align	2
 1312              		.type	testqueues1, %object
 1313              		.size	testqueues1, 16
 1314              	testqueues1:
 1315 0000 20000000 		.word	.LC2
 1316 0004 00000000 		.word	queues1_setup
 1317 0008 00000000 		.word	0
 1318 000c 00000000 		.word	queues1_execute
 1319              		.section	.rodata.testqueues2,"a",%progbits
 1320              		.align	2
 1321              		.type	testqueues2, %object
 1322              		.size	testqueues2, 16
 1323              	testqueues2:
 1324 0000 08000000 		.word	.LC1
 1325 0004 00000000 		.word	queues2_setup
 1326 0008 00000000 		.word	0
 1327 000c 00000000 		.word	queues2_execute
 1328              		.section	.rodata.str1.4,"aMS",%progbits,1
 1329              		.align	2
 1330              	.LC0:
 1331 0000 41424344 		.ascii	"ABCD\000"
 1331      00
 1332 0005 000000   		.space	3
 1333              	.LC1:
 1334 0008 51756575 		.ascii	"Queues, output queues\000"
 1334      65732C20 
 1334      6F757470 
 1334      75742071 
 1334      75657565 
 1335 001e 0000     		.space	2
 1336              	.LC2:
 1337 0020 51756575 		.ascii	"Queues, input queues\000"
 1337      65732C20 
 1337      696E7075 
 1337      74207175 
 1337      65756573 
 1338 0035 000000   		.section	.rodata.patternqueues,"a",%progbits
 1339              		.align	2
 1340              		.type	patternqueues, %object
 1341              		.size	patternqueues, 12
 1342              	patternqueues:
 1343 0000 00000000 		.word	testqueues1
 1344 0004 00000000 		.word	testqueues2
 1345 0008 00000000 		.word	0
 1346              		.section	.data.oq,"aw",%progbits
 1347              		.align	2
 1348              		.set	.LANCHOR0,. + 0
 1349              		.type	oq, %object
 1350              		.size	oq, 36
ARM GAS  C:\Users\LAB_ME~1\AppData\Local\Temp\cc0JaZEN.s 			page 25


 1351              	oq:
 1352 0000 00000000 		.word	oq
 1353 0004 00000000 		.word	oq
 1354 0008 04000000 		.word	4
 1355 000c 30010000 		.word	test+304
 1356 0010 34010000 		.word	test+308
 1357 0014 30010000 		.word	test+304
 1358 0018 30010000 		.word	test+304
 1359 001c 00000000 		.word	notify
 1360 0020 00000000 		.word	0
 1361              		.section	.data.iq,"aw",%progbits
 1362              		.align	2
 1363              		.set	.LANCHOR1,. + 0
 1364              		.type	iq, %object
 1365              		.size	iq, 36
 1366              	iq:
 1367 0000 00000000 		.word	iq
 1368 0004 00000000 		.word	iq
 1369 0008 00000000 		.word	0
 1370 000c 00000000 		.word	test
 1371 0010 04000000 		.word	test+4
 1372 0014 00000000 		.word	test
 1373 0018 00000000 		.word	test
 1374 001c 00000000 		.word	notify
 1375 0020 00000000 		.word	0
 1376              		.text
 1377              	.Letext0:
 1378              		.file 2 "c:\\program files (x86)\\codesourcery\\sourcery_codebench_lite_for_arm_eabi\\bin\\../lib/
 1379              		.file 3 "c:\\program files (x86)\\codesourcery\\sourcery_codebench_lite_for_arm_eabi\\bin\\../lib/
 1380              		.file 4 "../../os/ports/GCC/ARMCMx/chtypes.h"
 1381              		.file 5 "../../os/kernel/include/chlists.h"
 1382              		.file 6 "../../os/kernel/include/chthreads.h"
 1383              		.file 7 "../../os/ports/GCC/ARMCMx/chcore_v7m.h"
 1384              		.file 8 "../../os/kernel/include/chschd.h"
 1385              		.file 9 "../../os/kernel/include/chmtx.h"
 1386              		.file 10 "../../os/kernel/include/chqueues.h"
 1387              		.file 11 "../../test/test.h"