ARM GAS  C:\Users\LAB_ME~1\AppData\Local\Temp\ccLKfcip.s 			page 1


   1              		.syntax unified
   2              		.cpu cortex-m4
   3              		.fpu softvfp
   4              		.eabi_attribute 20, 1
   5              		.eabi_attribute 21, 1
   6              		.eabi_attribute 23, 3
   7              		.eabi_attribute 24, 1
   8              		.eabi_attribute 25, 1
   9              		.eabi_attribute 26, 1
  10              		.eabi_attribute 30, 2
  11              		.eabi_attribute 34, 1
  12              		.eabi_attribute 18, 4
  13              		.thumb
  14              		.file	"testsem.c"
  15              		.text
  16              	.Ltext0:
  17              		.cfi_sections	.debug_frame
  18              		.section	.text.sem3_setup,"ax",%progbits
  19              		.align	2
  20              		.p2align 4,,15
  21              		.thumb
  22              		.thumb_func
  23              		.type	sem3_setup, %function
  24              	sem3_setup:
  25              	.LFB13:
  26              		.file 1 "../../test/testsem.c"
  27              		.loc 1 208 0
  28              		.cfi_startproc
  29              		@ args = 0, pretend = 0, frame = 0
  30              		@ frame_needed = 0, uses_anonymous_args = 0
  31              		@ link register save eliminated.
  32              		.loc 1 210 0
  33 0000 0148     		ldr	r0, .L2
  34 0002 0021     		movs	r1, #0
  35              		.loc 1 211 0
  36              		.loc 1 210 0
  37 0004 FFF7FEBF 		b	chSemInit
  38              	.LVL0:
  39              	.L3:
  40              		.align	2
  41              	.L2:
  42 0008 00000000 		.word	.LANCHOR0
  43              		.cfi_endproc
  44              	.LFE13:
  45              		.size	sem3_setup, .-sem3_setup
  46 000c AFF30080 		.section	.text.sem2_setup,"ax",%progbits
  47              		.align	2
  48              		.p2align 4,,15
  49              		.thumb
  50              		.thumb_func
  51              		.type	sem2_setup, %function
  52              	sem2_setup:
  53              	.LFB10:
  54              		.loc 1 132 0
  55              		.cfi_startproc
  56              		@ args = 0, pretend = 0, frame = 0
  57              		@ frame_needed = 0, uses_anonymous_args = 0
ARM GAS  C:\Users\LAB_ME~1\AppData\Local\Temp\ccLKfcip.s 			page 2


  58              		@ link register save eliminated.
  59              		.loc 1 134 0
  60 0000 0148     		ldr	r0, .L5
  61 0002 0021     		movs	r1, #0
  62              		.loc 1 135 0
  63              		.loc 1 134 0
  64 0004 FFF7FEBF 		b	chSemInit
  65              	.LVL1:
  66              	.L6:
  67              		.align	2
  68              	.L5:
  69 0008 00000000 		.word	.LANCHOR0
  70              		.cfi_endproc
  71              	.LFE10:
  72              		.size	sem2_setup, .-sem2_setup
  73 000c AFF30080 		.section	.text.sem1_setup,"ax",%progbits
  74              		.align	2
  75              		.p2align 4,,15
  76              		.thumb
  77              		.thumb_func
  78              		.type	sem1_setup, %function
  79              	sem1_setup:
  80              	.LFB7:
  81              		.loc 1 76 0
  82              		.cfi_startproc
  83              		@ args = 0, pretend = 0, frame = 0
  84              		@ frame_needed = 0, uses_anonymous_args = 0
  85              		@ link register save eliminated.
  86              		.loc 1 78 0
  87 0000 0148     		ldr	r0, .L8
  88 0002 0021     		movs	r1, #0
  89              		.loc 1 79 0
  90              		.loc 1 78 0
  91 0004 FFF7FEBF 		b	chSemInit
  92              	.LVL2:
  93              	.L9:
  94              		.align	2
  95              	.L8:
  96 0008 00000000 		.word	.LANCHOR0
  97              		.cfi_endproc
  98              	.LFE7:
  99              		.size	sem1_setup, .-sem1_setup
 100 000c AFF30080 		.section	.text.sem4_execute,"ax",%progbits
 101              		.align	2
 102              		.p2align 4,,15
 103              		.thumb
 104              		.thumb_func
 105              		.type	sem4_execute, %function
 106              	sem4_execute:
 107              	.LFB17:
 108              		.loc 1 255 0
 109              		.cfi_startproc
 110              		@ args = 0, pretend = 0, frame = 16
 111              		@ frame_needed = 0, uses_anonymous_args = 0
 112 0000 00B5     		push	{lr}
 113              	.LCFI0:
 114              		.cfi_def_cfa_offset 4
ARM GAS  C:\Users\LAB_ME~1\AppData\Local\Temp\ccLKfcip.s 			page 3


 115              		.cfi_offset 14, -4
 116 0002 87B0     		sub	sp, sp, #28
 117              	.LCFI1:
 118              		.cfi_def_cfa_offset 32
 119              		.loc 1 259 0
 120 0004 0021     		movs	r1, #0
 121 0006 03A8     		add	r0, sp, #12
 122 0008 FFF7FEFF 		bl	chSemInit
 123              	.LVL3:
 124              		.loc 1 260 0
 125 000c 0021     		movs	r1, #0
 126 000e 03A8     		add	r0, sp, #12
 127 0010 FFF7FEFF 		bl	chSemReset
 128              	.LVL4:
 129              		.loc 1 261 0
 130 0014 0599     		ldr	r1, [sp, #20]
 131 0016 0120     		movs	r0, #1
 132 0018 0029     		cmp	r1, #0
 133 001a CCBF     		ite	gt
 134 001c 0021     		movgt	r1, #0
 135 001e 0121     		movle	r1, #1
 136 0020 FFF7FEFF 		bl	_test_assert
 137              	.LVL5:
 138 0024 08B1     		cbz	r0, .L16
 139              	.L10:
 140              		.loc 1 283 0
 141 0026 07B0     		add	sp, sp, #28
 142 0028 00BD     		pop	{pc}
 143              	.L16:
 144              		.loc 1 265 0
 145 002a 2F4B     		ldr	r3, .L19
 146              		.loc 1 264 0
 147 002c 2F48     		ldr	r0, .L19+4
 148              		.loc 1 265 0
 149 002e 9B69     		ldr	r3, [r3, #24]
 150              		.loc 1 264 0
 151 0030 0068     		ldr	r0, [r0, #0]
 152 0032 9A68     		ldr	r2, [r3, #8]
 153 0034 2E4B     		ldr	r3, .L19+8
 154 0036 03A9     		add	r1, sp, #12
 155 0038 013A     		subs	r2, r2, #1
 156 003a 0091     		str	r1, [sp, #0]
 157 003c 4FF49871 		mov	r1, #304
 158 0040 FFF7FEFF 		bl	chThdCreateStatic
 159              	.LVL6:
 160 0044 2B4B     		ldr	r3, .L19+12
 161 0046 1860     		str	r0, [r3, #0]
 162              		.loc 1 268 0
 163 0048 03A8     		add	r0, sp, #12
 164 004a FFF7FEFF 		bl	chSemWait
 165              	.LVL7:
 166              		.loc 1 271 0
 167 004e 0599     		ldr	r1, [sp, #20]
 168 0050 0220     		movs	r0, #2
 169 0052 0029     		cmp	r1, #0
 170 0054 CCBF     		ite	gt
 171 0056 0021     		movgt	r1, #0
ARM GAS  C:\Users\LAB_ME~1\AppData\Local\Temp\ccLKfcip.s 			page 4


 172 0058 0121     		movle	r1, #1
 173 005a FFF7FEFF 		bl	_test_assert
 174              	.LVL8:
 175 005e 0028     		cmp	r0, #0
 176 0060 E1D1     		bne	.L10
 177              	.LBB2:
 178              		.loc 1 275 0
 179 0062 2023     		movs	r3, #32
 180              	.LVL9:
 181              	@ 275 "../../test/testsem.c" 1
 182 0064 83F31188 		msr     BASEPRI, r3
 183              	@ 0 "" 2
 184              	.LVL10:
 185              		.thumb
 186              	.LBE2:
 187 0068 059B     		ldr	r3, [sp, #20]
 188              	.LVL11:
 189 006a 002B     		cmp	r3, #0
 190 006c 34DD     		ble	.L17
 191              	.L12:
 192              		.loc 1 275 0 is_stmt 0 discriminator 2
 193 006e FFF7FEFF 		bl	chSchRescheduleS
 194              	.LVL12:
 195              	.LBB3:
 196 0072 0023     		movs	r3, #0
 197              	.LVL13:
 198              	@ 275 "../../test/testsem.c" 1
 199 0074 83F31188 		msr     BASEPRI, r3
 200              	@ 0 "" 2
 201              	.LVL14:
 202              		.thumb
 203              	.LBE3:
 204              		.loc 1 276 0 is_stmt 1 discriminator 2
 205 0078 0599     		ldr	r1, [sp, #20]
 206 007a 0320     		movs	r0, #3
 207 007c 9942     		cmp	r1, r3
 208              	.LVL15:
 209 007e D4BF     		ite	le
 210 0080 0021     		movle	r1, #0
 211 0082 0121     		movgt	r1, #1
 212 0084 FFF7FEFF 		bl	_test_assert
 213              	.LVL16:
 214 0088 0028     		cmp	r0, #0
 215 008a CCD1     		bne	.L10
 216              		.loc 1 277 0
 217 008c 0599     		ldr	r1, [sp, #20]
 218 008e 0420     		movs	r0, #4
 219 0090 4A1E     		subs	r2, r1, #1
 220 0092 5142     		rsbs	r1, r2, #0
 221 0094 5141     		adcs	r1, r1, r2
 222 0096 FFF7FEFF 		bl	_test_assert
 223              	.LVL17:
 224 009a 0028     		cmp	r0, #0
 225 009c C3D1     		bne	.L10
 226              	.LBB4:
 227              		.loc 1 280 0
 228 009e 2023     		movs	r3, #32
ARM GAS  C:\Users\LAB_ME~1\AppData\Local\Temp\ccLKfcip.s 			page 5


 229              	.LVL18:
 230              	@ 280 "../../test/testsem.c" 1
 231 00a0 83F31188 		msr     BASEPRI, r3
 232              	@ 0 "" 2
 233              	.LVL19:
 234              		.thumb
 235              	.LBE4:
 236 00a4 059B     		ldr	r3, [sp, #20]
 237              	.LVL20:
 238 00a6 002B     		cmp	r3, #0
 239 00a8 1ADD     		ble	.L18
 240              	.L13:
 241              		.loc 1 280 0 is_stmt 0 discriminator 2
 242 00aa FFF7FEFF 		bl	chSchRescheduleS
 243              	.LVL21:
 244              	.LBB5:
 245 00ae 0023     		movs	r3, #0
 246              	.LVL22:
 247              	@ 280 "../../test/testsem.c" 1
 248 00b0 83F31188 		msr     BASEPRI, r3
 249              	@ 0 "" 2
 250              	.LVL23:
 251              		.thumb
 252              	.LBE5:
 253              		.loc 1 281 0 is_stmt 1 discriminator 2
 254 00b4 0599     		ldr	r1, [sp, #20]
 255 00b6 0320     		movs	r0, #3
 256 00b8 9942     		cmp	r1, r3
 257              	.LVL24:
 258 00ba D4BF     		ite	le
 259 00bc 0021     		movle	r1, #0
 260 00be 0121     		movgt	r1, #1
 261 00c0 FFF7FEFF 		bl	_test_assert
 262              	.LVL25:
 263 00c4 0028     		cmp	r0, #0
 264 00c6 AED1     		bne	.L10
 265              		.loc 1 282 0
 266 00c8 0599     		ldr	r1, [sp, #20]
 267 00ca 0520     		movs	r0, #5
 268 00cc 4B1E     		subs	r3, r1, #1
 269 00ce 5942     		rsbs	r1, r3, #0
 270 00d0 5941     		adcs	r1, r1, r3
 271 00d2 FFF7FEFF 		bl	_test_assert
 272              	.LVL26:
 273 00d6 A6E7     		b	.L10
 274              	.L17:
 275              		.loc 1 275 0 discriminator 1
 276 00d8 03A8     		add	r0, sp, #12
 277 00da FFF7FEFF 		bl	chSemSignalI
 278              	.LVL27:
 279 00de C6E7     		b	.L12
 280              	.L18:
 281              		.loc 1 280 0 discriminator 1
 282 00e0 03A8     		add	r0, sp, #12
 283 00e2 FFF7FEFF 		bl	chSemSignalI
 284              	.LVL28:
 285 00e6 E0E7     		b	.L13
ARM GAS  C:\Users\LAB_ME~1\AppData\Local\Temp\ccLKfcip.s 			page 6


 286              	.L20:
 287              		.align	2
 288              	.L19:
 289 00e8 00000000 		.word	rlist
 290 00ec 00000000 		.word	wa
 291 00f0 00000000 		.word	thread4
 292 00f4 00000000 		.word	threads
 293              		.cfi_endproc
 294              	.LFE17:
 295              		.size	sem4_execute, .-sem4_execute
 296 00f8 AFF30080 		.section	.text.thread4,"ax",%progbits
 296      AFF30080 
 297              		.align	2
 298              		.p2align 4,,15
 299              		.thumb
 300              		.thumb_func
 301              		.type	thread4, %function
 302              	thread4:
 303              	.LFB16:
 304              		.loc 1 249 0
 305              		.cfi_startproc
 306              		@ args = 0, pretend = 0, frame = 0
 307              		@ frame_needed = 0, uses_anonymous_args = 0
 308              	.LVL29:
 309 0000 08B5     		push	{r3, lr}
 310              	.LCFI2:
 311              		.cfi_def_cfa_offset 8
 312              		.cfi_offset 3, -8
 313              		.cfi_offset 14, -4
 314              	.LBB6:
 315              		.loc 1 251 0
 316 0002 2023     		movs	r3, #32
 317              	.LVL30:
 318              	@ 251 "../../test/testsem.c" 1
 319 0004 83F31188 		msr     BASEPRI, r3
 320              	@ 0 "" 2
 321              	.LVL31:
 322              		.thumb
 323              	.LBE6:
 324 0008 8368     		ldr	r3, [r0, #8]
 325              	.LVL32:
 326 000a 002B     		cmp	r3, #0
 327 000c 06DD     		ble	.L23
 328              	.LVL33:
 329              	.L22:
 330              		.loc 1 251 0 is_stmt 0 discriminator 2
 331 000e FFF7FEFF 		bl	chSchRescheduleS
 332              	.LVL34:
 333              	.LBB7:
 334 0012 0023     		movs	r3, #0
 335              	.LVL35:
 336              	@ 251 "../../test/testsem.c" 1
 337 0014 83F31188 		msr     BASEPRI, r3
 338              	@ 0 "" 2
 339              	.LVL36:
 340              		.thumb
 341              	.LBE7:
ARM GAS  C:\Users\LAB_ME~1\AppData\Local\Temp\ccLKfcip.s 			page 7


 342              		.loc 1 253 0 is_stmt 1 discriminator 2
 343 0018 1846     		mov	r0, r3
 344 001a 08BD     		pop	{r3, pc}
 345              	.LVL37:
 346              	.L23:
 347              		.loc 1 251 0 discriminator 1
 348 001c FFF7FEFF 		bl	chSemSignalI
 349              	.LVL38:
 350 0020 F5E7     		b	.L22
 351              		.cfi_endproc
 352              	.LFE16:
 353              		.size	thread4, .-thread4
 354 0022 00BFAFF3 		.section	.text.thread3,"ax",%progbits
 354      0080AFF3 
 354      0080AFF3 
 354      0080
 355              		.align	2
 356              		.p2align 4,,15
 357              		.thumb
 358              		.thumb_func
 359              		.type	thread3, %function
 360              	thread3:
 361              	.LFB14:
 362              		.loc 1 213 0
 363              		.cfi_startproc
 364              		@ args = 0, pretend = 0, frame = 0
 365              		@ frame_needed = 0, uses_anonymous_args = 0
 366              	.LVL39:
 367 0000 10B5     		push	{r4, lr}
 368              	.LCFI3:
 369              		.cfi_def_cfa_offset 8
 370              		.cfi_offset 4, -8
 371              		.cfi_offset 14, -4
 372              		.loc 1 216 0
 373 0002 044C     		ldr	r4, .L25
 374 0004 2046     		mov	r0, r4
 375              	.LVL40:
 376 0006 FFF7FEFF 		bl	chSemWait
 377              	.LVL41:
 378              		.loc 1 217 0
 379 000a 2046     		mov	r0, r4
 380 000c FFF7FEFF 		bl	chSemSignal
 381              	.LVL42:
 382              		.loc 1 219 0
 383 0010 0020     		movs	r0, #0
 384 0012 10BD     		pop	{r4, pc}
 385              	.L26:
 386              		.align	2
 387              	.L25:
 388 0014 00000000 		.word	.LANCHOR0
 389              		.cfi_endproc
 390              	.LFE14:
 391              		.size	thread3, .-thread3
 392 0018 AFF30080 		.section	.text.thread1,"ax",%progbits
 392      AFF30080 
 393              		.align	2
 394              		.p2align 4,,15
ARM GAS  C:\Users\LAB_ME~1\AppData\Local\Temp\ccLKfcip.s 			page 8


 395              		.thumb
 396              		.thumb_func
 397              		.type	thread1, %function
 398              	thread1:
 399              	.LFB8:
 400              		.loc 1 81 0
 401              		.cfi_startproc
 402              		@ args = 0, pretend = 0, frame = 0
 403              		@ frame_needed = 0, uses_anonymous_args = 0
 404              	.LVL43:
 405 0000 10B5     		push	{r4, lr}
 406              	.LCFI4:
 407              		.cfi_def_cfa_offset 8
 408              		.cfi_offset 4, -8
 409              		.cfi_offset 14, -4
 410              		.loc 1 81 0
 411 0002 0446     		mov	r4, r0
 412              		.loc 1 83 0
 413 0004 0348     		ldr	r0, .L28
 414              	.LVL44:
 415 0006 FFF7FEFF 		bl	chSemWait
 416              	.LVL45:
 417              		.loc 1 84 0
 418 000a 2078     		ldrb	r0, [r4, #0]	@ zero_extendqisi2
 419 000c FFF7FEFF 		bl	test_emit_token
 420              	.LVL46:
 421              		.loc 1 86 0
 422 0010 0020     		movs	r0, #0
 423 0012 10BD     		pop	{r4, pc}
 424              	.L29:
 425              		.align	2
 426              	.L28:
 427 0014 00000000 		.word	.LANCHOR0
 428              		.cfi_endproc
 429              	.LFE8:
 430              		.size	thread1, .-thread1
 431 0018 AFF30080 		.section	.text.thread2,"ax",%progbits
 431      AFF30080 
 432              		.align	2
 433              		.p2align 4,,15
 434              		.thumb
 435              		.thumb_func
 436              		.type	thread2, %function
 437              	thread2:
 438              	.LFB11:
 439              		.loc 1 137 0
 440              		.cfi_startproc
 441              		@ args = 0, pretend = 0, frame = 0
 442              		@ frame_needed = 0, uses_anonymous_args = 0
 443              	.LVL47:
 444 0000 08B5     		push	{r3, lr}
 445              	.LCFI5:
 446              		.cfi_def_cfa_offset 8
 447              		.cfi_offset 3, -8
 448              		.cfi_offset 14, -4
 449              		.loc 1 140 0
 450 0002 3220     		movs	r0, #50
ARM GAS  C:\Users\LAB_ME~1\AppData\Local\Temp\ccLKfcip.s 			page 9


 451              	.LVL48:
 452 0004 FFF7FEFF 		bl	chThdSleep
 453              	.LVL49:
 454              	.LBB8:
 455              		.loc 1 141 0
 456 0008 2023     		movs	r3, #32
 457              	.LVL50:
 458              	@ 141 "../../test/testsem.c" 1
 459 000a 83F31188 		msr     BASEPRI, r3
 460              	@ 0 "" 2
 461              	.LVL51:
 462              		.thumb
 463              	.LBE8:
 464              		.loc 1 142 0
 465 000e 0548     		ldr	r0, .L31
 466 0010 FFF7FEFF 		bl	chSemSignalI
 467              	.LVL52:
 468              		.loc 1 143 0
 469 0014 FFF7FEFF 		bl	chSchRescheduleS
 470              	.LVL53:
 471              	.LBB9:
 472              		.loc 1 144 0
 473 0018 0023     		movs	r3, #0
 474              	.LVL54:
 475              	@ 144 "../../test/testsem.c" 1
 476 001a 83F31188 		msr     BASEPRI, r3
 477              	@ 0 "" 2
 478              	.LVL55:
 479              		.thumb
 480              	.LBE9:
 481              		.loc 1 146 0
 482 001e 1846     		mov	r0, r3
 483 0020 08BD     		pop	{r3, pc}
 484              	.L32:
 485 0022 00BF     		.align	2
 486              	.L31:
 487 0024 00000000 		.word	.LANCHOR0
 488              		.cfi_endproc
 489              	.LFE11:
 490              		.size	thread2, .-thread2
 491 0028 AFF30080 		.section	.text.sem1_execute,"ax",%progbits
 491      AFF30080 
 492              		.align	2
 493              		.p2align 4,,15
 494              		.thumb
 495              		.thumb_func
 496              		.type	sem1_execute, %function
 497              	sem1_execute:
 498              	.LFB9:
 499              		.loc 1 88 0
 500              		.cfi_startproc
 501              		@ args = 0, pretend = 0, frame = 8
 502              		@ frame_needed = 0, uses_anonymous_args = 0
 503 0000 2DE9F043 		push	{r4, r5, r6, r7, r8, r9, lr}
 504              	.LCFI6:
 505              		.cfi_def_cfa_offset 28
 506              		.cfi_offset 4, -28
ARM GAS  C:\Users\LAB_ME~1\AppData\Local\Temp\ccLKfcip.s 			page 10


 507              		.cfi_offset 5, -24
 508              		.cfi_offset 6, -20
 509              		.cfi_offset 7, -16
 510              		.cfi_offset 8, -12
 511              		.cfi_offset 9, -8
 512              		.cfi_offset 14, -4
 513              		.loc 1 90 0
 514 0004 DFF84081 		ldr	r8, .L36+40
 515 0008 454C     		ldr	r4, .L36
 516 000a D8F81830 		ldr	r3, [r8, #24]
 517 000e 2668     		ldr	r6, [r4, #0]
 518 0010 9A68     		ldr	r2, [r3, #8]
 519 0012 444F     		ldr	r7, .L36+4
 520 0014 444B     		ldr	r3, .L36+8
 521 0016 454D     		ldr	r5, .L36+12
 522              		.loc 1 88 0
 523 0018 85B0     		sub	sp, sp, #20
 524              	.LCFI7:
 525              		.cfi_def_cfa_offset 48
 526              		.loc 1 90 0
 527 001a 4FF49871 		mov	r1, #304
 528 001e 0532     		adds	r2, r2, #5
 529 0020 0097     		str	r7, [sp, #0]
 530 0022 3046     		mov	r0, r6
 531 0024 FFF7FEFF 		bl	chThdCreateStatic
 532              	.LVL56:
 533              		.loc 1 91 0
 534 0028 D8F81830 		ldr	r3, [r8, #24]
 535 002c 9A68     		ldr	r2, [r3, #8]
 536 002e 6368     		ldr	r3, [r4, #4]
 537              		.loc 1 90 0
 538 0030 2860     		str	r0, [r5, #0]
 539              		.loc 1 91 0
 540 0032 3F48     		ldr	r0, .L36+16
 541 0034 0393     		str	r3, [sp, #12]
 542 0036 4FF49871 		mov	r1, #304
 543 003a 0132     		adds	r2, r2, #1
 544 003c 3A4B     		ldr	r3, .L36+8
 545 003e 0090     		str	r0, [sp, #0]
 546 0040 0398     		ldr	r0, [sp, #12]
 547 0042 FFF7FEFF 		bl	chThdCreateStatic
 548              	.LVL57:
 549              		.loc 1 92 0
 550 0046 A268     		ldr	r2, [r4, #8]
 551 0048 D8F81830 		ldr	r3, [r8, #24]
 552 004c 0392     		str	r2, [sp, #12]
 553 004e 9A68     		ldr	r2, [r3, #8]
 554              		.loc 1 91 0
 555 0050 6860     		str	r0, [r5, #4]
 556              		.loc 1 92 0
 557 0052 3848     		ldr	r0, .L36+20
 558 0054 344B     		ldr	r3, .L36+8
 559 0056 0090     		str	r0, [sp, #0]
 560 0058 4FF49871 		mov	r1, #304
 561 005c 0332     		adds	r2, r2, #3
 562 005e 0398     		ldr	r0, [sp, #12]
 563 0060 FFF7FEFF 		bl	chThdCreateStatic
ARM GAS  C:\Users\LAB_ME~1\AppData\Local\Temp\ccLKfcip.s 			page 11


 564              	.LVL58:
 565              		.loc 1 93 0
 566 0064 E268     		ldr	r2, [r4, #12]
 567 0066 D8F81830 		ldr	r3, [r8, #24]
 568 006a 0392     		str	r2, [sp, #12]
 569 006c 9A68     		ldr	r2, [r3, #8]
 570              		.loc 1 92 0
 571 006e A860     		str	r0, [r5, #8]
 572              		.loc 1 93 0
 573 0070 3148     		ldr	r0, .L36+24
 574 0072 2D4B     		ldr	r3, .L36+8
 575 0074 0090     		str	r0, [sp, #0]
 576 0076 4FF49871 		mov	r1, #304
 577 007a 0432     		adds	r2, r2, #4
 578 007c 0398     		ldr	r0, [sp, #12]
 579 007e FFF7FEFF 		bl	chThdCreateStatic
 580              	.LVL59:
 581              		.loc 1 94 0
 582 0082 D8F81830 		ldr	r3, [r8, #24]
 583 0086 2469     		ldr	r4, [r4, #16]
 584 0088 9A68     		ldr	r2, [r3, #8]
 585              		.loc 1 93 0
 586 008a E860     		str	r0, [r5, #12]
 587              		.loc 1 94 0
 588 008c 2B48     		ldr	r0, .L36+28
 589 008e 264B     		ldr	r3, .L36+8
 590 0090 0090     		str	r0, [sp, #0]
 591 0092 4FF49871 		mov	r1, #304
 592 0096 0232     		adds	r2, r2, #2
 593 0098 2046     		mov	r0, r4
 594 009a FFF7FEFF 		bl	chThdCreateStatic
 595              	.LVL60:
 596              		.loc 1 95 0
 597 009e 284C     		ldr	r4, .L36+32
 598              		.loc 1 94 0
 599 00a0 2861     		str	r0, [r5, #16]
 600              		.loc 1 95 0
 601 00a2 2046     		mov	r0, r4
 602 00a4 FFF7FEFF 		bl	chSemSignal
 603              	.LVL61:
 604              		.loc 1 96 0
 605 00a8 2046     		mov	r0, r4
 606 00aa FFF7FEFF 		bl	chSemSignal
 607              	.LVL62:
 608              		.loc 1 97 0
 609 00ae 2046     		mov	r0, r4
 610 00b0 FFF7FEFF 		bl	chSemSignal
 611              	.LVL63:
 612              		.loc 1 98 0
 613 00b4 2046     		mov	r0, r4
 614 00b6 FFF7FEFF 		bl	chSemSignal
 615              	.LVL64:
 616              		.loc 1 99 0
 617 00ba 2046     		mov	r0, r4
 618 00bc FFF7FEFF 		bl	chSemSignal
 619              	.LVL65:
 620              		.loc 1 100 0
ARM GAS  C:\Users\LAB_ME~1\AppData\Local\Temp\ccLKfcip.s 			page 12


 621 00c0 FFF7FEFF 		bl	test_wait_threads
 622              	.LVL66:
 623              		.loc 1 104 0
 624 00c4 0120     		movs	r0, #1
 625 00c6 1F49     		ldr	r1, .L36+36
 626 00c8 FFF7FEFF 		bl	_test_assert_sequence
 627              	.LVL67:
 628 00cc 8146     		mov	r9, r0
 629 00ce 10B1     		cbz	r0, .L35
 630              		.loc 1 112 0
 631 00d0 05B0     		add	sp, sp, #20
 632 00d2 BDE8F083 		pop	{r4, r5, r6, r7, r8, r9, pc}
 633              	.L35:
 634              		.loc 1 106 0
 635 00d6 D8F81820 		ldr	r2, [r8, #24]
 636 00da 134B     		ldr	r3, .L36+8
 637 00dc 9268     		ldr	r2, [r2, #8]
 638 00de 0097     		str	r7, [sp, #0]
 639 00e0 3046     		mov	r0, r6
 640 00e2 4FF49871 		mov	r1, #304
 641 00e6 0532     		adds	r2, r2, #5
 642 00e8 FFF7FEFF 		bl	chThdCreateStatic
 643              	.LVL68:
 644              	.LBB10:
 645              		.loc 1 107 0
 646 00ec 2023     		movs	r3, #32
 647              	.LVL69:
 648              	.LBE10:
 649              		.loc 1 106 0
 650 00ee 2860     		str	r0, [r5, #0]
 651              	.LBB11:
 652              		.loc 1 107 0
 653              	@ 107 "../../test/testsem.c" 1
 654 00f0 83F31188 		msr     BASEPRI, r3
 655              	@ 0 "" 2
 656              	.LVL70:
 657              		.thumb
 658              	.LBE11:
 659              		.loc 1 108 0
 660 00f4 0221     		movs	r1, #2
 661 00f6 2046     		mov	r0, r4
 662 00f8 FFF7FEFF 		bl	chSemAddCounterI
 663              	.LVL71:
 664              	.LBB12:
 665              		.loc 1 109 0
 666 00fc 4B46     		mov	r3, r9
 667              	.LVL72:
 668              	@ 109 "../../test/testsem.c" 1
 669 00fe 83F31188 		msr     BASEPRI, r3
 670              	@ 0 "" 2
 671              	.LVL73:
 672              		.thumb
 673              	.LBE12:
 674              		.loc 1 110 0
 675 0102 FFF7FEFF 		bl	test_wait_threads
 676              	.LVL74:
 677              		.loc 1 111 0
ARM GAS  C:\Users\LAB_ME~1\AppData\Local\Temp\ccLKfcip.s 			page 13


 678 0106 A168     		ldr	r1, [r4, #8]
 679 0108 0220     		movs	r0, #2
 680 010a B1F1010E 		subs	lr, r1, #1
 681 010e DEF10001 		rsbs	r1, lr, #0
 682 0112 51EB0E01 		adcs	r1, r1, lr
 683              		.loc 1 112 0
 684 0116 05B0     		add	sp, sp, #20
 685 0118 BDE8F043 		pop	{r4, r5, r6, r7, r8, r9, lr}
 686              		.loc 1 111 0
 687 011c FFF7FEBF 		b	_test_assert
 688              	.LVL75:
 689              	.L37:
 690              		.align	2
 691              	.L36:
 692 0120 00000000 		.word	wa
 693 0124 00000000 		.word	.LC0
 694 0128 00000000 		.word	thread1
 695 012c 00000000 		.word	threads
 696 0130 04000000 		.word	.LC1
 697 0134 08000000 		.word	.LC2
 698 0138 0C000000 		.word	.LC3
 699 013c 10000000 		.word	.LC4
 700 0140 00000000 		.word	.LANCHOR0
 701 0144 14000000 		.word	.LC5
 702 0148 00000000 		.word	rlist
 703              		.cfi_endproc
 704              	.LFE9:
 705              		.size	sem1_execute, .-sem1_execute
 706 014c AFF30080 		.section	.text.sem3_execute,"ax",%progbits
 707              		.align	2
 708              		.p2align 4,,15
 709              		.thumb
 710              		.thumb_func
 711              		.type	sem3_execute, %function
 712              	sem3_execute:
 713              	.LFB15:
 714              		.loc 1 221 0
 715              		.cfi_startproc
 716              		@ args = 0, pretend = 0, frame = 0
 717              		@ frame_needed = 0, uses_anonymous_args = 0
 718 0000 10B5     		push	{r4, lr}
 719              	.LCFI8:
 720              		.cfi_def_cfa_offset 8
 721              		.cfi_offset 4, -8
 722              		.cfi_offset 14, -4
 723              		.loc 1 223 0
 724 0002 224B     		ldr	r3, .L43
 725              		.loc 1 224 0
 726 0004 224C     		ldr	r4, .L43+4
 727              		.loc 1 223 0
 728 0006 9B69     		ldr	r3, [r3, #24]
 729              		.loc 1 221 0
 730 0008 82B0     		sub	sp, sp, #8
 731              	.LCFI9:
 732              		.cfi_def_cfa_offset 16
 733              		.loc 1 223 0
 734 000a 0020     		movs	r0, #0
ARM GAS  C:\Users\LAB_ME~1\AppData\Local\Temp\ccLKfcip.s 			page 14


 735 000c 9A68     		ldr	r2, [r3, #8]
 736 000e 0090     		str	r0, [sp, #0]
 737 0010 2048     		ldr	r0, .L43+8
 738 0012 214B     		ldr	r3, .L43+12
 739 0014 0068     		ldr	r0, [r0, #0]
 740 0016 0132     		adds	r2, r2, #1
 741 0018 4FF49871 		mov	r1, #304
 742 001c FFF7FEFF 		bl	chThdCreateStatic
 743              	.LVL76:
 744 0020 1E4B     		ldr	r3, .L43+16
 745              		.loc 1 224 0
 746 0022 2146     		mov	r1, r4
 747              		.loc 1 223 0
 748 0024 1860     		str	r0, [r3, #0]
 749              		.loc 1 224 0
 750 0026 2046     		mov	r0, r4
 751 0028 FFF7FEFF 		bl	chSemSignalWait
 752              	.LVL77:
 753              		.loc 1 225 0
 754 002c 2168     		ldr	r1, [r4, #0]
 755 002e 0120     		movs	r0, #1
 756 0030 0B1B     		subs	r3, r1, r4
 757 0032 5942     		rsbs	r1, r3, #0
 758 0034 5941     		adcs	r1, r1, r3
 759 0036 FFF7FEFF 		bl	_test_assert
 760              	.LVL78:
 761 003a 08B1     		cbz	r0, .L42
 762              	.L38:
 763              		.loc 1 231 0
 764 003c 02B0     		add	sp, sp, #8
 765 003e 10BD     		pop	{r4, pc}
 766              	.L42:
 767              		.loc 1 226 0
 768 0040 A168     		ldr	r1, [r4, #8]
 769 0042 0220     		movs	r0, #2
 770 0044 D1F10101 		rsbs	r1, r1, #1
 771 0048 38BF     		it	cc
 772 004a 0021     		movcc	r1, #0
 773 004c FFF7FEFF 		bl	_test_assert
 774              	.LVL79:
 775 0050 0028     		cmp	r0, #0
 776 0052 F3D1     		bne	.L38
 777              	.LBB15:
 778              	.LBB16:
 779              		.loc 1 228 0
 780 0054 2146     		mov	r1, r4
 781 0056 2046     		mov	r0, r4
 782 0058 FFF7FEFF 		bl	chSemSignalWait
 783              	.LVL80:
 784              		.loc 1 229 0
 785 005c 2168     		ldr	r1, [r4, #0]
 786 005e 0320     		movs	r0, #3
 787 0060 B1EB040C 		subs	ip, r1, r4
 788 0064 DCF10001 		rsbs	r1, ip, #0
 789 0068 51EB0C01 		adcs	r1, r1, ip
 790 006c FFF7FEFF 		bl	_test_assert
 791              	.LVL81:
ARM GAS  C:\Users\LAB_ME~1\AppData\Local\Temp\ccLKfcip.s 			page 15


 792 0070 0028     		cmp	r0, #0
 793 0072 E3D1     		bne	.L38
 794              		.loc 1 230 0
 795 0074 A168     		ldr	r1, [r4, #8]
 796 0076 0420     		movs	r0, #4
 797 0078 D1F10101 		rsbs	r1, r1, #1
 798 007c 38BF     		it	cc
 799 007e 0021     		movcc	r1, #0
 800              	.LBE16:
 801              	.LBE15:
 802              		.loc 1 231 0
 803 0080 02B0     		add	sp, sp, #8
 804 0082 BDE81040 		pop	{r4, lr}
 805              	.LBB18:
 806              	.LBB17:
 807              		.loc 1 230 0
 808 0086 FFF7FEBF 		b	_test_assert
 809              	.LVL82:
 810              	.L44:
 811 008a 00BF     		.align	2
 812              	.L43:
 813 008c 00000000 		.word	rlist
 814 0090 00000000 		.word	.LANCHOR0
 815 0094 00000000 		.word	wa
 816 0098 00000000 		.word	thread3
 817 009c 00000000 		.word	threads
 818              	.LBE17:
 819              	.LBE18:
 820              		.cfi_endproc
 821              	.LFE15:
 822              		.size	sem3_execute, .-sem3_execute
 823              		.section	.text.sem2_execute,"ax",%progbits
 824              		.align	2
 825              		.p2align 4,,15
 826              		.thumb
 827              		.thumb_func
 828              		.type	sem2_execute, %function
 829              	sem2_execute:
 830              	.LFB12:
 831              		.loc 1 148 0
 832              		.cfi_startproc
 833              		@ args = 0, pretend = 0, frame = 0
 834              		@ frame_needed = 0, uses_anonymous_args = 0
 835 0000 70B5     		push	{r4, r5, r6, lr}
 836              	.LCFI10:
 837              		.cfi_def_cfa_offset 16
 838              		.cfi_offset 4, -16
 839              		.cfi_offset 5, -12
 840              		.cfi_offset 6, -8
 841              		.cfi_offset 14, -4
 842              		.loc 1 156 0
 843 0002 4C4C     		ldr	r4, .L52
 844 0004 0021     		movs	r1, #0
 845              		.loc 1 148 0
 846 0006 82B0     		sub	sp, sp, #8
 847              	.LCFI11:
 848              		.cfi_def_cfa_offset 24
ARM GAS  C:\Users\LAB_ME~1\AppData\Local\Temp\ccLKfcip.s 			page 16


 849              		.loc 1 156 0
 850 0008 2046     		mov	r0, r4
 851 000a FFF7FEFF 		bl	chSemWaitTimeout
 852              	.LVL83:
 853              		.loc 1 157 0
 854 000e B0F1FF33 		subs	r3, r0, #-1
 855 0012 5942     		rsbs	r1, r3, #0
 856 0014 5941     		adcs	r1, r1, r3
 857 0016 0120     		movs	r0, #1
 858              	.LVL84:
 859 0018 FFF7FEFF 		bl	_test_assert
 860              	.LVL85:
 861 001c 08B1     		cbz	r0, .L51
 862              	.L45:
 863              		.loc 1 186 0
 864 001e 02B0     		add	sp, sp, #8
 865 0020 70BD     		pop	{r4, r5, r6, pc}
 866              	.L51:
 867              		.loc 1 158 0
 868 0022 2168     		ldr	r1, [r4, #0]
 869 0024 0220     		movs	r0, #2
 870 0026 B1EB040C 		subs	ip, r1, r4
 871 002a DCF10001 		rsbs	r1, ip, #0
 872 002e 51EB0C01 		adcs	r1, r1, ip
 873 0032 FFF7FEFF 		bl	_test_assert
 874              	.LVL86:
 875 0036 0028     		cmp	r0, #0
 876 0038 F1D1     		bne	.L45
 877              		.loc 1 159 0
 878 003a A168     		ldr	r1, [r4, #8]
 879 003c 0320     		movs	r0, #3
 880 003e D1F10101 		rsbs	r1, r1, #1
 881 0042 38BF     		it	cc
 882 0044 0021     		movcc	r1, #0
 883 0046 FFF7FEFF 		bl	_test_assert
 884              	.LVL87:
 885 004a 0028     		cmp	r0, #0
 886 004c E7D1     		bne	.L45
 887              	.LBB21:
 888              	.LBB22:
 889              		.loc 1 164 0
 890 004e 3A4B     		ldr	r3, .L52+4
 891 0050 9B69     		ldr	r3, [r3, #24]
 892 0052 9A68     		ldr	r2, [r3, #8]
 893 0054 0090     		str	r0, [sp, #0]
 894 0056 3948     		ldr	r0, .L52+8
 895 0058 394B     		ldr	r3, .L52+12
 896 005a 0068     		ldr	r0, [r0, #0]
 897 005c 013A     		subs	r2, r2, #1
 898 005e 4FF49871 		mov	r1, #304
 899 0062 FFF7FEFF 		bl	chThdCreateStatic
 900              	.LVL88:
 901 0066 374B     		ldr	r3, .L52+16
 902              		.loc 1 166 0
 903 0068 4FF4FA71 		mov	r1, #500
 904              		.loc 1 164 0
 905 006c 1860     		str	r0, [r3, #0]
ARM GAS  C:\Users\LAB_ME~1\AppData\Local\Temp\ccLKfcip.s 			page 17


 906              		.loc 1 166 0
 907 006e 2046     		mov	r0, r4
 908 0070 FFF7FEFF 		bl	chSemWaitTimeout
 909              	.LVL89:
 910 0074 0546     		mov	r5, r0
 911              	.LVL90:
 912              		.loc 1 167 0
 913 0076 FFF7FEFF 		bl	test_wait_threads
 914              	.LVL91:
 915              		.loc 1 168 0
 916 007a 0420     		movs	r0, #4
 917 007c D5F10101 		rsbs	r1, r5, #1
 918 0080 38BF     		it	cc
 919 0082 0021     		movcc	r1, #0
 920 0084 FFF7FEFF 		bl	_test_assert
 921              	.LVL92:
 922 0088 0028     		cmp	r0, #0
 923 008a C8D1     		bne	.L45
 924              		.loc 1 169 0
 925 008c 2168     		ldr	r1, [r4, #0]
 926 008e 0520     		movs	r0, #5
 927 0090 B1EB040E 		subs	lr, r1, r4
 928 0094 DEF10001 		rsbs	r1, lr, #0
 929 0098 51EB0E01 		adcs	r1, r1, lr
 930 009c FFF7FEFF 		bl	_test_assert
 931              	.LVL93:
 932 00a0 0028     		cmp	r0, #0
 933 00a2 BCD1     		bne	.L45
 934              		.loc 1 170 0
 935 00a4 A168     		ldr	r1, [r4, #8]
 936 00a6 0620     		movs	r0, #6
 937 00a8 D1F10101 		rsbs	r1, r1, #1
 938 00ac 38BF     		it	cc
 939 00ae 0021     		movcc	r1, #0
 940 00b0 FFF7FEFF 		bl	_test_assert
 941              	.LVL94:
 942 00b4 0028     		cmp	r0, #0
 943 00b6 B2D1     		bne	.L45
 944              		.loc 1 175 0
 945 00b8 FFF7FEFF 		bl	test_wait_tick
 946              	.LVL95:
 947              		.loc 1 176 0
 948 00bc 224B     		ldr	r3, .L52+20
 949 00be DE68     		ldr	r6, [r3, #12]
 950              	.LVL96:
 951 00c0 4125     		movs	r5, #65
 952              	.LVL97:
 953              	.L49:
 954              		.loc 1 178 0
 955 00c2 2846     		mov	r0, r5
 956 00c4 FFF7FEFF 		bl	test_emit_token
 957              	.LVL98:
 958              		.loc 1 179 0
 959 00c8 4FF4FA71 		mov	r1, #500
 960 00cc 1948     		ldr	r0, .L52
 961 00ce FFF7FEFF 		bl	chSemWaitTimeout
 962              	.LVL99:
ARM GAS  C:\Users\LAB_ME~1\AppData\Local\Temp\ccLKfcip.s 			page 18


 963              		.loc 1 180 0
 964 00d2 B0F1FF30 		subs	r0, r0, #-1
 965              	.LVL100:
 966 00d6 4142     		rsbs	r1, r0, #0
 967 00d8 4141     		adcs	r1, r1, r0
 968 00da 0720     		movs	r0, #7
 969              	.LVL101:
 970 00dc FFF7FEFF 		bl	_test_assert
 971              	.LVL102:
 972 00e0 0028     		cmp	r0, #0
 973 00e2 9CD1     		bne	.L45
 974              		.loc 1 181 0
 975 00e4 2168     		ldr	r1, [r4, #0]
 976 00e6 0820     		movs	r0, #8
 977 00e8 0A1B     		subs	r2, r1, r4
 978 00ea 5142     		rsbs	r1, r2, #0
 979 00ec 5141     		adcs	r1, r1, r2
 980 00ee FFF7FEFF 		bl	_test_assert
 981              	.LVL103:
 982 00f2 0028     		cmp	r0, #0
 983 00f4 93D1     		bne	.L45
 984              		.loc 1 182 0
 985 00f6 A168     		ldr	r1, [r4, #8]
 986 00f8 0920     		movs	r0, #9
 987 00fa D1F10101 		rsbs	r1, r1, #1
 988 00fe 38BF     		it	cc
 989 0100 0021     		movcc	r1, #0
 990 0102 FFF7FEFF 		bl	_test_assert
 991              	.LVL104:
 992 0106 0135     		adds	r5, r5, #1
 993 0108 EDB2     		uxtb	r5, r5
 994 010a 0028     		cmp	r0, #0
 995 010c 87D1     		bne	.L45
 996              		.loc 1 177 0
 997 010e 462D     		cmp	r5, #70
 998 0110 D7D1     		bne	.L49
 999              		.loc 1 184 0
 1000 0112 0A20     		movs	r0, #10
 1001 0114 0D49     		ldr	r1, .L52+24
 1002 0116 FFF7FEFF 		bl	_test_assert_sequence
 1003              	.LVL105:
 1004 011a 0028     		cmp	r0, #0
 1005 011c 7FF47FAF 		bne	.L45
 1006              		.loc 1 185 0
 1007 0120 0B20     		movs	r0, #11
 1008 0122 06F6C411 		addw	r1, r6, #2500
 1009 0126 06F6C912 		addw	r2, r6, #2505
 1010              	.LBE22:
 1011              	.LBE21:
 1012              		.loc 1 186 0
 1013 012a 02B0     		add	sp, sp, #8
 1014 012c BDE87040 		pop	{r4, r5, r6, lr}
 1015              	.LBB24:
 1016              	.LBB23:
 1017              		.loc 1 185 0
 1018 0130 FFF7FEBF 		b	_test_assert_time_window
 1019              	.LVL106:
ARM GAS  C:\Users\LAB_ME~1\AppData\Local\Temp\ccLKfcip.s 			page 19


 1020              	.L53:
 1021              		.align	2
 1022              	.L52:
 1023 0134 00000000 		.word	.LANCHOR0
 1024 0138 00000000 		.word	rlist
 1025 013c 00000000 		.word	wa
 1026 0140 00000000 		.word	thread2
 1027 0144 00000000 		.word	threads
 1028 0148 00000000 		.word	vtlist
 1029 014c 14000000 		.word	.LC5
 1030              	.LBE23:
 1031              	.LBE24:
 1032              		.cfi_endproc
 1033              	.LFE12:
 1034              		.size	sem2_execute, .-sem2_execute
 1035              		.global	patternsem
 1036              		.global	testsem4
 1037              		.global	testsem3
 1038              		.global	testsem2
 1039              		.global	testsem1
 1040              		.section	.rodata.testsem1,"a",%progbits
 1041              		.align	2
 1042              		.type	testsem1, %object
 1043              		.size	testsem1, 16
 1044              	testsem1:
 1045 0000 74000000 		.word	.LC9
 1046 0004 00000000 		.word	sem1_setup
 1047 0008 00000000 		.word	0
 1048 000c 00000000 		.word	sem1_execute
 1049              		.section	.rodata.testsem2,"a",%progbits
 1050              		.align	2
 1051              		.type	testsem2, %object
 1052              		.size	testsem2, 16
 1053              	testsem2:
 1054 0000 60000000 		.word	.LC8
 1055 0004 00000000 		.word	sem2_setup
 1056 0008 00000000 		.word	0
 1057 000c 00000000 		.word	sem2_execute
 1058              		.section	.rodata.testsem3,"a",%progbits
 1059              		.align	2
 1060              		.type	testsem3, %object
 1061              		.size	testsem3, 16
 1062              	testsem3:
 1063 0000 40000000 		.word	.LC7
 1064 0004 00000000 		.word	sem3_setup
 1065 0008 00000000 		.word	0
 1066 000c 00000000 		.word	sem3_execute
 1067              		.section	.rodata.testsem4,"a",%progbits
 1068              		.align	2
 1069              		.type	testsem4, %object
 1070              		.size	testsem4, 16
 1071              	testsem4:
 1072 0000 1C000000 		.word	.LC6
 1073 0004 00000000 		.word	0
 1074 0008 00000000 		.word	0
 1075 000c 00000000 		.word	sem4_execute
 1076              		.section	.data.sem1,"aw",%progbits
ARM GAS  C:\Users\LAB_ME~1\AppData\Local\Temp\ccLKfcip.s 			page 20


 1077              		.align	2
 1078              		.set	.LANCHOR0,. + 0
 1079              		.type	sem1, %object
 1080              		.size	sem1, 12
 1081              	sem1:
 1082 0000 00000000 		.word	sem1
 1083 0004 00000000 		.word	sem1
 1084 0008 00000000 		.word	0
 1085              		.section	.rodata.patternsem,"a",%progbits
 1086              		.align	2
 1087              		.type	patternsem, %object
 1088              		.size	patternsem, 20
 1089              	patternsem:
 1090 0000 00000000 		.word	testsem1
 1091 0004 00000000 		.word	testsem2
 1092 0008 00000000 		.word	testsem3
 1093 000c 00000000 		.word	testsem4
 1094 0010 00000000 		.word	0
 1095              		.section	.rodata.str1.4,"aMS",%progbits,1
 1096              		.align	2
 1097              	.LC0:
 1098 0000 4100     		.ascii	"A\000"
 1099 0002 0000     		.space	2
 1100              	.LC1:
 1101 0004 4200     		.ascii	"B\000"
 1102 0006 0000     		.space	2
 1103              	.LC2:
 1104 0008 4300     		.ascii	"C\000"
 1105 000a 0000     		.space	2
 1106              	.LC3:
 1107 000c 4400     		.ascii	"D\000"
 1108 000e 0000     		.space	2
 1109              	.LC4:
 1110 0010 4500     		.ascii	"E\000"
 1111 0012 0000     		.space	2
 1112              	.LC5:
 1113 0014 41424344 		.ascii	"ABCDE\000"
 1113      4500
 1114 001a 0000     		.space	2
 1115              	.LC6:
 1116 001c 42696E61 		.ascii	"Binary Semaphores, functionality\000"
 1116      72792053 
 1116      656D6170 
 1116      686F7265 
 1116      732C2066 
 1117 003d 000000   		.space	3
 1118              	.LC7:
 1119 0040 53656D61 		.ascii	"Semaphores, atomic signal-wait\000"
 1119      70686F72 
 1119      65732C20 
 1119      61746F6D 
 1119      69632073 
 1120 005f 00       		.space	1
 1121              	.LC8:
 1122 0060 53656D61 		.ascii	"Semaphores, timeout\000"
 1122      70686F72 
 1122      65732C20 
ARM GAS  C:\Users\LAB_ME~1\AppData\Local\Temp\ccLKfcip.s 			page 21


 1122      74696D65 
 1122      6F757400 
 1123              	.LC9:
 1124 0074 53656D61 		.ascii	"Semaphores, enqueuing\000"
 1124      70686F72 
 1124      65732C20 
 1124      656E7175 
 1124      6575696E 
 1125 008a 0000     		.text
 1126              	.Letext0:
 1127              		.file 2 "c:\\program files (x86)\\codesourcery\\sourcery_codebench_lite_for_arm_eabi\\bin\\../lib/
 1128              		.file 3 "c:\\program files (x86)\\codesourcery\\sourcery_codebench_lite_for_arm_eabi\\bin\\../lib/
 1129              		.file 4 "../../os/ports/GCC/ARMCMx/chtypes.h"
 1130              		.file 5 "../../os/kernel/include/chlists.h"
 1131              		.file 6 "../../os/kernel/include/chthreads.h"
 1132              		.file 7 "../../os/ports/GCC/ARMCMx/chcore_v7m.h"
 1133              		.file 8 "../../os/kernel/include/chvt.h"
 1134              		.file 9 "../../os/kernel/include/chschd.h"
 1135              		.file 10 "../../os/kernel/include/chsem.h"
 1136              		.file 11 "../../os/kernel/include/chbsem.h"
 1137              		.file 12 "../../os/kernel/include/chmtx.h"
 1138              		.file 13 "../../test/test.h"