ARM GAS  C:\Users\LAB_ME~1\AppData\Local\Temp\ccnOo3uD.s 			page 1


   1              		.syntax unified
   2              		.cpu cortex-m4
   3              		.fpu softvfp
   4              		.eabi_attribute 20, 1
   5              		.eabi_attribute 21, 1
   6              		.eabi_attribute 23, 3
   7              		.eabi_attribute 24, 1
   8              		.eabi_attribute 25, 1
   9              		.eabi_attribute 26, 1
  10              		.eabi_attribute 30, 2
  11              		.eabi_attribute 34, 1
  12              		.eabi_attribute 18, 4
  13              		.thumb
  14              		.file	"testmtx.c"
  15              		.text
  16              	.Ltext0:
  17              		.cfi_sections	.debug_frame
  18              		.section	.text.mtx8_execute,"ax",%progbits
  19              		.align	2
  20              		.p2align 4,,15
  21              		.thumb
  22              		.thumb_func
  23              		.type	mtx8_execute, %function
  24              	mtx8_execute:
  25              	.LFB36:
  26              		.file 1 "../../test/testmtx.c"
  27              		.loc 1 599 0
  28              		.cfi_startproc
  29              		@ args = 0, pretend = 0, frame = 0
  30              		@ frame_needed = 0, uses_anonymous_args = 0
  31 0000 F0B5     		push	{r4, r5, r6, r7, lr}
  32              	.LCFI0:
  33              		.cfi_def_cfa_offset 20
  34              		.cfi_offset 4, -20
  35              		.cfi_offset 5, -16
  36              		.cfi_offset 6, -12
  37              		.cfi_offset 7, -8
  38              		.cfi_offset 14, -4
  39              		.loc 1 601 0
  40 0002 1B4B     		ldr	r3, .L2
  41              		.loc 1 602 0
  42 0004 1B4E     		ldr	r6, .L2+4
  43              		.loc 1 601 0
  44 0006 9B69     		ldr	r3, [r3, #24]
  45              		.loc 1 602 0
  46 0008 1B4A     		ldr	r2, .L2+8
  47              		.loc 1 601 0
  48 000a 9D68     		ldr	r5, [r3, #8]
  49              	.LVL0:
  50              		.loc 1 602 0
  51 000c 3068     		ldr	r0, [r6, #0]
  52 000e 1B4B     		ldr	r3, .L2+12
  53 0010 1B4C     		ldr	r4, .L2+16
  54              		.loc 1 599 0
  55 0012 83B0     		sub	sp, sp, #12
  56              	.LCFI1:
  57              		.cfi_def_cfa_offset 32
ARM GAS  C:\Users\LAB_ME~1\AppData\Local\Temp\ccnOo3uD.s 			page 2


  58              		.loc 1 602 0
  59 0014 4FF49871 		mov	r1, #304
  60 0018 0092     		str	r2, [sp, #0]
  61 001a 6A1C     		adds	r2, r5, #1
  62 001c FFF7FEFF 		bl	chThdCreateStatic
  63              	.LVL1:
  64              		.loc 1 603 0
  65 0020 7768     		ldr	r7, [r6, #4]
  66              		.loc 1 602 0
  67 0022 2060     		str	r0, [r4, #0]
  68              		.loc 1 603 0
  69 0024 1748     		ldr	r0, .L2+20
  70 0026 184B     		ldr	r3, .L2+24
  71 0028 0090     		str	r0, [sp, #0]
  72 002a AA1C     		adds	r2, r5, #2
  73 002c 4FF49871 		mov	r1, #304
  74 0030 3846     		mov	r0, r7
  75 0032 FFF7FEFF 		bl	chThdCreateStatic
  76              	.LVL2:
  77              		.loc 1 604 0
  78 0036 B668     		ldr	r6, [r6, #8]
  79              		.loc 1 603 0
  80 0038 6060     		str	r0, [r4, #4]
  81              		.loc 1 604 0
  82 003a 1448     		ldr	r0, .L2+28
  83 003c 144B     		ldr	r3, .L2+32
  84 003e 0090     		str	r0, [sp, #0]
  85 0040 EA1C     		adds	r2, r5, #3
  86 0042 4FF49871 		mov	r1, #304
  87 0046 3046     		mov	r0, r6
  88 0048 FFF7FEFF 		bl	chThdCreateStatic
  89              	.LVL3:
  90              		.loc 1 605 0
  91 004c 114D     		ldr	r5, .L2+36
  92              	.LVL4:
  93              		.loc 1 604 0
  94 004e A060     		str	r0, [r4, #8]
  95              		.loc 1 605 0
  96 0050 2846     		mov	r0, r5
  97 0052 FFF7FEFF 		bl	chCondSignal
  98              	.LVL5:
  99              		.loc 1 606 0
 100 0056 2846     		mov	r0, r5
 101 0058 FFF7FEFF 		bl	chCondSignal
 102              	.LVL6:
 103              		.loc 1 607 0
 104 005c FFF7FEFF 		bl	test_wait_threads
 105              	.LVL7:
 106              		.loc 1 608 0
 107 0060 0D49     		ldr	r1, .L2+40
 108 0062 0120     		movs	r0, #1
 109              		.loc 1 609 0
 110 0064 03B0     		add	sp, sp, #12
 111 0066 BDE8F040 		pop	{r4, r5, r6, r7, lr}
 112              		.loc 1 608 0
 113 006a FFF7FEBF 		b	_test_assert_sequence
 114              	.LVL8:
ARM GAS  C:\Users\LAB_ME~1\AppData\Local\Temp\ccnOo3uD.s 			page 3


 115              	.L3:
 116 006e 00BF     		.align	2
 117              	.L2:
 118 0070 00000000 		.word	rlist
 119 0074 00000000 		.word	wa
 120 0078 00000000 		.word	.LC0
 121 007c 00000000 		.word	thread11
 122 0080 00000000 		.word	threads
 123 0084 04000000 		.word	.LC1
 124 0088 00000000 		.word	thread10
 125 008c 08000000 		.word	.LC2
 126 0090 00000000 		.word	thread12
 127 0094 00000000 		.word	.LANCHOR0
 128 0098 0C000000 		.word	.LC3
 129              		.cfi_endproc
 130              	.LFE36:
 131              		.size	mtx8_execute, .-mtx8_execute
 132 009c AFF30080 		.section	.text.thread12,"ax",%progbits
 133              		.align	2
 134              		.p2align 4,,15
 135              		.thumb
 136              		.thumb_func
 137              		.type	thread12, %function
 138              	thread12:
 139              	.LFB35:
 140              		.loc 1 591 0
 141              		.cfi_startproc
 142              		@ args = 0, pretend = 0, frame = 0
 143              		@ frame_needed = 0, uses_anonymous_args = 0
 144              	.LVL9:
 145 0000 10B5     		push	{r4, lr}
 146              	.LCFI2:
 147              		.cfi_def_cfa_offset 8
 148              		.cfi_offset 4, -8
 149              		.cfi_offset 14, -4
 150              		.loc 1 591 0
 151 0002 0446     		mov	r4, r0
 152              		.loc 1 593 0
 153 0004 0448     		ldr	r0, .L5
 154              	.LVL10:
 155 0006 FFF7FEFF 		bl	chMtxLock
 156              	.LVL11:
 157              		.loc 1 594 0
 158 000a 2078     		ldrb	r0, [r4, #0]	@ zero_extendqisi2
 159 000c FFF7FEFF 		bl	test_emit_token
 160              	.LVL12:
 161              		.loc 1 595 0
 162 0010 FFF7FEFF 		bl	chMtxUnlock
 163              	.LVL13:
 164              		.loc 1 597 0
 165 0014 0020     		movs	r0, #0
 166 0016 10BD     		pop	{r4, pc}
 167              	.L6:
 168              		.align	2
 169              	.L5:
 170 0018 00000000 		.word	.LANCHOR1
 171              		.cfi_endproc
ARM GAS  C:\Users\LAB_ME~1\AppData\Local\Temp\ccnOo3uD.s 			page 4


 172              	.LFE35:
 173              		.size	thread12, .-thread12
 174 001c AFF30080 		.section	.text.thread1,"ax",%progbits
 175              		.align	2
 176              		.p2align 4,,15
 177              		.thumb
 178              		.thumb_func
 179              		.type	thread1, %function
 180              	thread1:
 181              	.LFB8:
 182              		.loc 1 93 0
 183              		.cfi_startproc
 184              		@ args = 0, pretend = 0, frame = 0
 185              		@ frame_needed = 0, uses_anonymous_args = 0
 186              	.LVL14:
 187 0000 10B5     		push	{r4, lr}
 188              	.LCFI3:
 189              		.cfi_def_cfa_offset 8
 190              		.cfi_offset 4, -8
 191              		.cfi_offset 14, -4
 192              		.loc 1 93 0
 193 0002 0446     		mov	r4, r0
 194              		.loc 1 95 0
 195 0004 0448     		ldr	r0, .L8
 196              	.LVL15:
 197 0006 FFF7FEFF 		bl	chMtxLock
 198              	.LVL16:
 199              		.loc 1 96 0
 200 000a 2078     		ldrb	r0, [r4, #0]	@ zero_extendqisi2
 201 000c FFF7FEFF 		bl	test_emit_token
 202              	.LVL17:
 203              		.loc 1 97 0
 204 0010 FFF7FEFF 		bl	chMtxUnlock
 205              	.LVL18:
 206              		.loc 1 99 0
 207 0014 0020     		movs	r0, #0
 208 0016 10BD     		pop	{r4, pc}
 209              	.L9:
 210              		.align	2
 211              	.L8:
 212 0018 00000000 		.word	.LANCHOR2
 213              		.cfi_endproc
 214              	.LFE8:
 215              		.size	thread1, .-thread1
 216 001c AFF30080 		.section	.text.thread10,"ax",%progbits
 217              		.align	2
 218              		.p2align 4,,15
 219              		.thumb
 220              		.thumb_func
 221              		.type	thread10, %function
 222              	thread10:
 223              	.LFB29:
 224              		.loc 1 488 0
 225              		.cfi_startproc
 226              		@ args = 0, pretend = 0, frame = 0
 227              		@ frame_needed = 0, uses_anonymous_args = 0
 228              	.LVL19:
ARM GAS  C:\Users\LAB_ME~1\AppData\Local\Temp\ccnOo3uD.s 			page 5


 229 0000 10B5     		push	{r4, lr}
 230              	.LCFI4:
 231              		.cfi_def_cfa_offset 8
 232              		.cfi_offset 4, -8
 233              		.cfi_offset 14, -4
 234              		.loc 1 488 0
 235 0002 0446     		mov	r4, r0
 236              		.loc 1 490 0
 237 0004 0648     		ldr	r0, .L11
 238              	.LVL20:
 239 0006 FFF7FEFF 		bl	chMtxLock
 240              	.LVL21:
 241              		.loc 1 491 0
 242 000a 0648     		ldr	r0, .L11+4
 243 000c FFF7FEFF 		bl	chCondWait
 244              	.LVL22:
 245              		.loc 1 492 0
 246 0010 2078     		ldrb	r0, [r4, #0]	@ zero_extendqisi2
 247 0012 FFF7FEFF 		bl	test_emit_token
 248              	.LVL23:
 249              		.loc 1 493 0
 250 0016 FFF7FEFF 		bl	chMtxUnlock
 251              	.LVL24:
 252              		.loc 1 495 0
 253 001a 0020     		movs	r0, #0
 254 001c 10BD     		pop	{r4, pc}
 255              	.L12:
 256 001e 00BF     		.align	2
 257              	.L11:
 258 0020 00000000 		.word	.LANCHOR2
 259 0024 00000000 		.word	.LANCHOR0
 260              		.cfi_endproc
 261              	.LFE29:
 262              		.size	thread10, .-thread10
 263 0028 AFF30080 		.section	.text.thread11,"ax",%progbits
 263      AFF30080 
 264              		.align	2
 265              		.p2align 4,,15
 266              		.thumb
 267              		.thumb_func
 268              		.type	thread11, %function
 269              	thread11:
 270              	.LFB34:
 271              		.loc 1 576 0
 272              		.cfi_startproc
 273              		@ args = 0, pretend = 0, frame = 0
 274              		@ frame_needed = 0, uses_anonymous_args = 0
 275              	.LVL25:
 276 0000 10B5     		push	{r4, lr}
 277              	.LCFI5:
 278              		.cfi_def_cfa_offset 8
 279              		.cfi_offset 4, -8
 280              		.cfi_offset 14, -4
 281              		.loc 1 576 0
 282 0002 0446     		mov	r4, r0
 283              		.loc 1 578 0
 284 0004 0948     		ldr	r0, .L14
ARM GAS  C:\Users\LAB_ME~1\AppData\Local\Temp\ccnOo3uD.s 			page 6


 285              	.LVL26:
 286 0006 FFF7FEFF 		bl	chMtxLock
 287              	.LVL27:
 288              		.loc 1 579 0
 289 000a 0948     		ldr	r0, .L14+4
 290 000c FFF7FEFF 		bl	chMtxLock
 291              	.LVL28:
 292              		.loc 1 581 0
 293 0010 4FF0FF31 		mov	r1, #-1
 294 0014 0748     		ldr	r0, .L14+8
 295 0016 FFF7FEFF 		bl	chCondWaitTimeout
 296              	.LVL29:
 297              		.loc 1 585 0
 298 001a 2078     		ldrb	r0, [r4, #0]	@ zero_extendqisi2
 299 001c FFF7FEFF 		bl	test_emit_token
 300              	.LVL30:
 301              		.loc 1 586 0
 302 0020 FFF7FEFF 		bl	chMtxUnlock
 303              	.LVL31:
 304              		.loc 1 587 0
 305 0024 FFF7FEFF 		bl	chMtxUnlock
 306              	.LVL32:
 307              		.loc 1 589 0
 308 0028 0020     		movs	r0, #0
 309 002a 10BD     		pop	{r4, pc}
 310              	.L15:
 311              		.align	2
 312              	.L14:
 313 002c 00000000 		.word	.LANCHOR1
 314 0030 00000000 		.word	.LANCHOR2
 315 0034 00000000 		.word	.LANCHOR0
 316              		.cfi_endproc
 317              	.LFE34:
 318              		.size	thread11, .-thread11
 319 0038 AFF30080 		.section	.text.mtx8_setup,"ax",%progbits
 319      AFF30080 
 320              		.align	2
 321              		.p2align 4,,15
 322              		.thumb
 323              		.thumb_func
 324              		.type	mtx8_setup, %function
 325              	mtx8_setup:
 326              	.LFB33:
 327              		.loc 1 569 0
 328              		.cfi_startproc
 329              		@ args = 0, pretend = 0, frame = 0
 330              		@ frame_needed = 0, uses_anonymous_args = 0
 331 0000 08B5     		push	{r3, lr}
 332              	.LCFI6:
 333              		.cfi_def_cfa_offset 8
 334              		.cfi_offset 3, -8
 335              		.cfi_offset 14, -4
 336              		.loc 1 571 0
 337 0002 0548     		ldr	r0, .L17
 338 0004 FFF7FEFF 		bl	chCondInit
 339              	.LVL33:
 340              		.loc 1 572 0
ARM GAS  C:\Users\LAB_ME~1\AppData\Local\Temp\ccnOo3uD.s 			page 7


 341 0008 0448     		ldr	r0, .L17+4
 342 000a FFF7FEFF 		bl	chMtxInit
 343              	.LVL34:
 344              		.loc 1 573 0
 345 000e 0448     		ldr	r0, .L17+8
 346              		.loc 1 574 0
 347 0010 BDE80840 		pop	{r3, lr}
 348              		.loc 1 573 0
 349 0014 FFF7FEBF 		b	chMtxInit
 350              	.LVL35:
 351              	.L18:
 352              		.align	2
 353              	.L17:
 354 0018 00000000 		.word	.LANCHOR0
 355 001c 00000000 		.word	.LANCHOR2
 356 0020 00000000 		.word	.LANCHOR1
 357              		.cfi_endproc
 358              	.LFE33:
 359              		.size	mtx8_setup, .-mtx8_setup
 360 0024 AFF30080 		.section	.text.mtx7_setup,"ax",%progbits
 360      AFF30080 
 360      AFF30080 
 361              		.align	2
 362              		.p2align 4,,15
 363              		.thumb
 364              		.thumb_func
 365              		.type	mtx7_setup, %function
 366              	mtx7_setup:
 367              	.LFB31:
 368              		.loc 1 534 0
 369              		.cfi_startproc
 370              		@ args = 0, pretend = 0, frame = 0
 371              		@ frame_needed = 0, uses_anonymous_args = 0
 372 0000 08B5     		push	{r3, lr}
 373              	.LCFI7:
 374              		.cfi_def_cfa_offset 8
 375              		.cfi_offset 3, -8
 376              		.cfi_offset 14, -4
 377              		.loc 1 536 0
 378 0002 0448     		ldr	r0, .L20
 379 0004 FFF7FEFF 		bl	chCondInit
 380              	.LVL36:
 381              		.loc 1 537 0
 382 0008 0348     		ldr	r0, .L20+4
 383              		.loc 1 538 0
 384 000a BDE80840 		pop	{r3, lr}
 385              		.loc 1 537 0
 386 000e FFF7FEBF 		b	chMtxInit
 387              	.LVL37:
 388              	.L21:
 389 0012 00BF     		.align	2
 390              	.L20:
 391 0014 00000000 		.word	.LANCHOR0
 392 0018 00000000 		.word	.LANCHOR2
 393              		.cfi_endproc
 394              	.LFE31:
 395              		.size	mtx7_setup, .-mtx7_setup
ARM GAS  C:\Users\LAB_ME~1\AppData\Local\Temp\ccnOo3uD.s 			page 8


 396 001c AFF30080 		.section	.text.mtx6_setup,"ax",%progbits
 397              		.align	2
 398              		.p2align 4,,15
 399              		.thumb
 400              		.thumb_func
 401              		.type	mtx6_setup, %function
 402              	mtx6_setup:
 403              	.LFB28:
 404              		.loc 1 482 0
 405              		.cfi_startproc
 406              		@ args = 0, pretend = 0, frame = 0
 407              		@ frame_needed = 0, uses_anonymous_args = 0
 408 0000 08B5     		push	{r3, lr}
 409              	.LCFI8:
 410              		.cfi_def_cfa_offset 8
 411              		.cfi_offset 3, -8
 412              		.cfi_offset 14, -4
 413              		.loc 1 484 0
 414 0002 0448     		ldr	r0, .L23
 415 0004 FFF7FEFF 		bl	chCondInit
 416              	.LVL38:
 417              		.loc 1 485 0
 418 0008 0348     		ldr	r0, .L23+4
 419              		.loc 1 486 0
 420 000a BDE80840 		pop	{r3, lr}
 421              		.loc 1 485 0
 422 000e FFF7FEBF 		b	chMtxInit
 423              	.LVL39:
 424              	.L24:
 425 0012 00BF     		.align	2
 426              	.L23:
 427 0014 00000000 		.word	.LANCHOR0
 428 0018 00000000 		.word	.LANCHOR2
 429              		.cfi_endproc
 430              	.LFE28:
 431              		.size	mtx6_setup, .-mtx6_setup
 432 001c AFF30080 		.section	.text.mtx5_setup,"ax",%progbits
 433              		.align	2
 434              		.p2align 4,,15
 435              		.thumb
 436              		.thumb_func
 437              		.type	mtx5_setup, %function
 438              	mtx5_setup:
 439              	.LFB26:
 440              		.loc 1 432 0
 441              		.cfi_startproc
 442              		@ args = 0, pretend = 0, frame = 0
 443              		@ frame_needed = 0, uses_anonymous_args = 0
 444              		@ link register save eliminated.
 445              		.loc 1 434 0
 446 0000 0148     		ldr	r0, .L26
 447              		.loc 1 435 0
 448              		.loc 1 434 0
 449 0002 FFF7FEBF 		b	chMtxInit
 450              	.LVL40:
 451              	.L27:
 452 0006 00BF     		.align	2
ARM GAS  C:\Users\LAB_ME~1\AppData\Local\Temp\ccnOo3uD.s 			page 9


 453              	.L26:
 454 0008 00000000 		.word	.LANCHOR2
 455              		.cfi_endproc
 456              	.LFE26:
 457              		.size	mtx5_setup, .-mtx5_setup
 458 000c AFF30080 		.section	.text.mtx4_setup,"ax",%progbits
 459              		.align	2
 460              		.p2align 4,,15
 461              		.thumb
 462              		.thumb_func
 463              		.type	mtx4_setup, %function
 464              	mtx4_setup:
 465              	.LFB22:
 466              		.loc 1 345 0
 467              		.cfi_startproc
 468              		@ args = 0, pretend = 0, frame = 0
 469              		@ frame_needed = 0, uses_anonymous_args = 0
 470 0000 08B5     		push	{r3, lr}
 471              	.LCFI9:
 472              		.cfi_def_cfa_offset 8
 473              		.cfi_offset 3, -8
 474              		.cfi_offset 14, -4
 475              		.loc 1 347 0
 476 0002 0448     		ldr	r0, .L29
 477 0004 FFF7FEFF 		bl	chMtxInit
 478              	.LVL41:
 479              		.loc 1 348 0
 480 0008 0348     		ldr	r0, .L29+4
 481              		.loc 1 349 0
 482 000a BDE80840 		pop	{r3, lr}
 483              		.loc 1 348 0
 484 000e FFF7FEBF 		b	chMtxInit
 485              	.LVL42:
 486              	.L30:
 487 0012 00BF     		.align	2
 488              	.L29:
 489 0014 00000000 		.word	.LANCHOR2
 490 0018 00000000 		.word	.LANCHOR1
 491              		.cfi_endproc
 492              	.LFE22:
 493              		.size	mtx4_setup, .-mtx4_setup
 494 001c AFF30080 		.section	.text.mtx3_setup,"ax",%progbits
 495              		.align	2
 496              		.p2align 4,,15
 497              		.thumb
 498              		.thumb_func
 499              		.type	mtx3_setup, %function
 500              	mtx3_setup:
 501              	.LFB15:
 502              		.loc 1 245 0
 503              		.cfi_startproc
 504              		@ args = 0, pretend = 0, frame = 0
 505              		@ frame_needed = 0, uses_anonymous_args = 0
 506 0000 08B5     		push	{r3, lr}
 507              	.LCFI10:
 508              		.cfi_def_cfa_offset 8
 509              		.cfi_offset 3, -8
ARM GAS  C:\Users\LAB_ME~1\AppData\Local\Temp\ccnOo3uD.s 			page 10


 510              		.cfi_offset 14, -4
 511              		.loc 1 247 0
 512 0002 0448     		ldr	r0, .L32
 513 0004 FFF7FEFF 		bl	chMtxInit
 514              	.LVL43:
 515              		.loc 1 248 0
 516 0008 0348     		ldr	r0, .L32+4
 517              		.loc 1 249 0
 518 000a BDE80840 		pop	{r3, lr}
 519              		.loc 1 248 0
 520 000e FFF7FEBF 		b	chMtxInit
 521              	.LVL44:
 522              	.L33:
 523 0012 00BF     		.align	2
 524              	.L32:
 525 0014 00000000 		.word	.LANCHOR2
 526 0018 00000000 		.word	.LANCHOR1
 527              		.cfi_endproc
 528              	.LFE15:
 529              		.size	mtx3_setup, .-mtx3_setup
 530 001c AFF30080 		.section	.text.mtx2_setup,"ax",%progbits
 531              		.align	2
 532              		.p2align 4,,15
 533              		.thumb
 534              		.thumb_func
 535              		.type	mtx2_setup, %function
 536              	mtx2_setup:
 537              	.LFB10:
 538              		.loc 1 155 0
 539              		.cfi_startproc
 540              		@ args = 0, pretend = 0, frame = 0
 541              		@ frame_needed = 0, uses_anonymous_args = 0
 542              		@ link register save eliminated.
 543              		.loc 1 157 0
 544 0000 0148     		ldr	r0, .L35
 545              		.loc 1 158 0
 546              		.loc 1 157 0
 547 0002 FFF7FEBF 		b	chMtxInit
 548              	.LVL45:
 549              	.L36:
 550 0006 00BF     		.align	2
 551              	.L35:
 552 0008 00000000 		.word	.LANCHOR2
 553              		.cfi_endproc
 554              	.LFE10:
 555              		.size	mtx2_setup, .-mtx2_setup
 556 000c AFF30080 		.section	.text.mtx1_setup,"ax",%progbits
 557              		.align	2
 558              		.p2align 4,,15
 559              		.thumb
 560              		.thumb_func
 561              		.type	mtx1_setup, %function
 562              	mtx1_setup:
 563              	.LFB7:
 564              		.loc 1 88 0
 565              		.cfi_startproc
 566              		@ args = 0, pretend = 0, frame = 0
ARM GAS  C:\Users\LAB_ME~1\AppData\Local\Temp\ccnOo3uD.s 			page 11


 567              		@ frame_needed = 0, uses_anonymous_args = 0
 568              		@ link register save eliminated.
 569              		.loc 1 90 0
 570 0000 0148     		ldr	r0, .L38
 571              		.loc 1 91 0
 572              		.loc 1 90 0
 573 0002 FFF7FEBF 		b	chMtxInit
 574              	.LVL46:
 575              	.L39:
 576 0006 00BF     		.align	2
 577              	.L38:
 578 0008 00000000 		.word	.LANCHOR2
 579              		.cfi_endproc
 580              	.LFE7:
 581              		.size	mtx1_setup, .-mtx1_setup
 582 000c AFF30080 		.section	.text.mtx7_execute,"ax",%progbits
 583              		.align	2
 584              		.p2align 4,,15
 585              		.thumb
 586              		.thumb_func
 587              		.type	mtx7_execute, %function
 588              	mtx7_execute:
 589              	.LFB32:
 590              		.loc 1 540 0
 591              		.cfi_startproc
 592              		@ args = 0, pretend = 0, frame = 0
 593              		@ frame_needed = 0, uses_anonymous_args = 0
 594 0000 F0B5     		push	{r4, r5, r6, r7, lr}
 595              	.LCFI11:
 596              		.cfi_def_cfa_offset 20
 597              		.cfi_offset 4, -20
 598              		.cfi_offset 5, -16
 599              		.cfi_offset 6, -12
 600              		.cfi_offset 7, -8
 601              		.cfi_offset 14, -4
 602              		.loc 1 542 0
 603 0002 234B     		ldr	r3, .L41
 604              		.loc 1 543 0
 605 0004 234D     		ldr	r5, .L41+4
 606              		.loc 1 542 0
 607 0006 9B69     		ldr	r3, [r3, #24]
 608              		.loc 1 543 0
 609 0008 234F     		ldr	r7, .L41+8
 610              		.loc 1 542 0
 611 000a 9E68     		ldr	r6, [r3, #8]
 612              	.LVL47:
 613              		.loc 1 543 0
 614 000c 234B     		ldr	r3, .L41+12
 615 000e 3868     		ldr	r0, [r7, #0]
 616 0010 234C     		ldr	r4, .L41+16
 617              		.loc 1 540 0
 618 0012 83B0     		sub	sp, sp, #12
 619              	.LCFI12:
 620              		.cfi_def_cfa_offset 32
 621              		.loc 1 543 0
 622 0014 721C     		adds	r2, r6, #1
 623 0016 0093     		str	r3, [sp, #0]
ARM GAS  C:\Users\LAB_ME~1\AppData\Local\Temp\ccnOo3uD.s 			page 12


 624 0018 4FF49871 		mov	r1, #304
 625 001c 2B46     		mov	r3, r5
 626 001e FFF7FEFF 		bl	chThdCreateStatic
 627              	.LVL48:
 628 0022 2060     		str	r0, [r4, #0]
 629              		.loc 1 544 0
 630 0024 1F48     		ldr	r0, .L41+20
 631 0026 B21C     		adds	r2, r6, #2
 632 0028 2B46     		mov	r3, r5
 633 002a 0090     		str	r0, [sp, #0]
 634 002c 4FF49871 		mov	r1, #304
 635 0030 7868     		ldr	r0, [r7, #4]
 636 0032 FFF7FEFF 		bl	chThdCreateStatic
 637              	.LVL49:
 638 0036 6060     		str	r0, [r4, #4]
 639              		.loc 1 545 0
 640 0038 1B48     		ldr	r0, .L41+24
 641 003a F21C     		adds	r2, r6, #3
 642 003c 2B46     		mov	r3, r5
 643 003e 0090     		str	r0, [sp, #0]
 644 0040 4FF49871 		mov	r1, #304
 645 0044 B868     		ldr	r0, [r7, #8]
 646 0046 FFF7FEFF 		bl	chThdCreateStatic
 647              	.LVL50:
 648 004a A060     		str	r0, [r4, #8]
 649              		.loc 1 546 0
 650 004c 1748     		ldr	r0, .L41+28
 651 004e 321D     		adds	r2, r6, #4
 652 0050 2B46     		mov	r3, r5
 653 0052 0090     		str	r0, [sp, #0]
 654 0054 4FF49871 		mov	r1, #304
 655 0058 F868     		ldr	r0, [r7, #12]
 656 005a FFF7FEFF 		bl	chThdCreateStatic
 657              	.LVL51:
 658              		.loc 1 547 0
 659 005e 3F69     		ldr	r7, [r7, #16]
 660              		.loc 1 546 0
 661 0060 E060     		str	r0, [r4, #12]
 662              		.loc 1 547 0
 663 0062 1348     		ldr	r0, .L41+32
 664 0064 4FF49871 		mov	r1, #304
 665 0068 721D     		adds	r2, r6, #5
 666 006a 2B46     		mov	r3, r5
 667 006c 0090     		str	r0, [sp, #0]
 668 006e 3846     		mov	r0, r7
 669 0070 FFF7FEFF 		bl	chThdCreateStatic
 670              	.LVL52:
 671 0074 2061     		str	r0, [r4, #16]
 672              		.loc 1 548 0
 673 0076 0F48     		ldr	r0, .L41+36
 674 0078 FFF7FEFF 		bl	chCondBroadcast
 675              	.LVL53:
 676              		.loc 1 549 0
 677 007c FFF7FEFF 		bl	test_wait_threads
 678              	.LVL54:
 679              		.loc 1 550 0
 680 0080 0D49     		ldr	r1, .L41+40
ARM GAS  C:\Users\LAB_ME~1\AppData\Local\Temp\ccnOo3uD.s 			page 13


 681 0082 0120     		movs	r0, #1
 682              		.loc 1 551 0
 683 0084 03B0     		add	sp, sp, #12
 684 0086 BDE8F040 		pop	{r4, r5, r6, r7, lr}
 685              		.loc 1 550 0
 686 008a FFF7FEBF 		b	_test_assert_sequence
 687              	.LVL55:
 688              	.L42:
 689 008e 00BF     		.align	2
 690              	.L41:
 691 0090 00000000 		.word	rlist
 692 0094 00000000 		.word	thread10
 693 0098 00000000 		.word	wa
 694 009c 10000000 		.word	.LC4
 695 00a0 00000000 		.word	threads
 696 00a4 14000000 		.word	.LC5
 697 00a8 04000000 		.word	.LC1
 698 00ac 08000000 		.word	.LC2
 699 00b0 00000000 		.word	.LC0
 700 00b4 00000000 		.word	.LANCHOR0
 701 00b8 18000000 		.word	.LC6
 702              		.cfi_endproc
 703              	.LFE32:
 704              		.size	mtx7_execute, .-mtx7_execute
 705 00bc AFF30080 		.section	.text.mtx6_execute,"ax",%progbits
 706              		.align	2
 707              		.p2align 4,,15
 708              		.thumb
 709              		.thumb_func
 710              		.type	mtx6_execute, %function
 711              	mtx6_execute:
 712              	.LFB30:
 713              		.loc 1 497 0
 714              		.cfi_startproc
 715              		@ args = 0, pretend = 0, frame = 0
 716              		@ frame_needed = 0, uses_anonymous_args = 0
 717 0000 F0B5     		push	{r4, r5, r6, r7, lr}
 718              	.LCFI13:
 719              		.cfi_def_cfa_offset 20
 720              		.cfi_offset 4, -20
 721              		.cfi_offset 5, -16
 722              		.cfi_offset 6, -12
 723              		.cfi_offset 7, -8
 724              		.cfi_offset 14, -4
 725              		.loc 1 499 0
 726 0002 2F4B     		ldr	r3, .L44
 727              		.loc 1 500 0
 728 0004 2F4F     		ldr	r7, .L44+4
 729              		.loc 1 499 0
 730 0006 9B69     		ldr	r3, [r3, #24]
 731              		.loc 1 500 0
 732 0008 2F4E     		ldr	r6, .L44+8
 733              		.loc 1 499 0
 734 000a 9D68     		ldr	r5, [r3, #8]
 735              	.LVL56:
 736              		.loc 1 500 0
 737 000c 2F4B     		ldr	r3, .L44+12
ARM GAS  C:\Users\LAB_ME~1\AppData\Local\Temp\ccnOo3uD.s 			page 14


 738 000e 3868     		ldr	r0, [r7, #0]
 739 0010 2F4C     		ldr	r4, .L44+16
 740              		.loc 1 497 0
 741 0012 83B0     		sub	sp, sp, #12
 742              	.LCFI14:
 743              		.cfi_def_cfa_offset 32
 744              		.loc 1 500 0
 745 0014 6A1C     		adds	r2, r5, #1
 746 0016 0093     		str	r3, [sp, #0]
 747 0018 4FF49871 		mov	r1, #304
 748 001c 3346     		mov	r3, r6
 749 001e FFF7FEFF 		bl	chThdCreateStatic
 750              	.LVL57:
 751              		.loc 1 501 0
 752 0022 7968     		ldr	r1, [r7, #4]
 753              		.loc 1 500 0
 754 0024 2060     		str	r0, [r4, #0]
 755              		.loc 1 501 0
 756 0026 2B48     		ldr	r0, .L44+20
 757 0028 AA1C     		adds	r2, r5, #2
 758 002a 3346     		mov	r3, r6
 759 002c 0090     		str	r0, [sp, #0]
 760 002e 0846     		mov	r0, r1
 761 0030 4FF49871 		mov	r1, #304
 762 0034 FFF7FEFF 		bl	chThdCreateStatic
 763              	.LVL58:
 764              		.loc 1 502 0
 765 0038 B968     		ldr	r1, [r7, #8]
 766              		.loc 1 501 0
 767 003a 6060     		str	r0, [r4, #4]
 768              		.loc 1 502 0
 769 003c 2648     		ldr	r0, .L44+24
 770 003e EA1C     		adds	r2, r5, #3
 771 0040 3346     		mov	r3, r6
 772 0042 0090     		str	r0, [sp, #0]
 773 0044 0846     		mov	r0, r1
 774 0046 4FF49871 		mov	r1, #304
 775 004a FFF7FEFF 		bl	chThdCreateStatic
 776              	.LVL59:
 777              		.loc 1 503 0
 778 004e F968     		ldr	r1, [r7, #12]
 779              		.loc 1 502 0
 780 0050 A060     		str	r0, [r4, #8]
 781              		.loc 1 503 0
 782 0052 2248     		ldr	r0, .L44+28
 783 0054 2A1D     		adds	r2, r5, #4
 784 0056 3346     		mov	r3, r6
 785 0058 0090     		str	r0, [sp, #0]
 786 005a 0846     		mov	r0, r1
 787 005c 4FF49871 		mov	r1, #304
 788 0060 FFF7FEFF 		bl	chThdCreateStatic
 789              	.LVL60:
 790              		.loc 1 504 0
 791 0064 3A69     		ldr	r2, [r7, #16]
 792 0066 1E49     		ldr	r1, .L44+32
 793              		.loc 1 503 0
 794 0068 E060     		str	r0, [r4, #12]
ARM GAS  C:\Users\LAB_ME~1\AppData\Local\Temp\ccnOo3uD.s 			page 15


 795              		.loc 1 504 0
 796 006a 3346     		mov	r3, r6
 797 006c 0091     		str	r1, [sp, #0]
 798 006e 1046     		mov	r0, r2
 799 0070 4FF49871 		mov	r1, #304
 800 0074 6A1D     		adds	r2, r5, #5
 801 0076 FFF7FEFF 		bl	chThdCreateStatic
 802              	.LVL61:
 803              	.LBB2:
 804              		.loc 1 505 0
 805 007a 2023     		movs	r3, #32
 806              	.LVL62:
 807              	.LBE2:
 808              		.loc 1 504 0
 809 007c 2061     		str	r0, [r4, #16]
 810              	.LBB3:
 811              		.loc 1 505 0
 812              	@ 505 "../../test/testmtx.c" 1
 813 007e 83F31188 		msr     BASEPRI, r3
 814              	@ 0 "" 2
 815              	.LVL63:
 816              		.thumb
 817              	.LBE3:
 818              		.loc 1 506 0
 819 0082 184C     		ldr	r4, .L44+36
 820 0084 2046     		mov	r0, r4
 821 0086 FFF7FEFF 		bl	chCondSignalI
 822              	.LVL64:
 823              		.loc 1 507 0
 824 008a 2046     		mov	r0, r4
 825 008c FFF7FEFF 		bl	chCondSignalI
 826              	.LVL65:
 827              		.loc 1 508 0
 828 0090 2046     		mov	r0, r4
 829 0092 FFF7FEFF 		bl	chCondSignalI
 830              	.LVL66:
 831              		.loc 1 509 0
 832 0096 2046     		mov	r0, r4
 833 0098 FFF7FEFF 		bl	chCondSignalI
 834              	.LVL67:
 835              		.loc 1 510 0
 836 009c 2046     		mov	r0, r4
 837 009e FFF7FEFF 		bl	chCondSignalI
 838              	.LVL68:
 839              		.loc 1 511 0
 840 00a2 FFF7FEFF 		bl	chSchRescheduleS
 841              	.LVL69:
 842              	.LBB4:
 843              		.loc 1 512 0
 844 00a6 0023     		movs	r3, #0
 845              	.LVL70:
 846              	@ 512 "../../test/testmtx.c" 1
 847 00a8 83F31188 		msr     BASEPRI, r3
 848              	@ 0 "" 2
 849              	.LVL71:
 850              		.thumb
 851              	.LBE4:
ARM GAS  C:\Users\LAB_ME~1\AppData\Local\Temp\ccnOo3uD.s 			page 16


 852              		.loc 1 513 0
 853 00ac FFF7FEFF 		bl	test_wait_threads
 854              	.LVL72:
 855              		.loc 1 514 0
 856 00b0 0D49     		ldr	r1, .L44+40
 857 00b2 0120     		movs	r0, #1
 858              		.loc 1 515 0
 859 00b4 03B0     		add	sp, sp, #12
 860 00b6 BDE8F040 		pop	{r4, r5, r6, r7, lr}
 861              		.loc 1 514 0
 862 00ba FFF7FEBF 		b	_test_assert_sequence
 863              	.LVL73:
 864              	.L45:
 865 00be 00BF     		.align	2
 866              	.L44:
 867 00c0 00000000 		.word	rlist
 868 00c4 00000000 		.word	wa
 869 00c8 00000000 		.word	thread10
 870 00cc 10000000 		.word	.LC4
 871 00d0 00000000 		.word	threads
 872 00d4 14000000 		.word	.LC5
 873 00d8 04000000 		.word	.LC1
 874 00dc 08000000 		.word	.LC2
 875 00e0 00000000 		.word	.LC0
 876 00e4 00000000 		.word	.LANCHOR0
 877 00e8 18000000 		.word	.LC6
 878              		.cfi_endproc
 879              	.LFE30:
 880              		.size	mtx6_execute, .-mtx6_execute
 881 00ec AFF30080 		.section	.text.mtx1_execute,"ax",%progbits
 882              		.align	2
 883              		.p2align 4,,15
 884              		.thumb
 885              		.thumb_func
 886              		.type	mtx1_execute, %function
 887              	mtx1_execute:
 888              	.LFB9:
 889              		.loc 1 101 0
 890              		.cfi_startproc
 891              		@ args = 0, pretend = 0, frame = 8
 892              		@ frame_needed = 0, uses_anonymous_args = 0
 893 0000 F0B5     		push	{r4, r5, r6, r7, lr}
 894              	.LCFI15:
 895              		.cfi_def_cfa_offset 20
 896              		.cfi_offset 4, -20
 897              		.cfi_offset 5, -16
 898              		.cfi_offset 6, -12
 899              		.cfi_offset 7, -8
 900              		.cfi_offset 14, -4
 901              		.loc 1 103 0
 902 0002 2C4F     		ldr	r7, .L50
 903              		.loc 1 104 0
 904 0004 2C48     		ldr	r0, .L50+4
 905              		.loc 1 103 0
 906 0006 BB69     		ldr	r3, [r7, #24]
 907              		.loc 1 105 0
 908 0008 2C4E     		ldr	r6, .L50+8
ARM GAS  C:\Users\LAB_ME~1\AppData\Local\Temp\ccnOo3uD.s 			page 17


 909              		.loc 1 103 0
 910 000a 9C68     		ldr	r4, [r3, #8]
 911              	.LVL74:
 912              		.loc 1 105 0
 913 000c 2C4D     		ldr	r5, .L50+12
 914              		.loc 1 101 0
 915 000e 85B0     		sub	sp, sp, #20
 916              	.LCFI16:
 917              		.cfi_def_cfa_offset 40
 918              		.loc 1 104 0
 919 0010 FFF7FEFF 		bl	chMtxLock
 920              	.LVL75:
 921              		.loc 1 105 0
 922 0014 2B4A     		ldr	r2, .L50+16
 923 0016 3068     		ldr	r0, [r6, #0]
 924 0018 2B4B     		ldr	r3, .L50+20
 925 001a 0092     		str	r2, [sp, #0]
 926 001c 4FF49871 		mov	r1, #304
 927 0020 621C     		adds	r2, r4, #1
 928 0022 FFF7FEFF 		bl	chThdCreateStatic
 929              	.LVL76:
 930              		.loc 1 106 0
 931 0026 7368     		ldr	r3, [r6, #4]
 932              		.loc 1 105 0
 933 0028 2860     		str	r0, [r5, #0]
 934              		.loc 1 106 0
 935 002a 2848     		ldr	r0, .L50+24
 936 002c 0393     		str	r3, [sp, #12]
 937 002e A21C     		adds	r2, r4, #2
 938 0030 4FF49871 		mov	r1, #304
 939 0034 244B     		ldr	r3, .L50+20
 940 0036 0090     		str	r0, [sp, #0]
 941 0038 0398     		ldr	r0, [sp, #12]
 942 003a FFF7FEFF 		bl	chThdCreateStatic
 943              	.LVL77:
 944              		.loc 1 107 0
 945 003e B368     		ldr	r3, [r6, #8]
 946              		.loc 1 106 0
 947 0040 6860     		str	r0, [r5, #4]
 948              		.loc 1 107 0
 949 0042 2348     		ldr	r0, .L50+28
 950 0044 0393     		str	r3, [sp, #12]
 951 0046 E21C     		adds	r2, r4, #3
 952 0048 4FF49871 		mov	r1, #304
 953 004c 1E4B     		ldr	r3, .L50+20
 954 004e 0090     		str	r0, [sp, #0]
 955 0050 0398     		ldr	r0, [sp, #12]
 956 0052 FFF7FEFF 		bl	chThdCreateStatic
 957              	.LVL78:
 958              		.loc 1 108 0
 959 0056 F368     		ldr	r3, [r6, #12]
 960              		.loc 1 107 0
 961 0058 A860     		str	r0, [r5, #8]
 962              		.loc 1 108 0
 963 005a 1E48     		ldr	r0, .L50+32
 964 005c 0393     		str	r3, [sp, #12]
 965 005e 221D     		adds	r2, r4, #4
ARM GAS  C:\Users\LAB_ME~1\AppData\Local\Temp\ccnOo3uD.s 			page 18


 966 0060 4FF49871 		mov	r1, #304
 967 0064 184B     		ldr	r3, .L50+20
 968 0066 0090     		str	r0, [sp, #0]
 969 0068 0398     		ldr	r0, [sp, #12]
 970 006a FFF7FEFF 		bl	chThdCreateStatic
 971              	.LVL79:
 972              		.loc 1 109 0
 973 006e 3669     		ldr	r6, [r6, #16]
 974              		.loc 1 108 0
 975 0070 E860     		str	r0, [r5, #12]
 976              		.loc 1 109 0
 977 0072 1948     		ldr	r0, .L50+36
 978 0074 144B     		ldr	r3, .L50+20
 979 0076 0090     		str	r0, [sp, #0]
 980 0078 4FF49871 		mov	r1, #304
 981 007c 621D     		adds	r2, r4, #5
 982 007e 3046     		mov	r0, r6
 983 0080 FFF7FEFF 		bl	chThdCreateStatic
 984              	.LVL80:
 985 0084 2861     		str	r0, [r5, #16]
 986              		.loc 1 110 0
 987 0086 FFF7FEFF 		bl	chMtxUnlock
 988              	.LVL81:
 989              		.loc 1 111 0
 990 008a FFF7FEFF 		bl	test_wait_threads
 991              	.LVL82:
 992              		.loc 1 112 0
 993 008e BB69     		ldr	r3, [r7, #24]
 994 0090 9968     		ldr	r1, [r3, #8]
 995 0092 0120     		movs	r0, #1
 996 0094 0B1B     		subs	r3, r1, r4
 997 0096 5942     		rsbs	r1, r3, #0
 998 0098 5941     		adcs	r1, r1, r3
 999 009a FFF7FEFF 		bl	_test_assert
 1000              	.LVL83:
 1001 009e 08B1     		cbz	r0, .L49
 1002              		.loc 1 114 0
 1003 00a0 05B0     		add	sp, sp, #20
 1004 00a2 F0BD     		pop	{r4, r5, r6, r7, pc}
 1005              	.L49:
 1006              		.loc 1 113 0
 1007 00a4 0D49     		ldr	r1, .L50+40
 1008 00a6 0220     		movs	r0, #2
 1009              		.loc 1 114 0
 1010 00a8 05B0     		add	sp, sp, #20
 1011 00aa BDE8F040 		pop	{r4, r5, r6, r7, lr}
 1012              		.loc 1 113 0
 1013 00ae FFF7FEBF 		b	_test_assert_sequence
 1014              	.LVL84:
 1015              	.L51:
 1016 00b2 00BF     		.align	2
 1017              	.L50:
 1018 00b4 00000000 		.word	rlist
 1019 00b8 00000000 		.word	.LANCHOR2
 1020 00bc 00000000 		.word	wa
 1021 00c0 00000000 		.word	threads
 1022 00c4 10000000 		.word	.LC4
ARM GAS  C:\Users\LAB_ME~1\AppData\Local\Temp\ccnOo3uD.s 			page 19


 1023 00c8 00000000 		.word	thread1
 1024 00cc 14000000 		.word	.LC5
 1025 00d0 04000000 		.word	.LC1
 1026 00d4 08000000 		.word	.LC2
 1027 00d8 00000000 		.word	.LC0
 1028 00dc 18000000 		.word	.LC6
 1029              		.cfi_endproc
 1030              	.LFE9:
 1031              		.size	mtx1_execute, .-mtx1_execute
 1032              		.section	.text.mtx5_execute,"ax",%progbits
 1033              		.align	2
 1034              		.p2align 4,,15
 1035              		.thumb
 1036              		.thumb_func
 1037              		.type	mtx5_execute, %function
 1038              	mtx5_execute:
 1039              	.LFB27:
 1040              		.loc 1 437 0
 1041              		.cfi_startproc
 1042              		@ args = 0, pretend = 0, frame = 0
 1043              		@ frame_needed = 0, uses_anonymous_args = 0
 1044 0000 F8B5     		push	{r3, r4, r5, r6, r7, lr}
 1045              	.LCFI17:
 1046              		.cfi_def_cfa_offset 24
 1047              		.cfi_offset 3, -24
 1048              		.cfi_offset 4, -20
 1049              		.cfi_offset 5, -16
 1050              		.cfi_offset 6, -12
 1051              		.cfi_offset 7, -8
 1052              		.cfi_offset 14, -4
 1053              		.loc 1 441 0
 1054 0002 2E4D     		ldr	r5, .L57
 1055              		.loc 1 443 0
 1056 0004 2E4C     		ldr	r4, .L57+4
 1057              		.loc 1 441 0
 1058 0006 AB69     		ldr	r3, [r5, #24]
 1059              		.loc 1 443 0
 1060 0008 2046     		mov	r0, r4
 1061              		.loc 1 441 0
 1062 000a 9E68     		ldr	r6, [r3, #8]
 1063              	.LVL85:
 1064              		.loc 1 443 0
 1065 000c FFF7FEFF 		bl	chMtxTryLock
 1066              	.LVL86:
 1067              		.loc 1 444 0
 1068 0010 0146     		mov	r1, r0
 1069 0012 0120     		movs	r0, #1
 1070              	.LVL87:
 1071 0014 FFF7FEFF 		bl	_test_assert
 1072              	.LVL88:
 1073 0018 00B1     		cbz	r0, .L56
 1074              	.L52:
 1075 001a F8BD     		pop	{r3, r4, r5, r6, r7, pc}
 1076              	.L56:
 1077              		.loc 1 446 0
 1078 001c 2046     		mov	r0, r4
 1079 001e FFF7FEFF 		bl	chMtxTryLock
ARM GAS  C:\Users\LAB_ME~1\AppData\Local\Temp\ccnOo3uD.s 			page 20


 1080              	.LVL89:
 1081              		.loc 1 447 0
 1082 0022 D0F10101 		rsbs	r1, r0, #1
 1083 0026 38BF     		it	cc
 1084 0028 0021     		movcc	r1, #0
 1085 002a 0220     		movs	r0, #2
 1086              	.LVL90:
 1087 002c FFF7FEFF 		bl	_test_assert
 1088              	.LVL91:
 1089 0030 0746     		mov	r7, r0
 1090 0032 0028     		cmp	r0, #0
 1091 0034 F1D1     		bne	.L52
 1092              	.LBB5:
 1093              		.loc 1 449 0
 1094 0036 2023     		movs	r3, #32
 1095              	.LVL92:
 1096              	@ 449 "../../test/testmtx.c" 1
 1097 0038 83F31188 		msr     BASEPRI, r3
 1098              	@ 0 "" 2
 1099              	.LVL93:
 1100              		.thumb
 1101              	.LBE5:
 1102              		.loc 1 450 0
 1103 003c FFF7FEFF 		bl	chMtxUnlockS
 1104              	.LVL94:
 1105              	.LBB6:
 1106              		.loc 1 451 0
 1107 0040 3B46     		mov	r3, r7
 1108              	.LVL95:
 1109              	@ 451 "../../test/testmtx.c" 1
 1110 0042 83F31188 		msr     BASEPRI, r3
 1111              	@ 0 "" 2
 1112              	.LVL96:
 1113              		.thumb
 1114              	.LBE6:
 1115              		.loc 1 453 0
 1116 0046 2168     		ldr	r1, [r4, #0]
 1117 0048 0320     		movs	r0, #3
 1118 004a B1EB040C 		subs	ip, r1, r4
 1119 004e DCF10001 		rsbs	r1, ip, #0
 1120 0052 51EB0C01 		adcs	r1, r1, ip
 1121 0056 FFF7FEFF 		bl	_test_assert
 1122              	.LVL97:
 1123 005a 0028     		cmp	r0, #0
 1124 005c DDD1     		bne	.L52
 1125              		.loc 1 454 0
 1126 005e A168     		ldr	r1, [r4, #8]
 1127 0060 0420     		movs	r0, #4
 1128 0062 D1F10101 		rsbs	r1, r1, #1
 1129 0066 38BF     		it	cc
 1130 0068 0021     		movcc	r1, #0
 1131 006a FFF7FEFF 		bl	_test_assert
 1132              	.LVL98:
 1133 006e 0028     		cmp	r0, #0
 1134 0070 D3D1     		bne	.L52
 1135              		.loc 1 455 0
 1136 0072 AB69     		ldr	r3, [r5, #24]
ARM GAS  C:\Users\LAB_ME~1\AppData\Local\Temp\ccnOo3uD.s 			page 21


 1137 0074 9968     		ldr	r1, [r3, #8]
 1138 0076 0520     		movs	r0, #5
 1139 0078 B1EB060E 		subs	lr, r1, r6
 1140 007c DEF10001 		rsbs	r1, lr, #0
 1141 0080 51EB0E01 		adcs	r1, r1, lr
 1142 0084 FFF7FEFF 		bl	_test_assert
 1143              	.LVL99:
 1144 0088 0028     		cmp	r0, #0
 1145 008a C6D1     		bne	.L52
 1146              		.loc 1 457 0
 1147 008c 2046     		mov	r0, r4
 1148 008e FFF7FEFF 		bl	chMtxLock
 1149              	.LVL100:
 1150              		.loc 1 458 0
 1151 0092 FFF7FEFF 		bl	chMtxUnlockAll
 1152              	.LVL101:
 1153              		.loc 1 459 0
 1154 0096 2168     		ldr	r1, [r4, #0]
 1155 0098 0620     		movs	r0, #6
 1156 009a 0A1B     		subs	r2, r1, r4
 1157 009c 5142     		rsbs	r1, r2, #0
 1158 009e 5141     		adcs	r1, r1, r2
 1159 00a0 FFF7FEFF 		bl	_test_assert
 1160              	.LVL102:
 1161 00a4 0028     		cmp	r0, #0
 1162 00a6 B8D1     		bne	.L52
 1163              		.loc 1 460 0
 1164 00a8 A168     		ldr	r1, [r4, #8]
 1165 00aa 0720     		movs	r0, #7
 1166 00ac D1F10101 		rsbs	r1, r1, #1
 1167 00b0 38BF     		it	cc
 1168 00b2 0021     		movcc	r1, #0
 1169              		.loc 1 461 0
 1170 00b4 BDE8F840 		pop	{r3, r4, r5, r6, r7, lr}
 1171              		.loc 1 460 0
 1172 00b8 FFF7FEBF 		b	_test_assert
 1173              	.LVL103:
 1174              	.L58:
 1175              		.align	2
 1176              	.L57:
 1177 00bc 00000000 		.word	rlist
 1178 00c0 00000000 		.word	.LANCHOR2
 1179              		.cfi_endproc
 1180              	.LFE27:
 1181              		.size	mtx5_execute, .-mtx5_execute
 1182 00c4 AFF30080 		.section	.text.mtx4_execute,"ax",%progbits
 1182      AFF30080 
 1182      AFF30080 
 1183              		.align	2
 1184              		.p2align 4,,15
 1185              		.thumb
 1186              		.thumb_func
 1187              		.type	mtx4_execute, %function
 1188              	mtx4_execute:
 1189              	.LFB25:
 1190              		.loc 1 369 0
 1191              		.cfi_startproc
ARM GAS  C:\Users\LAB_ME~1\AppData\Local\Temp\ccnOo3uD.s 			page 22


 1192              		@ args = 0, pretend = 0, frame = 8
 1193              		@ frame_needed = 0, uses_anonymous_args = 0
 1194 0000 2DE9F046 		push	{r4, r5, r6, r7, r9, sl, lr}
 1195              	.LCFI18:
 1196              		.cfi_def_cfa_offset 28
 1197              		.cfi_offset 4, -28
 1198              		.cfi_offset 5, -24
 1199              		.cfi_offset 6, -20
 1200              		.cfi_offset 7, -16
 1201              		.cfi_offset 9, -12
 1202              		.cfi_offset 10, -8
 1203              		.cfi_offset 14, -4
 1204              		.loc 1 372 0
 1205 0004 8A4D     		ldr	r5, .L64
 1206              		.loc 1 375 0
 1207 0006 8B4E     		ldr	r6, .L64+4
 1208              		.loc 1 372 0
 1209 0008 AB69     		ldr	r3, [r5, #24]
 1210              		.loc 1 375 0
 1211 000a 3268     		ldr	r2, [r6, #0]
 1212              		.loc 1 372 0
 1213 000c 9C68     		ldr	r4, [r3, #8]
 1214              	.LVL104:
 1215              		.loc 1 375 0
 1216 000e 8A4B     		ldr	r3, .L64+8
 1217 0010 8A4F     		ldr	r7, .L64+12
 1218              		.loc 1 369 0
 1219 0012 85B0     		sub	sp, sp, #20
 1220              	.LCFI19:
 1221              		.cfi_def_cfa_offset 48
 1222              		.loc 1 373 0
 1223 0014 04F10109 		add	r9, r4, #1
 1224              	.LVL105:
 1225              		.loc 1 375 0
 1226 0018 0392     		str	r2, [sp, #12]
 1227 001a 894A     		ldr	r2, .L64+16
 1228 001c 0398     		ldr	r0, [sp, #12]
 1229 001e 0092     		str	r2, [sp, #0]
 1230 0020 4FF49871 		mov	r1, #304
 1231 0024 4A46     		mov	r2, r9
 1232 0026 FFF7FEFF 		bl	chThdCreateStatic
 1233              	.LVL106:
 1234              		.loc 1 376 0
 1235 002a 7668     		ldr	r6, [r6, #4]
 1236              		.loc 1 375 0
 1237 002c 3860     		str	r0, [r7, #0]
 1238              		.loc 1 376 0
 1239 002e 8548     		ldr	r0, .L64+20
 1240 0030 854B     		ldr	r3, .L64+24
 1241 0032 0090     		str	r0, [sp, #0]
 1242              		.loc 1 374 0
 1243 0034 04F1020A 		add	sl, r4, #2
 1244              	.LVL107:
 1245              		.loc 1 376 0
 1246 0038 4FF49871 		mov	r1, #304
 1247 003c 5246     		mov	r2, sl
 1248 003e 3046     		mov	r0, r6
ARM GAS  C:\Users\LAB_ME~1\AppData\Local\Temp\ccnOo3uD.s 			page 23


 1249 0040 FFF7FEFF 		bl	chThdCreateStatic
 1250              	.LVL108:
 1251 0044 7860     		str	r0, [r7, #4]
 1252              		.loc 1 377 0
 1253 0046 8148     		ldr	r0, .L64+28
 1254 0048 FFF7FEFF 		bl	chMtxLock
 1255              	.LVL109:
 1256              		.loc 1 378 0
 1257 004c AB69     		ldr	r3, [r5, #24]
 1258 004e 9968     		ldr	r1, [r3, #8]
 1259 0050 0120     		movs	r0, #1
 1260 0052 0A1B     		subs	r2, r1, r4
 1261 0054 5142     		rsbs	r1, r2, #0
 1262 0056 5141     		adcs	r1, r1, r2
 1263 0058 FFF7FEFF 		bl	_test_assert
 1264              	.LVL110:
 1265 005c 10B1     		cbz	r0, .L63
 1266              	.L59:
 1267              		.loc 1 413 0
 1268 005e 05B0     		add	sp, sp, #20
 1269 0060 BDE8F086 		pop	{r4, r5, r6, r7, r9, sl, pc}
 1270              	.L63:
 1271              		.loc 1 379 0
 1272 0064 6420     		movs	r0, #100
 1273 0066 FFF7FEFF 		bl	chThdSleep
 1274              	.LVL111:
 1275              		.loc 1 380 0
 1276 006a AB69     		ldr	r3, [r5, #24]
 1277 006c 9968     		ldr	r1, [r3, #8]
 1278 006e 0220     		movs	r0, #2
 1279 0070 B1EB0903 		subs	r3, r1, r9
 1280 0074 5942     		rsbs	r1, r3, #0
 1281 0076 5941     		adcs	r1, r1, r3
 1282 0078 FFF7FEFF 		bl	_test_assert
 1283              	.LVL112:
 1284 007c 0028     		cmp	r0, #0
 1285 007e EED1     		bne	.L59
 1286              		.loc 1 381 0
 1287 0080 7348     		ldr	r0, .L64+32
 1288 0082 FFF7FEFF 		bl	chMtxLock
 1289              	.LVL113:
 1290              		.loc 1 382 0
 1291 0086 AB69     		ldr	r3, [r5, #24]
 1292 0088 9968     		ldr	r1, [r3, #8]
 1293 008a 0320     		movs	r0, #3
 1294 008c B1EB090C 		subs	ip, r1, r9
 1295 0090 DCF10001 		rsbs	r1, ip, #0
 1296 0094 51EB0C01 		adcs	r1, r1, ip
 1297 0098 FFF7FEFF 		bl	_test_assert
 1298              	.LVL114:
 1299 009c 0028     		cmp	r0, #0
 1300 009e DED1     		bne	.L59
 1301              		.loc 1 383 0
 1302 00a0 6420     		movs	r0, #100
 1303 00a2 FFF7FEFF 		bl	chThdSleep
 1304              	.LVL115:
 1305              		.loc 1 384 0
ARM GAS  C:\Users\LAB_ME~1\AppData\Local\Temp\ccnOo3uD.s 			page 24


 1306 00a6 AB69     		ldr	r3, [r5, #24]
 1307 00a8 9968     		ldr	r1, [r3, #8]
 1308 00aa 0420     		movs	r0, #4
 1309 00ac B1EB0A0E 		subs	lr, r1, sl
 1310 00b0 DEF10001 		rsbs	r1, lr, #0
 1311 00b4 51EB0E01 		adcs	r1, r1, lr
 1312 00b8 FFF7FEFF 		bl	_test_assert
 1313              	.LVL116:
 1314 00bc 0028     		cmp	r0, #0
 1315 00be CED1     		bne	.L59
 1316              		.loc 1 385 0
 1317 00c0 FFF7FEFF 		bl	chMtxUnlock
 1318              	.LVL117:
 1319              		.loc 1 386 0
 1320 00c4 AB69     		ldr	r3, [r5, #24]
 1321 00c6 9968     		ldr	r1, [r3, #8]
 1322 00c8 0520     		movs	r0, #5
 1323 00ca B1EB0902 		subs	r2, r1, r9
 1324 00ce 5142     		rsbs	r1, r2, #0
 1325 00d0 5141     		adcs	r1, r1, r2
 1326 00d2 FFF7FEFF 		bl	_test_assert
 1327              	.LVL118:
 1328 00d6 0028     		cmp	r0, #0
 1329 00d8 C1D1     		bne	.L59
 1330              		.loc 1 387 0
 1331 00da 6420     		movs	r0, #100
 1332 00dc FFF7FEFF 		bl	chThdSleep
 1333              	.LVL119:
 1334              		.loc 1 388 0
 1335 00e0 AB69     		ldr	r3, [r5, #24]
 1336 00e2 9968     		ldr	r1, [r3, #8]
 1337 00e4 0620     		movs	r0, #6
 1338 00e6 B1EB0903 		subs	r3, r1, r9
 1339 00ea 5942     		rsbs	r1, r3, #0
 1340 00ec 5941     		adcs	r1, r1, r3
 1341 00ee FFF7FEFF 		bl	_test_assert
 1342              	.LVL120:
 1343 00f2 0028     		cmp	r0, #0
 1344 00f4 B3D1     		bne	.L59
 1345              		.loc 1 389 0
 1346 00f6 FFF7FEFF 		bl	chMtxUnlockAll
 1347              	.LVL121:
 1348              		.loc 1 390 0
 1349 00fa AB69     		ldr	r3, [r5, #24]
 1350 00fc 9968     		ldr	r1, [r3, #8]
 1351 00fe 0720     		movs	r0, #7
 1352 0100 B1EB040C 		subs	ip, r1, r4
 1353 0104 DCF10001 		rsbs	r1, ip, #0
 1354 0108 51EB0C01 		adcs	r1, r1, ip
 1355 010c FFF7FEFF 		bl	_test_assert
 1356              	.LVL122:
 1357 0110 0028     		cmp	r0, #0
 1358 0112 A4D1     		bne	.L59
 1359              		.loc 1 391 0
 1360 0114 FFF7FEFF 		bl	test_wait_threads
 1361              	.LVL123:
 1362              		.loc 1 394 0
ARM GAS  C:\Users\LAB_ME~1\AppData\Local\Temp\ccnOo3uD.s 			page 25


 1363 0118 4E4A     		ldr	r2, .L64+36
 1364 011a 474B     		ldr	r3, .L64+8
 1365 011c 0092     		str	r2, [sp, #0]
 1366 011e 4FF49871 		mov	r1, #304
 1367 0122 4A46     		mov	r2, r9
 1368 0124 0398     		ldr	r0, [sp, #12]
 1369 0126 FFF7FEFF 		bl	chThdCreateStatic
 1370              	.LVL124:
 1371 012a 3860     		str	r0, [r7, #0]
 1372              		.loc 1 395 0
 1373 012c 4A48     		ldr	r0, .L64+40
 1374 012e 464B     		ldr	r3, .L64+24
 1375 0130 0090     		str	r0, [sp, #0]
 1376 0132 4FF49871 		mov	r1, #304
 1377 0136 5246     		mov	r2, sl
 1378 0138 3046     		mov	r0, r6
 1379 013a FFF7FEFF 		bl	chThdCreateStatic
 1380              	.LVL125:
 1381 013e 7860     		str	r0, [r7, #4]
 1382              		.loc 1 396 0
 1383 0140 4248     		ldr	r0, .L64+28
 1384 0142 FFF7FEFF 		bl	chMtxLock
 1385              	.LVL126:
 1386              		.loc 1 397 0
 1387 0146 AB69     		ldr	r3, [r5, #24]
 1388 0148 9968     		ldr	r1, [r3, #8]
 1389 014a 0820     		movs	r0, #8
 1390 014c B1EB040E 		subs	lr, r1, r4
 1391 0150 DEF10001 		rsbs	r1, lr, #0
 1392 0154 51EB0E01 		adcs	r1, r1, lr
 1393 0158 FFF7FEFF 		bl	_test_assert
 1394              	.LVL127:
 1395 015c 0028     		cmp	r0, #0
 1396 015e 7FF47EAF 		bne	.L59
 1397              		.loc 1 398 0
 1398 0162 6420     		movs	r0, #100
 1399 0164 FFF7FEFF 		bl	chThdSleep
 1400              	.LVL128:
 1401              		.loc 1 399 0
 1402 0168 AB69     		ldr	r3, [r5, #24]
 1403 016a 9968     		ldr	r1, [r3, #8]
 1404 016c 0920     		movs	r0, #9
 1405 016e B1EB0902 		subs	r2, r1, r9
 1406 0172 5142     		rsbs	r1, r2, #0
 1407 0174 5141     		adcs	r1, r1, r2
 1408 0176 FFF7FEFF 		bl	_test_assert
 1409              	.LVL129:
 1410 017a 0028     		cmp	r0, #0
 1411 017c 7FF46FAF 		bne	.L59
 1412              		.loc 1 400 0
 1413 0180 3348     		ldr	r0, .L64+32
 1414 0182 FFF7FEFF 		bl	chMtxLock
 1415              	.LVL130:
 1416              		.loc 1 401 0
 1417 0186 AB69     		ldr	r3, [r5, #24]
 1418 0188 9968     		ldr	r1, [r3, #8]
 1419 018a 0A20     		movs	r0, #10
ARM GAS  C:\Users\LAB_ME~1\AppData\Local\Temp\ccnOo3uD.s 			page 26


 1420 018c B1EB0903 		subs	r3, r1, r9
 1421 0190 5942     		rsbs	r1, r3, #0
 1422 0192 5941     		adcs	r1, r1, r3
 1423 0194 FFF7FEFF 		bl	_test_assert
 1424              	.LVL131:
 1425 0198 0028     		cmp	r0, #0
 1426 019a 7FF460AF 		bne	.L59
 1427              		.loc 1 402 0
 1428 019e 6420     		movs	r0, #100
 1429 01a0 FFF7FEFF 		bl	chThdSleep
 1430              	.LVL132:
 1431              		.loc 1 403 0
 1432 01a4 AB69     		ldr	r3, [r5, #24]
 1433 01a6 9968     		ldr	r1, [r3, #8]
 1434 01a8 0B20     		movs	r0, #11
 1435 01aa B1EB0A0C 		subs	ip, r1, sl
 1436 01ae DCF10001 		rsbs	r1, ip, #0
 1437 01b2 51EB0C01 		adcs	r1, r1, ip
 1438 01b6 FFF7FEFF 		bl	_test_assert
 1439              	.LVL133:
 1440 01ba 0646     		mov	r6, r0
 1441 01bc 0028     		cmp	r0, #0
 1442 01be 7FF44EAF 		bne	.L59
 1443              	.LBB7:
 1444              		.loc 1 404 0
 1445 01c2 2023     		movs	r3, #32
 1446              	.LVL134:
 1447              	@ 404 "../../test/testmtx.c" 1
 1448 01c4 83F31188 		msr     BASEPRI, r3
 1449              	@ 0 "" 2
 1450              	.LVL135:
 1451              		.thumb
 1452              	.LBE7:
 1453              		.loc 1 405 0
 1454 01c8 FFF7FEFF 		bl	chMtxUnlockS
 1455              	.LVL136:
 1456              	.LBB8:
 1457              		.loc 1 406 0
 1458 01cc 3346     		mov	r3, r6
 1459              	.LVL137:
 1460              	@ 406 "../../test/testmtx.c" 1
 1461 01ce 83F31188 		msr     BASEPRI, r3
 1462              	@ 0 "" 2
 1463              	.LVL138:
 1464              		.thumb
 1465              	.LBE8:
 1466              		.loc 1 407 0
 1467 01d2 AB69     		ldr	r3, [r5, #24]
 1468              	.LVL139:
 1469 01d4 9968     		ldr	r1, [r3, #8]
 1470 01d6 0C20     		movs	r0, #12
 1471 01d8 B1EB090E 		subs	lr, r1, r9
 1472 01dc DEF10001 		rsbs	r1, lr, #0
 1473 01e0 51EB0E01 		adcs	r1, r1, lr
 1474 01e4 FFF7FEFF 		bl	_test_assert
 1475              	.LVL140:
 1476 01e8 0028     		cmp	r0, #0
ARM GAS  C:\Users\LAB_ME~1\AppData\Local\Temp\ccnOo3uD.s 			page 27


 1477 01ea 7FF438AF 		bne	.L59
 1478              		.loc 1 408 0
 1479 01ee 6420     		movs	r0, #100
 1480 01f0 FFF7FEFF 		bl	chThdSleep
 1481              	.LVL141:
 1482              		.loc 1 409 0
 1483 01f4 AB69     		ldr	r3, [r5, #24]
 1484 01f6 9968     		ldr	r1, [r3, #8]
 1485 01f8 0D20     		movs	r0, #13
 1486 01fa B1EB0902 		subs	r2, r1, r9
 1487 01fe 5142     		rsbs	r1, r2, #0
 1488 0200 5141     		adcs	r1, r1, r2
 1489 0202 FFF7FEFF 		bl	_test_assert
 1490              	.LVL142:
 1491 0206 0028     		cmp	r0, #0
 1492 0208 7FF429AF 		bne	.L59
 1493              		.loc 1 410 0
 1494 020c FFF7FEFF 		bl	chMtxUnlockAll
 1495              	.LVL143:
 1496              		.loc 1 411 0
 1497 0210 AB69     		ldr	r3, [r5, #24]
 1498 0212 9968     		ldr	r1, [r3, #8]
 1499 0214 0E20     		movs	r0, #14
 1500 0216 0B1B     		subs	r3, r1, r4
 1501 0218 5942     		rsbs	r1, r3, #0
 1502 021a 5941     		adcs	r1, r1, r3
 1503 021c FFF7FEFF 		bl	_test_assert
 1504              	.LVL144:
 1505 0220 0028     		cmp	r0, #0
 1506 0222 7FF41CAF 		bne	.L59
 1507              		.loc 1 413 0
 1508 0226 05B0     		add	sp, sp, #20
 1509 0228 BDE8F046 		pop	{r4, r5, r6, r7, r9, sl, lr}
 1510              		.loc 1 412 0
 1511 022c FFF7FEBF 		b	test_wait_threads
 1512              	.LVL145:
 1513              	.L65:
 1514              		.align	2
 1515              	.L64:
 1516 0230 00000000 		.word	rlist
 1517 0234 00000000 		.word	wa
 1518 0238 00000000 		.word	thread4a
 1519 023c 00000000 		.word	threads
 1520 0240 08000000 		.word	.LC2
 1521 0244 00000000 		.word	.LC0
 1522 0248 00000000 		.word	thread4b
 1523 024c 00000000 		.word	.LANCHOR1
 1524 0250 00000000 		.word	.LANCHOR2
 1525 0254 14000000 		.word	.LC5
 1526 0258 04000000 		.word	.LC1
 1527              		.cfi_endproc
 1528              	.LFE25:
 1529              		.size	mtx4_execute, .-mtx4_execute
 1530 025c AFF30080 		.section	.text.thread4b,"ax",%progbits
 1531              		.align	2
 1532              		.p2align 4,,15
 1533              		.thumb
ARM GAS  C:\Users\LAB_ME~1\AppData\Local\Temp\ccnOo3uD.s 			page 28


 1534              		.thumb_func
 1535              		.type	thread4b, %function
 1536              	thread4b:
 1537              	.LFB24:
 1538              		.loc 1 360 0
 1539              		.cfi_startproc
 1540              		@ args = 0, pretend = 0, frame = 0
 1541              		@ frame_needed = 0, uses_anonymous_args = 0
 1542              	.LVL146:
 1543 0000 08B5     		push	{r3, lr}
 1544              	.LCFI20:
 1545              		.cfi_def_cfa_offset 8
 1546              		.cfi_offset 3, -8
 1547              		.cfi_offset 14, -4
 1548              		.loc 1 363 0
 1549 0002 9620     		movs	r0, #150
 1550              	.LVL147:
 1551 0004 FFF7FEFF 		bl	chThdSleep
 1552              	.LVL148:
 1553              		.loc 1 364 0
 1554 0008 0348     		ldr	r0, .L67
 1555 000a FFF7FEFF 		bl	chMtxLock
 1556              	.LVL149:
 1557              		.loc 1 365 0
 1558 000e FFF7FEFF 		bl	chMtxUnlock
 1559              	.LVL150:
 1560              		.loc 1 367 0
 1561 0012 0020     		movs	r0, #0
 1562 0014 08BD     		pop	{r3, pc}
 1563              	.L68:
 1564 0016 00BF     		.align	2
 1565              	.L67:
 1566 0018 00000000 		.word	.LANCHOR2
 1567              		.cfi_endproc
 1568              	.LFE24:
 1569              		.size	thread4b, .-thread4b
 1570 001c AFF30080 		.section	.text.thread4a,"ax",%progbits
 1571              		.align	2
 1572              		.p2align 4,,15
 1573              		.thumb
 1574              		.thumb_func
 1575              		.type	thread4a, %function
 1576              	thread4a:
 1577              	.LFB23:
 1578              		.loc 1 351 0
 1579              		.cfi_startproc
 1580              		@ args = 0, pretend = 0, frame = 0
 1581              		@ frame_needed = 0, uses_anonymous_args = 0
 1582              	.LVL151:
 1583 0000 08B5     		push	{r3, lr}
 1584              	.LCFI21:
 1585              		.cfi_def_cfa_offset 8
 1586              		.cfi_offset 3, -8
 1587              		.cfi_offset 14, -4
 1588              		.loc 1 354 0
 1589 0002 3220     		movs	r0, #50
 1590              	.LVL152:
ARM GAS  C:\Users\LAB_ME~1\AppData\Local\Temp\ccnOo3uD.s 			page 29


 1591 0004 FFF7FEFF 		bl	chThdSleep
 1592              	.LVL153:
 1593              		.loc 1 355 0
 1594 0008 0348     		ldr	r0, .L70
 1595 000a FFF7FEFF 		bl	chMtxLock
 1596              	.LVL154:
 1597              		.loc 1 356 0
 1598 000e FFF7FEFF 		bl	chMtxUnlock
 1599              	.LVL155:
 1600              		.loc 1 358 0
 1601 0012 0020     		movs	r0, #0
 1602 0014 08BD     		pop	{r3, pc}
 1603              	.L71:
 1604 0016 00BF     		.align	2
 1605              	.L70:
 1606 0018 00000000 		.word	.LANCHOR1
 1607              		.cfi_endproc
 1608              	.LFE23:
 1609              		.size	thread4a, .-thread4a
 1610 001c AFF30080 		.section	.text.mtx3_execute,"ax",%progbits
 1611              		.align	2
 1612              		.p2align 4,,15
 1613              		.thumb
 1614              		.thumb_func
 1615              		.type	mtx3_execute, %function
 1616              	mtx3_execute:
 1617              	.LFB21:
 1618              		.loc 1 312 0
 1619              		.cfi_startproc
 1620              		@ args = 0, pretend = 0, frame = 8
 1621              		@ frame_needed = 0, uses_anonymous_args = 0
 1622 0000 2DE9F041 		push	{r4, r5, r6, r7, r8, lr}
 1623              	.LCFI22:
 1624              		.cfi_def_cfa_offset 24
 1625              		.cfi_offset 4, -24
 1626              		.cfi_offset 5, -20
 1627              		.cfi_offset 6, -16
 1628              		.cfi_offset 7, -12
 1629              		.cfi_offset 8, -8
 1630              		.cfi_offset 14, -4
 1631              		.loc 1 317 0
 1632 0004 304E     		ldr	r6, .L75
 1633 0006 DFF8E480 		ldr	r8, .L75+36
 1634 000a 304C     		ldr	r4, .L75+4
 1635              		.loc 1 312 0
 1636 000c 84B0     		sub	sp, sp, #16
 1637              	.LCFI23:
 1638              		.cfi_def_cfa_offset 40
 1639              		.loc 1 315 0
 1640 000e FFF7FEFF 		bl	test_wait_tick
 1641              	.LVL156:
 1642              		.loc 1 317 0
 1643 0012 B369     		ldr	r3, [r6, #24]
 1644              		.loc 1 316 0
 1645 0014 2E49     		ldr	r1, .L75+8
 1646              		.loc 1 317 0
 1647 0016 9A68     		ldr	r2, [r3, #8]
ARM GAS  C:\Users\LAB_ME~1\AppData\Local\Temp\ccnOo3uD.s 			page 30


 1648              		.loc 1 316 0
 1649 0018 CF68     		ldr	r7, [r1, #12]
 1650              	.LVL157:
 1651              		.loc 1 317 0
 1652 001a 2E4B     		ldr	r3, .L75+12
 1653 001c D8F80000 		ldr	r0, [r8, #0]
 1654 0020 0025     		movs	r5, #0
 1655 0022 4FF49871 		mov	r1, #304
 1656 0026 053A     		subs	r2, r2, #5
 1657 0028 0095     		str	r5, [sp, #0]
 1658 002a FFF7FEFF 		bl	chThdCreateStatic
 1659              	.LVL158:
 1660              		.loc 1 318 0
 1661 002e B369     		ldr	r3, [r6, #24]
 1662 0030 D8F80420 		ldr	r2, [r8, #4]
 1663 0034 0392     		str	r2, [sp, #12]
 1664 0036 9A68     		ldr	r2, [r3, #8]
 1665              		.loc 1 317 0
 1666 0038 2060     		str	r0, [r4, #0]
 1667              		.loc 1 318 0
 1668 003a 4FF49871 		mov	r1, #304
 1669 003e 043A     		subs	r2, r2, #4
 1670 0040 254B     		ldr	r3, .L75+16
 1671 0042 0095     		str	r5, [sp, #0]
 1672 0044 0398     		ldr	r0, [sp, #12]
 1673 0046 FFF7FEFF 		bl	chThdCreateStatic
 1674              	.LVL159:
 1675              		.loc 1 319 0
 1676 004a B369     		ldr	r3, [r6, #24]
 1677 004c D8F80820 		ldr	r2, [r8, #8]
 1678 0050 0392     		str	r2, [sp, #12]
 1679 0052 9A68     		ldr	r2, [r3, #8]
 1680              		.loc 1 318 0
 1681 0054 6060     		str	r0, [r4, #4]
 1682              		.loc 1 319 0
 1683 0056 4FF49871 		mov	r1, #304
 1684 005a 033A     		subs	r2, r2, #3
 1685 005c 1F4B     		ldr	r3, .L75+20
 1686 005e 0095     		str	r5, [sp, #0]
 1687 0060 0398     		ldr	r0, [sp, #12]
 1688 0062 FFF7FEFF 		bl	chThdCreateStatic
 1689              	.LVL160:
 1690              		.loc 1 320 0
 1691 0066 B369     		ldr	r3, [r6, #24]
 1692 0068 D8F80C20 		ldr	r2, [r8, #12]
 1693 006c 0392     		str	r2, [sp, #12]
 1694 006e 9A68     		ldr	r2, [r3, #8]
 1695              		.loc 1 319 0
 1696 0070 A060     		str	r0, [r4, #8]
 1697              		.loc 1 320 0
 1698 0072 4FF49871 		mov	r1, #304
 1699 0076 023A     		subs	r2, r2, #2
 1700 0078 194B     		ldr	r3, .L75+24
 1701 007a 0095     		str	r5, [sp, #0]
 1702 007c 0398     		ldr	r0, [sp, #12]
 1703 007e FFF7FEFF 		bl	chThdCreateStatic
 1704              	.LVL161:
ARM GAS  C:\Users\LAB_ME~1\AppData\Local\Temp\ccnOo3uD.s 			page 31


 1705              		.loc 1 321 0
 1706 0082 B369     		ldr	r3, [r6, #24]
 1707 0084 D8F81060 		ldr	r6, [r8, #16]
 1708 0088 9A68     		ldr	r2, [r3, #8]
 1709              		.loc 1 320 0
 1710 008a E060     		str	r0, [r4, #12]
 1711              		.loc 1 321 0
 1712 008c 4FF49871 		mov	r1, #304
 1713 0090 013A     		subs	r2, r2, #1
 1714 0092 144B     		ldr	r3, .L75+28
 1715 0094 0095     		str	r5, [sp, #0]
 1716 0096 3046     		mov	r0, r6
 1717 0098 FFF7FEFF 		bl	chThdCreateStatic
 1718              	.LVL162:
 1719 009c 2061     		str	r0, [r4, #16]
 1720              		.loc 1 322 0
 1721 009e FFF7FEFF 		bl	test_wait_threads
 1722              	.LVL163:
 1723              		.loc 1 323 0
 1724 00a2 0120     		movs	r0, #1
 1725 00a4 1049     		ldr	r1, .L75+32
 1726 00a6 FFF7FEFF 		bl	_test_assert_sequence
 1727              	.LVL164:
 1728 00aa 10B1     		cbz	r0, .L74
 1729              		.loc 1 325 0
 1730 00ac 04B0     		add	sp, sp, #16
 1731 00ae BDE8F081 		pop	{r4, r5, r6, r7, r8, pc}
 1732              	.L74:
 1733              		.loc 1 324 0
 1734 00b2 0220     		movs	r0, #2
 1735 00b4 07F16E01 		add	r1, r7, #110
 1736 00b8 07F17302 		add	r2, r7, #115
 1737              		.loc 1 325 0
 1738 00bc 04B0     		add	sp, sp, #16
 1739 00be BDE8F041 		pop	{r4, r5, r6, r7, r8, lr}
 1740              		.loc 1 324 0
 1741 00c2 FFF7FEBF 		b	_test_assert_time_window
 1742              	.LVL165:
 1743              	.L76:
 1744 00c6 00BF     		.align	2
 1745              	.L75:
 1746 00c8 00000000 		.word	rlist
 1747 00cc 00000000 		.word	threads
 1748 00d0 00000000 		.word	vtlist
 1749 00d4 00000000 		.word	thread3LL
 1750 00d8 00000000 		.word	thread3L
 1751 00dc 00000000 		.word	thread3M
 1752 00e0 00000000 		.word	thread3H
 1753 00e4 00000000 		.word	thread3HH
 1754 00e8 18000000 		.word	.LC6
 1755 00ec 00000000 		.word	wa
 1756              		.cfi_endproc
 1757              	.LFE21:
 1758              		.size	mtx3_execute, .-mtx3_execute
 1759              		.section	.text.mtx2_execute,"ax",%progbits
 1760              		.align	2
 1761              		.p2align 4,,15
ARM GAS  C:\Users\LAB_ME~1\AppData\Local\Temp\ccnOo3uD.s 			page 32


 1762              		.thumb
 1763              		.thumb_func
 1764              		.type	mtx2_execute, %function
 1765              	mtx2_execute:
 1766              	.LFB14:
 1767              		.loc 1 194 0
 1768              		.cfi_startproc
 1769              		@ args = 0, pretend = 0, frame = 8
 1770              		@ frame_needed = 0, uses_anonymous_args = 0
 1771 0000 2DE9F041 		push	{r4, r5, r6, r7, r8, lr}
 1772              	.LCFI24:
 1773              		.cfi_def_cfa_offset 24
 1774              		.cfi_offset 4, -24
 1775              		.cfi_offset 5, -20
 1776              		.cfi_offset 6, -16
 1777              		.cfi_offset 7, -12
 1778              		.cfi_offset 8, -8
 1779              		.cfi_offset 14, -4
 1780              		.loc 1 199 0
 1781 0004 224E     		ldr	r6, .L80
 1782 0006 DFF8A480 		ldr	r8, .L80+28
 1783 000a 224C     		ldr	r4, .L80+4
 1784              		.loc 1 194 0
 1785 000c 84B0     		sub	sp, sp, #16
 1786              	.LCFI25:
 1787              		.cfi_def_cfa_offset 40
 1788              		.loc 1 197 0
 1789 000e FFF7FEFF 		bl	test_wait_tick
 1790              	.LVL166:
 1791              		.loc 1 199 0
 1792 0012 B369     		ldr	r3, [r6, #24]
 1793              		.loc 1 198 0
 1794 0014 2049     		ldr	r1, .L80+8
 1795              		.loc 1 199 0
 1796 0016 9A68     		ldr	r2, [r3, #8]
 1797              		.loc 1 198 0
 1798 0018 CF68     		ldr	r7, [r1, #12]
 1799              	.LVL167:
 1800              		.loc 1 199 0
 1801 001a 204B     		ldr	r3, .L80+12
 1802 001c D8F80000 		ldr	r0, [r8, #0]
 1803 0020 0025     		movs	r5, #0
 1804 0022 4FF49871 		mov	r1, #304
 1805 0026 013A     		subs	r2, r2, #1
 1806 0028 0095     		str	r5, [sp, #0]
 1807 002a FFF7FEFF 		bl	chThdCreateStatic
 1808              	.LVL168:
 1809              		.loc 1 200 0
 1810 002e B369     		ldr	r3, [r6, #24]
 1811 0030 D8F80420 		ldr	r2, [r8, #4]
 1812 0034 0392     		str	r2, [sp, #12]
 1813 0036 9A68     		ldr	r2, [r3, #8]
 1814              		.loc 1 199 0
 1815 0038 2060     		str	r0, [r4, #0]
 1816              		.loc 1 200 0
 1817 003a 4FF49871 		mov	r1, #304
 1818 003e 023A     		subs	r2, r2, #2
ARM GAS  C:\Users\LAB_ME~1\AppData\Local\Temp\ccnOo3uD.s 			page 33


 1819 0040 174B     		ldr	r3, .L80+16
 1820 0042 0095     		str	r5, [sp, #0]
 1821 0044 0398     		ldr	r0, [sp, #12]
 1822 0046 FFF7FEFF 		bl	chThdCreateStatic
 1823              	.LVL169:
 1824              		.loc 1 201 0
 1825 004a B369     		ldr	r3, [r6, #24]
 1826 004c D8F80860 		ldr	r6, [r8, #8]
 1827 0050 9A68     		ldr	r2, [r3, #8]
 1828              		.loc 1 200 0
 1829 0052 6060     		str	r0, [r4, #4]
 1830              		.loc 1 201 0
 1831 0054 4FF49871 		mov	r1, #304
 1832 0058 033A     		subs	r2, r2, #3
 1833 005a 124B     		ldr	r3, .L80+20
 1834 005c 0095     		str	r5, [sp, #0]
 1835 005e 3046     		mov	r0, r6
 1836 0060 FFF7FEFF 		bl	chThdCreateStatic
 1837              	.LVL170:
 1838 0064 A060     		str	r0, [r4, #8]
 1839              		.loc 1 202 0
 1840 0066 FFF7FEFF 		bl	test_wait_threads
 1841              	.LVL171:
 1842              		.loc 1 203 0
 1843 006a 0120     		movs	r0, #1
 1844 006c 0E49     		ldr	r1, .L80+24
 1845 006e FFF7FEFF 		bl	_test_assert_sequence
 1846              	.LVL172:
 1847 0072 10B1     		cbz	r0, .L79
 1848              		.loc 1 205 0
 1849 0074 04B0     		add	sp, sp, #16
 1850 0076 BDE8F081 		pop	{r4, r5, r6, r7, r8, pc}
 1851              	.L79:
 1852              		.loc 1 204 0
 1853 007a 0220     		movs	r0, #2
 1854 007c 07F16401 		add	r1, r7, #100
 1855 0080 07F16902 		add	r2, r7, #105
 1856              		.loc 1 205 0
 1857 0084 04B0     		add	sp, sp, #16
 1858 0086 BDE8F041 		pop	{r4, r5, r6, r7, r8, lr}
 1859              		.loc 1 204 0
 1860 008a FFF7FEBF 		b	_test_assert_time_window
 1861              	.LVL173:
 1862              	.L81:
 1863 008e 00BF     		.align	2
 1864              	.L80:
 1865 0090 00000000 		.word	rlist
 1866 0094 00000000 		.word	threads
 1867 0098 00000000 		.word	vtlist
 1868 009c 00000000 		.word	thread2H
 1869 00a0 00000000 		.word	thread2M
 1870 00a4 00000000 		.word	thread2L
 1871 00a8 0C000000 		.word	.LC3
 1872 00ac 00000000 		.word	wa
 1873              		.cfi_endproc
 1874              	.LFE14:
 1875              		.size	mtx2_execute, .-mtx2_execute
ARM GAS  C:\Users\LAB_ME~1\AppData\Local\Temp\ccnOo3uD.s 			page 34


 1876              		.section	.text.thread3HH,"ax",%progbits
 1877              		.align	2
 1878              		.p2align 4,,15
 1879              		.thumb
 1880              		.thumb_func
 1881              		.type	thread3HH, %function
 1882              	thread3HH:
 1883              	.LFB20:
 1884              		.loc 1 301 0
 1885              		.cfi_startproc
 1886              		@ args = 0, pretend = 0, frame = 0
 1887              		@ frame_needed = 0, uses_anonymous_args = 0
 1888              	.LVL174:
 1889 0000 08B5     		push	{r3, lr}
 1890              	.LCFI26:
 1891              		.cfi_def_cfa_offset 8
 1892              		.cfi_offset 3, -8
 1893              		.cfi_offset 14, -4
 1894              		.loc 1 304 0
 1895 0002 3220     		movs	r0, #50
 1896              	.LVL175:
 1897 0004 FFF7FEFF 		bl	chThdSleep
 1898              	.LVL176:
 1899              		.loc 1 305 0
 1900 0008 0648     		ldr	r0, .L83
 1901 000a FFF7FEFF 		bl	chMtxLock
 1902              	.LVL177:
 1903              		.loc 1 306 0
 1904 000e 0A20     		movs	r0, #10
 1905 0010 FFF7FEFF 		bl	test_cpu_pulse
 1906              	.LVL178:
 1907              		.loc 1 307 0
 1908 0014 FFF7FEFF 		bl	chMtxUnlock
 1909              	.LVL179:
 1910              		.loc 1 308 0
 1911 0018 4120     		movs	r0, #65
 1912 001a FFF7FEFF 		bl	test_emit_token
 1913              	.LVL180:
 1914              		.loc 1 310 0
 1915 001e 0020     		movs	r0, #0
 1916 0020 08BD     		pop	{r3, pc}
 1917              	.L84:
 1918 0022 00BF     		.align	2
 1919              	.L83:
 1920 0024 00000000 		.word	.LANCHOR1
 1921              		.cfi_endproc
 1922              	.LFE20:
 1923              		.size	thread3HH, .-thread3HH
 1924 0028 AFF30080 		.section	.text.thread3H,"ax",%progbits
 1924      AFF30080 
 1925              		.align	2
 1926              		.p2align 4,,15
 1927              		.thumb
 1928              		.thumb_func
 1929              		.type	thread3H, %function
 1930              	thread3H:
 1931              	.LFB19:
ARM GAS  C:\Users\LAB_ME~1\AppData\Local\Temp\ccnOo3uD.s 			page 35


 1932              		.loc 1 291 0
 1933              		.cfi_startproc
 1934              		@ args = 0, pretend = 0, frame = 0
 1935              		@ frame_needed = 0, uses_anonymous_args = 0
 1936              	.LVL181:
 1937 0000 08B5     		push	{r3, lr}
 1938              	.LCFI27:
 1939              		.cfi_def_cfa_offset 8
 1940              		.cfi_offset 3, -8
 1941              		.cfi_offset 14, -4
 1942              		.loc 1 294 0
 1943 0002 2820     		movs	r0, #40
 1944              	.LVL182:
 1945 0004 FFF7FEFF 		bl	chThdSleep
 1946              	.LVL183:
 1947              		.loc 1 295 0
 1948 0008 1420     		movs	r0, #20
 1949 000a FFF7FEFF 		bl	test_cpu_pulse
 1950              	.LVL184:
 1951              		.loc 1 296 0
 1952 000e 4220     		movs	r0, #66
 1953 0010 FFF7FEFF 		bl	test_emit_token
 1954              	.LVL185:
 1955              		.loc 1 298 0
 1956 0014 0020     		movs	r0, #0
 1957 0016 08BD     		pop	{r3, pc}
 1958              		.cfi_endproc
 1959              	.LFE19:
 1960              		.size	thread3H, .-thread3H
 1961 0018 AFF30080 		.section	.text.thread3M,"ax",%progbits
 1961      AFF30080 
 1962              		.align	2
 1963              		.p2align 4,,15
 1964              		.thumb
 1965              		.thumb_func
 1966              		.type	thread3M, %function
 1967              	thread3M:
 1968              	.LFB18:
 1969              		.loc 1 279 0
 1970              		.cfi_startproc
 1971              		@ args = 0, pretend = 0, frame = 0
 1972              		@ frame_needed = 0, uses_anonymous_args = 0
 1973              	.LVL186:
 1974 0000 08B5     		push	{r3, lr}
 1975              	.LCFI28:
 1976              		.cfi_def_cfa_offset 8
 1977              		.cfi_offset 3, -8
 1978              		.cfi_offset 14, -4
 1979              		.loc 1 282 0
 1980 0002 1420     		movs	r0, #20
 1981              	.LVL187:
 1982 0004 FFF7FEFF 		bl	chThdSleep
 1983              	.LVL188:
 1984              		.loc 1 283 0
 1985 0008 0648     		ldr	r0, .L87
 1986 000a FFF7FEFF 		bl	chMtxLock
 1987              	.LVL189:
ARM GAS  C:\Users\LAB_ME~1\AppData\Local\Temp\ccnOo3uD.s 			page 36


 1988              		.loc 1 284 0
 1989 000e 0A20     		movs	r0, #10
 1990 0010 FFF7FEFF 		bl	test_cpu_pulse
 1991              	.LVL190:
 1992              		.loc 1 285 0
 1993 0014 FFF7FEFF 		bl	chMtxUnlock
 1994              	.LVL191:
 1995              		.loc 1 286 0
 1996 0018 4320     		movs	r0, #67
 1997 001a FFF7FEFF 		bl	test_emit_token
 1998              	.LVL192:
 1999              		.loc 1 288 0
 2000 001e 0020     		movs	r0, #0
 2001 0020 08BD     		pop	{r3, pc}
 2002              	.L88:
 2003 0022 00BF     		.align	2
 2004              	.L87:
 2005 0024 00000000 		.word	.LANCHOR1
 2006              		.cfi_endproc
 2007              	.LFE18:
 2008              		.size	thread3M, .-thread3M
 2009 0028 AFF30080 		.section	.text.thread3L,"ax",%progbits
 2009      AFF30080 
 2010              		.align	2
 2011              		.p2align 4,,15
 2012              		.thumb
 2013              		.thumb_func
 2014              		.type	thread3L, %function
 2015              	thread3L:
 2016              	.LFB17:
 2017              		.loc 1 263 0
 2018              		.cfi_startproc
 2019              		@ args = 0, pretend = 0, frame = 0
 2020              		@ frame_needed = 0, uses_anonymous_args = 0
 2021              	.LVL193:
 2022 0000 08B5     		push	{r3, lr}
 2023              	.LCFI29:
 2024              		.cfi_def_cfa_offset 8
 2025              		.cfi_offset 3, -8
 2026              		.cfi_offset 14, -4
 2027              		.loc 1 266 0
 2028 0002 0A20     		movs	r0, #10
 2029              	.LVL194:
 2030 0004 FFF7FEFF 		bl	chThdSleep
 2031              	.LVL195:
 2032              		.loc 1 267 0
 2033 0008 0B48     		ldr	r0, .L90
 2034 000a FFF7FEFF 		bl	chMtxLock
 2035              	.LVL196:
 2036              		.loc 1 268 0
 2037 000e 1420     		movs	r0, #20
 2038 0010 FFF7FEFF 		bl	test_cpu_pulse
 2039              	.LVL197:
 2040              		.loc 1 269 0
 2041 0014 0948     		ldr	r0, .L90+4
 2042 0016 FFF7FEFF 		bl	chMtxLock
 2043              	.LVL198:
ARM GAS  C:\Users\LAB_ME~1\AppData\Local\Temp\ccnOo3uD.s 			page 37


 2044              		.loc 1 270 0
 2045 001a 0A20     		movs	r0, #10
 2046 001c FFF7FEFF 		bl	test_cpu_pulse
 2047              	.LVL199:
 2048              		.loc 1 271 0
 2049 0020 FFF7FEFF 		bl	chMtxUnlock
 2050              	.LVL200:
 2051              		.loc 1 272 0
 2052 0024 0A20     		movs	r0, #10
 2053 0026 FFF7FEFF 		bl	test_cpu_pulse
 2054              	.LVL201:
 2055              		.loc 1 273 0
 2056 002a FFF7FEFF 		bl	chMtxUnlock
 2057              	.LVL202:
 2058              		.loc 1 274 0
 2059 002e 4420     		movs	r0, #68
 2060 0030 FFF7FEFF 		bl	test_emit_token
 2061              	.LVL203:
 2062              		.loc 1 276 0
 2063 0034 0020     		movs	r0, #0
 2064 0036 08BD     		pop	{r3, pc}
 2065              	.L91:
 2066              		.align	2
 2067              	.L90:
 2068 0038 00000000 		.word	.LANCHOR1
 2069 003c 00000000 		.word	.LANCHOR2
 2070              		.cfi_endproc
 2071              	.LFE17:
 2072              		.size	thread3L, .-thread3L
 2073              		.section	.text.thread3LL,"ax",%progbits
 2074              		.align	2
 2075              		.p2align 4,,15
 2076              		.thumb
 2077              		.thumb_func
 2078              		.type	thread3LL, %function
 2079              	thread3LL:
 2080              	.LFB16:
 2081              		.loc 1 252 0
 2082              		.cfi_startproc
 2083              		@ args = 0, pretend = 0, frame = 0
 2084              		@ frame_needed = 0, uses_anonymous_args = 0
 2085              	.LVL204:
 2086 0000 08B5     		push	{r3, lr}
 2087              	.LCFI30:
 2088              		.cfi_def_cfa_offset 8
 2089              		.cfi_offset 3, -8
 2090              		.cfi_offset 14, -4
 2091              		.loc 1 255 0
 2092 0002 0648     		ldr	r0, .L93
 2093              	.LVL205:
 2094 0004 FFF7FEFF 		bl	chMtxLock
 2095              	.LVL206:
 2096              		.loc 1 256 0
 2097 0008 1E20     		movs	r0, #30
 2098 000a FFF7FEFF 		bl	test_cpu_pulse
 2099              	.LVL207:
 2100              		.loc 1 257 0
ARM GAS  C:\Users\LAB_ME~1\AppData\Local\Temp\ccnOo3uD.s 			page 38


 2101 000e FFF7FEFF 		bl	chMtxUnlock
 2102              	.LVL208:
 2103              		.loc 1 258 0
 2104 0012 4520     		movs	r0, #69
 2105 0014 FFF7FEFF 		bl	test_emit_token
 2106              	.LVL209:
 2107              		.loc 1 260 0
 2108 0018 0020     		movs	r0, #0
 2109 001a 08BD     		pop	{r3, pc}
 2110              	.L94:
 2111              		.align	2
 2112              	.L93:
 2113 001c 00000000 		.word	.LANCHOR2
 2114              		.cfi_endproc
 2115              	.LFE16:
 2116              		.size	thread3LL, .-thread3LL
 2117              		.section	.text.thread2L,"ax",%progbits
 2118              		.align	2
 2119              		.p2align 4,,15
 2120              		.thumb
 2121              		.thumb_func
 2122              		.type	thread2L, %function
 2123              	thread2L:
 2124              	.LFB11:
 2125              		.loc 1 161 0
 2126              		.cfi_startproc
 2127              		@ args = 0, pretend = 0, frame = 0
 2128              		@ frame_needed = 0, uses_anonymous_args = 0
 2129              	.LVL210:
 2130 0000 08B5     		push	{r3, lr}
 2131              	.LCFI31:
 2132              		.cfi_def_cfa_offset 8
 2133              		.cfi_offset 3, -8
 2134              		.cfi_offset 14, -4
 2135              		.loc 1 164 0
 2136 0002 0848     		ldr	r0, .L96
 2137              	.LVL211:
 2138 0004 FFF7FEFF 		bl	chMtxLock
 2139              	.LVL212:
 2140              		.loc 1 165 0
 2141 0008 2820     		movs	r0, #40
 2142 000a FFF7FEFF 		bl	test_cpu_pulse
 2143              	.LVL213:
 2144              		.loc 1 166 0
 2145 000e FFF7FEFF 		bl	chMtxUnlock
 2146              	.LVL214:
 2147              		.loc 1 167 0
 2148 0012 0A20     		movs	r0, #10
 2149 0014 FFF7FEFF 		bl	test_cpu_pulse
 2150              	.LVL215:
 2151              		.loc 1 168 0
 2152 0018 4320     		movs	r0, #67
 2153 001a FFF7FEFF 		bl	test_emit_token
 2154              	.LVL216:
 2155              		.loc 1 170 0
 2156 001e 0020     		movs	r0, #0
 2157 0020 08BD     		pop	{r3, pc}
ARM GAS  C:\Users\LAB_ME~1\AppData\Local\Temp\ccnOo3uD.s 			page 39


 2158              	.L97:
 2159 0022 00BF     		.align	2
 2160              	.L96:
 2161 0024 00000000 		.word	.LANCHOR2
 2162              		.cfi_endproc
 2163              	.LFE11:
 2164              		.size	thread2L, .-thread2L
 2165 0028 AFF30080 		.section	.text.thread2M,"ax",%progbits
 2165      AFF30080 
 2166              		.align	2
 2167              		.p2align 4,,15
 2168              		.thumb
 2169              		.thumb_func
 2170              		.type	thread2M, %function
 2171              	thread2M:
 2172              	.LFB12:
 2173              		.loc 1 173 0
 2174              		.cfi_startproc
 2175              		@ args = 0, pretend = 0, frame = 0
 2176              		@ frame_needed = 0, uses_anonymous_args = 0
 2177              	.LVL217:
 2178 0000 08B5     		push	{r3, lr}
 2179              	.LCFI32:
 2180              		.cfi_def_cfa_offset 8
 2181              		.cfi_offset 3, -8
 2182              		.cfi_offset 14, -4
 2183              		.loc 1 176 0
 2184 0002 1420     		movs	r0, #20
 2185              	.LVL218:
 2186 0004 FFF7FEFF 		bl	chThdSleep
 2187              	.LVL219:
 2188              		.loc 1 177 0
 2189 0008 2820     		movs	r0, #40
 2190 000a FFF7FEFF 		bl	test_cpu_pulse
 2191              	.LVL220:
 2192              		.loc 1 178 0
 2193 000e 4220     		movs	r0, #66
 2194 0010 FFF7FEFF 		bl	test_emit_token
 2195              	.LVL221:
 2196              		.loc 1 180 0
 2197 0014 0020     		movs	r0, #0
 2198 0016 08BD     		pop	{r3, pc}
 2199              		.cfi_endproc
 2200              	.LFE12:
 2201              		.size	thread2M, .-thread2M
 2202 0018 AFF30080 		.section	.text.thread2H,"ax",%progbits
 2202      AFF30080 
 2203              		.align	2
 2204              		.p2align 4,,15
 2205              		.thumb
 2206              		.thumb_func
 2207              		.type	thread2H, %function
 2208              	thread2H:
 2209              	.LFB13:
 2210              		.loc 1 183 0
 2211              		.cfi_startproc
 2212              		@ args = 0, pretend = 0, frame = 0
ARM GAS  C:\Users\LAB_ME~1\AppData\Local\Temp\ccnOo3uD.s 			page 40


 2213              		@ frame_needed = 0, uses_anonymous_args = 0
 2214              	.LVL222:
 2215 0000 08B5     		push	{r3, lr}
 2216              	.LCFI33:
 2217              		.cfi_def_cfa_offset 8
 2218              		.cfi_offset 3, -8
 2219              		.cfi_offset 14, -4
 2220              		.loc 1 186 0
 2221 0002 2820     		movs	r0, #40
 2222              	.LVL223:
 2223 0004 FFF7FEFF 		bl	chThdSleep
 2224              	.LVL224:
 2225              		.loc 1 187 0
 2226 0008 0648     		ldr	r0, .L100
 2227 000a FFF7FEFF 		bl	chMtxLock
 2228              	.LVL225:
 2229              		.loc 1 188 0
 2230 000e 0A20     		movs	r0, #10
 2231 0010 FFF7FEFF 		bl	test_cpu_pulse
 2232              	.LVL226:
 2233              		.loc 1 189 0
 2234 0014 FFF7FEFF 		bl	chMtxUnlock
 2235              	.LVL227:
 2236              		.loc 1 190 0
 2237 0018 4120     		movs	r0, #65
 2238 001a FFF7FEFF 		bl	test_emit_token
 2239              	.LVL228:
 2240              		.loc 1 192 0
 2241 001e 0020     		movs	r0, #0
 2242 0020 08BD     		pop	{r3, pc}
 2243              	.L101:
 2244 0022 00BF     		.align	2
 2245              	.L100:
 2246 0024 00000000 		.word	.LANCHOR2
 2247              		.cfi_endproc
 2248              	.LFE13:
 2249              		.size	thread2H, .-thread2H
 2250              		.global	patternmtx
 2251              		.global	testmtx8
 2252              		.global	testmtx7
 2253              		.global	testmtx6
 2254              		.global	testmtx5
 2255              		.global	testmtx4
 2256              		.global	testmtx3
 2257              		.global	testmtx2
 2258              		.global	testmtx1
 2259 0028 AFF30080 		.section	.rodata.testmtx5,"a",%progbits
 2259      AFF30080 
 2260              		.align	2
 2261              		.type	testmtx5, %object
 2262              		.size	testmtx5, 16
 2263              	testmtx5:
 2264 0000 64000000 		.word	.LC10
 2265 0004 00000000 		.word	mtx5_setup
 2266 0008 00000000 		.word	0
 2267 000c 00000000 		.word	mtx5_execute
 2268              		.section	.rodata.testmtx6,"a",%progbits
ARM GAS  C:\Users\LAB_ME~1\AppData\Local\Temp\ccnOo3uD.s 			page 41


 2269              		.align	2
 2270              		.type	testmtx6, %object
 2271              		.size	testmtx6, 16
 2272              	testmtx6:
 2273 0000 4C000000 		.word	.LC9
 2274 0004 00000000 		.word	mtx6_setup
 2275 0008 00000000 		.word	0
 2276 000c 00000000 		.word	mtx6_execute
 2277              		.section	.rodata.testmtx7,"a",%progbits
 2278              		.align	2
 2279              		.type	testmtx7, %object
 2280              		.size	testmtx7, 16
 2281              	testmtx7:
 2282 0000 34000000 		.word	.LC8
 2283 0004 00000000 		.word	mtx7_setup
 2284 0008 00000000 		.word	0
 2285 000c 00000000 		.word	mtx7_execute
 2286              		.section	.rodata.testmtx8,"a",%progbits
 2287              		.align	2
 2288              		.type	testmtx8, %object
 2289              		.size	testmtx8, 16
 2290              	testmtx8:
 2291 0000 20000000 		.word	.LC7
 2292 0004 00000000 		.word	mtx8_setup
 2293 0008 00000000 		.word	0
 2294 000c 00000000 		.word	mtx8_execute
 2295              		.section	.data.m1,"aw",%progbits
 2296              		.align	2
 2297              		.set	.LANCHOR2,. + 0
 2298              		.type	m1, %object
 2299              		.size	m1, 16
 2300              	m1:
 2301 0000 00000000 		.word	m1
 2302 0004 00000000 		.word	m1
 2303 0008 00000000 		.word	0
 2304 000c 00000000 		.word	0
 2305              		.section	.data.m2,"aw",%progbits
 2306              		.align	2
 2307              		.set	.LANCHOR1,. + 0
 2308              		.type	m2, %object
 2309              		.size	m2, 16
 2310              	m2:
 2311 0000 00000000 		.word	m2
 2312 0004 00000000 		.word	m2
 2313 0008 00000000 		.word	0
 2314 000c 00000000 		.word	0
 2315              		.section	.rodata.str1.4,"aMS",%progbits,1
 2316              		.align	2
 2317              	.LC0:
 2318 0000 4100     		.ascii	"A\000"
 2319 0002 0000     		.space	2
 2320              	.LC1:
 2321 0004 4300     		.ascii	"C\000"
 2322 0006 0000     		.space	2
 2323              	.LC2:
 2324 0008 4200     		.ascii	"B\000"
 2325 000a 0000     		.space	2
ARM GAS  C:\Users\LAB_ME~1\AppData\Local\Temp\ccnOo3uD.s 			page 42


 2326              	.LC3:
 2327 000c 41424300 		.ascii	"ABC\000"
 2328              	.LC4:
 2329 0010 4500     		.ascii	"E\000"
 2330 0012 0000     		.space	2
 2331              	.LC5:
 2332 0014 4400     		.ascii	"D\000"
 2333 0016 0000     		.space	2
 2334              	.LC6:
 2335 0018 41424344 		.ascii	"ABCDE\000"
 2335      4500
 2336 001e 0000     		.space	2
 2337              	.LC7:
 2338 0020 436F6E64 		.ascii	"CondVar, boost test\000"
 2338      5661722C 
 2338      20626F6F 
 2338      73742074 
 2338      65737400 
 2339              	.LC8:
 2340 0034 436F6E64 		.ascii	"CondVar, broadcast test\000"
 2340      5661722C 
 2340      2062726F 
 2340      61646361 
 2340      73742074 
 2341              	.LC9:
 2342 004c 436F6E64 		.ascii	"CondVar, signal test\000"
 2342      5661722C 
 2342      20736967 
 2342      6E616C20 
 2342      74657374 
 2343 0061 000000   		.space	3
 2344              	.LC10:
 2345 0064 4D757465 		.ascii	"Mutexes, status\000"
 2345      7865732C 
 2345      20737461 
 2345      74757300 
 2346              	.LC11:
 2347 0074 4D757465 		.ascii	"Mutexes, priority return\000"
 2347      7865732C 
 2347      20707269 
 2347      6F726974 
 2347      79207265 
 2348 008d 000000   		.space	3
 2349              	.LC12:
 2350 0090 4D757465 		.ascii	"Mutexes, priority inheritance, complex case\000"
 2350      7865732C 
 2350      20707269 
 2350      6F726974 
 2350      7920696E 
 2351              	.LC13:
 2352 00bc 4D757465 		.ascii	"Mutexes, priority inheritance, simple case\000"
 2352      7865732C 
 2352      20707269 
 2352      6F726974 
 2352      7920696E 
 2353 00e7 00       		.space	1
 2354              	.LC14:
ARM GAS  C:\Users\LAB_ME~1\AppData\Local\Temp\ccnOo3uD.s 			page 43


 2355 00e8 4D757465 		.ascii	"Mutexes, priority enqueuing test\000"
 2355      7865732C 
 2355      20707269 
 2355      6F726974 
 2355      7920656E 
 2356 0109 000000   		.section	.rodata.patternmtx,"a",%progbits
 2357              		.align	2
 2358              		.type	patternmtx, %object
 2359              		.size	patternmtx, 36
 2360              	patternmtx:
 2361 0000 00000000 		.word	testmtx1
 2362 0004 00000000 		.word	testmtx2
 2363 0008 00000000 		.word	testmtx3
 2364 000c 00000000 		.word	testmtx4
 2365 0010 00000000 		.word	testmtx5
 2366 0014 00000000 		.word	testmtx6
 2367 0018 00000000 		.word	testmtx7
 2368 001c 00000000 		.word	testmtx8
 2369 0020 00000000 		.word	0
 2370              		.section	.data.c1,"aw",%progbits
 2371              		.align	2
 2372              		.set	.LANCHOR0,. + 0
 2373              		.type	c1, %object
 2374              		.size	c1, 8
 2375              	c1:
 2376 0000 00000000 		.word	c1
 2377 0004 00000000 		.word	c1
 2378              		.section	.rodata.testmtx1,"a",%progbits
 2379              		.align	2
 2380              		.type	testmtx1, %object
 2381              		.size	testmtx1, 16
 2382              	testmtx1:
 2383 0000 E8000000 		.word	.LC14
 2384 0004 00000000 		.word	mtx1_setup
 2385 0008 00000000 		.word	0
 2386 000c 00000000 		.word	mtx1_execute
 2387              		.section	.rodata.testmtx2,"a",%progbits
 2388              		.align	2
 2389              		.type	testmtx2, %object
 2390              		.size	testmtx2, 16
 2391              	testmtx2:
 2392 0000 BC000000 		.word	.LC13
 2393 0004 00000000 		.word	mtx2_setup
 2394 0008 00000000 		.word	0
 2395 000c 00000000 		.word	mtx2_execute
 2396              		.section	.rodata.testmtx3,"a",%progbits
 2397              		.align	2
 2398              		.type	testmtx3, %object
 2399              		.size	testmtx3, 16
 2400              	testmtx3:
 2401 0000 90000000 		.word	.LC12
 2402 0004 00000000 		.word	mtx3_setup
 2403 0008 00000000 		.word	0
 2404 000c 00000000 		.word	mtx3_execute
 2405              		.section	.rodata.testmtx4,"a",%progbits
 2406              		.align	2
 2407              		.type	testmtx4, %object
ARM GAS  C:\Users\LAB_ME~1\AppData\Local\Temp\ccnOo3uD.s 			page 44


 2408              		.size	testmtx4, 16
 2409              	testmtx4:
 2410 0000 74000000 		.word	.LC11
 2411 0004 00000000 		.word	mtx4_setup
 2412 0008 00000000 		.word	0
 2413 000c 00000000 		.word	mtx4_execute
 2414              		.text
 2415              	.Letext0:
 2416              		.file 2 "c:\\program files (x86)\\codesourcery\\sourcery_codebench_lite_for_arm_eabi\\bin\\../lib/
 2417              		.file 3 "c:\\program files (x86)\\codesourcery\\sourcery_codebench_lite_for_arm_eabi\\bin\\../lib/
 2418              		.file 4 "../../os/ports/GCC/ARMCMx/chtypes.h"
 2419              		.file 5 "../../os/kernel/include/chlists.h"
 2420              		.file 6 "../../os/kernel/include/chthreads.h"
 2421              		.file 7 "../../os/ports/GCC/ARMCMx/chcore_v7m.h"
 2422              		.file 8 "../../os/kernel/include/chvt.h"
 2423              		.file 9 "../../os/kernel/include/chschd.h"
 2424              		.file 10 "../../os/kernel/include/chmtx.h"
 2425              		.file 11 "../../os/kernel/include/chcond.h"
 2426              		.file 12 "../../test/test.h"