ARM GAS  C:\Users\LAB_ME~1\AppData\Local\Temp\ccfo7P8a.s 			page 1


   1              		.syntax unified
   2              		.cpu cortex-m4
   3              		.fpu softvfp
   4              		.eabi_attribute 20, 1
   5              		.eabi_attribute 21, 1
   6              		.eabi_attribute 23, 3
   7              		.eabi_attribute 24, 1
   8              		.eabi_attribute 25, 1
   9              		.eabi_attribute 26, 1
  10              		.eabi_attribute 30, 2
  11              		.eabi_attribute 34, 1
  12              		.eabi_attribute 18, 4
  13              		.thumb
  14              		.file	"adc_lld.c"
  15              		.text
  16              	.Ltext0:
  17              		.cfi_sections	.debug_frame
  18              		.section	.text.adc_lld_init,"ax",%progbits
  19              		.align	2
  20              		.p2align 4,,15
  21              		.global	adc_lld_init
  22              		.thumb
  23              		.thumb_func
  24              		.type	adc_lld_init, %function
  25              	adc_lld_init:
  26              	.LFB120:
  27              		.file 1 "../../os/hal/platforms/STM32F4xx/adc_lld.c"
  28              		.loc 1 175 0
  29              		.cfi_startproc
  30              		@ args = 0, pretend = 0, frame = 0
  31              		@ frame_needed = 0, uses_anonymous_args = 0
  32 0000 F8B5     		push	{r3, r4, r5, r6, r7, lr}
  33              	.LCFI0:
  34              		.cfi_def_cfa_offset 24
  35              		.cfi_offset 3, -24
  36              		.cfi_offset 4, -20
  37              		.cfi_offset 5, -16
  38              		.cfi_offset 6, -12
  39              		.cfi_offset 7, -8
  40              		.cfi_offset 14, -4
  41              		.loc 1 179 0
  42 0002 124E     		ldr	r6, .L2
  43              		.loc 1 192 0
  44 0004 124D     		ldr	r5, .L2+4
  45              		.loc 1 181 0
  46 0006 134F     		ldr	r7, .L2+8
  47              		.loc 1 205 0
  48 0008 134C     		ldr	r4, .L2+12
  49              		.loc 1 179 0
  50 000a 3046     		mov	r0, r6
  51 000c FFF7FEFF 		bl	adcObjectInit
  52              	.LVL0:
  53              		.loc 1 180 0
  54 0010 124B     		ldr	r3, .L2+16
  55              		.loc 1 181 0
  56 0012 F762     		str	r7, [r6, #44]
  57              		.loc 1 180 0
ARM GAS  C:\Users\LAB_ME~1\AppData\Local\Temp\ccfo7P8a.s 			page 2


  58 0014 B362     		str	r3, [r6, #40]
  59              		.loc 1 182 0
  60 0016 124B     		ldr	r3, .L2+20
  61              		.loc 1 192 0
  62 0018 2846     		mov	r0, r5
  63              		.loc 1 182 0
  64 001a 3363     		str	r3, [r6, #48]
  65              		.loc 1 192 0
  66 001c FFF7FEFF 		bl	adcObjectInit
  67              	.LVL1:
  68              		.loc 1 193 0
  69 0020 104B     		ldr	r3, .L2+24
  70 0022 AB62     		str	r3, [r5, #40]
  71              		.loc 1 194 0
  72 0024 A7F11803 		sub	r3, r7, #24
  73 0028 EB62     		str	r3, [r5, #44]
  74              		.loc 1 195 0
  75 002a 0F4B     		ldr	r3, .L2+28
  76              		.loc 1 205 0
  77 002c 2046     		mov	r0, r4
  78              		.loc 1 195 0
  79 002e 2B63     		str	r3, [r5, #48]
  80              		.loc 1 205 0
  81 0030 FFF7FEFF 		bl	adcObjectInit
  82              	.LVL2:
  83              		.loc 1 206 0
  84 0034 0D4B     		ldr	r3, .L2+32
  85 0036 A362     		str	r3, [r4, #40]
  86              		.loc 1 208 0
  87 0038 0D4B     		ldr	r3, .L2+36
  88              		.loc 1 207 0
  89 003a 243F     		subs	r7, r7, #36
  90              		.loc 1 218 0
  91 003c 1220     		movs	r0, #18
  92 003e 5021     		movs	r1, #80
  93              		.loc 1 207 0
  94 0040 E762     		str	r7, [r4, #44]
  95              		.loc 1 208 0
  96 0042 2363     		str	r3, [r4, #48]
  97              		.loc 1 219 0
  98 0044 BDE8F840 		pop	{r3, r4, r5, r6, r7, lr}
  99              		.loc 1 218 0
 100 0048 FFF7FEBF 		b	nvicEnableVector
 101              	.LVL3:
 102              	.L3:
 103              		.align	2
 104              	.L2:
 105 004c 00000000 		.word	.LANCHOR0
 106 0050 00000000 		.word	.LANCHOR1
 107 0054 90000000 		.word	_stm32_dma_streams+144
 108 0058 00000000 		.word	.LANCHOR2
 109 005c 00200140 		.word	1073815552
 110 0060 162C0200 		.word	142358
 111 0064 00210140 		.word	1073815808
 112 0068 162C0202 		.word	33696790
 113 006c 00220140 		.word	1073816064
 114 0070 162C0204 		.word	67251222
ARM GAS  C:\Users\LAB_ME~1\AppData\Local\Temp\ccfo7P8a.s 			page 3


 115              		.cfi_endproc
 116              	.LFE120:
 117              		.size	adc_lld_init, .-adc_lld_init
 118 0074 AFF30080 		.section	.text.adc_lld_start,"ax",%progbits
 118      AFF30080 
 118      AFF30080 
 119              		.align	2
 120              		.p2align 4,,15
 121              		.global	adc_lld_start
 122              		.thumb
 123              		.thumb_func
 124              		.type	adc_lld_start, %function
 125              	adc_lld_start:
 126              	.LFB121:
 127              		.loc 1 228 0
 128              		.cfi_startproc
 129              		@ args = 0, pretend = 0, frame = 0
 130              		@ frame_needed = 0, uses_anonymous_args = 0
 131              	.LVL4:
 132              		.loc 1 231 0
 133 0000 0378     		ldrb	r3, [r0, #0]	@ zero_extendqisi2
 134 0002 012B     		cmp	r3, #1
 135              		.loc 1 228 0
 136 0004 10B5     		push	{r4, lr}
 137              	.LCFI1:
 138              		.cfi_def_cfa_offset 8
 139              		.cfi_offset 4, -8
 140              		.cfi_offset 14, -4
 141              		.loc 1 228 0
 142 0006 0446     		mov	r4, r0
 143              		.loc 1 231 0
 144 0008 00D0     		beq	.L10
 145 000a 10BD     		pop	{r4, pc}
 146              	.L10:
 147              		.loc 1 233 0
 148 000c 214B     		ldr	r3, .L14
 149 000e 9842     		cmp	r0, r3
 150 0010 10D0     		beq	.L11
 151              		.loc 1 246 0
 152 0012 214B     		ldr	r3, .L14+4
 153 0014 9842     		cmp	r0, r3
 154 0016 1DD0     		beq	.L12
 155              		.loc 1 259 0
 156 0018 204B     		ldr	r3, .L14+8
 157 001a 9842     		cmp	r0, r3
 158 001c 2AD0     		beq	.L13
 159              	.LVL5:
 160              	.L7:
 161              		.loc 1 277 0
 162 001e A36A     		ldr	r3, [r4, #40]
 163              		.loc 1 273 0
 164 0020 1F49     		ldr	r1, .L14+12
 165              		.loc 1 277 0
 166 0022 0022     		movs	r2, #0
 167              		.loc 1 273 0
 168 0024 4FF48030 		mov	r0, #65536
 169 0028 4860     		str	r0, [r1, #4]
ARM GAS  C:\Users\LAB_ME~1\AppData\Local\Temp\ccfo7P8a.s 			page 4


 170              		.loc 1 277 0
 171 002a 5A60     		str	r2, [r3, #4]
 172              		.loc 1 278 0
 173 002c 9A60     		str	r2, [r3, #8]
 174              		.loc 1 279 0
 175 002e 0122     		movs	r2, #1
 176 0030 9A60     		str	r2, [r3, #8]
 177 0032 10BD     		pop	{r4, pc}
 178              	.LVL6:
 179              	.L11:
 180              	.LBB2:
 181              		.loc 1 235 0
 182 0034 1B4A     		ldr	r2, .L14+16
 183 0036 C06A     		ldr	r0, [r0, #44]
 184              	.LVL7:
 185 0038 0521     		movs	r1, #5
 186 003a 2346     		mov	r3, r4
 187 003c FFF7FEFF 		bl	dmaStreamAllocate
 188              	.LVL8:
 189              		.loc 1 240 0
 190 0040 E36A     		ldr	r3, [r4, #44]
 191 0042 1949     		ldr	r1, .L14+20
 192 0044 1A68     		ldr	r2, [r3, #0]
 193              		.loc 1 241 0
 194 0046 194B     		ldr	r3, .L14+24
 195              		.loc 1 240 0
 196 0048 9160     		str	r1, [r2, #8]
 197              		.loc 1 241 0
 198 004a 5A6C     		ldr	r2, [r3, #68]
 199 004c 42F48072 		orr	r2, r2, #256
 200 0050 5A64     		str	r2, [r3, #68]
 201 0052 E4E7     		b	.L7
 202              	.LVL9:
 203              	.L12:
 204              	.LBE2:
 205              	.LBB3:
 206              		.loc 1 248 0
 207 0054 134A     		ldr	r2, .L14+16
 208 0056 C06A     		ldr	r0, [r0, #44]
 209              	.LVL10:
 210 0058 0521     		movs	r1, #5
 211 005a 2346     		mov	r3, r4
 212 005c FFF7FEFF 		bl	dmaStreamAllocate
 213              	.LVL11:
 214              		.loc 1 253 0
 215 0060 E36A     		ldr	r3, [r4, #44]
 216 0062 1349     		ldr	r1, .L14+28
 217 0064 1A68     		ldr	r2, [r3, #0]
 218              		.loc 1 254 0
 219 0066 114B     		ldr	r3, .L14+24
 220              		.loc 1 253 0
 221 0068 9160     		str	r1, [r2, #8]
 222              		.loc 1 254 0
 223 006a 5A6C     		ldr	r2, [r3, #68]
 224 006c 42F40072 		orr	r2, r2, #512
 225 0070 5A64     		str	r2, [r3, #68]
 226 0072 D4E7     		b	.L7
ARM GAS  C:\Users\LAB_ME~1\AppData\Local\Temp\ccfo7P8a.s 			page 5


 227              	.LVL12:
 228              	.L13:
 229              	.LBE3:
 230              	.LBB4:
 231              		.loc 1 261 0
 232 0074 0B4A     		ldr	r2, .L14+16
 233 0076 C06A     		ldr	r0, [r0, #44]
 234              	.LVL13:
 235 0078 0521     		movs	r1, #5
 236 007a 2346     		mov	r3, r4
 237 007c FFF7FEFF 		bl	dmaStreamAllocate
 238              	.LVL14:
 239              		.loc 1 266 0
 240 0080 E36A     		ldr	r3, [r4, #44]
 241 0082 0C49     		ldr	r1, .L14+32
 242 0084 1A68     		ldr	r2, [r3, #0]
 243              		.loc 1 267 0
 244 0086 094B     		ldr	r3, .L14+24
 245              		.loc 1 266 0
 246 0088 9160     		str	r1, [r2, #8]
 247              		.loc 1 267 0
 248 008a 5A6C     		ldr	r2, [r3, #68]
 249 008c 42F48062 		orr	r2, r2, #1024
 250 0090 5A64     		str	r2, [r3, #68]
 251 0092 C4E7     		b	.L7
 252              	.L15:
 253              		.align	2
 254              	.L14:
 255 0094 00000000 		.word	.LANCHOR0
 256 0098 00000000 		.word	.LANCHOR1
 257 009c 00000000 		.word	.LANCHOR2
 258 00a0 00230140 		.word	1073816320
 259 00a4 00000000 		.word	adc_lld_serve_rx_interrupt
 260 00a8 4C200140 		.word	1073815628
 261 00ac 00380240 		.word	1073887232
 262 00b0 4C210140 		.word	1073815884
 263 00b4 4C220140 		.word	1073816140
 264              	.LBE4:
 265              		.cfi_endproc
 266              	.LFE121:
 267              		.size	adc_lld_start, .-adc_lld_start
 268 00b8 AFF30080 		.section	.text.adc_lld_stop,"ax",%progbits
 268      AFF30080 
 269              		.align	2
 270              		.p2align 4,,15
 271              		.global	adc_lld_stop
 272              		.thumb
 273              		.thumb_func
 274              		.type	adc_lld_stop, %function
 275              	adc_lld_stop:
 276              	.LFB122:
 277              		.loc 1 290 0
 278              		.cfi_startproc
 279              		@ args = 0, pretend = 0, frame = 0
 280              		@ frame_needed = 0, uses_anonymous_args = 0
 281              	.LVL15:
 282              		.loc 1 293 0
ARM GAS  C:\Users\LAB_ME~1\AppData\Local\Temp\ccfo7P8a.s 			page 6


 283 0000 0378     		ldrb	r3, [r0, #0]	@ zero_extendqisi2
 284 0002 022B     		cmp	r3, #2
 285              		.loc 1 290 0
 286 0004 10B5     		push	{r4, lr}
 287              	.LCFI2:
 288              		.cfi_def_cfa_offset 8
 289              		.cfi_offset 4, -8
 290              		.cfi_offset 14, -4
 291              		.loc 1 290 0
 292 0006 0446     		mov	r4, r0
 293              		.loc 1 293 0
 294 0008 00D0     		beq	.L22
 295              	.LVL16:
 296              	.L16:
 297 000a 10BD     		pop	{r4, pc}
 298              	.LVL17:
 299              	.L22:
 300              		.loc 1 294 0
 301 000c C06A     		ldr	r0, [r0, #44]
 302              	.LVL18:
 303 000e FFF7FEFF 		bl	dmaStreamRelease
 304              	.LVL19:
 305              		.loc 1 295 0
 306 0012 A36A     		ldr	r3, [r4, #40]
 307 0014 0022     		movs	r2, #0
 308 0016 5A60     		str	r2, [r3, #4]
 309              		.loc 1 296 0
 310 0018 9A60     		str	r2, [r3, #8]
 311              		.loc 1 299 0
 312 001a 0D4B     		ldr	r3, .L25
 313 001c 9C42     		cmp	r4, r3
 314 001e 11D0     		beq	.L23
 315              		.loc 1 304 0
 316 0020 0C4B     		ldr	r3, .L25+4
 317 0022 9C42     		cmp	r4, r3
 318 0024 08D0     		beq	.L24
 319              		.loc 1 309 0
 320 0026 0C4B     		ldr	r3, .L25+8
 321 0028 9C42     		cmp	r4, r3
 322 002a EED1     		bne	.L16
 323              		.loc 1 310 0
 324 002c 0B4B     		ldr	r3, .L25+12
 325 002e 5A6C     		ldr	r2, [r3, #68]
 326 0030 22F48062 		bic	r2, r2, #1024
 327 0034 5A64     		str	r2, [r3, #68]
 328 0036 E8E7     		b	.L16
 329              	.L24:
 330              		.loc 1 305 0
 331 0038 084B     		ldr	r3, .L25+12
 332 003a 5A6C     		ldr	r2, [r3, #68]
 333 003c 22F40072 		bic	r2, r2, #512
 334 0040 5A64     		str	r2, [r3, #68]
 335 0042 10BD     		pop	{r4, pc}
 336              	.L23:
 337              		.loc 1 300 0
 338 0044 054B     		ldr	r3, .L25+12
 339 0046 5A6C     		ldr	r2, [r3, #68]
ARM GAS  C:\Users\LAB_ME~1\AppData\Local\Temp\ccfo7P8a.s 			page 7


 340 0048 22F48072 		bic	r2, r2, #256
 341 004c 5A64     		str	r2, [r3, #68]
 342 004e 10BD     		pop	{r4, pc}
 343              	.L26:
 344              		.align	2
 345              	.L25:
 346 0050 00000000 		.word	.LANCHOR0
 347 0054 00000000 		.word	.LANCHOR1
 348 0058 00000000 		.word	.LANCHOR2
 349 005c 00380240 		.word	1073887232
 350              		.cfi_endproc
 351              	.LFE122:
 352              		.size	adc_lld_stop, .-adc_lld_stop
 353              		.section	.text.adc_lld_start_conversion,"ax",%progbits
 354              		.align	2
 355              		.p2align 4,,15
 356              		.global	adc_lld_start_conversion
 357              		.thumb
 358              		.thumb_func
 359              		.type	adc_lld_start_conversion, %function
 360              	adc_lld_start_conversion:
 361              	.LFB123:
 362              		.loc 1 322 0
 363              		.cfi_startproc
 364              		@ args = 0, pretend = 0, frame = 0
 365              		@ frame_needed = 0, uses_anonymous_args = 0
 366              		@ link register save eliminated.
 367              	.LVL20:
 368              		.loc 1 324 0
 369 0000 0369     		ldr	r3, [r0, #16]
 370              	.LVL21:
 371              		.loc 1 327 0
 372 0002 026B     		ldr	r2, [r0, #48]
 373              	.LVL22:
 374              		.loc 1 328 0
 375 0004 1968     		ldr	r1, [r3, #0]
 376              		.loc 1 322 0
 377 0006 2DE9F003 		push	{r4, r5, r6, r7, r8, r9}
 378              	.LCFI3:
 379              		.cfi_def_cfa_offset 24
 380              		.cfi_offset 4, -24
 381              		.cfi_offset 5, -20
 382              		.cfi_offset 6, -16
 383              		.cfi_offset 7, -12
 384              		.cfi_offset 8, -8
 385              		.cfi_offset 9, -4
 386              		.loc 1 328 0
 387 000a 09B1     		cbz	r1, .L28
 388              		.loc 1 329 0
 389 000c 42F48072 		orr	r2, r2, #256
 390              	.LVL23:
 391              	.L28:
 392              		.loc 1 331 0
 393 0010 C468     		ldr	r4, [r0, #12]
 394              		.loc 1 336 0
 395 0012 C16A     		ldr	r1, [r0, #44]
 396              		.loc 1 337 0
ARM GAS  C:\Users\LAB_ME~1\AppData\Local\Temp\ccfo7P8a.s 			page 8


 397 0014 9E88     		ldrh	r6, [r3, #4]
 398              		.loc 1 336 0
 399 0016 0968     		ldr	r1, [r1, #0]
 400 0018 8568     		ldr	r5, [r0, #8]
 401              		.loc 1 352 0
 402 001a D3F810C0 		ldr	ip, [r3, #16]
 403              		.loc 1 336 0
 404 001e CD60     		str	r5, [r1, #12]
 405              		.loc 1 331 0
 406 0020 012C     		cmp	r4, #1
 407              		.loc 1 334 0
 408 0022 88BF     		it	hi
 409 0024 42F00802 		orrhi	r2, r2, #8
 410              	.LVL24:
 411              		.loc 1 337 0
 412 0028 04FB06F4 		mul	r4, r4, r6
 413 002c 4C60     		str	r4, [r1, #4]
 414              		.loc 1 339 0
 415 002e 0A60     		str	r2, [r1, #0]
 416              		.loc 1 340 0
 417 0030 D1F80090 		ldr	r9, [r1, #0]
 418              		.loc 1 344 0
 419 0034 D3F81880 		ldr	r8, [r3, #24]
 420              		.loc 1 345 0
 421 0038 DF69     		ldr	r7, [r3, #28]
 422              		.loc 1 346 0
 423 003a 1E6A     		ldr	r6, [r3, #32]
 424              		.loc 1 347 0
 425 003c 5D6A     		ldr	r5, [r3, #36]
 426              		.loc 1 348 0
 427 003e 9C6A     		ldr	r4, [r3, #40]
 428              		.loc 1 353 0
 429 0040 5B69     		ldr	r3, [r3, #20]
 430              	.LVL25:
 431              		.loc 1 343 0
 432 0042 826A     		ldr	r2, [r0, #40]
 433              	.LVL26:
 434              		.loc 1 340 0
 435 0044 49F00109 		orr	r9, r9, #1
 436 0048 C1F80090 		str	r9, [r1, #0]
 437              		.loc 1 352 0
 438 004c 4CF08060 		orr	r0, ip, #67108864
 439              	.LVL27:
 440              		.loc 1 343 0
 441 0050 0021     		movs	r1, #0
 442              	.LVL28:
 443              		.loc 1 353 0
 444 0052 13F0804F 		tst	r3, #1073741824
 445              		.loc 1 355 0
 446 0056 43F44073 		orr	r3, r3, #768
 447              		.loc 1 352 0
 448 005a 40F48070 		orr	r0, r0, #256
 449              		.loc 1 355 0
 450 005e 14BF     		ite	ne
 451 0060 43F00303 		orrne	r3, r3, #3
 452              		.loc 1 358 0
 453 0064 43F00103 		orreq	r3, r3, #1
ARM GAS  C:\Users\LAB_ME~1\AppData\Local\Temp\ccfo7P8a.s 			page 9


 454              		.loc 1 343 0
 455 0068 1160     		str	r1, [r2, #0]
 456              		.loc 1 344 0
 457 006a C2F80C80 		str	r8, [r2, #12]
 458              		.loc 1 345 0
 459 006e 1761     		str	r7, [r2, #16]
 460              		.loc 1 346 0
 461 0070 D662     		str	r6, [r2, #44]
 462              		.loc 1 347 0
 463 0072 1563     		str	r5, [r2, #48]
 464              		.loc 1 348 0
 465 0074 5463     		str	r4, [r2, #52]
 466              		.loc 1 352 0
 467 0076 5060     		str	r0, [r2, #4]
 468              		.loc 1 357 0
 469 0078 9360     		str	r3, [r2, #8]
 470              		.loc 1 359 0
 471 007a BDE8F003 		pop	{r4, r5, r6, r7, r8, r9}
 472 007e 7047     		bx	lr
 473              		.cfi_endproc
 474              	.LFE123:
 475              		.size	adc_lld_start_conversion, .-adc_lld_start_conversion
 476              		.section	.text.adc_lld_stop_conversion,"ax",%progbits
 477              		.align	2
 478              		.p2align 4,,15
 479              		.global	adc_lld_stop_conversion
 480              		.thumb
 481              		.thumb_func
 482              		.type	adc_lld_stop_conversion, %function
 483              	adc_lld_stop_conversion:
 484              	.LFB124:
 485              		.loc 1 368 0
 486              		.cfi_startproc
 487              		@ args = 0, pretend = 0, frame = 0
 488              		@ frame_needed = 0, uses_anonymous_args = 0
 489              		@ link register save eliminated.
 490              	.LVL29:
 491              		.loc 1 370 0
 492 0000 C16A     		ldr	r1, [r0, #44]
 493 0002 0A68     		ldr	r2, [r1, #0]
 494 0004 1368     		ldr	r3, [r2, #0]
 495 0006 23F00103 		bic	r3, r3, #1
 496              		.loc 1 368 0
 497 000a 10B4     		push	{r4}
 498              	.LCFI4:
 499              		.cfi_def_cfa_offset 4
 500              		.cfi_offset 4, -4
 501              		.loc 1 370 0
 502 000c 1360     		str	r3, [r2, #0]
 503              	.L36:
 504              		.loc 1 370 0 is_stmt 0 discriminator 1
 505 000e 1368     		ldr	r3, [r2, #0]
 506 0010 13F00103 		ands	r3, r3, #1
 507 0014 FBD1     		bne	.L36
 508              		.loc 1 370 0 discriminator 2
 509 0016 0C7A     		ldrb	r4, [r1, #8]	@ zero_extendqisi2
 510              		.loc 1 371 0 is_stmt 1 discriminator 2
ARM GAS  C:\Users\LAB_ME~1\AppData\Local\Temp\ccfo7P8a.s 			page 10


 511 0018 826A     		ldr	r2, [r0, #40]
 512              		.loc 1 370 0 discriminator 2
 513 001a 4968     		ldr	r1, [r1, #4]
 514 001c 3D20     		movs	r0, #61
 515              	.LVL30:
 516 001e 00FA04F0 		lsl	r0, r0, r4
 517 0022 0860     		str	r0, [r1, #0]
 518              		.loc 1 371 0 discriminator 2
 519 0024 5360     		str	r3, [r2, #4]
 520              		.loc 1 372 0 discriminator 2
 521 0026 9360     		str	r3, [r2, #8]
 522              		.loc 1 373 0 discriminator 2
 523 0028 0123     		movs	r3, #1
 524 002a 9360     		str	r3, [r2, #8]
 525              		.loc 1 374 0 discriminator 2
 526 002c 10BC     		pop	{r4}
 527 002e 7047     		bx	lr
 528              		.cfi_endproc
 529              	.LFE124:
 530              		.size	adc_lld_stop_conversion, .-adc_lld_stop_conversion
 531              		.section	.text.adc_lld_serve_rx_interrupt,"ax",%progbits
 532              		.align	2
 533              		.p2align 4,,15
 534              		.thumb
 535              		.thumb_func
 536              		.type	adc_lld_serve_rx_interrupt, %function
 537              	adc_lld_serve_rx_interrupt:
 538              	.LFB118:
 539              		.loc 1 80 0
 540              		.cfi_startproc
 541              		@ args = 0, pretend = 0, frame = 0
 542              		@ frame_needed = 0, uses_anonymous_args = 0
 543              	.LVL31:
 544              		.loc 1 83 0
 545 0000 11F00C0F 		tst	r1, #12
 546              		.loc 1 80 0
 547 0004 38B5     		push	{r3, r4, r5, lr}
 548              	.LCFI5:
 549              		.cfi_def_cfa_offset 16
 550              		.cfi_offset 3, -16
 551              		.cfi_offset 4, -12
 552              		.cfi_offset 5, -8
 553              		.cfi_offset 14, -4
 554              		.loc 1 80 0
 555 0006 0D46     		mov	r5, r1
 556 0008 0446     		mov	r4, r0
 557              		.loc 1 83 0
 558 000a 20D1     		bne	.L73
 559              		.loc 1 91 0
 560 000c 0369     		ldr	r3, [r0, #16]
 561 000e 002B     		cmp	r3, #0
 562 0010 3DD0     		beq	.L38
 563              		.loc 1 92 0
 564 0012 CA06     		lsls	r2, r1, #27
 565 0014 05D5     		bpl	.L46
 566              		.loc 1 94 0
 567 0016 9B68     		ldr	r3, [r3, #8]
ARM GAS  C:\Users\LAB_ME~1\AppData\Local\Temp\ccfo7P8a.s 			page 11


 568 0018 1BB1     		cbz	r3, .L46
 569              		.loc 1 94 0 is_stmt 0 discriminator 1
 570 001a C268     		ldr	r2, [r0, #12]
 571 001c 8168     		ldr	r1, [r0, #8]
 572              	.LVL32:
 573 001e 5208     		lsrs	r2, r2, #1
 574 0020 9847     		blx	r3
 575              	.LVL33:
 576              	.L46:
 577              		.loc 1 96 0 is_stmt 1
 578 0022 AB06     		lsls	r3, r5, #26
 579 0024 33D5     		bpl	.L38
 580              		.loc 1 98 0
 581 0026 2369     		ldr	r3, [r4, #16]
 582 0028 1A68     		ldr	r2, [r3, #0]
 583 002a 002A     		cmp	r2, #0
 584 002c 34D0     		beq	.L48
 585              		.loc 1 98 0 is_stmt 0 discriminator 1
 586 002e 9D68     		ldr	r5, [r3, #8]
 587              	.LVL34:
 588 0030 002D     		cmp	r5, #0
 589 0032 2CD0     		beq	.L38
 590              		.loc 1 98 0 discriminator 3
 591 0034 E268     		ldr	r2, [r4, #12]
 592 0036 012A     		cmp	r2, #1
 593 0038 2AD9     		bls	.L49
 594              	.LBB5:
 595              		.loc 1 98 0 discriminator 4
 596 003a 9988     		ldrh	r1, [r3, #4]
 597 003c A368     		ldr	r3, [r4, #8]
 598 003e 5208     		lsrs	r2, r2, #1
 599              	.LVL35:
 600 0040 01FB02F1 		mul	r1, r1, r2
 601 0044 2046     		mov	r0, r4
 602 0046 03EB4101 		add	r1, r3, r1, lsl #1
 603 004a A847     		blx	r5
 604              	.LVL36:
 605 004c 38BD     		pop	{r3, r4, r5, pc}
 606              	.LVL37:
 607              	.L73:
 608              	.LBE5:
 609              		.loc 1 86 0 is_stmt 1
 610 004e FFF7FEFF 		bl	adc_lld_stop_conversion
 611              	.LVL38:
 612 0052 2369     		ldr	r3, [r4, #16]
 613 0054 DB68     		ldr	r3, [r3, #12]
 614 0056 4BB1     		cbz	r3, .L41
 615              		.loc 1 86 0 is_stmt 0 discriminator 1
 616 0058 0522     		movs	r2, #5
 617 005a 0021     		movs	r1, #0
 618 005c 2270     		strb	r2, [r4, #0]
 619 005e 2046     		mov	r0, r4
 620 0060 9847     		blx	r3
 621              	.LVL39:
 622 0062 2378     		ldrb	r3, [r4, #0]	@ zero_extendqisi2
 623 0064 052B     		cmp	r3, #5
 624 0066 01D1     		bne	.L41
ARM GAS  C:\Users\LAB_ME~1\AppData\Local\Temp\ccfo7P8a.s 			page 12


 625              		.loc 1 86 0 discriminator 3
 626 0068 0223     		movs	r3, #2
 627 006a 2370     		strb	r3, [r4, #0]
 628              	.L41:
 629              		.loc 1 86 0 discriminator 2
 630 006c 0022     		movs	r2, #0
 631 006e 2261     		str	r2, [r4, #16]
 632              	.LBB6:
 633 0070 2023     		movs	r3, #32
 634              	.LVL40:
 635              	@ 86 "../../os/hal/platforms/STM32F4xx/adc_lld.c" 1
 636 0072 83F31188 		msr     BASEPRI, r3
 637              	@ 0 "" 2
 638              	.LVL41:
 639              		.thumb
 640              	.LBE6:
 641 0076 6369     		ldr	r3, [r4, #20]
 642              	.LVL42:
 643 0078 33B1     		cbz	r3, .L54
 644              	.LVL43:
 645              	.LBB7:
 646              		.loc 1 86 0 discriminator 4
 647 007a 6261     		str	r2, [r4, #20]
 648 007c 4FF0FF32 		mov	r2, #-1
 649 0080 1846     		mov	r0, r3
 650 0082 5A62     		str	r2, [r3, #36]
 651 0084 FFF7FEFF 		bl	chSchReadyI
 652              	.LVL44:
 653              	.L54:
 654              	.LBE7:
 655              	.LBB8:
 656              		.loc 1 98 0 is_stmt 1 discriminator 14
 657 0088 0023     		movs	r3, #0
 658              	.LVL45:
 659              	@ 98 "../../os/hal/platforms/STM32F4xx/adc_lld.c" 1
 660 008a 83F31188 		msr     BASEPRI, r3
 661              	@ 0 "" 2
 662              	.LVL46:
 663              		.thumb
 664              	.L38:
 665 008e 38BD     		pop	{r3, r4, r5, pc}
 666              	.LVL47:
 667              	.L49:
 668              	.LBE8:
 669              		.loc 1 98 0 is_stmt 0 discriminator 5
 670 0090 2046     		mov	r0, r4
 671 0092 A168     		ldr	r1, [r4, #8]
 672 0094 A847     		blx	r5
 673              	.LVL48:
 674 0096 38BD     		pop	{r3, r4, r5, pc}
 675              	.LVL49:
 676              	.L48:
 677              		.loc 1 98 0 discriminator 2
 678 0098 2046     		mov	r0, r4
 679 009a FFF7FEFF 		bl	adc_lld_stop_conversion
 680              	.LVL50:
 681 009e 2169     		ldr	r1, [r4, #16]
ARM GAS  C:\Users\LAB_ME~1\AppData\Local\Temp\ccfo7P8a.s 			page 13


 682 00a0 8B68     		ldr	r3, [r1, #8]
 683 00a2 F3B1     		cbz	r3, .L50
 684              		.loc 1 98 0 discriminator 6
 685 00a4 E268     		ldr	r2, [r4, #12]
 686 00a6 0420     		movs	r0, #4
 687 00a8 012A     		cmp	r2, #1
 688 00aa 2070     		strb	r0, [r4, #0]
 689 00ac 1CD9     		bls	.L51
 690              	.LBB9:
 691              		.loc 1 98 0 discriminator 8
 692 00ae 8D88     		ldrh	r5, [r1, #4]
 693              	.LVL51:
 694 00b0 A168     		ldr	r1, [r4, #8]
 695 00b2 5208     		lsrs	r2, r2, #1
 696              	.LVL52:
 697 00b4 05FB02F5 		mul	r5, r5, r2
 698 00b8 2046     		mov	r0, r4
 699 00ba 01EB4501 		add	r1, r1, r5, lsl #1
 700 00be 9847     		blx	r3
 701              	.LVL53:
 702              	.L52:
 703              	.LBE9:
 704              		.loc 1 98 0 discriminator 10
 705 00c0 2378     		ldrb	r3, [r4, #0]	@ zero_extendqisi2
 706 00c2 042B     		cmp	r3, #4
 707 00c4 0DD0     		beq	.L50
 708              	.L53:
 709              		.loc 1 98 0 discriminator 12
 710 00c6 0022     		movs	r2, #0
 711 00c8 2261     		str	r2, [r4, #16]
 712              	.LBB10:
 713 00ca 2023     		movs	r3, #32
 714              	.LVL54:
 715              	@ 98 "../../os/hal/platforms/STM32F4xx/adc_lld.c" 1
 716 00cc 83F31188 		msr     BASEPRI, r3
 717              	@ 0 "" 2
 718              	.LVL55:
 719              		.thumb
 720              	.LBE10:
 721 00d0 6369     		ldr	r3, [r4, #20]
 722              	.LVL56:
 723 00d2 002B     		cmp	r3, #0
 724 00d4 D8D0     		beq	.L54
 725              	.LVL57:
 726              	.LBB11:
 727              		.loc 1 98 0 discriminator 13
 728 00d6 6261     		str	r2, [r4, #20]
 729 00d8 1846     		mov	r0, r3
 730 00da 5A62     		str	r2, [r3, #36]
 731 00dc FFF7FEFF 		bl	chSchReadyI
 732              	.LVL58:
 733 00e0 D2E7     		b	.L54
 734              	.L50:
 735              	.LBE11:
 736              		.loc 1 98 0 discriminator 7
 737 00e2 0223     		movs	r3, #2
 738 00e4 2370     		strb	r3, [r4, #0]
ARM GAS  C:\Users\LAB_ME~1\AppData\Local\Temp\ccfo7P8a.s 			page 14


 739 00e6 EEE7     		b	.L53
 740              	.LVL59:
 741              	.L51:
 742              		.loc 1 98 0 discriminator 9
 743 00e8 2046     		mov	r0, r4
 744 00ea A168     		ldr	r1, [r4, #8]
 745 00ec 9847     		blx	r3
 746              	.LVL60:
 747 00ee E7E7     		b	.L52
 748              		.cfi_endproc
 749              	.LFE118:
 750              		.size	adc_lld_serve_rx_interrupt, .-adc_lld_serve_rx_interrupt
 751              		.section	.text.Vector88,"ax",%progbits
 752              		.align	2
 753              		.p2align 4,,15
 754              		.global	Vector88
 755              		.thumb
 756              		.thumb_func
 757              		.type	Vector88, %function
 758              	Vector88:
 759              	.LFB119:
 760              		.loc 1 115 0 is_stmt 1
 761              		.cfi_startproc
 762              		@ args = 0, pretend = 0, frame = 0
 763              		@ frame_needed = 0, uses_anonymous_args = 0
 764              		.loc 1 121 0
 765 0000 4B4B     		ldr	r3, .L131
 766 0002 1A68     		ldr	r2, [r3, #0]
 767              	.LVL61:
 768              		.loc 1 122 0
 769 0004 0021     		movs	r1, #0
 770              		.loc 1 115 0
 771 0006 10B5     		push	{r4, lr}
 772              	.LCFI6:
 773              		.cfi_def_cfa_offset 8
 774              		.cfi_offset 4, -8
 775              		.cfi_offset 14, -4
 776              		.loc 1 122 0
 777 0008 1960     		str	r1, [r3, #0]
 778              		.loc 1 125 0
 779 000a 9306     		lsls	r3, r2, #26
 780 000c 05D5     		bpl	.L75
 781              		.loc 1 125 0 is_stmt 0 discriminator 1
 782 000e 494C     		ldr	r4, .L131+4
 783 0010 E36A     		ldr	r3, [r4, #44]
 784 0012 1B68     		ldr	r3, [r3, #0]
 785 0014 5B68     		ldr	r3, [r3, #4]
 786 0016 002B     		cmp	r3, #0
 787 0018 5ED1     		bne	.L126
 788              	.LVL62:
 789              	.L75:
 790              		.loc 1 135 0 is_stmt 1
 791 001a 474B     		ldr	r3, .L131+8
 792              	.LVL63:
 793 001c 1A68     		ldr	r2, [r3, #0]
 794              	.LVL64:
 795              		.loc 1 136 0
ARM GAS  C:\Users\LAB_ME~1\AppData\Local\Temp\ccfo7P8a.s 			page 15


 796 001e 0021     		movs	r1, #0
 797              		.loc 1 139 0
 798 0020 9006     		lsls	r0, r2, #26
 799              		.loc 1 136 0
 800 0022 1960     		str	r1, [r3, #0]
 801              		.loc 1 139 0
 802 0024 05D5     		bpl	.L80
 803              		.loc 1 139 0 is_stmt 0 discriminator 1
 804 0026 454C     		ldr	r4, .L131+12
 805 0028 E36A     		ldr	r3, [r4, #44]
 806 002a 1B68     		ldr	r3, [r3, #0]
 807 002c 5B68     		ldr	r3, [r3, #4]
 808 002e 002B     		cmp	r3, #0
 809 0030 2FD1     		bne	.L127
 810              	.LVL65:
 811              	.L80:
 812              		.loc 1 149 0 is_stmt 1
 813 0032 434B     		ldr	r3, .L131+16
 814              	.LVL66:
 815 0034 1A68     		ldr	r2, [r3, #0]
 816              	.LVL67:
 817              		.loc 1 150 0
 818 0036 0021     		movs	r1, #0
 819 0038 1960     		str	r1, [r3, #0]
 820              		.loc 1 153 0
 821 003a 9106     		lsls	r1, r2, #26
 822 003c 25D5     		bpl	.L85
 823              		.loc 1 153 0 is_stmt 0 discriminator 1
 824 003e 414C     		ldr	r4, .L131+20
 825 0040 E36A     		ldr	r3, [r4, #44]
 826 0042 1B68     		ldr	r3, [r3, #0]
 827 0044 5B68     		ldr	r3, [r3, #4]
 828 0046 03B3     		cbz	r3, .L85
 829              		.loc 1 156 0 is_stmt 1
 830 0048 2369     		ldr	r3, [r4, #16]
 831 004a F3B1     		cbz	r3, .L85
 832              		.loc 1 157 0
 833 004c 2046     		mov	r0, r4
 834 004e FFF7FEFF 		bl	adc_lld_stop_conversion
 835              	.LVL68:
 836 0052 2369     		ldr	r3, [r4, #16]
 837 0054 DB68     		ldr	r3, [r3, #12]
 838 0056 3BB1     		cbz	r3, .L87
 839              		.loc 1 157 0 is_stmt 0 discriminator 1
 840 0058 0522     		movs	r2, #5
 841 005a 0121     		movs	r1, #1
 842 005c 2270     		strb	r2, [r4, #0]
 843 005e 2046     		mov	r0, r4
 844 0060 9847     		blx	r3
 845              	.LVL69:
 846 0062 2378     		ldrb	r3, [r4, #0]	@ zero_extendqisi2
 847 0064 052B     		cmp	r3, #5
 848 0066 5AD0     		beq	.L128
 849              	.L87:
 850              		.loc 1 157 0 discriminator 2
 851 0068 0022     		movs	r2, #0
 852 006a 2261     		str	r2, [r4, #16]
ARM GAS  C:\Users\LAB_ME~1\AppData\Local\Temp\ccfo7P8a.s 			page 16


 853              	.LBB12:
 854 006c 2023     		movs	r3, #32
 855              	.LVL70:
 856              	@ 157 "../../os/hal/platforms/STM32F4xx/adc_lld.c" 1
 857 006e 83F31188 		msr     BASEPRI, r3
 858              	@ 0 "" 2
 859              	.LVL71:
 860              		.thumb
 861              	.LBE12:
 862 0072 6069     		ldr	r0, [r4, #20]
 863 0074 30B1     		cbz	r0, .L89
 864              	.LVL72:
 865              	.LBB13:
 866              		.loc 1 157 0 discriminator 4
 867 0076 4FF0FF33 		mov	r3, #-1
 868              	.LVL73:
 869 007a 4362     		str	r3, [r0, #36]
 870 007c 314B     		ldr	r3, .L131+20
 871 007e 5A61     		str	r2, [r3, #20]
 872 0080 FFF7FEFF 		bl	chSchReadyI
 873              	.LVL74:
 874              	.L89:
 875              	.LBE13:
 876              	.LBB14:
 877              		.loc 1 157 0 discriminator 5
 878 0084 0023     		movs	r3, #0
 879              	.LVL75:
 880              	@ 157 "../../os/hal/platforms/STM32F4xx/adc_lld.c" 1
 881 0086 83F31188 		msr     BASEPRI, r3
 882              	@ 0 "" 2
 883              	.LVL76:
 884              		.thumb
 885              	.L85:
 886              	.LBE14:
 887              		.loc 1 163 0 is_stmt 1
 888 008a BDE81040 		pop	{r4, lr}
 889              		.loc 1 162 0
 890 008e FFF7FEBF 		b	_port_irq_epilogue
 891              	.LVL77:
 892              	.L127:
 893              		.loc 1 142 0
 894 0092 2369     		ldr	r3, [r4, #16]
 895 0094 002B     		cmp	r3, #0
 896 0096 CCD0     		beq	.L80
 897              		.loc 1 143 0
 898 0098 2046     		mov	r0, r4
 899 009a FFF7FEFF 		bl	adc_lld_stop_conversion
 900              	.LVL78:
 901 009e 2369     		ldr	r3, [r4, #16]
 902 00a0 DB68     		ldr	r3, [r3, #12]
 903 00a2 3BB1     		cbz	r3, .L82
 904              		.loc 1 143 0 is_stmt 0 discriminator 1
 905 00a4 0522     		movs	r2, #5
 906 00a6 0121     		movs	r1, #1
 907 00a8 2270     		strb	r2, [r4, #0]
 908 00aa 2046     		mov	r0, r4
 909 00ac 9847     		blx	r3
ARM GAS  C:\Users\LAB_ME~1\AppData\Local\Temp\ccfo7P8a.s 			page 17


 910              	.LVL79:
 911 00ae 2378     		ldrb	r3, [r4, #0]	@ zero_extendqisi2
 912 00b0 052B     		cmp	r3, #5
 913 00b2 3AD0     		beq	.L129
 914              	.L82:
 915              		.loc 1 143 0 discriminator 2
 916 00b4 0022     		movs	r2, #0
 917 00b6 2261     		str	r2, [r4, #16]
 918              	.LBB15:
 919 00b8 2023     		movs	r3, #32
 920              	.LVL80:
 921              	@ 143 "../../os/hal/platforms/STM32F4xx/adc_lld.c" 1
 922 00ba 83F31188 		msr     BASEPRI, r3
 923              	@ 0 "" 2
 924              	.LVL81:
 925              		.thumb
 926              	.LBE15:
 927 00be 6069     		ldr	r0, [r4, #20]
 928 00c0 30B1     		cbz	r0, .L84
 929              	.LVL82:
 930              	.LBB16:
 931              		.loc 1 143 0 discriminator 4
 932 00c2 4FF0FF33 		mov	r3, #-1
 933              	.LVL83:
 934 00c6 4362     		str	r3, [r0, #36]
 935 00c8 1C4B     		ldr	r3, .L131+12
 936 00ca 5A61     		str	r2, [r3, #20]
 937 00cc FFF7FEFF 		bl	chSchReadyI
 938              	.LVL84:
 939              	.L84:
 940              	.LBE16:
 941              	.LBB17:
 942              		.loc 1 143 0 discriminator 5
 943 00d0 0023     		movs	r3, #0
 944              	.LVL85:
 945              	@ 143 "../../os/hal/platforms/STM32F4xx/adc_lld.c" 1
 946 00d2 83F31188 		msr     BASEPRI, r3
 947              	@ 0 "" 2
 948              	.LVL86:
 949              		.thumb
 950 00d6 ACE7     		b	.L80
 951              	.LVL87:
 952              	.L126:
 953              	.LBE17:
 954              		.loc 1 128 0 is_stmt 1
 955 00d8 2369     		ldr	r3, [r4, #16]
 956 00da 002B     		cmp	r3, #0
 957 00dc 9DD0     		beq	.L75
 958              		.loc 1 129 0
 959 00de 2046     		mov	r0, r4
 960 00e0 FFF7FEFF 		bl	adc_lld_stop_conversion
 961              	.LVL88:
 962 00e4 2369     		ldr	r3, [r4, #16]
 963 00e6 DB68     		ldr	r3, [r3, #12]
 964 00e8 3BB1     		cbz	r3, .L77
 965              		.loc 1 129 0 is_stmt 0 discriminator 1
 966 00ea 0522     		movs	r2, #5
ARM GAS  C:\Users\LAB_ME~1\AppData\Local\Temp\ccfo7P8a.s 			page 18


 967 00ec 0121     		movs	r1, #1
 968 00ee 2270     		strb	r2, [r4, #0]
 969 00f0 2046     		mov	r0, r4
 970 00f2 9847     		blx	r3
 971              	.LVL89:
 972 00f4 2378     		ldrb	r3, [r4, #0]	@ zero_extendqisi2
 973 00f6 052B     		cmp	r3, #5
 974 00f8 14D0     		beq	.L130
 975              	.L77:
 976              		.loc 1 129 0 discriminator 2
 977 00fa 0022     		movs	r2, #0
 978 00fc 2261     		str	r2, [r4, #16]
 979              	.LBB18:
 980 00fe 2023     		movs	r3, #32
 981              	.LVL90:
 982              	@ 129 "../../os/hal/platforms/STM32F4xx/adc_lld.c" 1
 983 0100 83F31188 		msr     BASEPRI, r3
 984              	@ 0 "" 2
 985              	.LVL91:
 986              		.thumb
 987              	.LBE18:
 988 0104 6069     		ldr	r0, [r4, #20]
 989 0106 30B1     		cbz	r0, .L79
 990              	.LVL92:
 991              	.LBB19:
 992              		.loc 1 129 0 discriminator 4
 993 0108 4FF0FF33 		mov	r3, #-1
 994              	.LVL93:
 995 010c 4362     		str	r3, [r0, #36]
 996 010e 094B     		ldr	r3, .L131+4
 997 0110 5A61     		str	r2, [r3, #20]
 998 0112 FFF7FEFF 		bl	chSchReadyI
 999              	.LVL94:
 1000              	.L79:
 1001              	.LBE19:
 1002              	.LBB20:
 1003              		.loc 1 129 0 discriminator 5
 1004 0116 0023     		movs	r3, #0
 1005              	.LVL95:
 1006              	@ 129 "../../os/hal/platforms/STM32F4xx/adc_lld.c" 1
 1007 0118 83F31188 		msr     BASEPRI, r3
 1008              	@ 0 "" 2
 1009              	.LVL96:
 1010              		.thumb
 1011 011c 7DE7     		b	.L75
 1012              	.LVL97:
 1013              	.L128:
 1014              	.LBE20:
 1015              		.loc 1 157 0 is_stmt 1 discriminator 3
 1016 011e 0223     		movs	r3, #2
 1017 0120 2370     		strb	r3, [r4, #0]
 1018 0122 A1E7     		b	.L87
 1019              	.L130:
 1020              		.loc 1 129 0 discriminator 3
 1021 0124 0223     		movs	r3, #2
 1022 0126 2370     		strb	r3, [r4, #0]
 1023 0128 E7E7     		b	.L77
ARM GAS  C:\Users\LAB_ME~1\AppData\Local\Temp\ccfo7P8a.s 			page 19


 1024              	.L129:
 1025              		.loc 1 143 0 discriminator 3
 1026 012a 0223     		movs	r3, #2
 1027 012c 2370     		strb	r3, [r4, #0]
 1028 012e C1E7     		b	.L82
 1029              	.L132:
 1030              		.align	2
 1031              	.L131:
 1032 0130 00200140 		.word	1073815552
 1033 0134 00000000 		.word	.LANCHOR0
 1034 0138 00210140 		.word	1073815808
 1035 013c 00000000 		.word	.LANCHOR1
 1036 0140 00220140 		.word	1073816064
 1037 0144 00000000 		.word	.LANCHOR2
 1038              		.cfi_endproc
 1039              	.LFE119:
 1040              		.size	Vector88, .-Vector88
 1041 0148 AFF30080 		.section	.text.adcSTM32EnableTSVREFE,"ax",%progbits
 1041      AFF30080 
 1042              		.align	2
 1043              		.p2align 4,,15
 1044              		.global	adcSTM32EnableTSVREFE
 1045              		.thumb
 1046              		.thumb_func
 1047              		.type	adcSTM32EnableTSVREFE, %function
 1048              	adcSTM32EnableTSVREFE:
 1049              	.LFB125:
 1050              		.loc 1 382 0
 1051              		.cfi_startproc
 1052              		@ args = 0, pretend = 0, frame = 0
 1053              		@ frame_needed = 0, uses_anonymous_args = 0
 1054              		@ link register save eliminated.
 1055              		.loc 1 384 0
 1056 0000 024B     		ldr	r3, .L134
 1057 0002 5A68     		ldr	r2, [r3, #4]
 1058 0004 42F40002 		orr	r2, r2, #8388608
 1059 0008 5A60     		str	r2, [r3, #4]
 1060 000a 7047     		bx	lr
 1061              	.L135:
 1062              		.align	2
 1063              	.L134:
 1064 000c 00230140 		.word	1073816320
 1065              		.cfi_endproc
 1066              	.LFE125:
 1067              		.size	adcSTM32EnableTSVREFE, .-adcSTM32EnableTSVREFE
 1068              		.section	.text.adcSTM32DisableTSVREFE,"ax",%progbits
 1069              		.align	2
 1070              		.p2align 4,,15
 1071              		.global	adcSTM32DisableTSVREFE
 1072              		.thumb
 1073              		.thumb_func
 1074              		.type	adcSTM32DisableTSVREFE, %function
 1075              	adcSTM32DisableTSVREFE:
 1076              	.LFB126:
 1077              		.loc 1 393 0
 1078              		.cfi_startproc
 1079              		@ args = 0, pretend = 0, frame = 0
ARM GAS  C:\Users\LAB_ME~1\AppData\Local\Temp\ccfo7P8a.s 			page 20


 1080              		@ frame_needed = 0, uses_anonymous_args = 0
 1081              		@ link register save eliminated.
 1082              		.loc 1 395 0
 1083 0000 024B     		ldr	r3, .L137
 1084 0002 5A68     		ldr	r2, [r3, #4]
 1085 0004 22F40002 		bic	r2, r2, #8388608
 1086 0008 5A60     		str	r2, [r3, #4]
 1087 000a 7047     		bx	lr
 1088              	.L138:
 1089              		.align	2
 1090              	.L137:
 1091 000c 00230140 		.word	1073816320
 1092              		.cfi_endproc
 1093              	.LFE126:
 1094              		.size	adcSTM32DisableTSVREFE, .-adcSTM32DisableTSVREFE
 1095              		.section	.text.adcSTM32EnableVBATE,"ax",%progbits
 1096              		.align	2
 1097              		.p2align 4,,15
 1098              		.global	adcSTM32EnableVBATE
 1099              		.thumb
 1100              		.thumb_func
 1101              		.type	adcSTM32EnableVBATE, %function
 1102              	adcSTM32EnableVBATE:
 1103              	.LFB127:
 1104              		.loc 1 403 0
 1105              		.cfi_startproc
 1106              		@ args = 0, pretend = 0, frame = 0
 1107              		@ frame_needed = 0, uses_anonymous_args = 0
 1108              		@ link register save eliminated.
 1109              		.loc 1 405 0
 1110 0000 024B     		ldr	r3, .L140
 1111 0002 5A68     		ldr	r2, [r3, #4]
 1112 0004 42F48002 		orr	r2, r2, #4194304
 1113 0008 5A60     		str	r2, [r3, #4]
 1114 000a 7047     		bx	lr
 1115              	.L141:
 1116              		.align	2
 1117              	.L140:
 1118 000c 00230140 		.word	1073816320
 1119              		.cfi_endproc
 1120              	.LFE127:
 1121              		.size	adcSTM32EnableVBATE, .-adcSTM32EnableVBATE
 1122              		.section	.text.adcSTM32DisableVBATE,"ax",%progbits
 1123              		.align	2
 1124              		.p2align 4,,15
 1125              		.global	adcSTM32DisableVBATE
 1126              		.thumb
 1127              		.thumb_func
 1128              		.type	adcSTM32DisableVBATE, %function
 1129              	adcSTM32DisableVBATE:
 1130              	.LFB128:
 1131              		.loc 1 413 0
 1132              		.cfi_startproc
 1133              		@ args = 0, pretend = 0, frame = 0
 1134              		@ frame_needed = 0, uses_anonymous_args = 0
 1135              		@ link register save eliminated.
 1136              		.loc 1 415 0
ARM GAS  C:\Users\LAB_ME~1\AppData\Local\Temp\ccfo7P8a.s 			page 21


 1137 0000 024B     		ldr	r3, .L143
 1138 0002 5A68     		ldr	r2, [r3, #4]
 1139 0004 22F48002 		bic	r2, r2, #4194304
 1140 0008 5A60     		str	r2, [r3, #4]
 1141 000a 7047     		bx	lr
 1142              	.L144:
 1143              		.align	2
 1144              	.L143:
 1145 000c 00230140 		.word	1073816320
 1146              		.cfi_endproc
 1147              	.LFE128:
 1148              		.size	adcSTM32DisableVBATE, .-adcSTM32DisableVBATE
 1149              		.global	ADCD3
 1150              		.global	ADCD2
 1151              		.global	ADCD1
 1152              		.section	.bss.ADCD1,"aw",%nobits
 1153              		.align	2
 1154              		.set	.LANCHOR0,. + 0
 1155              		.type	ADCD1, %object
 1156              		.size	ADCD1, 52
 1157              	ADCD1:
 1158 0000 00000000 		.space	52
 1158      00000000 
 1158      00000000 
 1158      00000000 
 1158      00000000 
 1159              		.section	.bss.ADCD2,"aw",%nobits
 1160              		.align	2
 1161              		.set	.LANCHOR1,. + 0
 1162              		.type	ADCD2, %object
 1163              		.size	ADCD2, 52
 1164              	ADCD2:
 1165 0000 00000000 		.space	52
 1165      00000000 
 1165      00000000 
 1165      00000000 
 1165      00000000 
 1166              		.section	.bss.ADCD3,"aw",%nobits
 1167              		.align	2
 1168              		.set	.LANCHOR2,. + 0
 1169              		.type	ADCD3, %object
 1170              		.size	ADCD3, 52
 1171              	ADCD3:
 1172 0000 00000000 		.space	52
 1172      00000000 
 1172      00000000 
 1172      00000000 
 1172      00000000 
 1173              		.text
 1174              	.Letext0:
 1175              		.file 2 "c:\\program files (x86)\\codesourcery\\sourcery_codebench_lite_for_arm_eabi\\bin\\../lib/
 1176              		.file 3 "c:\\program files (x86)\\codesourcery\\sourcery_codebench_lite_for_arm_eabi\\bin\\../lib/
 1177              		.file 4 "../../os/ports/GCC/ARMCMx/chtypes.h"
 1178              		.file 5 "../../os/kernel/include/chlists.h"
 1179              		.file 6 "../../os/kernel/include/chthreads.h"
 1180              		.file 7 "../../os/ports/GCC/ARMCMx/chcore_v7m.h"
 1181              		.file 8 "../../os/kernel/include/chmtx.h"
ARM GAS  C:\Users\LAB_ME~1\AppData\Local\Temp\ccfo7P8a.s 			page 22


 1182              		.file 9 "../../os/hal/platforms/STM32F4xx/stm32f4xx.h"
 1183              		.file 10 "../../os/hal/platforms/STM32F4xx/stm32_dma.h"
 1184              		.file 11 "../../os/hal/include/adc.h"
 1185              		.file 12 "../../os/hal/platforms/STM32F4xx/adc_lld.h"
 1186              		.file 13 "../../os/ports/common/ARMCMx/CMSIS/include/core_cm4.h"
 1187              		.file 14 "../../os/ports/common/ARMCMx/nvic.h"
 1188              		.file 15 "../../os/kernel/include/chschd.h"