ARM GAS  C:\Users\LAB_ME~1\AppData\Local\Temp\ccxQGkYa.s 			page 1


   1              		.syntax unified
   2              		.cpu cortex-m4
   3              		.fpu softvfp
   4              		.eabi_attribute 20, 1
   5              		.eabi_attribute 21, 1
   6              		.eabi_attribute 23, 3
   7              		.eabi_attribute 24, 1
   8              		.eabi_attribute 25, 1
   9              		.eabi_attribute 26, 1
  10              		.eabi_attribute 30, 2
  11              		.eabi_attribute 34, 1
  12              		.eabi_attribute 18, 4
  13              		.thumb
  14              		.file	"chevents.c"
  15              		.text
  16              	.Ltext0:
  17              		.cfi_sections	.debug_frame
  18              		.section	.text.chEvtRegisterMask,"ax",%progbits
  19              		.align	2
  20              		.p2align 4,,15
  21              		.global	chEvtRegisterMask
  22              		.thumb
  23              		.thumb_func
  24              		.type	chEvtRegisterMask, %function
  25              	chEvtRegisterMask:
  26              	.LFB7:
  27              		.file 1 "../../os/kernel/src/chevents.c"
  28              		.loc 1 78 0
  29              		.cfi_startproc
  30              		@ args = 0, pretend = 0, frame = 0
  31              		@ frame_needed = 0, uses_anonymous_args = 0
  32              		@ link register save eliminated.
  33              	.LVL0:
  34 0000 30B4     		push	{r4, r5}
  35              	.LCFI0:
  36              		.cfi_def_cfa_offset 8
  37              		.cfi_offset 4, -8
  38              		.cfi_offset 5, -4
  39              	.LBB2:
  40              		.loc 1 82 0
  41 0002 2023     		movs	r3, #32
  42              	.LVL1:
  43              	@ 82 "../../os/kernel/src/chevents.c" 1
  44 0004 83F31188 		msr     BASEPRI, r3
  45              	@ 0 "" 2
  46              	.LVL2:
  47              		.thumb
  48              	.LBE2:
  49              		.loc 1 85 0
  50 0008 064C     		ldr	r4, .L2
  51              		.loc 1 83 0
  52 000a 0368     		ldr	r3, [r0, #0]
  53              	.LVL3:
  54              		.loc 1 85 0
  55 000c A569     		ldr	r5, [r4, #24]
  56              		.loc 1 83 0
  57 000e 0B60     		str	r3, [r1, #0]
ARM GAS  C:\Users\LAB_ME~1\AppData\Local\Temp\ccxQGkYa.s 			page 2


  58              		.loc 1 87 0
  59 0010 0024     		movs	r4, #0
  60              		.loc 1 84 0
  61 0012 0160     		str	r1, [r0, #0]
  62              	.LBB3:
  63              		.loc 1 88 0
  64 0014 2346     		mov	r3, r4
  65              	.LVL4:
  66              	.LBE3:
  67              		.loc 1 85 0
  68 0016 4D60     		str	r5, [r1, #4]
  69              		.loc 1 86 0
  70 0018 8A60     		str	r2, [r1, #8]
  71              		.loc 1 87 0
  72 001a CC60     		str	r4, [r1, #12]
  73              	.LBB4:
  74              		.loc 1 88 0
  75              	@ 88 "../../os/kernel/src/chevents.c" 1
  76 001c 83F31188 		msr     BASEPRI, r3
  77              	@ 0 "" 2
  78              	.LVL5:
  79              		.thumb
  80              	.LBE4:
  81              		.loc 1 89 0
  82 0020 30BC     		pop	{r4, r5}
  83 0022 7047     		bx	lr
  84              	.L3:
  85              		.align	2
  86              	.L2:
  87 0024 00000000 		.word	rlist
  88              		.cfi_endproc
  89              	.LFE7:
  90              		.size	chEvtRegisterMask, .-chEvtRegisterMask
  91 0028 AFF30080 		.section	.text.chEvtUnregister,"ax",%progbits
  91      AFF30080 
  92              		.align	2
  93              		.p2align 4,,15
  94              		.global	chEvtUnregister
  95              		.thumb
  96              		.thumb_func
  97              		.type	chEvtUnregister, %function
  98              	chEvtUnregister:
  99              	.LFB8:
 100              		.loc 1 104 0
 101              		.cfi_startproc
 102              		@ args = 0, pretend = 0, frame = 0
 103              		@ frame_needed = 0, uses_anonymous_args = 0
 104              		@ link register save eliminated.
 105              	.LVL6:
 106              	.LBB5:
 107              		.loc 1 110 0
 108 0000 2023     		movs	r3, #32
 109              	.LVL7:
 110              	@ 110 "../../os/kernel/src/chevents.c" 1
 111 0002 83F31188 		msr     BASEPRI, r3
 112              	@ 0 "" 2
 113              	.LVL8:
ARM GAS  C:\Users\LAB_ME~1\AppData\Local\Temp\ccxQGkYa.s 			page 3


 114              		.thumb
 115              	.LBE5:
 116              		.loc 1 109 0
 117 0006 0246     		mov	r2, r0
 118              		.loc 1 111 0
 119 0008 00E0     		b	.L5
 120              	.LVL9:
 121              	.L8:
 122              		.loc 1 112 0
 123 000a 1A46     		mov	r2, r3
 124              	.LVL10:
 125              	.L5:
 126              		.loc 1 111 0 discriminator 1
 127 000c 1368     		ldr	r3, [r2, #0]
 128              	.LVL11:
 129 000e 8342     		cmp	r3, r0
 130 0010 03D0     		beq	.L6
 131              		.loc 1 112 0
 132 0012 9942     		cmp	r1, r3
 133 0014 F9D1     		bne	.L8
 134              		.loc 1 113 0
 135 0016 0B68     		ldr	r3, [r1, #0]
 136 0018 1360     		str	r3, [r2, #0]
 137              	.L6:
 138              	.LBB6:
 139              		.loc 1 118 0
 140 001a 0023     		movs	r3, #0
 141              	.LVL12:
 142              	@ 118 "../../os/kernel/src/chevents.c" 1
 143 001c 83F31188 		msr     BASEPRI, r3
 144              	@ 0 "" 2
 145              	.LVL13:
 146              		.thumb
 147 0020 7047     		bx	lr
 148              	.LBE6:
 149              		.cfi_endproc
 150              	.LFE8:
 151              		.size	chEvtUnregister, .-chEvtUnregister
 152 0022 00BFAFF3 		.section	.text.chEvtGetAndClearEvents,"ax",%progbits
 152      0080AFF3 
 152      0080AFF3 
 152      0080
 153              		.align	2
 154              		.p2align 4,,15
 155              		.global	chEvtGetAndClearEvents
 156              		.thumb
 157              		.thumb_func
 158              		.type	chEvtGetAndClearEvents, %function
 159              	chEvtGetAndClearEvents:
 160              	.LFB9:
 161              		.loc 1 129 0
 162              		.cfi_startproc
 163              		@ args = 0, pretend = 0, frame = 0
 164              		@ frame_needed = 0, uses_anonymous_args = 0
 165              		@ link register save eliminated.
 166              	.LVL14:
 167              	.LBB7:
ARM GAS  C:\Users\LAB_ME~1\AppData\Local\Temp\ccxQGkYa.s 			page 4


 168              		.loc 1 132 0
 169 0000 2023     		movs	r3, #32
 170              	.LVL15:
 171              	@ 132 "../../os/kernel/src/chevents.c" 1
 172 0002 83F31188 		msr     BASEPRI, r3
 173              	@ 0 "" 2
 174              	.LVL16:
 175              		.thumb
 176              	.LBE7:
 177              		.loc 1 134 0
 178 0006 054B     		ldr	r3, .L11
 179              	.LVL17:
 180 0008 9B69     		ldr	r3, [r3, #24]
 181 000a 9A6B     		ldr	r2, [r3, #56]
 182              	.LVL18:
 183              		.loc 1 135 0
 184 000c 22EA0001 		bic	r1, r2, r0
 185 0010 9963     		str	r1, [r3, #56]
 186              	.LBB8:
 187              		.loc 1 137 0
 188 0012 0023     		movs	r3, #0
 189              	.LVL19:
 190              	@ 137 "../../os/kernel/src/chevents.c" 1
 191 0014 83F31188 		msr     BASEPRI, r3
 192              	@ 0 "" 2
 193              	.LVL20:
 194              		.thumb
 195              	.LBE8:
 196              		.loc 1 139 0
 197 0018 1040     		ands	r0, r0, r2
 198              	.LVL21:
 199 001a 7047     		bx	lr
 200              	.L12:
 201              		.align	2
 202              	.L11:
 203 001c 00000000 		.word	rlist
 204              		.cfi_endproc
 205              	.LFE9:
 206              		.size	chEvtGetAndClearEvents, .-chEvtGetAndClearEvents
 207              		.section	.text.chEvtAddEvents,"ax",%progbits
 208              		.align	2
 209              		.p2align 4,,15
 210              		.global	chEvtAddEvents
 211              		.thumb
 212              		.thumb_func
 213              		.type	chEvtAddEvents, %function
 214              	chEvtAddEvents:
 215              	.LFB10:
 216              		.loc 1 150 0
 217              		.cfi_startproc
 218              		@ args = 0, pretend = 0, frame = 0
 219              		@ frame_needed = 0, uses_anonymous_args = 0
 220              		@ link register save eliminated.
 221              	.LVL22:
 222              	.LBB9:
 223              		.loc 1 152 0
 224 0000 2023     		movs	r3, #32
ARM GAS  C:\Users\LAB_ME~1\AppData\Local\Temp\ccxQGkYa.s 			page 5


 225              	.LVL23:
 226              	@ 152 "../../os/kernel/src/chevents.c" 1
 227 0002 83F31188 		msr     BASEPRI, r3
 228              	@ 0 "" 2
 229              	.LVL24:
 230              		.thumb
 231              	.LBE9:
 232              		.loc 1 154 0
 233 0006 044B     		ldr	r3, .L14
 234              	.LVL25:
 235 0008 9B69     		ldr	r3, [r3, #24]
 236 000a 9A6B     		ldr	r2, [r3, #56]
 237 000c 1043     		orrs	r0, r0, r2
 238              	.LVL26:
 239 000e 9863     		str	r0, [r3, #56]
 240              	.LVL27:
 241              	.LBB10:
 242              		.loc 1 156 0
 243 0010 0023     		movs	r3, #0
 244              	.LVL28:
 245              	@ 156 "../../os/kernel/src/chevents.c" 1
 246 0012 83F31188 		msr     BASEPRI, r3
 247              	@ 0 "" 2
 248              	.LVL29:
 249              		.thumb
 250              	.LBE10:
 251              		.loc 1 158 0
 252 0016 7047     		bx	lr
 253              	.L15:
 254              		.align	2
 255              	.L14:
 256 0018 00000000 		.word	rlist
 257              		.cfi_endproc
 258              	.LFE10:
 259              		.size	chEvtAddEvents, .-chEvtAddEvents
 260 001c AFF30080 		.section	.text.chEvtGetAndClearFlags,"ax",%progbits
 261              		.align	2
 262              		.p2align 4,,15
 263              		.global	chEvtGetAndClearFlags
 264              		.thumb
 265              		.thumb_func
 266              		.type	chEvtGetAndClearFlags, %function
 267              	chEvtGetAndClearFlags:
 268              	.LFB12:
 269              		.loc 1 202 0
 270              		.cfi_startproc
 271              		@ args = 0, pretend = 0, frame = 0
 272              		@ frame_needed = 0, uses_anonymous_args = 0
 273              		@ link register save eliminated.
 274              	.LVL30:
 275              		.loc 1 202 0
 276 0000 0246     		mov	r2, r0
 277              	.LBB11:
 278              		.loc 1 205 0
 279 0002 2023     		movs	r3, #32
 280              	.LVL31:
 281              	@ 205 "../../os/kernel/src/chevents.c" 1
ARM GAS  C:\Users\LAB_ME~1\AppData\Local\Temp\ccxQGkYa.s 			page 6


 282 0004 83F31188 		msr     BASEPRI, r3
 283              	@ 0 "" 2
 284              	.LVL32:
 285              		.thumb
 286              	.LBE11:
 287              		.loc 1 208 0
 288 0008 0023     		movs	r3, #0
 289              	.LVL33:
 290              		.loc 1 207 0
 291 000a C068     		ldr	r0, [r0, #12]
 292              	.LVL34:
 293              		.loc 1 208 0
 294 000c D360     		str	r3, [r2, #12]
 295              	.LBB12:
 296              		.loc 1 210 0
 297              	@ 210 "../../os/kernel/src/chevents.c" 1
 298 000e 83F31188 		msr     BASEPRI, r3
 299              	@ 0 "" 2
 300              	.LVL35:
 301              		.thumb
 302              	.LBE12:
 303              		.loc 1 212 0
 304 0012 7047     		bx	lr
 305              		.cfi_endproc
 306              	.LFE12:
 307              		.size	chEvtGetAndClearFlags, .-chEvtGetAndClearFlags
 308 0014 AFF30080 		.section	.text.chEvtSignalI,"ax",%progbits
 308      AFF30080 
 308      AFF30080 
 309              		.align	2
 310              		.p2align 4,,15
 311              		.global	chEvtSignalI
 312              		.thumb
 313              		.thumb_func
 314              		.type	chEvtSignalI, %function
 315              	chEvtSignalI:
 316              	.LFB14:
 317              		.loc 1 244 0
 318              		.cfi_startproc
 319              		@ args = 0, pretend = 0, frame = 0
 320              		@ frame_needed = 0, uses_anonymous_args = 0
 321              	.LVL36:
 322 0000 08B5     		push	{r3, lr}
 323              	.LCFI1:
 324              		.cfi_def_cfa_offset 8
 325              		.cfi_offset 3, -8
 326              		.cfi_offset 14, -4
 327              		.loc 1 249 0
 328 0002 826B     		ldr	r2, [r0, #56]
 329              		.loc 1 251 0
 330 0004 037F     		ldrb	r3, [r0, #28]	@ zero_extendqisi2
 331              		.loc 1 249 0
 332 0006 1143     		orrs	r1, r1, r2
 333              	.LVL37:
 334              		.loc 1 251 0
 335 0008 082B     		cmp	r3, #8
 336              		.loc 1 249 0
ARM GAS  C:\Users\LAB_ME~1\AppData\Local\Temp\ccxQGkYa.s 			page 7


 337 000a 8163     		str	r1, [r0, #56]
 338              		.loc 1 251 0
 339 000c 0BD0     		beq	.L21
 340              		.loc 1 252 0
 341 000e 092B     		cmp	r3, #9
 342 0010 00D0     		beq	.L22
 343              	.L17:
 344 0012 08BD     		pop	{r3, pc}
 345              	.L22:
 346              		.loc 1 254 0
 347 0014 436A     		ldr	r3, [r0, #36]
 348 0016 1940     		ands	r1, r1, r3
 349              		.loc 1 253 0
 350 0018 8B42     		cmp	r3, r1
 351 001a FAD1     		bne	.L17
 352              	.L19:
 353              	.LVL38:
 354              	.LBB15:
 355              	.LBB16:
 356              		.loc 1 255 0
 357 001c FFF7FEFF 		bl	chSchReadyI
 358              	.LVL39:
 359 0020 0023     		movs	r3, #0
 360 0022 4362     		str	r3, [r0, #36]
 361 0024 08BD     		pop	{r3, pc}
 362              	.LVL40:
 363              	.L21:
 364              	.LBE16:
 365              	.LBE15:
 366              		.loc 1 252 0 discriminator 1
 367 0026 436A     		ldr	r3, [r0, #36]
 368              		.loc 1 251 0 discriminator 1
 369 0028 1942     		tst	r1, r3
 370 002a F7D1     		bne	.L19
 371 002c 08BD     		pop	{r3, pc}
 372              		.cfi_endproc
 373              	.LFE14:
 374              		.size	chEvtSignalI, .-chEvtSignalI
 375 002e 00BF     		.section	.text.chEvtSignal,"ax",%progbits
 376              		.align	2
 377              		.p2align 4,,15
 378              		.global	chEvtSignal
 379              		.thumb
 380              		.thumb_func
 381              		.type	chEvtSignal, %function
 382              	chEvtSignal:
 383              	.LFB13:
 384              		.loc 1 222 0
 385              		.cfi_startproc
 386              		@ args = 0, pretend = 0, frame = 0
 387              		@ frame_needed = 0, uses_anonymous_args = 0
 388              	.LVL41:
 389 0000 08B5     		push	{r3, lr}
 390              	.LCFI2:
 391              		.cfi_def_cfa_offset 8
 392              		.cfi_offset 3, -8
 393              		.cfi_offset 14, -4
ARM GAS  C:\Users\LAB_ME~1\AppData\Local\Temp\ccxQGkYa.s 			page 8


 394              	.LBB17:
 395              		.loc 1 226 0
 396 0002 2023     		movs	r3, #32
 397              	.LVL42:
 398              	@ 226 "../../os/kernel/src/chevents.c" 1
 399 0004 83F31188 		msr     BASEPRI, r3
 400              	@ 0 "" 2
 401              	.LVL43:
 402              		.thumb
 403              	.LBE17:
 404              		.loc 1 227 0
 405 0008 FFF7FEFF 		bl	chEvtSignalI
 406              	.LVL44:
 407              		.loc 1 228 0
 408 000c FFF7FEFF 		bl	chSchRescheduleS
 409              	.LVL45:
 410              	.LBB18:
 411              		.loc 1 229 0
 412 0010 0023     		movs	r3, #0
 413              	.LVL46:
 414              	@ 229 "../../os/kernel/src/chevents.c" 1
 415 0012 83F31188 		msr     BASEPRI, r3
 416              	@ 0 "" 2
 417              	.LVL47:
 418              		.thumb
 419 0016 08BD     		pop	{r3, pc}
 420              	.LBE18:
 421              		.cfi_endproc
 422              	.LFE13:
 423              		.size	chEvtSignal, .-chEvtSignal
 424 0018 AFF30080 		.section	.text.chEvtBroadcastFlagsI,"ax",%progbits
 424      AFF30080 
 425              		.align	2
 426              		.p2align 4,,15
 427              		.global	chEvtBroadcastFlagsI
 428              		.thumb
 429              		.thumb_func
 430              		.type	chEvtBroadcastFlagsI, %function
 431              	chEvtBroadcastFlagsI:
 432              	.LFB11:
 433              		.loc 1 177 0
 434              		.cfi_startproc
 435              		@ args = 0, pretend = 0, frame = 0
 436              		@ frame_needed = 0, uses_anonymous_args = 0
 437              	.LVL48:
 438 0000 70B5     		push	{r4, r5, r6, lr}
 439              	.LCFI3:
 440              		.cfi_def_cfa_offset 16
 441              		.cfi_offset 4, -16
 442              		.cfi_offset 5, -12
 443              		.cfi_offset 6, -8
 444              		.cfi_offset 14, -4
 445              		.loc 1 183 0
 446 0002 0468     		ldr	r4, [r0, #0]
 447              	.LVL49:
 448              		.loc 1 184 0
 449 0004 A042     		cmp	r0, r4
ARM GAS  C:\Users\LAB_ME~1\AppData\Local\Temp\ccxQGkYa.s 			page 9


 450              		.loc 1 177 0
 451 0006 0546     		mov	r5, r0
 452 0008 0E46     		mov	r6, r1
 453              		.loc 1 184 0
 454 000a 08D0     		beq	.L24
 455              	.LVL50:
 456              	.L28:
 457              		.loc 1 186 0
 458 000c 201D     		adds	r0, r4, #4
 459 000e 0BC8     		ldmia	r0, {r0, r1, r3}
 460              		.loc 1 185 0
 461 0010 3343     		orrs	r3, r3, r6
 462 0012 E360     		str	r3, [r4, #12]
 463              		.loc 1 186 0
 464 0014 FFF7FEFF 		bl	chEvtSignalI
 465              	.LVL51:
 466              		.loc 1 187 0
 467 0018 2468     		ldr	r4, [r4, #0]
 468              	.LVL52:
 469              		.loc 1 184 0
 470 001a A542     		cmp	r5, r4
 471 001c F6D1     		bne	.L28
 472              	.L24:
 473 001e 70BD     		pop	{r4, r5, r6, pc}
 474              		.cfi_endproc
 475              	.LFE11:
 476              		.size	chEvtBroadcastFlagsI, .-chEvtBroadcastFlagsI
 477              		.section	.text.chEvtBroadcastFlags,"ax",%progbits
 478              		.align	2
 479              		.p2align 4,,15
 480              		.global	chEvtBroadcastFlags
 481              		.thumb
 482              		.thumb_func
 483              		.type	chEvtBroadcastFlags, %function
 484              	chEvtBroadcastFlags:
 485              	.LFB15:
 486              		.loc 1 271 0
 487              		.cfi_startproc
 488              		@ args = 0, pretend = 0, frame = 0
 489              		@ frame_needed = 0, uses_anonymous_args = 0
 490              	.LVL53:
 491 0000 08B5     		push	{r3, lr}
 492              	.LCFI4:
 493              		.cfi_def_cfa_offset 8
 494              		.cfi_offset 3, -8
 495              		.cfi_offset 14, -4
 496              	.LBB19:
 497              		.loc 1 273 0
 498 0002 2023     		movs	r3, #32
 499              	.LVL54:
 500              	@ 273 "../../os/kernel/src/chevents.c" 1
 501 0004 83F31188 		msr     BASEPRI, r3
 502              	@ 0 "" 2
 503              	.LVL55:
 504              		.thumb
 505              	.LBE19:
 506              		.loc 1 274 0
ARM GAS  C:\Users\LAB_ME~1\AppData\Local\Temp\ccxQGkYa.s 			page 10


 507 0008 FFF7FEFF 		bl	chEvtBroadcastFlagsI
 508              	.LVL56:
 509              		.loc 1 275 0
 510 000c FFF7FEFF 		bl	chSchRescheduleS
 511              	.LVL57:
 512              	.LBB20:
 513              		.loc 1 276 0
 514 0010 0023     		movs	r3, #0
 515              	.LVL58:
 516              	@ 276 "../../os/kernel/src/chevents.c" 1
 517 0012 83F31188 		msr     BASEPRI, r3
 518              	@ 0 "" 2
 519              	.LVL59:
 520              		.thumb
 521 0016 08BD     		pop	{r3, pc}
 522              	.LBE20:
 523              		.cfi_endproc
 524              	.LFE15:
 525              		.size	chEvtBroadcastFlags, .-chEvtBroadcastFlags
 526 0018 AFF30080 		.section	.text.chEvtGetAndClearFlagsI,"ax",%progbits
 526      AFF30080 
 527              		.align	2
 528              		.p2align 4,,15
 529              		.global	chEvtGetAndClearFlagsI
 530              		.thumb
 531              		.thumb_func
 532              		.type	chEvtGetAndClearFlagsI, %function
 533              	chEvtGetAndClearFlagsI:
 534              	.LFB16:
 535              		.loc 1 290 0
 536              		.cfi_startproc
 537              		@ args = 0, pretend = 0, frame = 0
 538              		@ frame_needed = 0, uses_anonymous_args = 0
 539              		@ link register save eliminated.
 540              	.LVL60:
 541              		.loc 1 290 0
 542 0000 0346     		mov	r3, r0
 543              		.loc 1 294 0
 544 0002 0022     		movs	r2, #0
 545              		.loc 1 293 0
 546 0004 C068     		ldr	r0, [r0, #12]
 547              	.LVL61:
 548              		.loc 1 294 0
 549 0006 DA60     		str	r2, [r3, #12]
 550              		.loc 1 297 0
 551 0008 7047     		bx	lr
 552              		.cfi_endproc
 553              	.LFE16:
 554              		.size	chEvtGetAndClearFlagsI, .-chEvtGetAndClearFlagsI
 555 000a 00BFAFF3 		.section	.text.chEvtDispatch,"ax",%progbits
 555      0080
 556              		.align	2
 557              		.p2align 4,,15
 558              		.global	chEvtDispatch
 559              		.thumb
 560              		.thumb_func
 561              		.type	chEvtDispatch, %function
ARM GAS  C:\Users\LAB_ME~1\AppData\Local\Temp\ccxQGkYa.s 			page 11


 562              	chEvtDispatch:
 563              	.LFB17:
 564              		.loc 1 308 0
 565              		.cfi_startproc
 566              		@ args = 0, pretend = 0, frame = 0
 567              		@ frame_needed = 0, uses_anonymous_args = 0
 568              	.LVL62:
 569 0000 F8B5     		push	{r3, r4, r5, r6, r7, lr}
 570              	.LCFI5:
 571              		.cfi_def_cfa_offset 24
 572              		.cfi_offset 3, -24
 573              		.cfi_offset 4, -20
 574              		.cfi_offset 5, -16
 575              		.cfi_offset 6, -12
 576              		.cfi_offset 7, -8
 577              		.cfi_offset 14, -4
 578              		.loc 1 314 0
 579 0002 0D46     		mov	r5, r1
 580              		.loc 1 308 0
 581 0004 0746     		mov	r7, r0
 582              		.loc 1 314 0
 583 0006 89B1     		cbz	r1, .L32
 584 0008 0024     		movs	r4, #0
 585              		.loc 1 315 0
 586 000a 0126     		movs	r6, #1
 587 000c 01E0     		b	.L33
 588              	.LVL63:
 589              	.L34:
 590              		.loc 1 322 0
 591 000e 0134     		adds	r4, r4, #1
 592              	.LVL64:
 593              		.loc 1 314 0
 594 0010 65B1     		cbz	r5, .L32
 595              	.LVL65:
 596              	.L33:
 597              		.loc 1 315 0
 598 0012 06FA04F3 		lsl	r3, r6, r4
 599 0016 2B42     		tst	r3, r5
 600 0018 F9D0     		beq	.L34
 601              		.loc 1 320 0
 602 001a 57F82420 		ldr	r2, [r7, r4, lsl #2]
 603 001e 2046     		mov	r0, r4
 604              		.loc 1 319 0
 605 0020 25EA0305 		bic	r5, r5, r3
 606              	.LVL66:
 607              		.loc 1 322 0
 608 0024 0134     		adds	r4, r4, #1
 609              		.loc 1 320 0
 610 0026 9047     		blx	r2
 611              	.LVL67:
 612              		.loc 1 314 0
 613 0028 002D     		cmp	r5, #0
 614 002a F2D1     		bne	.L33
 615              	.LVL68:
 616              	.L32:
 617 002c F8BD     		pop	{r3, r4, r5, r6, r7, pc}
 618              		.cfi_endproc
ARM GAS  C:\Users\LAB_ME~1\AppData\Local\Temp\ccxQGkYa.s 			page 12


 619              	.LFE17:
 620              		.size	chEvtDispatch, .-chEvtDispatch
 621 002e 00BF     		.section	.text.chEvtWaitOne,"ax",%progbits
 622              		.align	2
 623              		.p2align 4,,15
 624              		.global	chEvtWaitOne
 625              		.thumb
 626              		.thumb_func
 627              		.type	chEvtWaitOne, %function
 628              	chEvtWaitOne:
 629              	.LFB18:
 630              		.loc 1 343 0
 631              		.cfi_startproc
 632              		@ args = 0, pretend = 0, frame = 0
 633              		@ frame_needed = 0, uses_anonymous_args = 0
 634              	.LVL69:
 635 0000 38B5     		push	{r3, r4, r5, lr}
 636              	.LCFI6:
 637              		.cfi_def_cfa_offset 16
 638              		.cfi_offset 3, -16
 639              		.cfi_offset 4, -12
 640              		.cfi_offset 5, -8
 641              		.cfi_offset 14, -4
 642              		.loc 1 344 0
 643 0002 0D4B     		ldr	r3, .L43
 644              		.loc 1 343 0
 645 0004 0546     		mov	r5, r0
 646              		.loc 1 344 0
 647 0006 9C69     		ldr	r4, [r3, #24]
 648              	.LVL70:
 649              	.LBB21:
 650              		.loc 1 347 0
 651 0008 2023     		movs	r3, #32
 652              	.LVL71:
 653              	@ 347 "../../os/kernel/src/chevents.c" 1
 654 000a 83F31188 		msr     BASEPRI, r3
 655              	@ 0 "" 2
 656              	.LVL72:
 657              		.thumb
 658              	.LBE21:
 659              		.loc 1 349 0
 660 000e A36B     		ldr	r3, [r4, #56]
 661              	.LVL73:
 662 0010 10EA0302 		ands	r2, r0, r3
 663              	.LVL74:
 664 0014 06D1     		bne	.L42
 665              		.loc 1 350 0
 666 0016 6062     		str	r0, [r4, #36]
 667              		.loc 1 351 0
 668 0018 0820     		movs	r0, #8
 669              	.LVL75:
 670 001a FFF7FEFF 		bl	chSchGoSleepS
 671              	.LVL76:
 672              		.loc 1 352 0
 673 001e A36B     		ldr	r3, [r4, #56]
 674 0020 05EA0302 		and	r2, r5, r3
 675              	.LVL77:
ARM GAS  C:\Users\LAB_ME~1\AppData\Local\Temp\ccxQGkYa.s 			page 13


 676              	.L42:
 677              		.loc 1 354 0
 678 0024 5042     		negs	r0, r2
 679 0026 1040     		ands	r0, r0, r2
 680              	.LVL78:
 681              		.loc 1 355 0
 682 0028 23EA0003 		bic	r3, r3, r0
 683 002c A363     		str	r3, [r4, #56]
 684              	.LBB22:
 685              		.loc 1 357 0
 686 002e 0023     		movs	r3, #0
 687              	.LVL79:
 688              	@ 357 "../../os/kernel/src/chevents.c" 1
 689 0030 83F31188 		msr     BASEPRI, r3
 690              	@ 0 "" 2
 691              	.LVL80:
 692              		.thumb
 693              	.LBE22:
 694              		.loc 1 359 0
 695 0034 38BD     		pop	{r3, r4, r5, pc}
 696              	.L44:
 697 0036 00BF     		.align	2
 698              	.L43:
 699 0038 00000000 		.word	rlist
 700              		.cfi_endproc
 701              	.LFE18:
 702              		.size	chEvtWaitOne, .-chEvtWaitOne
 703 003c AFF30080 		.section	.text.chEvtWaitAny,"ax",%progbits
 704              		.align	2
 705              		.p2align 4,,15
 706              		.global	chEvtWaitAny
 707              		.thumb
 708              		.thumb_func
 709              		.type	chEvtWaitAny, %function
 710              	chEvtWaitAny:
 711              	.LFB19:
 712              		.loc 1 372 0
 713              		.cfi_startproc
 714              		@ args = 0, pretend = 0, frame = 0
 715              		@ frame_needed = 0, uses_anonymous_args = 0
 716              	.LVL81:
 717 0000 38B5     		push	{r3, r4, r5, lr}
 718              	.LCFI7:
 719              		.cfi_def_cfa_offset 16
 720              		.cfi_offset 3, -16
 721              		.cfi_offset 4, -12
 722              		.cfi_offset 5, -8
 723              		.cfi_offset 14, -4
 724              		.loc 1 373 0
 725 0002 0B4B     		ldr	r3, .L47
 726              		.loc 1 372 0
 727 0004 0546     		mov	r5, r0
 728              		.loc 1 373 0
 729 0006 9C69     		ldr	r4, [r3, #24]
 730              	.LVL82:
 731              	.LBB23:
 732              		.loc 1 376 0
ARM GAS  C:\Users\LAB_ME~1\AppData\Local\Temp\ccxQGkYa.s 			page 14


 733 0008 2023     		movs	r3, #32
 734              	.LVL83:
 735              	@ 376 "../../os/kernel/src/chevents.c" 1
 736 000a 83F31188 		msr     BASEPRI, r3
 737              	@ 0 "" 2
 738              	.LVL84:
 739              		.thumb
 740              	.LBE23:
 741              		.loc 1 378 0
 742 000e A36B     		ldr	r3, [r4, #56]
 743              	.LVL85:
 744 0010 1840     		ands	r0, r0, r3
 745              	.LVL86:
 746 0012 06D1     		bne	.L46
 747              		.loc 1 380 0
 748 0014 0820     		movs	r0, #8
 749              	.LVL87:
 750              		.loc 1 379 0
 751 0016 6562     		str	r5, [r4, #36]
 752              		.loc 1 380 0
 753 0018 FFF7FEFF 		bl	chSchGoSleepS
 754              	.LVL88:
 755              		.loc 1 381 0
 756 001c A36B     		ldr	r3, [r4, #56]
 757 001e 05EA0300 		and	r0, r5, r3
 758              	.LVL89:
 759              	.L46:
 760              		.loc 1 383 0
 761 0022 23EA0003 		bic	r3, r3, r0
 762 0026 A363     		str	r3, [r4, #56]
 763              	.LBB24:
 764              		.loc 1 385 0
 765 0028 0023     		movs	r3, #0
 766              	.LVL90:
 767              	@ 385 "../../os/kernel/src/chevents.c" 1
 768 002a 83F31188 		msr     BASEPRI, r3
 769              	@ 0 "" 2
 770              	.LVL91:
 771              		.thumb
 772              	.LBE24:
 773              		.loc 1 387 0
 774 002e 38BD     		pop	{r3, r4, r5, pc}
 775              	.L48:
 776              		.align	2
 777              	.L47:
 778 0030 00000000 		.word	rlist
 779              		.cfi_endproc
 780              	.LFE19:
 781              		.size	chEvtWaitAny, .-chEvtWaitAny
 782 0034 AFF30080 		.section	.text.chEvtWaitAll,"ax",%progbits
 782      AFF30080 
 782      AFF30080 
 783              		.align	2
 784              		.p2align 4,,15
 785              		.global	chEvtWaitAll
 786              		.thumb
 787              		.thumb_func
ARM GAS  C:\Users\LAB_ME~1\AppData\Local\Temp\ccxQGkYa.s 			page 15


 788              		.type	chEvtWaitAll, %function
 789              	chEvtWaitAll:
 790              	.LFB20:
 791              		.loc 1 400 0
 792              		.cfi_startproc
 793              		@ args = 0, pretend = 0, frame = 0
 794              		@ frame_needed = 0, uses_anonymous_args = 0
 795              	.LVL92:
 796 0000 38B5     		push	{r3, r4, r5, lr}
 797              	.LCFI8:
 798              		.cfi_def_cfa_offset 16
 799              		.cfi_offset 3, -16
 800              		.cfi_offset 4, -12
 801              		.cfi_offset 5, -8
 802              		.cfi_offset 14, -4
 803              		.loc 1 401 0
 804 0002 0C4B     		ldr	r3, .L51
 805              		.loc 1 400 0
 806 0004 0446     		mov	r4, r0
 807              		.loc 1 401 0
 808 0006 9D69     		ldr	r5, [r3, #24]
 809              	.LVL93:
 810              	.LBB25:
 811              		.loc 1 403 0
 812 0008 2023     		movs	r3, #32
 813              	.LVL94:
 814              	@ 403 "../../os/kernel/src/chevents.c" 1
 815 000a 83F31188 		msr     BASEPRI, r3
 816              	@ 0 "" 2
 817              	.LVL95:
 818              		.thumb
 819              	.LBE25:
 820              		.loc 1 405 0
 821 000e AB6B     		ldr	r3, [r5, #56]
 822              	.LVL96:
 823 0010 00EA0302 		and	r2, r0, r3
 824 0014 8242     		cmp	r2, r0
 825 0016 04D0     		beq	.L50
 826              		.loc 1 406 0
 827 0018 6862     		str	r0, [r5, #36]
 828              		.loc 1 407 0
 829 001a 0920     		movs	r0, #9
 830              	.LVL97:
 831 001c FFF7FEFF 		bl	chSchGoSleepS
 832              	.LVL98:
 833 0020 AB6B     		ldr	r3, [r5, #56]
 834              	.L50:
 835              		.loc 1 409 0
 836 0022 23EA0403 		bic	r3, r3, r4
 837 0026 AB63     		str	r3, [r5, #56]
 838              	.LBB26:
 839              		.loc 1 411 0
 840 0028 0023     		movs	r3, #0
 841              	.LVL99:
 842              	@ 411 "../../os/kernel/src/chevents.c" 1
 843 002a 83F31188 		msr     BASEPRI, r3
 844              	@ 0 "" 2
ARM GAS  C:\Users\LAB_ME~1\AppData\Local\Temp\ccxQGkYa.s 			page 16


 845              	.LVL100:
 846              		.thumb
 847              	.LBE26:
 848              		.loc 1 413 0
 849 002e 2046     		mov	r0, r4
 850 0030 38BD     		pop	{r3, r4, r5, pc}
 851              	.L52:
 852 0032 00BF     		.align	2
 853              	.L51:
 854 0034 00000000 		.word	rlist
 855              		.cfi_endproc
 856              	.LFE20:
 857              		.size	chEvtWaitAll, .-chEvtWaitAll
 858 0038 AFF30080 		.section	.text.chEvtWaitOneTimeout,"ax",%progbits
 858      AFF30080 
 859              		.align	2
 860              		.p2align 4,,15
 861              		.global	chEvtWaitOneTimeout
 862              		.thumb
 863              		.thumb_func
 864              		.type	chEvtWaitOneTimeout, %function
 865              	chEvtWaitOneTimeout:
 866              	.LFB21:
 867              		.loc 1 439 0
 868              		.cfi_startproc
 869              		@ args = 0, pretend = 0, frame = 0
 870              		@ frame_needed = 0, uses_anonymous_args = 0
 871              	.LVL101:
 872              		.loc 1 440 0
 873 0000 114B     		ldr	r3, .L59
 874              		.loc 1 439 0
 875 0002 70B5     		push	{r4, r5, r6, lr}
 876              	.LCFI9:
 877              		.cfi_def_cfa_offset 16
 878              		.cfi_offset 4, -16
 879              		.cfi_offset 5, -12
 880              		.cfi_offset 6, -8
 881              		.cfi_offset 14, -4
 882              		.loc 1 440 0
 883 0004 9E69     		ldr	r6, [r3, #24]
 884              	.LVL102:
 885              		.loc 1 439 0
 886 0006 0546     		mov	r5, r0
 887              	.LBB27:
 888              		.loc 1 443 0
 889 0008 2023     		movs	r3, #32
 890              	.LVL103:
 891              	@ 443 "../../os/kernel/src/chevents.c" 1
 892 000a 83F31188 		msr     BASEPRI, r3
 893              	@ 0 "" 2
 894              	.LVL104:
 895              		.thumb
 896              	.LBE27:
 897              		.loc 1 445 0
 898 000e B36B     		ldr	r3, [r6, #56]
 899              	.LVL105:
 900 0010 10EA0304 		ands	r4, r0, r3
ARM GAS  C:\Users\LAB_ME~1\AppData\Local\Temp\ccxQGkYa.s 			page 17


 901              	.LVL106:
 902 0014 0ED1     		bne	.L54
 903              		.loc 1 446 0
 904 0016 21B9     		cbnz	r1, .L55
 905              	.LVL107:
 906              	.L58:
 907              	.LBB28:
 908              		.loc 1 452 0
 909 0018 2346     		mov	r3, r4
 910              	.LVL108:
 911              	@ 452 "../../os/kernel/src/chevents.c" 1
 912 001a 83F31188 		msr     BASEPRI, r3
 913              	@ 0 "" 2
 914              	.LVL109:
 915              		.thumb
 916              	.LBE28:
 917              		.loc 1 462 0
 918 001e 2046     		mov	r0, r4
 919 0020 70BD     		pop	{r4, r5, r6, pc}
 920              	.LVL110:
 921              	.L55:
 922              		.loc 1 450 0
 923 0022 7062     		str	r0, [r6, #36]
 924              		.loc 1 451 0
 925 0024 0820     		movs	r0, #8
 926              	.LVL111:
 927 0026 FFF7FEFF 		bl	chSchGoSleepTimeoutS
 928              	.LVL112:
 929 002a 0028     		cmp	r0, #0
 930 002c F4DB     		blt	.L58
 931              		.loc 1 455 0
 932 002e B36B     		ldr	r3, [r6, #56]
 933 0030 05EA0304 		and	r4, r5, r3
 934              	.LVL113:
 935              	.L54:
 936              		.loc 1 457 0
 937 0034 6242     		negs	r2, r4
 938 0036 1440     		ands	r4, r4, r2
 939              	.LVL114:
 940              		.loc 1 458 0
 941 0038 23EA0403 		bic	r3, r3, r4
 942 003c B363     		str	r3, [r6, #56]
 943              	.LBB29:
 944              		.loc 1 460 0
 945 003e 0023     		movs	r3, #0
 946              	.LVL115:
 947              	@ 460 "../../os/kernel/src/chevents.c" 1
 948 0040 83F31188 		msr     BASEPRI, r3
 949              	@ 0 "" 2
 950              	.LVL116:
 951              		.thumb
 952              	.LBE29:
 953              		.loc 1 462 0
 954 0044 2046     		mov	r0, r4
 955 0046 70BD     		pop	{r4, r5, r6, pc}
 956              	.L60:
 957              		.align	2
ARM GAS  C:\Users\LAB_ME~1\AppData\Local\Temp\ccxQGkYa.s 			page 18


 958              	.L59:
 959 0048 00000000 		.word	rlist
 960              		.cfi_endproc
 961              	.LFE21:
 962              		.size	chEvtWaitOneTimeout, .-chEvtWaitOneTimeout
 963 004c AFF30080 		.section	.text.chEvtWaitAnyTimeout,"ax",%progbits
 964              		.align	2
 965              		.p2align 4,,15
 966              		.global	chEvtWaitAnyTimeout
 967              		.thumb
 968              		.thumb_func
 969              		.type	chEvtWaitAnyTimeout, %function
 970              	chEvtWaitAnyTimeout:
 971              	.LFB22:
 972              		.loc 1 482 0
 973              		.cfi_startproc
 974              		@ args = 0, pretend = 0, frame = 0
 975              		@ frame_needed = 0, uses_anonymous_args = 0
 976              	.LVL117:
 977              		.loc 1 483 0
 978 0000 104B     		ldr	r3, .L67
 979              		.loc 1 482 0
 980 0002 70B5     		push	{r4, r5, r6, lr}
 981              	.LCFI10:
 982              		.cfi_def_cfa_offset 16
 983              		.cfi_offset 4, -16
 984              		.cfi_offset 5, -12
 985              		.cfi_offset 6, -8
 986              		.cfi_offset 14, -4
 987              		.loc 1 483 0
 988 0004 9E69     		ldr	r6, [r3, #24]
 989              	.LVL118:
 990              		.loc 1 482 0
 991 0006 0446     		mov	r4, r0
 992              	.LBB30:
 993              		.loc 1 486 0
 994 0008 2023     		movs	r3, #32
 995              	.LVL119:
 996              	@ 486 "../../os/kernel/src/chevents.c" 1
 997 000a 83F31188 		msr     BASEPRI, r3
 998              	@ 0 "" 2
 999              	.LVL120:
 1000              		.thumb
 1001              	.LBE30:
 1002              		.loc 1 488 0
 1003 000e B26B     		ldr	r2, [r6, #56]
 1004              	.LVL121:
 1005 0010 14EA0205 		ands	r5, r4, r2
 1006              	.LVL122:
 1007 0014 0ED1     		bne	.L62
 1008              		.loc 1 489 0
 1009 0016 21B9     		cbnz	r1, .L63
 1010              	.LVL123:
 1011              	.L66:
 1012              	.LBB31:
 1013              		.loc 1 495 0
 1014 0018 2B46     		mov	r3, r5
ARM GAS  C:\Users\LAB_ME~1\AppData\Local\Temp\ccxQGkYa.s 			page 19


 1015              	.LVL124:
 1016              	@ 495 "../../os/kernel/src/chevents.c" 1
 1017 001a 83F31188 		msr     BASEPRI, r3
 1018              	@ 0 "" 2
 1019              	.LVL125:
 1020              		.thumb
 1021              	.LBE31:
 1022              		.loc 1 504 0
 1023 001e 2846     		mov	r0, r5
 1024 0020 70BD     		pop	{r4, r5, r6, pc}
 1025              	.LVL126:
 1026              	.L63:
 1027              		.loc 1 494 0
 1028 0022 0820     		movs	r0, #8
 1029              	.LVL127:
 1030              		.loc 1 493 0
 1031 0024 7462     		str	r4, [r6, #36]
 1032              		.loc 1 494 0
 1033 0026 FFF7FEFF 		bl	chSchGoSleepTimeoutS
 1034              	.LVL128:
 1035 002a 0028     		cmp	r0, #0
 1036 002c F4DB     		blt	.L66
 1037              		.loc 1 498 0
 1038 002e B26B     		ldr	r2, [r6, #56]
 1039 0030 04EA0205 		and	r5, r4, r2
 1040              	.LVL129:
 1041              	.L62:
 1042              		.loc 1 500 0
 1043 0034 22EA0502 		bic	r2, r2, r5
 1044 0038 B263     		str	r2, [r6, #56]
 1045              	.LBB32:
 1046              		.loc 1 502 0
 1047 003a 0023     		movs	r3, #0
 1048              	.LVL130:
 1049              	@ 502 "../../os/kernel/src/chevents.c" 1
 1050 003c 83F31188 		msr     BASEPRI, r3
 1051              	@ 0 "" 2
 1052              	.LVL131:
 1053              		.thumb
 1054              	.LBE32:
 1055              		.loc 1 504 0
 1056 0040 2846     		mov	r0, r5
 1057 0042 70BD     		pop	{r4, r5, r6, pc}
 1058              	.L68:
 1059              		.align	2
 1060              	.L67:
 1061 0044 00000000 		.word	rlist
 1062              		.cfi_endproc
 1063              	.LFE22:
 1064              		.size	chEvtWaitAnyTimeout, .-chEvtWaitAnyTimeout
 1065 0048 AFF30080 		.section	.text.chEvtWaitAllTimeout,"ax",%progbits
 1065      AFF30080 
 1066              		.align	2
 1067              		.p2align 4,,15
 1068              		.global	chEvtWaitAllTimeout
 1069              		.thumb
 1070              		.thumb_func
ARM GAS  C:\Users\LAB_ME~1\AppData\Local\Temp\ccxQGkYa.s 			page 20


 1071              		.type	chEvtWaitAllTimeout, %function
 1072              	chEvtWaitAllTimeout:
 1073              	.LFB23:
 1074              		.loc 1 523 0
 1075              		.cfi_startproc
 1076              		@ args = 0, pretend = 0, frame = 0
 1077              		@ frame_needed = 0, uses_anonymous_args = 0
 1078              	.LVL132:
 1079 0000 38B5     		push	{r3, r4, r5, lr}
 1080              	.LCFI11:
 1081              		.cfi_def_cfa_offset 16
 1082              		.cfi_offset 3, -16
 1083              		.cfi_offset 4, -12
 1084              		.cfi_offset 5, -8
 1085              		.cfi_offset 14, -4
 1086              		.loc 1 524 0
 1087 0002 134B     		ldr	r3, .L74
 1088              		.loc 1 523 0
 1089 0004 0446     		mov	r4, r0
 1090              		.loc 1 524 0
 1091 0006 9D69     		ldr	r5, [r3, #24]
 1092              	.LVL133:
 1093              	.LBB33:
 1094              		.loc 1 526 0
 1095 0008 2023     		movs	r3, #32
 1096              	.LVL134:
 1097              	@ 526 "../../os/kernel/src/chevents.c" 1
 1098 000a 83F31188 		msr     BASEPRI, r3
 1099              	@ 0 "" 2
 1100              	.LVL135:
 1101              		.thumb
 1102              	.LBE33:
 1103              		.loc 1 528 0
 1104 000e AA6B     		ldr	r2, [r5, #56]
 1105 0010 04EA0203 		and	r3, r4, r2
 1106              	.LVL136:
 1107 0014 A342     		cmp	r3, r4
 1108 0016 0DD0     		beq	.L70
 1109              		.loc 1 529 0
 1110 0018 29B9     		cbnz	r1, .L71
 1111              	.LBB34:
 1112              		.loc 1 530 0
 1113 001a 0B46     		mov	r3, r1
 1114              	.LVL137:
 1115              	@ 530 "../../os/kernel/src/chevents.c" 1
 1116 001c 83F31188 		msr     BASEPRI, r3
 1117              	@ 0 "" 2
 1118              	.LVL138:
 1119              		.thumb
 1120              	.LBE34:
 1121              		.loc 1 531 0
 1122 0020 0C46     		mov	r4, r1
 1123              		.loc 1 543 0
 1124 0022 2046     		mov	r0, r4
 1125              	.LVL139:
 1126 0024 38BD     		pop	{r3, r4, r5, pc}
 1127              	.LVL140:
ARM GAS  C:\Users\LAB_ME~1\AppData\Local\Temp\ccxQGkYa.s 			page 21


 1128              	.L71:
 1129              		.loc 1 534 0
 1130 0026 0920     		movs	r0, #9
 1131              	.LVL141:
 1132              		.loc 1 533 0
 1133 0028 6C62     		str	r4, [r5, #36]
 1134              		.loc 1 534 0
 1135 002a FFF7FEFF 		bl	chSchGoSleepTimeoutS
 1136              	.LVL142:
 1137 002e 0028     		cmp	r0, #0
 1138 0030 08DB     		blt	.L73
 1139 0032 AA6B     		ldr	r2, [r5, #56]
 1140              	.L70:
 1141              		.loc 1 539 0
 1142 0034 22EA0402 		bic	r2, r2, r4
 1143 0038 AA63     		str	r2, [r5, #56]
 1144              	.LBB35:
 1145              		.loc 1 541 0
 1146 003a 0023     		movs	r3, #0
 1147              	.LVL143:
 1148              	@ 541 "../../os/kernel/src/chevents.c" 1
 1149 003c 83F31188 		msr     BASEPRI, r3
 1150              	@ 0 "" 2
 1151              	.LVL144:
 1152              		.thumb
 1153              	.L72:
 1154              	.LBE35:
 1155              		.loc 1 543 0
 1156 0040 2046     		mov	r0, r4
 1157 0042 38BD     		pop	{r3, r4, r5, pc}
 1158              	.LVL145:
 1159              	.L73:
 1160              	.LBB36:
 1161              		.loc 1 535 0
 1162 0044 0023     		movs	r3, #0
 1163              	@ 535 "../../os/kernel/src/chevents.c" 1
 1164 0046 83F31188 		msr     BASEPRI, r3
 1165              	@ 0 "" 2
 1166              	.LVL146:
 1167              		.thumb
 1168              	.LBE36:
 1169              		.loc 1 536 0
 1170 004a 1C46     		mov	r4, r3
 1171              	.LVL147:
 1172 004c F8E7     		b	.L72
 1173              	.L75:
 1174 004e 00BF     		.align	2
 1175              	.L74:
 1176 0050 00000000 		.word	rlist
 1177              		.cfi_endproc
 1178              	.LFE23:
 1179              		.size	chEvtWaitAllTimeout, .-chEvtWaitAllTimeout
 1180 0054 AFF30080 		.text
 1180      AFF30080 
 1180      AFF30080 
 1181              	.Letext0:
 1182              		.file 2 "c:\\program files (x86)\\codesourcery\\sourcery_codebench_lite_for_arm_eabi\\bin\\../lib/
ARM GAS  C:\Users\LAB_ME~1\AppData\Local\Temp\ccxQGkYa.s 			page 22


 1183              		.file 3 "../../os/ports/GCC/ARMCMx/chtypes.h"
 1184              		.file 4 "../../os/kernel/include/chlists.h"
 1185              		.file 5 "../../os/kernel/include/chthreads.h"
 1186              		.file 6 "../../os/ports/GCC/ARMCMx/chcore_v7m.h"
 1187              		.file 7 "../../os/kernel/include/chschd.h"
 1188              		.file 8 "../../os/kernel/include/chmtx.h"
 1189              		.file 9 "../../os/kernel/include/chevents.h"