ARM GAS  C:\Users\LAB_ME~1\AppData\Local\Temp\ccxQGkYa.s 			page 1


   1              		.syntax unified
   2              		.cpu cortex-m4
   3              		.fpu softvfp
   4              		.eabi_attribute 20, 1
   5              		.eabi_attribute 21, 1
   6              		.eabi_attribute 23, 3
   7              		.eabi_attribute 24, 1
   8              		.eabi_attribute 25, 1
   9              		.eabi_attribute 26, 1
  10              		.eabi_attribute 30, 2
  11              		.eabi_attribute 34, 1
  12              		.eabi_attribute 18, 4
  13              		.thumb
  14              		.file	"chevents.c"
  15              		.text
  16              	.Ltext0:
  17              		.cfi_sections	.debug_frame
  18              		.section	.text.chEvtRegisterMask,"ax",%progbits
  19              		.align	2
  20              		.p2align 4,,15
  21              		.global	chEvtRegisterMask
  22              		.thumb
  23              		.thumb_func
  24              		.type	chEvtRegisterMask, %function
  25              	chEvtRegisterMask:
  26              	.LFB7:
  27              		.file 1 "../../os/kernel/src/chevents.c"
  28              		.loc 1 78 0
  29              		.cfi_startproc
  30              		@ args = 0, pretend = 0, frame = 0
  31              		@ frame_needed = 0, uses_anonymous_args = 0
  32              		@ link register save eliminated.
  33              	.LVL0:
  34 0000 30B4     		push	{r4, r5}
  35              	.LCFI0:
  36              		.cfi_def_cfa_offset 8
  37              		.cfi_offset 4, -8
  38              		.cfi_offset 5, -4
  39              	.LBB2:
  40              		.loc 1 82 0
  41 0002 2023     		movs	r3, #32
  42              	.LVL1:
  43              	@ 82 "../../os/kernel/src/chevents.c" 1
  44 0004 83F31188 		msr     BASEPRI, r3
  45              	@ 0 "" 2
  46              	.LVL2:
  47              		.thumb
  48              	.LBE2:
  49              		.loc 1 85 0
  50 0008 064C     		ldr	r4, .L2
  51              		.loc 1 83 0
  52 000a 0368     		ldr	r3, [r0, #0]
  53              	.LVL3:
  54              		.loc 1 85 0
  55 000c A569     		ldr	r5, [r4, #24]
  56              		.loc 1 83 0
  57 000e 0B60     		str	r3, [r1, #0]
ARM GAS  C:\Users\LAB_ME~1\AppData\Local\Temp\ccxQGkYa.s 			page 2


  58              		.loc 1 87 0
  59 0010 0024     		movs	r4, #0
  60              		.loc 1 84 0
  61 0012 0160     		str	r1, [r0, #0]
  62              	.LBB3:
  63              		.loc 1 88 0
  64 0014 2346     		mov	r3, r4
  65              	.LVL4:
  66              	.LBE3:
  67              		.loc 1 85 0
  68 0016 4D60     		str	r5, [r1, #4]
  69              		.loc 1 86 0
  70 0018 8A60     		str	r2, [r1, #8]
  71              		.loc 1 87 0
  72 001a CC60     		str	r4, [r1, #12]
  73              	.LBB4:
  74              		.loc 1 88 0
  75              	@ 88 "../../os/kernel/src/chevents.c" 1
  76 001c 83F31188 		msr     BASEPRI, r3
  77              	@ 0 "" 2
  78              	.LVL5:
  79              		.thumb
  80              	.LBE4:
  81              		.loc 1 89 0
  82 0020 30BC     		pop	{r4, r5}
  83 0022 7047     		bx	lr
  84              	.L3:
  85              		.align	2
  86              	.L2:
  87 0024 00000000 		.word	rlist
  88              		.cfi_endproc
  89              	.LFE7:
  90              		.size	chEvtRegisterMask, .-chEvtRegisterMask
  91 0028 AFF30080 		.section	.text.chEvtUnregister,"ax",%progbits
  91      AFF30080 
  92              		.align	2
  93              		.p2align 4,,15
  94              		.global	chEvtUnregister
  95              		.thumb
  96              		.thumb_func
  97              		.type	chEvtUnregister, %function
  98              	chEvtUnregister:
  99              	.LFB8:
 100              		.loc 1 104 0
 101              		.cfi_startproc
 102              		@ args = 0, pretend = 0, frame = 0
 103              		@ frame_needed = 0, uses_anonymous_args = 0
 104              		@ link register save eliminated.
 105              	.LVL6:
 106              	.LBB5:
 107              		.loc 1 110 0
 108 0000 2023     		movs	r3, #32
 109              	.LVL7:
 110              	@ 110 "../../os/kernel/src/chevents.c" 1
 111 0002 83F31188 		msr     BASEPRI, r3
 112              	@ 0 "" 2
 113              	.LVL8:
ARM GAS  C:\Users\LAB_ME~1\AppData\Local\Temp\ccxQGkYa.s 			page 3


 114              		.thumb
 115              	.LBE5:
 116              		.loc 1 109 0
 117 0006 0246     		mov	r2, r0
 118              		.loc 1 111 0
 119 0008 00E0     		b	.L5
 120              	.LVL9:
 121              	.L8:
 122              		.loc 1 112 0
 123 000a 1A46     		mov	r2, r3
 124              	.LVL10:
 125              	.L5:
 126              		.loc 1 111 0 discriminator 1
 127 000c 1368     		ldr	r3, [r2, #0]
 128              	.LVL11:
 129 000e 8342     		cmp	r3, r0
 130 0010 03D0     		beq	.L6
 131              		.loc 1 112 0
 132 0012 9942     		cmp	r1, r3
 133 0014 F9D1     		bne	.L8
 134              		.loc 1 113 0
 135 0016 0B68     		ldr	r3, [r1, #0]
 136 0018 1360     		str	r3, [r2, #0]
 137              	.L6:
 138              	.LBB6:
 139              		.loc 1 118 0
 140 001a 0023     		movs	r3, #0
 141              	.LVL12:
 142              	@ 118 "../../os/kernel/src/chevents.c" 1
 143 001c 83F31188 		msr     BASEPRI, r3
 144              	@ 0 "" 2
 145              	.LVL13:
 146              		.thumb
 147 0020 7047     		bx	lr
 148              	.LBE6:
 149              		.cfi_endproc
 150              	.LFE8:
 151              		.size	chEvtUnregister, .-chEvtUnregister
 152 0022 00BFAFF3 		.section	.text.chEvtGetAndClearEvents,"ax",%progbits
 152      0080AFF3 
 152      0080AFF3 
 152      0080
 153              		.align	2
 154              		.p2align 4,,15
 155              		.global	chEvtGetAndClearEvents
 156              		.thumb
 157              		.thumb_func
 158              		.type	chEvtGetAndClearEvents, %function
 159              	chEvtGetAndClearEvents:
 160              	.LFB9:
 161              		.loc 1 129 0
 162              		.cfi_startproc
 163              		@ args = 0, pretend = 0, frame = 0
 164              		@ frame_needed = 0, uses_anonymous_args = 0
 165              		@ link register save eliminated.
 166              	.LVL14:
 167              	.LBB7:
ARM GAS  C:\Users\LAB_ME~1\AppData\Local\Temp\ccxQGkYa.s 			page 4


 168              		.loc 1 132 0
 169 0000 2023     		movs	r3, #32
 170              	.LVL15:
 171              	@ 132 "../../os/kernel/src/chevents.c" 1
 172 0002 83F31188 		msr     BASEPRI, r3
 173              	@ 0 "" 2
 174              	.LVL16:
 175              		.thumb
 176              	.LBE7:
 177              		.loc 1 134 0
 178 0006 054B     		ldr	r3, .L11
 179              	.LVL17:
 180 0008 9B69     		ldr	r3, [r3, #24]
 181 000a 9A6B     		ldr	r2, [r3, #56]
 182              	.LVL18:
 183              		.loc 1 135 0
 184 000c 22EA0001 		bic	r1, r2, r0
 185 0010 9963     		str	r1, [r3, #56]
 186              	.LBB8:
 187              		.loc 1 137 0
 188 0012 0023     		movs	r3, #0
 189              	.LVL19:
 190              	@ 137 "../../os/kernel/src/chevents.c" 1
 191 0014 83F31188 		msr     BASEPRI, r3
 192              	@ 0 "" 2
 193              	.LVL20:
 194              		.thumb
 195              	.LBE8:
 196              		.loc 1 139 0
 197 0018 1040     		ands	r0, r0, r2
 198              	.LVL21:
 199 001a 7047     		bx	lr
 200              	.L12:
 201              		.align	2
 202              	.L11:
 203 001c 00000000 		.word	rlist
 204              		.cfi_endproc
 205              	.LFE9:
 206              		.size	chEvtGetAndClearEvents, .-chEvtGetAndClearEvents
 207              		.section	.text.chEvtAddEvents,"ax",%progbits
 208              		.align	2
 209              		.p2align 4,,15
 210              		.global	chEvtAddEvents
 211              		.thumb
 212              		.thumb_func
 213              		.type	chEvtAddEvents, %function
 214              	chEvtAddEvents:
 215              	.LFB10:
 216              		.loc 1 150 0
 217              		.cfi_startproc
 218              		@ args = 0, pretend = 0, frame = 0
 219              		@ frame_needed = 0, uses_anonymous_args = 0
 220              		@ link register save eliminated.
 221              	.LVL22:
 222              	.LBB9:
 223              		.loc 1 152 0
 224 0000 2023     		movs	r3, #32
ARM GAS  C:\Users\LAB_ME~1\AppData\Local\Temp\ccxQGkYa.s 			page 5


 225              	.LVL23:
 226              	@ 152 "../../os/kernel/src/chevents.c" 1
 227 0002 83F31188 		msr     BASEPRI, r3
 228              	@ 0 "" 2
 229              	.LVL24:
 230              		.thumb
 231              	.LBE9:
 232              		.loc 1 154 0
 233 0006 044B     		ldr	r3, .L14
 234              	.LVL25:
 235 0008 9B69     		ldr	r3, [r3, #24]
 236 000a 9A6B     		ldr	r2, [r3, #56]
 237 000c 1043     		orrs	r0, r0, r2
 238              	.LVL26:
 239 000e 9863     		str	r0, [r3, #56]
 240              	.LVL27:
 241              	.LBB10:
 242              		.loc 1 156 0
 243 0010 0023     		movs	r3, #0
 244              	.LVL28:
 245              	@ 156 "../../os/kernel/src/chevents.c" 1
 246 0012 83F31188 		msr     BASEPRI, r3
 247              	@ 0 "" 2
 248              	.LVL29:
 249              		.thumb
 250              	.LBE10:
 251              		.loc 1 158 0
 252 0016 7047     		bx	lr
 253              	.L15:
 254              		.align	2
 255              	.L14:
 256 0018 00000000 		.word	rlist
 257              		.cfi_endproc
 258              	.LFE10:
 259              		.size	chEvtAddEvents, .-chEvtAddEvents
 260 001c AFF30080 		.section	.text.chEvtGetAndClearFlags,"ax",%progbits
 261              		.align	2
 262              		.p2align 4,,15
 263              		.global	chEvtGetAndClearFlags
 264              		.thumb
 265              		.thumb_func
 266              		.type	chEvtGetAndClearFlags, %function
 267              	chEvtGetAndClearFlags:
 268              	.LFB12:
 269              		.loc 1 202 0
 270              		.cfi_startproc
 271              		@ args = 0, pretend = 0, frame = 0
 272              		@ frame_needed = 0, uses_anonymous_args = 0
 273              		@ link register save eliminated.
 274              	.LVL30:
 275              		.loc 1 202 0
 276 0000 0246     		mov	r2, r0
 277              	.LBB11:
 278              		.loc 1 205 0
 279 0002 2023     		movs	r3, #32
 280              	.LVL31:
 281              	@ 205 "../../os/kernel/src/chevents.c" 1
ARM GAS  C:\Users\LAB_ME~1\AppData\Local\Temp\ccxQGkYa.s 			page 6


 282 0004 83F31188 		msr     BASEPRI, r3
 283              	@ 0 "" 2
 284              	.LVL32:
 285              		.thumb
 286              	.LBE11:
 287              		.loc 1 208 0
 288 0008 0023     		movs	r3, #0
 289              	.LVL33:
 290              		.loc 1 207 0
 291 000a C068     		ldr	r0, [r0, #12]
 292              	.LVL34:
 293              		.loc 1 208 0
 294 000c D360     		str	r3, [r2, #12]
 295              	.LBB12:
 296              		.loc 1 210 0
 297              	@ 210 "../../os/kernel/src/chevents.c" 1
 298 000e 83F31188 		msr     BASEPRI, r3
 299              	@ 0 "" 2
 300              	.LVL35:
 301              		.thumb
 302              	.LBE12:
 303              		.loc 1 212 0
 304 0012 7047     		bx	lr
 305              		.cfi_endproc
 306              	.LFE12:
 307              		.size	chEvtGetAndClearFlags, .-chEvtGetAndClearFlags
 308 0014 AFF30080 		.section	.text.chEvtSignalI,"ax",%progbits
 308      AFF30080 
 308      AFF30080 
 309              		.align	2
 310              		.p2align 4,,15
 311              		.global	chEvtSignalI
 312              		.thumb
 313              		.thumb_func
 314              		.type	chEvtSignalI, %function
 315              	chEvtSignalI:
 316              	.LFB14:
 317              		.loc 1 244 0
 318              		.cfi_startproc
 319              		@ args = 0, pretend = 0, frame = 0
 320              		@ frame_needed = 0, uses_anonymous_args = 0
 321              	.LVL36:
 322 0000 08B5     		push	{r3, lr}
 323              	.LCFI1:
 324              		.cfi_def_cfa_offset 8
 325              		.cfi_offset 3, -8
 326              		.cfi_offset 14, -4
 327              		.loc 1 249 0
 328 0002 826B     		ldr	r2, [r0, #56]
 329              		.loc 1 251 0
 330 0004 037F     		ldrb	r3, [r0, #28]	@ zero_extendqisi2
 331              		.loc 1 249 0
 332 0006 1143     		orrs	r1, r1, r2
 333              	.LVL37:
 334              		.loc 1 251 0
 335 0008 082B     		cmp	r3, #8
 336              		.loc 1 249 0
ARM GAS  C:\Users\LAB_ME~1\AppData\Local\Temp\ccxQGkYa.s 			page 7


 337 000a 8163     		str	r1, [r0, #56]
 338              		.loc 1 251 0
 339 000c 0BD0     		beq	.L21
 340              		.loc 1 252 0
 341 000e 092B     		cmp	r3, #9
 342 0010 00D0     		beq	.L22
 343              	.L17:
 344 0012 08BD     		pop	{r3, pc}
 345              	.L22:
 346              		.loc 1 254 0
 347 0014 436A     		ldr	r3, [r0, #36]
 348 0016 1940     		ands	r1, r1, r3
 349              		.loc 1 253 0
 350 0018 8B42     		cmp	r3, r1
 351 001a FAD1     		bne	.L17
 352              	.L19:
 353              	.LVL38:
 354              	.LBB15:
 355              	.LBB16:
 356              		.loc 1 255 0
 357 001c FFF7FEFF 		bl	chSchReadyI
 358              	.LVL39:
 359 0020 0023     		movs	r3, #0
 360 0022 4362     		str	r3, [r0, #36]
 361 0024 08BD     		pop	{r3, pc}
 362              	.LVL40:
 363              	.L21:
 364              	.LBE16:
 365              	.LBE15:
 366              		.loc 1 252 0 discriminator 1
 367 0026 436A     		ldr	r3, [r0, #36]
 368              		.loc 1 251 0 discriminator 1
 369 0028 1942     		tst	r1, r3
 370 002a F7D1     		bne	.L19
 371 002c 08BD     		pop	{r3, pc}
 372              		.cfi_endproc
 373              	.LFE14:
 374              		.size	chEvtSignalI, .-chEvtSignalI
 375 002e 00BF     		.section	.text.chEvtSignal,"ax",%progbits
 376              		.align	2
 377              		.p2align 4,,15
 378              		.global	chEvtSignal
 379              		.thumb
 380              		.thumb_func
 381              		.type	chEvtSignal, %function
 382              	chEvtSignal:
 383              	.LFB13:
 384              		.loc 1 222 0
 385              		.cfi_startproc
 386              		@ args = 0, pretend = 0, frame = 0
 387              		@ frame_needed = 0, uses_anonymous_args = 0
 388              	.LVL41:
 389 0000 08B5     		push	{r3, lr}
 390              	.LCFI2:
 391              		.cfi_def_cfa_offset 8
 392              		.cfi_offset 3, -8
 393              		.cfi_offset 14, -4
ARM GAS  C:\Users\LAB_ME~1\AppData\Local\Temp\ccxQGkYa.s 			page 8


 394              	.LBB17:
 395              		.loc 1 226 0
 396 0002 2023     		movs	r3, #32
 397              	.LVL42:
 398              	@ 226 "../../os/kernel/src/chevents.c" 1
 399 0004 83F31188 		msr     BASEPRI, r3
 400              	@ 0 "" 2
 401              	.LVL43:
 402              		.thumb
 403              	.LBE17:
 404              		.loc 1 227 0
 405 0008 FFF7FEFF 		bl	chEvtSignalI
 406              	.LVL44:
 407              		.loc 1 228 0
 408 000c FFF7FEFF 		bl	chSchRescheduleS
 409              	.LVL45:
 410              	.LBB18:
 411              		.loc 1 229 0
 412 0010 0023     		movs	r3, #0
 413              	.LVL46:
 414              	@ 229 "../../os/kernel/src/chevents.c" 1
 415 0012 83F31188 		msr     BASEPRI, r3
 416              	@ 0 "" 2
 417              	.LVL47:
 418              		.thumb
 419 0016 08BD     		pop	{r3, pc}
 420              	.LBE18:
 421              		.cfi_endproc
 422              	.LFE13:
 423              		.size	chEvtSignal, .-chEvtSignal
 424 0018 AFF30080 		.section	.text.chEvtBroadcastFlagsI,"ax",%progbits
 424      AFF30080 
 425              		.align	2
 426              		.p2align 4,,15
 427              		.global	chEvtBroadcastFlagsI
 428              		.thumb
 429              		.thumb_func
 430              		.type	chEvtBroadcastFlagsI, %function
 431              	chEvtBroadcastFlagsI:
 432              	.LFB11:
 433              		.loc 1 177 0
 434              		.cfi_startproc
 435              		@ args = 0, pretend = 0, frame = 0
 436              		@ frame_needed = 0, uses_anonymous_args = 0
 437              	.LVL48:
 438 0000 70B5     		push	{r4, r5, r6, lr}
 439              	.LCFI3:
 440              		.cfi_def_cfa_offset 16
 441              		.cfi_offset 4, -16
 442              		.cfi_offset 5, -12
 443              		.cfi_offset 6, -8
 444              		.cfi_offset 14, -4
 445              		.loc 1 183 0
 446 0002 0468     		ldr	r4, [r0, #0]
 447              	.LVL49:
 448              		.loc 1 184 0
 449 0004 A042     		cmp	r0, r4
ARM GAS  C:\Users\LAB_ME~1\AppData\Local\Temp\ccxQGkYa.s 			page 9


 450              		.loc 1 177 0
 451 0006 0546     		mov	r5, r0
 452 0008 0E46     		mov	r6, r1
 453              		.loc 1 184 0
 454 000a 08D0     		beq	.L24
 455              	.LVL50:
 456              	.L28:
 457              		.loc 1 186 0
 458 000c 201D     		adds	r0, r4, #4
 459 000e 0BC8     		ldmia	r0, {r0, r1, r3}
 460              		.loc 1 185 0
 461 0010 3343     		orrs	r3, r3, r6
 462 0012 E360     		str	r3, [r4, #12]
 463              		.loc 1 186 0
 464 0014 FFF7FEFF 		bl	chEvtSignalI
 465              	.LVL51:
 466              		.loc 1 187 0
 467 0018 2468     		ldr	r4, [r4, #0]
 468              	.LVL52:
 469              		.loc 1 184 0
 470 001a A542     		cmp	r5, r4
 471 001c F6D1     		bne	.L28
 472              	.L24:
 473 001e 70BD     		pop	{r4, r5, r6, pc}
 474              		.cfi_endproc
 475              	.LFE11:
 476              		.size	chEvtBroadcastFlagsI, .-chEvtBroadcastFlagsI
 477              		.section	.text.chEvtBroadcastFlags,"ax",%progbits
 478              		.align	2
 479              		.p2align 4,,15
 480              		.global	chEvtBroadcastFlags
 481              		.thumb
 482              		.thumb_func
 483              		.type	chEvtBroadcastFlags, %function
 484              	chEvtBroadcastFlags:
 485              	.LFB15:
 486              		.loc 1 271 0
 487              		.cfi_startproc
 488              		@ args = 0, pretend = 0, frame = 0
 489              		@ frame_needed = 0, uses_anonymous_args = 0
 490              	.LVL53:
 491 0000 08B5     		push	{r3, lr}
 492              	.LCFI4:
 493              		.cfi_def_cfa_offset 8
 494              		.cfi_offset 3, -8
 495              		.cfi_offset 14, -4
 496              	.LBB19:
 497              		.loc 1 273 0
 498 0002 2023     		movs	r3, #32
 499              	.LVL54:
 500              	@ 273 "../../os/kernel/src/chevents.c" 1
 501 0004 83F31188 		msr     BASEPRI, r3
 502              	@ 0 "" 2
 503              	.LVL55:
 504              		.thumb
 505              	.LBE19:
 506              		.loc 1 274 0
ARM GAS  C:\Users\LAB_ME~1\AppData\Local\Temp\ccxQGkYa.s 			page 10


 507 0008 FFF7FEFF 		bl	chEvtBroadcastFlagsI
 508              	.LVL56:
 509              		.loc 1 275 0
 510 000c FFF7FEFF 		bl	chSchRescheduleS
 511              	.LVL57:
 512              	.LBB20:
 513              		.loc 1 276 0
 514 0010 0023     		movs	r3, #0
 515              	.LVL58:
 516              	@ 276 "../../os/kernel/src/chevents.c" 1
 517 0012 83F31188 		msr     BASEPRI, r3
 518              	@ 0 "" 2
 519              	.LVL59:
 520              		.thumb
 521 0016 08BD     		pop	{r3, pc}
 522              	.LBE20:
 523              		.cfi_endproc
 524              	.LFE15:
 525              		.size	chEvtBroadcastFlags, .-chEvtBroadcastFlags
 526 0018 AFF30080 		.section	.text.chEvtGetAndClearFlagsI,"ax",%progbits
 526      AFF30080 
 527              		.align	2
 528              		.p2align 4,,15
 529              		.global	chEvtGetAndClearFlagsI
 530              		.thumb
 531              		.thumb_func
 532              		.type	chEvtGetAndClearFlagsI, %function
 533              	chEvtGetAndClearFlagsI:
 534              	.LFB16:
 535              		.loc 1 290 0
 536              		.cfi_startproc
 537              		@ args = 0, pretend = 0, frame = 0
 538              		@ frame_needed = 0, uses_anonymous_args = 0
 539              		@ link register save eliminated.
 540              	.LVL60:
 541              		.loc 1 290 0
 542 0000 0346     		mov	r3, r0
 543              		.loc 1 294 0
 544 0002 0022     		movs	r2, #0
 545              		.loc 1 293 0
 546 0004 C068     		ldr	r0, [r0, #12]
 547              	.LVL61:
 548              		.loc 1 294 0
 549 0006 DA60     		str	r2, [r3, #12]
 550              		.loc 1 297 0
 551 0008 7047     		bx	lr
 552              		.cfi_endproc
 553              	.LFE16:
 554              		.size	chEvtGetAndClearFlagsI, .-chEvtGetAndClearFlagsI
 555 000a 00BFAFF3 		.section	.text.chEvtDispatch,"ax",%progbits
 555      0080
 556              		.align	2
 557              		.p2align 4,,15
 558              		.global	chEvtDispatch
 559              		.thumb
 560              		.thumb_func
 561              		.type	chEvtDispatch, %function
ARM GAS  C:\Users\LAB_ME~1\AppData\Local\Temp\ccxQGkYa.s 			page 11


 562              	chEvtDispatch:
 563              	.LFB17:
 564              		.loc 1 308 0
 565              		.cfi_startproc
 566              		@ args = 0, pretend = 0, frame = 0
 567              		@ frame_needed = 0, uses_anonymous_args = 0
 568              	.LVL62:
 569 0000 F8B5     		push	{r3, r4, r5, r6, r7, lr}
 570              	.LCFI5:
 571              		.cfi_def_cfa_offset 24
 572              		.cfi_offset 3, -24
 573              		.cfi_offset 4, -20
 574              		.cfi_offset 5, -16
 575              		.cfi_offset 6, -12
 576              		.cfi_offset 7, -8
 577              		.cfi_offset 14, -4
 578              		.loc 1 314 0
 579 0002 0D46     		mov	r5, r1
 580              		.loc 1 308 0
 581 0004 0746     		mov	r7, r0
 582              		.loc 1 314 0
 583 0006 89B1     		cbz	r1, .L32
 584 0008 0024     		movs	r4, #0
 585              		.loc 1 315 0
 586 000a 0126     		movs	r6, #1
 587 000c 01E0     		b	.L33
 588              	.LVL63:
 589              	.L34:
 590              		.loc 1 322 0
 591 000e 0134     		adds	r4, r4, #1
 592              	.LVL64:
 593              		.loc 1 314 0
 594 0010 65B1     		cbz	r5, .L32
 595              	.LVL65:
 596              	.L33:
 597              		.loc 1 315 0
 598 0012 06FA04F3 		lsl	r3, r6, r4
 599 0016 2B42     		tst	r3, r5
 600 0018 F9D0     		beq	.L34
 601              		.loc 1 320 0
 602 001a 57F82420 		ldr	r2, [r7, r4, lsl #2]
 603 001e 2046     		mov	r0, r4
 604              		.loc 1 319 0
 605 0020 25EA0305 		bic	r5, r5, r3
 606              	.LVL66:
 607              		.loc 1 322 0
 608 0024 0134     		adds	r4, r4, #1
 609              		.loc 1 320 0
 610 0026 9047     		blx	r2
 611              	.LVL67:
 612              		.loc 1 314 0
 613 0028 002D     		cmp	r5, #0
 614 002a F2D1     		bne	.L33
 615              	.LVL68:
 616              	.L32:
 617 002c F8BD     		pop	{r3, r4, r5, r6, r7, pc}
 618              		.cfi_endproc
ARM GAS  C:\Users\LAB_ME~1\AppData\Local\Temp\ccxQGkYa.s 			page 12


 619              	.LFE17:
 620              		.size	chEvtDispatch, .-chEvtDispatch
 621 002e 00BF     		.section	.text.chEvtWaitOne,"ax",%progbits
 622              		.align	2
 623              		.p2align 4,,15
 624              		.global	chEvtWaitOne
 625              		.thumb
 626              		.thumb_func
 627              		.type	chEvtWaitOne, %function
 628              	chEvtWaitOne:
 629              	.LFB18:
 630              		.loc 1 343 0
 631              		.cfi_startproc
 632              		@ args = 0, pretend = 0, frame = 0
 633              		@ frame_needed = 0, uses_anonymous_args = 0
 634              	.LVL69:
 635 0000 38B5     		push	{r3, r4, r5, lr}
 636              	.LCFI6:
 637              		.cfi_def_cfa_offset 16
 638              		.cfi_offset 3, -16
 639              		.cfi_offset 4, -12
 640              		.cfi_offset 5, -8
 641              		.cfi_offset 14, -4
 642              		.loc 1 344 0
 643 0002 0D4B     		ldr	r3, .L43
 644              		.loc 1 343 0
 645 0004 0546     		mov	r5, r0
 646              		.loc 1 344 0
 647 0006 9C69     		ldr	r4, [r3, #24]
 648              	.LVL70:
 649              	.LBB21:
 650              		.loc 1 347 0
 651 0008 2023     		movs	r3, #32
 652              	.LVL71:
 653              	@ 347 "../../os/kernel/src/chevents.c" 1
 654 000a 83F31188 		msr     BASEPRI, r3
 655              	@ 0 "" 2
 656              	.LVL72:
 657              		.thumb
 658              	.LBE21:
 659              		.loc 1 349 0
 660 000e A36B     		ldr	r3, [r4, #56]
 661              	.LVL73:
 662 0010 10EA0302 		ands	r2, r0, r3
 663              	.LVL74:
 664 0014 06D1     		bne	.L42
 665              		.loc 1 350 0
 666 0016 6062     		str	r0, [r4, #36]
 667              		.loc 1 351 0
 668 0018 0820     		movs	r0, #8
 669              	.LVL75:
 670 001a FFF7FEFF 		bl	chSchGoSleepS
 671              	.LVL76:
 672              		.loc 1 352 0
 673 001e A36B     		ldr	r3, [r4, #56]
 674 0020 05EA0302 		and	r2, r5, r3
 675              	.LVL77:
ARM GAS  C:\Users\LAB_ME~1\AppData\Local\Temp\ccxQGkYa.s 			page 13


 676              	.L42:
 677              		.loc 1 354 0
 678 0024 5042     		negs	r0, r2
 679 0026 1040     		ands	r0, r0, r2
 680              	.LVL78:
 681              		.loc 1 355 0
 682 0028 23EA0003 		bic	r3, r3, r0
 683 002c A363     		str	r3, [r4, #56]
 684              	.LBB22:
 685              		.loc 1 357 0
 686 002e 0023     		movs	r3, #0
 687              	.LVL79:
 688              	@ 357 "../../os/kernel/src/chevents.c" 1
 689 0030 83F31188 		msr     BASEPRI, r3
 690              	@ 0 "" 2
 691              	.LVL80:
 692              		.thumb
 693              	.LBE22:
 694              		.loc 1 359 0
 695 0034 38BD     		pop	{r3, r4, r5, pc}
 696              	.L44:
 697 0036 00BF     		.align	2
 698              	.L43:
 699 0038 00000000 		.word	rlist
 700              		.cfi_endproc
 701              	.LFE18:
 702              		.size	chEvtWaitOne, .-chEvtWaitOne
 703 003c AFF30080 		.section	.text.chEvtWaitAny,"ax",%progbits
 704              		.align	2
 705              		.p2align 4,,15
 706              		.global	chEvtWaitAny
 707              		.thumb
 708              		.thumb_func
 709              		.type	chEvtWaitAny, %function
 710              	chEvtWaitAny:
 711              	.LFB19:
 712              		.loc 1 372 0
 713              		.cfi_startproc
 714              		@ args = 0, pretend = 0, frame = 0
 715              		@ frame_needed = 0, uses_anonymous_args = 0
 716              	.LVL81:
 717 0000 38B5     		push	{r3, r4, r5, lr}
 718              	.LCFI7:
 719              		.cfi_def_cfa_offset 16
 720              		.cfi_offset 3, -16
 721              		.cfi_offset 4, -12
 722              		.cfi_offset 5, -8
 723              		.cfi_offset 14, -4
 724              		.loc 1 373 0
 725 0002 0B4B     		ldr	r3, .L47
 726              		.loc 1 372 0
 727 0004 0546     		mov	r5, r0
 728              		.loc 1 373 0
 729 0006 9C69     		ldr	r4, [r3, #24]
 730              	.LVL82:
 731              	.LBB23:
 732              		.loc 1 376 0
ARM GAS  C:\Users\LAB_ME~1\AppData\Local\Temp\ccxQGkYa.s 			page 14


 733 0008 2023     		movs	r3, #32
 734              	.LVL83:
 735              	@ 376 "../../os/kernel/src/chevents.c" 1
 736 000a 83F31188 		msr     BASEPRI, r3
 737              	@ 0 "" 2
 738              	.LVL84:
 739              		.thumb
 740              	.LBE23:
 741              		.loc 1 378 0
 742 000e A36B     		ldr	r3, [r4, #56]
 743              	.LVL85:
 744 0010 1840     		ands	r0, r0, r3
 745              	.LVL86:
 746 0012 06D1     		bne	.L46
 747              		.loc 1 380 0
 748 0014 0820     		movs	r0, #8
 749              	.LVL87:
 750              		.loc 1 379 0
 751 0016 6562     		str	r5, [r4, #36]
 752              		.loc 1 380 0
 753 0018 FFF7FEFF 		bl	chSchGoSleepS
 754              	.LVL88:
 755              		.loc 1 381 0
 756 001c A36B     		ldr	r3, [r4, #56]
 757 001e 05EA0300 		and	r0, r5, r3
 758              	.LVL89:
 759              	.L46:
 760              		.loc 1 383 0
 761 0022 23EA0003 		bic	r3, r3, r0
 762 0026 A363     		str	r3, [r4, #56]
 763              	.LBB24:
 764              		.loc 1 385 0
 765 0028 0023     		movs	r3, #0
 766              	.LVL90:
 767              	@ 385 "../../os/kernel/src/chevents.c" 1
 768 002a 83F31188 		msr     BASEPRI, r3
 769              	@ 0 "" 2
 770              	.LVL91:
 771              		.thumb
 772              	.LBE24:
 773              		.loc 1 387 0
 774 002e 38BD     		pop	{r3, r4, r5, pc}
 775              	.L48:
 776              		.align	2
 777              	.L47:
 778 0030 00000000 		.word	rlist
 779              		.cfi_endproc
 780              	.LFE19:
 781              		.size	chEvtWaitAny, .-chEvtWaitAny
 782 0034 AFF30080 		.section	.text.chEvtWaitAll,"ax",%progbits
 782      AFF30080 
 782      AFF30080 
 783              		.align	2
 784              		.p2align 4,,15
 785              		.global	chEvtWaitAll
 786              		.thumb
 787              		.thumb_func
ARM GAS  C:\Users\LAB_ME~1\AppData\Local\Temp\ccxQGkYa.s 			page 15


 788              		.type	chEvtWaitAll, %function
 789              	chEvtWaitAll:
 790              	.LFB20:
 791              		.loc 1 400 0
 792              		.cfi_startproc
 793              		@ args = 0, pretend = 0, frame = 0
 794              		@ frame_needed = 0, uses_anonymous_args = 0
 795              	.LVL92:
 796 0000 38B5     		push	{r3, r4, r5, lr}
 797              	.LCFI8:
 798              		.cfi_def_cfa_offset 16
 799              		.cfi_offset 3, -16
 800              		.cfi_offset 4, -12
 801              		.cfi_offset 5, -8
 802              		.cfi_offset 14, -4
 803              		.loc 1 401 0
 804 0002 0C4B     		ldr	r3, .L51
 805              		.loc 1 400 0
 806 0004 0446     		mov	r4, r0
 807              		.loc 1 401 0
 808 0006 9D69     		ldr	r5, [r3, #24]
 809              	.LVL93:
 810              	.LBB25:
 811              		.loc 1 403 0
 812 0008 2023     		movs	r3, #32
 813              	.LVL94:
 814              	@ 403 "../../os/kernel/src/chevents.c" 1
 815 000a 83F31188 		msr     BASEPRI, r3
 816              	@ 0 "" 2
 817              	.LVL95:
 818              		.thumb
 819              	.LBE25:
 820              		.loc 1 405 0
 821 000e AB6B     		ldr	r3, [r5, #56]
 822              	.LVL96:
 823 0010 00EA0302 		and	r2, r0, r3
 824 0014 8242     		cmp	r2, r0
 825 0016 04D0     		beq	.L50
 826              		.loc 1 406 0
 827 0018 6862     		str	r0, [r5, #36]
 828              		.loc 1 407 0
 829 001a 0920     		movs	r0, #9
 830              	.LVL97:
 831 001c FFF7FEFF 		bl	chSchGoSleepS
 832              	.LVL98:
 833 0020 AB6B     		ldr	r3, [r5, #56]
 834              	.L50:
 835              		.loc 1 409 0
 836 0022 23EA0403 		bic	r3, r3, r4
 837 0026 AB63     		str	r3, [r5, #56]
 838              	.LBB26:
 839              		.loc 1 411 0
 840 0028 0023     		movs	r3, #0
 841              	.LVL99:
 842              	@ 411 "../../os/kernel/src/chevents.c" 1
 843 002a 83F31188 		msr     BASEPRI, r3
 844              	@ 0 "" 2
ARM GAS  C:\Users\LAB_ME~1\AppData\Local\Temp\ccxQGkYa.s 			page 16


 845              	.LVL100:
 846              		.thumb
 847              	.LBE26:
 848              		.loc 1 413 0
 849 002e 2046     		mov	r0, r4
 850 0030 38BD     		pop	{r3, r4, r5, pc}
 851              	.L52:
 852 0032 00BF     		.align	2
 853              	.L51:
 854 0034 00000000 		.word	rlist
 855              		.cfi_endproc
 856              	.LFE20:
 857              		.size	chEvtWaitAll, .-chEvtWaitAll
 858 0038 AFF30080 		.section	.text.chEvtWaitOneTimeout,"ax",%progbits
 858      AFF30080 
 859              		.align	2
 860              		.p2align 4,,15
 861              		.global	chEvtWaitOneTimeout
 862              		.thumb
 863              		.thumb_func
 864              		.type	chEvtWaitOneTimeout, %function
 865              	chEvtWaitOneTimeout:
 866              	.LFB21:
 867              		.loc 1 439 0
 868              		.cfi_startproc
 869              		@ args = 0, pretend = 0, frame = 0
 870              		@ frame_needed = 0, uses_anonymous_args = 0
 871              	.LVL101:
 872              		.loc 1 440 0
 873 0000 114B     		ldr	r3, .L59
 874              		.loc 1 439 0
 875 0002 70B5     		push	{r4, r5, r6, lr}
 876              	.LCFI9:
 877              		.cfi_def_cfa_offset 16
 878              		.cfi_offset 4, -16
 879              		.cfi_offset 5, -12
 880              		.cfi_offset 6, -8
 881              		.cfi_offset 14, -4
 882              		.loc 1 440 0
 883 0004 9E69     		ldr	r6, [r3, #24]
 884              	.LVL102:
 885              		.loc 1 439 0
 886 0006 0546     		mov	r5, r0
 887              	.LBB27:
 888              		.loc 1 443 0
 889 0008 2023     		movs	r3, #32
 890              	.LVL103:
 891              	@ 443 "../../os/kernel/src/chevents.c" 1
 892 000a 83F31188 		msr     BASEPRI, r3
 893              	@ 0 "" 2
 894              	.LVL104:
 895              		.thumb
 896              	.LBE27:
 897              		.loc 1 445 0
 898 000e B36B     		ldr	r3, [r6, #56]
 899              	.LVL105:
 900 0010 10EA0304 		ands	r4, r0, r3
ARM GAS  C:\Users\LAB_ME~1\AppData\Local\Temp\ccxQGkYa.s 			page 17


 901              	.LVL106:
 902 0014 0ED1     		bne	.L54
 903              		.loc 1 446 0
 904 0016 21B9     		cbnz	r1, .L55
 905              	.LVL107:
 906              	.L58:
 907              	.LBB28:
 908              		.loc 1 452 0
 909 0018 2346     		mov	r3, r4
 910              	.LVL108:
 911              	@ 452 "../../os/kernel/src/chevents.c" 1
 912 001a 83F31188 		msr     BASEPRI, r3
 913              	@ 0 "" 2
 914              	.LVL109:
 915              		.thumb
 916              	.LBE28:
 917              		.loc 1 462 0
 918 001e 2046     		mov	r0, r4
 919 0020 70BD     		pop	{r4, r5, r6, pc}
 920              	.LVL110:
 921              	.L55:
 922              		.loc 1 450 0
 923 0022 7062     		str	r0, [r6, #36]
 924              		.loc 1 451 0
 925 0024 0820     		movs	r0, #8
 926              	.LVL111:
 927 0026 FFF7FEFF 		bl	chSchGoSleepTimeoutS
 928              	.LVL112:
 929 002a 0028     		cmp	r0, #0
 930 002c F4DB     		blt	.L58
 931              		.loc 1 455 0
 932 002e B36B     		ldr	r3, [r6, #56]
 933 0030 05EA0304 		and	r4, r5, r3
 934              	.LVL113:
 935              	.L54:
 936              		.loc 1 457 0
 937 0034 6242     		negs	r2, r4
 938 0036 1440     		ands	r4, r4, r2
 939              	.LVL114:
 940              		.loc 1 458 0
 941 0038 23EA0403 		bic	r3, r3, r4
 942 003c B363     		str	r3, [r6, #56]
 943              	.LBB29:
 944              		.loc 1 460 0
 945 003e 0023     		movs	r3, #0
 946              	.LVL115:
 947              	@ 460 "../../os/kernel/src/chevents.c" 1
 948 0040 83F31188 		msr     BASEPRI, r3
 949              	@ 0 "" 2
 950              	.LVL116:
 951              		.thumb
 952              	.LBE29:
 953              		.loc 1 462 0
 954 0044 2046     		mov	r0, r4
 955 0046 70BD     		pop	{r4, r5, r6, pc}
 956              	.L60:
 957              		.align	2
ARM GAS  C:\Users\LAB_ME~1\AppData\Local\Temp\ccxQGkYa.s 			page 18


 958              	.L59:
 959 0048 00000000 		.word	rlist
 960              		.cfi_endproc
 961              	.LFE21:
 962              		.size	chEvtWaitOneTimeout, .-chEvtWaitOneTimeout
 963 004c AFF30080 		.section	.text.chEvtWaitAnyTimeout,"ax",%progbits
 964              		.align	2
 965              		.p2align 4,,15
 966              		.global	chEvtWaitAnyTimeout
 967              		.thumb
 968              		.thumb_func
 969              		.type	chEvtWaitAnyTimeout, %function
 970              	chEvtWaitAnyTimeout:
 971              	.LFB22:
 972              		.loc 1 482 0
 973              		.cfi_startproc
 974              		@ args = 0, pretend = 0, frame = 0
 975              		@ frame_needed = 0, uses_anonymous_args = 0
 976              	.LVL117:
 977              		.loc 1 483 0
 978 0000 104B     		ldr	r3, .L67
 979              		.loc 1 482 0
 980 0002 70B5     		push	{r4, r5, r6, lr}
 981              	.LCFI10:
 982              		.cfi_def_cfa_offset 16
 983              		.cfi_offset 4, -16
 984              		.cfi_offset 5, -12
 985              		.cfi_offset 6, -8
 986              		.cfi_offset 14, -4
 987              		.loc 1 483 0
 988 0004 9E69     		ldr	r6, [r3, #24]
 989              	.LVL118:
 990              		.loc 1 482 0
 991 0006 0446     		mov	r4, r0
 992              	.LBB30:
 993              		.loc 1 486 0
 994 0008 2023     		movs	r3, #32
 995              	.LVL119:
 996              	@ 486 "../../os/kernel/src/chevents.c" 1
 997 000a 83F31188 		msr     BASEPRI, r3
 998              	@ 0 "" 2
 999              	.LVL120:
 1000              		.thumb
 1001              	.LBE30:
 1002              		.loc 1 488 0
 1003 000e B26B     		ldr	r2, [r6, #56]
 1004              	.LVL121:
 1005 0010 14EA0205 		ands	r5, r4, r2
 1006              	.LVL122:
 1007 0014 0ED1     		bne	.L62
 1008              		.loc 1 489 0
 1009 0016 21B9     		cbnz	r1, .L63
 1010              	.LVL123:
 1011              	.L66:
 1012              	.LBB31:
 1013              		.loc 1 495 0
 1014 0018 2B46     		mov	r3, r5
ARM GAS  C:\Users\LAB_ME~1\AppData\Local\Temp\ccxQGkYa.s 			page 19


 1015              	.LVL124:
 1016              	@ 495 "../../os/kernel/src/chevents.c" 1
 1017 001a 83F31188 		msr     BASEPRI, r3
 1018              	@ 0 "" 2
 1019              	.LVL125:
 1020              		.thumb
 1021              	.LBE31:
 1022              		.loc 1 504 0
 1023 001e 2846     		mov	r0, r5
 1024 0020 70BD     		pop	{r4, r5, r6, pc}
 1025              	.LVL126:
 1026              	.L63:
 1027              		.loc 1 494 0
 1028 0022 0820     		movs	r0, #8
 1029              	.LVL127:
 1030              		.loc 1 493 0
 1031 0024 7462     		str	r4, [r6, #36]
 1032              		.loc 1 494 0
 1033 0026 FFF7FEFF 		bl	chSchGoSleepTimeoutS
 1034              	.LVL128:
 1035 002a 0028     		cmp	r0, #0
 1036 002c F4DB     		blt	.L66
 1037              		.loc 1 498 0
 1038 002e B26B     		ldr	r2, [r6, #56]
 1039 0030 04EA0205 		and	r5, r4, r2
 1040              	.LVL129:
 1041              	.L62:
 1042              		.loc 1 500 0
 1043 0034 22EA0502 		bic	r2, r2, r5
 1044 0038 B263     		str	r2, [r6, #56]
 1045              	.LBB32:
 1046              		.loc 1 502 0
 1047 003a 0023     		movs	r3, #0
 1048              	.LVL130:
 1049              	@ 502 "../../os/kernel/src/chevents.c" 1
 1050 003c 83F31188 		msr     BASEPRI, r3
 1051              	@ 0 "" 2
 1052              	.LVL131:
 1053              		.thumb
 1054              	.LBE32:
 1055              		.loc 1 504 0
 1056 0040 2846     		mov	r0, r5
 1057 0042 70BD     		pop	{r4, r5, r6, pc}
 1058              	.L68:
 1059              		.align	2
 1060              	.L67:
 1061 0044 00000000 		.word	rlist
 1062              		.cfi_endproc
 1063              	.LFE22:
 1064              		.size	chEvtWaitAnyTimeout, .-chEvtWaitAnyTimeout
 1065 0048 AFF30080 		.section	.text.chEvtWaitAllTimeout,"ax",%progbits
 1065      AFF30080 
 1066              		.align	2
 1067              		.p2align 4,,15
 1068              		.global	chEvtWaitAllTimeout
 1069              		.thumb
 1070              		.thumb_func
ARM GAS  C:\Users\LAB_ME~1\AppData\Local\Temp\ccxQGkYa.s 			page 20


 1071              		.type	chEvtWaitAllTimeout, %function
 1072              	chEvtWaitAllTimeout:
 1073              	.LFB23:
 1074              		.loc 1 523 0
 1075              		.cfi_startproc
 1076              		@ args = 0, pretend = 0, frame = 0
 1077              		@ frame_needed = 0, uses_anonymous_args = 0
 1078              	.LVL132:
 1079 0000 38B5     		push	{r3, r4, r5, lr}
 1080              	.LCFI11:
 1081              		.cfi_def_cfa_offset 16
 1082              		.cfi_offset 3, -16
 1083              		.cfi_offset 4, -12
 1084              		.cfi_offset 5, -8
 1085              		.cfi_offset 14, -4
 1086              		.loc 1 524 0
 1087 0002 134B     		ldr	r3, .L74
 1088              		.loc 1 523 0
 1089 0004 0446     		mov	r4, r0
 1090              		.loc 1 524 0
 1091 0006 9D69     		ldr	r5, [r3, #24]
 1092              	.LVL133:
 1093              	.LBB33:
 1094              		.loc 1 526 0
 1095 0008 2023     		movs	r3, #32
 1096              	.LVL134:
 1097              	@ 526 "../../os/kernel/src/chevents.c" 1
 1098 000a 83F31188 		msr     BASEPRI, r3
 1099              	@ 0 "" 2
 1100              	.LVL135:
 1101              		.thumb
 1102              	.LBE33:
 1103              		.loc 1 528 0
 1104 000e AA6B     		ldr	r2, [r5, #56]
 1105 0010 04EA0203 		and	r3, r4, r2
 1106              	.LVL136:
 1107 0014 A342     		cmp	r3, r4
 1108 0016 0DD0     		beq	.L70
 1109              		.loc 1 529 0
 1110 0018 29B9     		cbnz	r1, .L71
 1111              	.LBB34:
 1112              		.loc 1 530 0
 1113 001a 0B46     		mov	r3, r1
 1114              	.LVL137:
 1115              	@ 530 "../../os/kernel/src/chevents.c" 1
 1116 001c 83F31188 		msr     BASEPRI, r3
 1117              	@ 0 "" 2
 1118              	.LVL138:
 1119              		.thumb
 1120              	.LBE34:
 1121              		.loc 1 531 0
 1122 0020 0C46     		mov	r4, r1
 1123              		.loc 1 543 0
 1124 0022 2046     		mov	r0, r4
 1125              	.LVL139:
 1126 0024 38BD     		pop	{r3, r4, r5, pc}
 1127              	.LVL140:
ARM GAS  C:\Users\LAB_ME~1\AppData\Local\Temp\ccxQGkYa.s 			page 21


 1128              	.L71:
 1129              		.loc 1 534 0
 1130 0026 0920     		movs	r0, #9
 1131              	.LVL141:
 1132              		.loc 1 533 0
 1133 0028 6C62     		str	r4, [r5, #36]
 1134              		.loc 1 534 0
 1135 002a FFF7FEFF 		bl	chSchGoSleepTimeoutS
 1136              	.LVL142:
 1137 002e 0028     		cmp	r0, #0
 1138 0030 08DB     		blt	.L73
 1139 0032 AA6B     		ldr	r2, [r5, #56]
 1140              	.L70:
 1141              		.loc 1 539 0
 1142 0034 22EA0402 		bic	r2, r2, r4
 1143 0038 AA63     		str	r2, [r5, #56]
 1144              	.LBB35:
 1145              		.loc 1 541 0
 1146 003a 0023     		movs	r3, #0
 1147              	.LVL143:
 1148              	@ 541 "../../os/kernel/src/chevents.c" 1
 1149 003c 83F31188 		msr     BASEPRI, r3
 1150              	@ 0 "" 2
 1151              	.LVL144:
 1152              		.thumb
 1153              	.L72:
 1154              	.LBE35:
 1155              		.loc 1 543 0
 1156 0040 2046     		mov	r0, r4
 1157 0042 38BD     		pop	{r3, r4, r5, pc}
 1158              	.LVL145:
 1159              	.L73:
 1160              	.LBB36:
 1161              		.loc 1 535 0
 1162 0044 0023     		movs	r3, #0
 1163              	@ 535 "../../os/kernel/src/chevents.c" 1
 1164 0046 83F31188 		msr     BASEPRI, r3
 1165              	@ 0 "" 2
 1166              	.LVL146:
 1167              		.thumb
 1168              	.LBE36:
 1169              		.loc 1 536 0
 1170 004a 1C46     		mov	r4, r3
 1171              	.LVL147:
 1172 004c F8E7     		b	.L72
 1173              	.L75:
 1174 004e 00BF     		.align	2
 1175              	.L74:
 1176 0050 00000000 		.word	rlist
 1177              		.cfi_endproc
 1178              	.LFE23:
 1179              		.size	chEvtWaitAllTimeout, .-chEvtWaitAllTimeout
 1180 0054 AFF30080 		.text
 1180      AFF30080 
 1180      AFF30080 
 1181              	.Letext0:
 1182              		.file 2 "c:\\program files (x86)\\codesourcery\\sourcery_codebench_lite_for_arm_eabi\\bin\\../lib/
ARM GAS  C:\Users\LAB_ME~1\AppData\Local\Temp\ccxQGkYa.s 			page 22


 1183              		.file 3 "../../os/ports/GCC/ARMCMx/chtypes.h"
 1184              		.file 4 "../../os/kernel/include/chlists.h"
 1185              		.file 5 "../../os/kernel/include/chthreads.h"
 1186              		.file 6 "../../os/ports/GCC/ARMCMx/chcore_v7m.h"
 1187              		.file 7 "../../os/kernel/include/chschd.h"
 1188              		.file 8 "../../os/kernel/include/chmtx.h"
 1189              		.file 9 "../../os/kernel/include/chevents.h"
 1190              		.section	.debug_info,"",%progbits
 1191              	.Ldebug_info0:
 1192 0000 300E0000 		.4byte	0xe30
 1193 0004 0200     		.2byte	0x2
 1194 0006 00000000 		.4byte	.Ldebug_abbrev0
 1195 000a 04       		.byte	0x4
 1196 000b 01       		.uleb128 0x1
 1197 000c 44020000 		.4byte	.LASF95
 1198 0010 01       		.byte	0x1
 1199 0011 C4030000 		.4byte	.LASF96
 1200 0015 39040000 		.4byte	.LASF97
 1201 0019 18000000 		.4byte	.Ldebug_ranges0+0x18
 1202 001d 00000000 		.4byte	0
 1203 0021 00000000 		.4byte	0
 1204 0025 00000000 		.4byte	.Ldebug_line0
 1205 0029 02       		.uleb128 0x2
 1206 002a 04       		.byte	0x4
 1207 002b 05       		.byte	0x5
 1208 002c 696E7400 		.ascii	"int\000"
 1209 0030 03       		.uleb128 0x3
 1210 0031 04       		.byte	0x4
 1211 0032 07       		.byte	0x7
 1212 0033 66010000 		.4byte	.LASF0
 1213 0037 03       		.uleb128 0x3
 1214 0038 01       		.byte	0x1
 1215 0039 06       		.byte	0x6
 1216 003a 71000000 		.4byte	.LASF1
 1217 003e 04       		.uleb128 0x4
 1218 003f B6030000 		.4byte	.LASF5
 1219 0043 02       		.byte	0x2
 1220 0044 2A       		.byte	0x2a
 1221 0045 49000000 		.4byte	0x49
 1222 0049 03       		.uleb128 0x3
 1223 004a 01       		.byte	0x1
 1224 004b 08       		.byte	0x8
 1225 004c 92020000 		.4byte	.LASF2
 1226 0050 03       		.uleb128 0x3
 1227 0051 02       		.byte	0x2
 1228 0052 05       		.byte	0x5
 1229 0053 CC020000 		.4byte	.LASF3
 1230 0057 03       		.uleb128 0x3
 1231 0058 02       		.byte	0x2
 1232 0059 07       		.byte	0x7
 1233 005a A4010000 		.4byte	.LASF4
 1234 005e 04       		.uleb128 0x4
 1235 005f 8A020000 		.4byte	.LASF6
 1236 0063 02       		.byte	0x2
 1237 0064 4F       		.byte	0x4f
 1238 0065 69000000 		.4byte	0x69
 1239 0069 03       		.uleb128 0x3
ARM GAS  C:\Users\LAB_ME~1\AppData\Local\Temp\ccxQGkYa.s 			page 23


 1240 006a 04       		.byte	0x4
 1241 006b 05       		.byte	0x5
 1242 006c AB000000 		.4byte	.LASF7
 1243 0070 04       		.uleb128 0x4
 1244 0071 3C030000 		.4byte	.LASF8
 1245 0075 02       		.byte	0x2
 1246 0076 50       		.byte	0x50
 1247 0077 7B000000 		.4byte	0x7b
 1248 007b 03       		.uleb128 0x3
 1249 007c 04       		.byte	0x4
 1250 007d 07       		.byte	0x7
 1251 007e 73010000 		.4byte	.LASF9
 1252 0082 03       		.uleb128 0x3
 1253 0083 08       		.byte	0x8
 1254 0084 05       		.byte	0x5
 1255 0085 63000000 		.4byte	.LASF10
 1256 0089 03       		.uleb128 0x3
 1257 008a 08       		.byte	0x8
 1258 008b 07       		.byte	0x7
 1259 008c 19000000 		.4byte	.LASF11
 1260 0090 04       		.uleb128 0x4
 1261 0091 E7010000 		.4byte	.LASF12
 1262 0095 03       		.byte	0x3
 1263 0096 28       		.byte	0x28
 1264 0097 3E000000 		.4byte	0x3e
 1265 009b 04       		.uleb128 0x4
 1266 009c B4000000 		.4byte	.LASF13
 1267 00a0 03       		.byte	0x3
 1268 00a1 29       		.byte	0x29
 1269 00a2 3E000000 		.4byte	0x3e
 1270 00a6 04       		.uleb128 0x4
 1271 00a7 73020000 		.4byte	.LASF14
 1272 00ab 03       		.byte	0x3
 1273 00ac 2A       		.byte	0x2a
 1274 00ad 3E000000 		.4byte	0x3e
 1275 00b1 04       		.uleb128 0x4
 1276 00b2 A1000000 		.4byte	.LASF15
 1277 00b6 03       		.byte	0x3
 1278 00b7 2B       		.byte	0x2b
 1279 00b8 3E000000 		.4byte	0x3e
 1280 00bc 04       		.uleb128 0x4
 1281 00bd 82020000 		.4byte	.LASF16
 1282 00c1 03       		.byte	0x3
 1283 00c2 2C       		.byte	0x2c
 1284 00c3 70000000 		.4byte	0x70
 1285 00c7 04       		.uleb128 0x4
 1286 00c8 C9010000 		.4byte	.LASF17
 1287 00cc 03       		.byte	0x3
 1288 00cd 2D       		.byte	0x2d
 1289 00ce 5E000000 		.4byte	0x5e
 1290 00d2 04       		.uleb128 0x4
 1291 00d3 44010000 		.4byte	.LASF18
 1292 00d7 03       		.byte	0x3
 1293 00d8 2E       		.byte	0x2e
 1294 00d9 5E000000 		.4byte	0x5e
 1295 00dd 04       		.uleb128 0x4
 1296 00de FB010000 		.4byte	.LASF19
ARM GAS  C:\Users\LAB_ME~1\AppData\Local\Temp\ccxQGkYa.s 			page 24


 1297 00e2 03       		.byte	0x3
 1298 00e3 2F       		.byte	0x2f
 1299 00e4 70000000 		.4byte	0x70
 1300 00e8 04       		.uleb128 0x4
 1301 00e9 93030000 		.4byte	.LASF20
 1302 00ed 03       		.byte	0x3
 1303 00ee 30       		.byte	0x30
 1304 00ef 70000000 		.4byte	0x70
 1305 00f3 04       		.uleb128 0x4
 1306 00f4 65030000 		.4byte	.LASF21
 1307 00f8 03       		.byte	0x3
 1308 00f9 31       		.byte	0x31
 1309 00fa 70000000 		.4byte	0x70
 1310 00fe 04       		.uleb128 0x4
 1311 00ff 1C030000 		.4byte	.LASF22
 1312 0103 04       		.byte	0x4
 1313 0104 23       		.byte	0x23
 1314 0105 09010000 		.4byte	0x109
 1315 0109 05       		.uleb128 0x5
 1316 010a 1C030000 		.4byte	.LASF22
 1317 010e 48       		.byte	0x48
 1318 010f 05       		.byte	0x5
 1319 0110 57       		.byte	0x57
 1320 0111 2E020000 		.4byte	0x22e
 1321 0115 06       		.uleb128 0x6
 1322 0116 0D030000 		.4byte	.LASF23
 1323 011a 05       		.byte	0x5
 1324 011b 58       		.byte	0x58
 1325 011c 53020000 		.4byte	0x253
 1326 0120 02       		.byte	0x2
 1327 0121 23       		.byte	0x23
 1328 0122 00       		.uleb128 0
 1329 0123 06       		.uleb128 0x6
 1330 0124 7B020000 		.4byte	.LASF24
 1331 0128 05       		.byte	0x5
 1332 0129 5A       		.byte	0x5a
 1333 012a 53020000 		.4byte	0x253
 1334 012e 02       		.byte	0x2
 1335 012f 23       		.byte	0x23
 1336 0130 04       		.uleb128 0x4
 1337 0131 06       		.uleb128 0x6
 1338 0132 5C000000 		.4byte	.LASF25
 1339 0136 05       		.byte	0x5
 1340 0137 5C       		.byte	0x5c
 1341 0138 BC000000 		.4byte	0xbc
 1342 013c 02       		.byte	0x2
 1343 013d 23       		.byte	0x23
 1344 013e 08       		.uleb128 0x8
 1345 013f 06       		.uleb128 0x6
 1346 0140 55040000 		.4byte	.LASF26
 1347 0144 05       		.byte	0x5
 1348 0145 5D       		.byte	0x5d
 1349 0146 21030000 		.4byte	0x321
 1350 014a 02       		.byte	0x2
 1351 014b 23       		.byte	0x23
 1352 014c 0C       		.uleb128 0xc
 1353 014d 06       		.uleb128 0x6
ARM GAS  C:\Users\LAB_ME~1\AppData\Local\Temp\ccxQGkYa.s 			page 25


 1354 014e 01010000 		.4byte	.LASF27
 1355 0152 05       		.byte	0x5
 1356 0153 5F       		.byte	0x5f
 1357 0154 53020000 		.4byte	0x253
 1358 0158 02       		.byte	0x2
 1359 0159 23       		.byte	0x23
 1360 015a 10       		.uleb128 0x10
 1361 015b 06       		.uleb128 0x6
 1362 015c 24020000 		.4byte	.LASF28
 1363 0160 05       		.byte	0x5
 1364 0161 60       		.byte	0x60
 1365 0162 53020000 		.4byte	0x253
 1366 0166 02       		.byte	0x2
 1367 0167 23       		.byte	0x23
 1368 0168 14       		.uleb128 0x14
 1369 0169 06       		.uleb128 0x6
 1370 016a 0C040000 		.4byte	.LASF29
 1371 016e 05       		.byte	0x5
 1372 016f 67       		.byte	0x67
 1373 0170 CE040000 		.4byte	0x4ce
 1374 0174 02       		.byte	0x2
 1375 0175 23       		.byte	0x23
 1376 0176 18       		.uleb128 0x18
 1377 0177 06       		.uleb128 0x6
 1378 0178 D6020000 		.4byte	.LASF30
 1379 017c 05       		.byte	0x5
 1380 017d 72       		.byte	0x72
 1381 017e 9B000000 		.4byte	0x9b
 1382 0182 02       		.byte	0x2
 1383 0183 23       		.byte	0x23
 1384 0184 1C       		.uleb128 0x1c
 1385 0185 06       		.uleb128 0x6
 1386 0186 14030000 		.4byte	.LASF31
 1387 018a 05       		.byte	0x5
 1388 018b 76       		.byte	0x76
 1389 018c 90000000 		.4byte	0x90
 1390 0190 02       		.byte	0x2
 1391 0191 23       		.byte	0x23
 1392 0192 1D       		.uleb128 0x1d
 1393 0193 06       		.uleb128 0x6
 1394 0194 9F030000 		.4byte	.LASF32
 1395 0198 05       		.byte	0x5
 1396 0199 7B       		.byte	0x7b
 1397 019a A6000000 		.4byte	0xa6
 1398 019e 02       		.byte	0x2
 1399 019f 23       		.byte	0x23
 1400 01a0 1E       		.uleb128 0x1e
 1401 01a1 06       		.uleb128 0x6
 1402 01a2 DE020000 		.4byte	.LASF33
 1403 01a6 05       		.byte	0x5
 1404 01a7 81       		.byte	0x81
 1405 01a8 B1000000 		.4byte	0xb1
 1406 01ac 02       		.byte	0x2
 1407 01ad 23       		.byte	0x23
 1408 01ae 1F       		.uleb128 0x1f
 1409 01af 06       		.uleb128 0x6
 1410 01b0 7A030000 		.4byte	.LASF34
ARM GAS  C:\Users\LAB_ME~1\AppData\Local\Temp\ccxQGkYa.s 			page 26


 1411 01b4 05       		.byte	0x5
 1412 01b5 88       		.byte	0x88
 1413 01b6 4B030000 		.4byte	0x34b
 1414 01ba 02       		.byte	0x2
 1415 01bb 23       		.byte	0x23
 1416 01bc 20       		.uleb128 0x20
 1417 01bd 07       		.uleb128 0x7
 1418 01be 705F7500 		.ascii	"p_u\000"
 1419 01c2 05       		.byte	0x5
 1420 01c3 AD       		.byte	0xad
 1421 01c4 99040000 		.4byte	0x499
 1422 01c8 02       		.byte	0x2
 1423 01c9 23       		.byte	0x23
 1424 01ca 24       		.uleb128 0x24
 1425 01cb 06       		.uleb128 0x6
 1426 01cc 5B040000 		.4byte	.LASF35
 1427 01d0 05       		.byte	0x5
 1428 01d1 B2       		.byte	0xb2
 1429 01d2 7B020000 		.4byte	0x27b
 1430 01d6 02       		.byte	0x2
 1431 01d7 23       		.byte	0x23
 1432 01d8 28       		.uleb128 0x28
 1433 01d9 06       		.uleb128 0x6
 1434 01da 88030000 		.4byte	.LASF36
 1435 01de 05       		.byte	0x5
 1436 01df B8       		.byte	0xb8
 1437 01e0 59020000 		.4byte	0x259
 1438 01e4 02       		.byte	0x2
 1439 01e5 23       		.byte	0x23
 1440 01e6 2C       		.uleb128 0x2c
 1441 01e7 06       		.uleb128 0x6
 1442 01e8 00000000 		.4byte	.LASF37
 1443 01ec 05       		.byte	0x5
 1444 01ed BC       		.byte	0xbc
 1445 01ee C7000000 		.4byte	0xc7
 1446 01f2 02       		.byte	0x2
 1447 01f3 23       		.byte	0x23
 1448 01f4 34       		.uleb128 0x34
 1449 01f5 06       		.uleb128 0x6
 1450 01f6 31030000 		.4byte	.LASF38
 1451 01fa 05       		.byte	0x5
 1452 01fb C2       		.byte	0xc2
 1453 01fc DD000000 		.4byte	0xdd
 1454 0200 02       		.byte	0x2
 1455 0201 23       		.byte	0x23
 1456 0202 38       		.uleb128 0x38
 1457 0203 06       		.uleb128 0x6
 1458 0204 C2020000 		.4byte	.LASF39
 1459 0208 05       		.byte	0x5
 1460 0209 C9       		.byte	0xc9
 1461 020a E0040000 		.4byte	0x4e0
 1462 020e 02       		.byte	0x2
 1463 020f 23       		.byte	0x23
 1464 0210 3C       		.uleb128 0x3c
 1465 0211 06       		.uleb128 0x6
 1466 0212 6F030000 		.4byte	.LASF40
 1467 0216 05       		.byte	0x5
ARM GAS  C:\Users\LAB_ME~1\AppData\Local\Temp\ccxQGkYa.s 			page 27


 1468 0217 CD       		.byte	0xcd
 1469 0218 BC000000 		.4byte	0xbc
 1470 021c 02       		.byte	0x2
 1471 021d 23       		.byte	0x23
 1472 021e 40       		.uleb128 0x40
 1473 021f 06       		.uleb128 0x6
 1474 0220 91000000 		.4byte	.LASF41
 1475 0224 05       		.byte	0x5
 1476 0225 D3       		.byte	0xd3
 1477 0226 91020000 		.4byte	0x291
 1478 022a 02       		.byte	0x2
 1479 022b 23       		.byte	0x23
 1480 022c 44       		.uleb128 0x44
 1481 022d 00       		.byte	0
 1482 022e 08       		.uleb128 0x8
 1483 022f 08       		.byte	0x8
 1484 0230 04       		.byte	0x4
 1485 0231 5A       		.byte	0x5a
 1486 0232 53020000 		.4byte	0x253
 1487 0236 06       		.uleb128 0x6
 1488 0237 0D030000 		.4byte	.LASF23
 1489 023b 04       		.byte	0x4
 1490 023c 5B       		.byte	0x5b
 1491 023d 53020000 		.4byte	0x253
 1492 0241 02       		.byte	0x2
 1493 0242 23       		.byte	0x23
 1494 0243 00       		.uleb128 0
 1495 0244 06       		.uleb128 0x6
 1496 0245 7B020000 		.4byte	.LASF24
 1497 0249 04       		.byte	0x4
 1498 024a 5D       		.byte	0x5d
 1499 024b 53020000 		.4byte	0x253
 1500 024f 02       		.byte	0x2
 1501 0250 23       		.byte	0x23
 1502 0251 04       		.uleb128 0x4
 1503 0252 00       		.byte	0
 1504 0253 09       		.uleb128 0x9
 1505 0254 04       		.byte	0x4
 1506 0255 FE000000 		.4byte	0xfe
 1507 0259 04       		.uleb128 0x4
 1508 025a 32020000 		.4byte	.LASF42
 1509 025e 04       		.byte	0x4
 1510 025f 5F       		.byte	0x5f
 1511 0260 2E020000 		.4byte	0x22e
 1512 0264 08       		.uleb128 0x8
 1513 0265 04       		.byte	0x4
 1514 0266 04       		.byte	0x4
 1515 0267 64       		.byte	0x64
 1516 0268 7B020000 		.4byte	0x27b
 1517 026c 06       		.uleb128 0x6
 1518 026d 0D030000 		.4byte	.LASF23
 1519 0271 04       		.byte	0x4
 1520 0272 66       		.byte	0x66
 1521 0273 53020000 		.4byte	0x253
 1522 0277 02       		.byte	0x2
 1523 0278 23       		.byte	0x23
 1524 0279 00       		.uleb128 0
ARM GAS  C:\Users\LAB_ME~1\AppData\Local\Temp\ccxQGkYa.s 			page 28


 1525 027a 00       		.byte	0
 1526 027b 04       		.uleb128 0x4
 1527 027c EF010000 		.4byte	.LASF43
 1528 0280 04       		.byte	0x4
 1529 0281 69       		.byte	0x69
 1530 0282 64020000 		.4byte	0x264
 1531 0286 04       		.uleb128 0x4
 1532 0287 27010000 		.4byte	.LASF44
 1533 028b 06       		.byte	0x6
 1534 028c DE       		.byte	0xde
 1535 028d 91020000 		.4byte	0x291
 1536 0291 0A       		.uleb128 0xa
 1537 0292 04       		.byte	0x4
 1538 0293 0B       		.uleb128 0xb
 1539 0294 81030000 		.4byte	.LASF45
 1540 0298 24       		.byte	0x24
 1541 0299 06       		.byte	0x6
 1542 029a 0501     		.2byte	0x105
 1543 029c 21030000 		.4byte	0x321
 1544 02a0 0C       		.uleb128 0xc
 1545 02a1 723400   		.ascii	"r4\000"
 1546 02a4 06       		.byte	0x6
 1547 02a5 1801     		.2byte	0x118
 1548 02a7 86020000 		.4byte	0x286
 1549 02ab 02       		.byte	0x2
 1550 02ac 23       		.byte	0x23
 1551 02ad 00       		.uleb128 0
 1552 02ae 0C       		.uleb128 0xc
 1553 02af 723500   		.ascii	"r5\000"
 1554 02b2 06       		.byte	0x6
 1555 02b3 1901     		.2byte	0x119
 1556 02b5 86020000 		.4byte	0x286
 1557 02b9 02       		.byte	0x2
 1558 02ba 23       		.byte	0x23
 1559 02bb 04       		.uleb128 0x4
 1560 02bc 0C       		.uleb128 0xc
 1561 02bd 723600   		.ascii	"r6\000"
 1562 02c0 06       		.byte	0x6
 1563 02c1 1A01     		.2byte	0x11a
 1564 02c3 86020000 		.4byte	0x286
 1565 02c7 02       		.byte	0x2
 1566 02c8 23       		.byte	0x23
 1567 02c9 08       		.uleb128 0x8
 1568 02ca 0C       		.uleb128 0xc
 1569 02cb 723700   		.ascii	"r7\000"
 1570 02ce 06       		.byte	0x6
 1571 02cf 1B01     		.2byte	0x11b
 1572 02d1 86020000 		.4byte	0x286
 1573 02d5 02       		.byte	0x2
 1574 02d6 23       		.byte	0x23
 1575 02d7 0C       		.uleb128 0xc
 1576 02d8 0C       		.uleb128 0xc
 1577 02d9 723800   		.ascii	"r8\000"
 1578 02dc 06       		.byte	0x6
 1579 02dd 1C01     		.2byte	0x11c
 1580 02df 86020000 		.4byte	0x286
 1581 02e3 02       		.byte	0x2
ARM GAS  C:\Users\LAB_ME~1\AppData\Local\Temp\ccxQGkYa.s 			page 29


 1582 02e4 23       		.byte	0x23
 1583 02e5 10       		.uleb128 0x10
 1584 02e6 0C       		.uleb128 0xc
 1585 02e7 723900   		.ascii	"r9\000"
 1586 02ea 06       		.byte	0x6
 1587 02eb 1D01     		.2byte	0x11d
 1588 02ed 86020000 		.4byte	0x286
 1589 02f1 02       		.byte	0x2
 1590 02f2 23       		.byte	0x23
 1591 02f3 14       		.uleb128 0x14
 1592 02f4 0C       		.uleb128 0xc
 1593 02f5 72313000 		.ascii	"r10\000"
 1594 02f9 06       		.byte	0x6
 1595 02fa 1E01     		.2byte	0x11e
 1596 02fc 86020000 		.4byte	0x286
 1597 0300 02       		.byte	0x2
 1598 0301 23       		.byte	0x23
 1599 0302 18       		.uleb128 0x18
 1600 0303 0C       		.uleb128 0xc
 1601 0304 72313100 		.ascii	"r11\000"
 1602 0308 06       		.byte	0x6
 1603 0309 1F01     		.2byte	0x11f
 1604 030b 86020000 		.4byte	0x286
 1605 030f 02       		.byte	0x2
 1606 0310 23       		.byte	0x23
 1607 0311 1C       		.uleb128 0x1c
 1608 0312 0C       		.uleb128 0xc
 1609 0313 6C7200   		.ascii	"lr\000"
 1610 0316 06       		.byte	0x6
 1611 0317 2001     		.2byte	0x120
 1612 0319 86020000 		.4byte	0x286
 1613 031d 02       		.byte	0x2
 1614 031e 23       		.byte	0x23
 1615 031f 20       		.uleb128 0x20
 1616 0320 00       		.byte	0
 1617 0321 0B       		.uleb128 0xb
 1618 0322 9C010000 		.4byte	.LASF46
 1619 0326 04       		.byte	0x4
 1620 0327 06       		.byte	0x6
 1621 0328 2A01     		.2byte	0x12a
 1622 032a 3E030000 		.4byte	0x33e
 1623 032e 0C       		.uleb128 0xc
 1624 032f 72313300 		.ascii	"r13\000"
 1625 0333 06       		.byte	0x6
 1626 0334 2B01     		.2byte	0x12b
 1627 0336 3E030000 		.4byte	0x33e
 1628 033a 02       		.byte	0x2
 1629 033b 23       		.byte	0x23
 1630 033c 00       		.uleb128 0
 1631 033d 00       		.byte	0
 1632 033e 09       		.uleb128 0x9
 1633 033f 04       		.byte	0x4
 1634 0340 93020000 		.4byte	0x293
 1635 0344 03       		.uleb128 0x3
 1636 0345 04       		.byte	0x4
 1637 0346 07       		.byte	0x7
 1638 0347 0D020000 		.4byte	.LASF47
ARM GAS  C:\Users\LAB_ME~1\AppData\Local\Temp\ccxQGkYa.s 			page 30


 1639 034b 0D       		.uleb128 0xd
 1640 034c F3000000 		.4byte	0xf3
 1641 0350 08       		.uleb128 0x8
 1642 0351 1C       		.byte	0x1c
 1643 0352 07       		.byte	0x7
 1644 0353 57       		.byte	0x57
 1645 0354 AD030000 		.4byte	0x3ad
 1646 0358 06       		.uleb128 0x6
 1647 0359 45030000 		.4byte	.LASF48
 1648 035d 07       		.byte	0x7
 1649 035e 58       		.byte	0x58
 1650 035f 59020000 		.4byte	0x259
 1651 0363 02       		.byte	0x2
 1652 0364 23       		.byte	0x23
 1653 0365 00       		.uleb128 0
 1654 0366 06       		.uleb128 0x6
 1655 0367 E8020000 		.4byte	.LASF49
 1656 036b 07       		.byte	0x7
 1657 036c 59       		.byte	0x59
 1658 036d BC000000 		.4byte	0xbc
 1659 0371 02       		.byte	0x2
 1660 0372 23       		.byte	0x23
 1661 0373 08       		.uleb128 0x8
 1662 0374 06       		.uleb128 0x6
 1663 0375 2C020000 		.4byte	.LASF50
 1664 0379 07       		.byte	0x7
 1665 037a 5B       		.byte	0x5b
 1666 037b 21030000 		.4byte	0x321
 1667 037f 02       		.byte	0x2
 1668 0380 23       		.byte	0x23
 1669 0381 0C       		.uleb128 0xc
 1670 0382 06       		.uleb128 0x6
 1671 0383 1A010000 		.4byte	.LASF51
 1672 0387 07       		.byte	0x7
 1673 0388 5E       		.byte	0x5e
 1674 0389 53020000 		.4byte	0x253
 1675 038d 02       		.byte	0x2
 1676 038e 23       		.byte	0x23
 1677 038f 10       		.uleb128 0x10
 1678 0390 06       		.uleb128 0x6
 1679 0391 5A020000 		.4byte	.LASF52
 1680 0395 07       		.byte	0x7
 1681 0396 5F       		.byte	0x5f
 1682 0397 53020000 		.4byte	0x253
 1683 039b 02       		.byte	0x2
 1684 039c 23       		.byte	0x23
 1685 039d 14       		.uleb128 0x14
 1686 039e 06       		.uleb128 0x6
 1687 039f 50020000 		.4byte	.LASF53
 1688 03a3 07       		.byte	0x7
 1689 03a4 62       		.byte	0x62
 1690 03a5 53020000 		.4byte	0x253
 1691 03a9 02       		.byte	0x2
 1692 03aa 23       		.byte	0x23
 1693 03ab 18       		.uleb128 0x18
 1694 03ac 00       		.byte	0
 1695 03ad 04       		.uleb128 0x4
ARM GAS  C:\Users\LAB_ME~1\AppData\Local\Temp\ccxQGkYa.s 			page 31


 1696 03ae A6030000 		.4byte	.LASF54
 1697 03b2 07       		.byte	0x7
 1698 03b3 64       		.byte	0x64
 1699 03b4 50030000 		.4byte	0x350
 1700 03b8 05       		.uleb128 0x5
 1701 03b9 07020000 		.4byte	.LASF55
 1702 03bd 10       		.byte	0x10
 1703 03be 08       		.byte	0x8
 1704 03bf 25       		.byte	0x25
 1705 03c0 EF030000 		.4byte	0x3ef
 1706 03c4 06       		.uleb128 0x6
 1707 03c5 99000000 		.4byte	.LASF56
 1708 03c9 08       		.byte	0x8
 1709 03ca 26       		.byte	0x26
 1710 03cb 59020000 		.4byte	0x259
 1711 03cf 02       		.byte	0x2
 1712 03d0 23       		.byte	0x23
 1713 03d1 00       		.uleb128 0
 1714 03d2 06       		.uleb128 0x6
 1715 03d3 31040000 		.4byte	.LASF57
 1716 03d7 08       		.byte	0x8
 1717 03d8 28       		.byte	0x28
 1718 03d9 53020000 		.4byte	0x253
 1719 03dd 02       		.byte	0x2
 1720 03de 23       		.byte	0x23
 1721 03df 08       		.uleb128 0x8
 1722 03e0 06       		.uleb128 0x6
 1723 03e1 5E030000 		.4byte	.LASF58
 1724 03e5 08       		.byte	0x8
 1725 03e6 2A       		.byte	0x2a
 1726 03e7 EF030000 		.4byte	0x3ef
 1727 03eb 02       		.byte	0x2
 1728 03ec 23       		.byte	0x23
 1729 03ed 0C       		.uleb128 0xc
 1730 03ee 00       		.byte	0
 1731 03ef 09       		.uleb128 0x9
 1732 03f0 04       		.byte	0x4
 1733 03f1 B8030000 		.4byte	0x3b8
 1734 03f5 04       		.uleb128 0x4
 1735 03f6 07020000 		.4byte	.LASF55
 1736 03fa 08       		.byte	0x8
 1737 03fb 2C       		.byte	0x2c
 1738 03fc B8030000 		.4byte	0x3b8
 1739 0400 04       		.uleb128 0x4
 1740 0401 E3030000 		.4byte	.LASF59
 1741 0405 09       		.byte	0x9
 1742 0406 25       		.byte	0x25
 1743 0407 0B040000 		.4byte	0x40b
 1744 040b 05       		.uleb128 0x5
 1745 040c E3030000 		.4byte	.LASF59
 1746 0410 10       		.byte	0x10
 1747 0411 09       		.byte	0x9
 1748 0412 2A       		.byte	0x2a
 1749 0413 50040000 		.4byte	0x450
 1750 0417 06       		.uleb128 0x6
 1751 0418 CF010000 		.4byte	.LASF60
 1752 041c 09       		.byte	0x9
ARM GAS  C:\Users\LAB_ME~1\AppData\Local\Temp\ccxQGkYa.s 			page 32


 1753 041d 2B       		.byte	0x2b
 1754 041e 50040000 		.4byte	0x450
 1755 0422 02       		.byte	0x2
 1756 0423 23       		.byte	0x23
 1757 0424 00       		.uleb128 0
 1758 0425 06       		.uleb128 0x6
 1759 0426 AD020000 		.4byte	.LASF61
 1760 042a 09       		.byte	0x9
 1761 042b 2E       		.byte	0x2e
 1762 042c 53020000 		.4byte	0x253
 1763 0430 02       		.byte	0x2
 1764 0431 23       		.byte	0x23
 1765 0432 04       		.uleb128 0x4
 1766 0433 06       		.uleb128 0x6
 1767 0434 62020000 		.4byte	.LASF62
 1768 0438 09       		.byte	0x9
 1769 0439 30       		.byte	0x30
 1770 043a DD000000 		.4byte	0xdd
 1771 043e 02       		.byte	0x2
 1772 043f 23       		.byte	0x23
 1773 0440 08       		.uleb128 0x8
 1774 0441 06       		.uleb128 0x6
 1775 0442 B9020000 		.4byte	.LASF63
 1776 0446 09       		.byte	0x9
 1777 0447 33       		.byte	0x33
 1778 0448 E8000000 		.4byte	0xe8
 1779 044c 02       		.byte	0x2
 1780 044d 23       		.byte	0x23
 1781 044e 0C       		.uleb128 0xc
 1782 044f 00       		.byte	0
 1783 0450 09       		.uleb128 0x9
 1784 0451 04       		.byte	0x4
 1785 0452 00040000 		.4byte	0x400
 1786 0456 05       		.uleb128 0x5
 1787 0457 4E010000 		.4byte	.LASF64
 1788 045b 04       		.byte	0x4
 1789 045c 09       		.byte	0x9
 1790 045d 3A       		.byte	0x3a
 1791 045e 71040000 		.4byte	0x471
 1792 0462 06       		.uleb128 0x6
 1793 0463 13040000 		.4byte	.LASF65
 1794 0467 09       		.byte	0x9
 1795 0468 3B       		.byte	0x3b
 1796 0469 50040000 		.4byte	0x450
 1797 046d 02       		.byte	0x2
 1798 046e 23       		.byte	0x23
 1799 046f 00       		.uleb128 0
 1800 0470 00       		.byte	0
 1801 0471 04       		.uleb128 0x4
 1802 0472 4E010000 		.4byte	.LASF64
 1803 0476 09       		.byte	0x9
 1804 0477 3E       		.byte	0x3e
 1805 0478 56040000 		.4byte	0x456
 1806 047c 04       		.uleb128 0x4
 1807 047d 5A010000 		.4byte	.LASF66
 1808 0481 09       		.byte	0x9
 1809 0482 43       		.byte	0x43
ARM GAS  C:\Users\LAB_ME~1\AppData\Local\Temp\ccxQGkYa.s 			page 33


 1810 0483 87040000 		.4byte	0x487
 1811 0487 09       		.uleb128 0x9
 1812 0488 04       		.byte	0x4
 1813 0489 8D040000 		.4byte	0x48d
 1814 048d 0E       		.uleb128 0xe
 1815 048e 01       		.byte	0x1
 1816 048f 99040000 		.4byte	0x499
 1817 0493 0F       		.uleb128 0xf
 1818 0494 D2000000 		.4byte	0xd2
 1819 0498 00       		.byte	0
 1820 0499 10       		.uleb128 0x10
 1821 049a 04       		.byte	0x4
 1822 049b 05       		.byte	0x5
 1823 049c 8F       		.byte	0x8f
 1824 049d CE040000 		.4byte	0x4ce
 1825 04a1 11       		.uleb128 0x11
 1826 04a2 06000000 		.4byte	.LASF67
 1827 04a6 05       		.byte	0x5
 1828 04a7 96       		.byte	0x96
 1829 04a8 C7000000 		.4byte	0xc7
 1830 04ac 11       		.uleb128 0x11
 1831 04ad 3F000000 		.4byte	.LASF68
 1832 04b1 05       		.byte	0x5
 1833 04b2 9D       		.byte	0x9d
 1834 04b3 C7000000 		.4byte	0xc7
 1835 04b7 11       		.uleb128 0x11
 1836 04b8 05040000 		.4byte	.LASF69
 1837 04bc 05       		.byte	0x5
 1838 04bd A4       		.byte	0xa4
 1839 04be 91020000 		.4byte	0x291
 1840 04c2 11       		.uleb128 0x11
 1841 04c3 06030000 		.4byte	.LASF70
 1842 04c7 05       		.byte	0x5
 1843 04c8 AB       		.byte	0xab
 1844 04c9 DD000000 		.4byte	0xdd
 1845 04cd 00       		.byte	0
 1846 04ce 09       		.uleb128 0x9
 1847 04cf 04       		.byte	0x4
 1848 04d0 D4040000 		.4byte	0x4d4
 1849 04d4 12       		.uleb128 0x12
 1850 04d5 D9040000 		.4byte	0x4d9
 1851 04d9 03       		.uleb128 0x3
 1852 04da 01       		.byte	0x1
 1853 04db 08       		.byte	0x8
 1854 04dc 59030000 		.4byte	.LASF71
 1855 04e0 09       		.uleb128 0x9
 1856 04e1 04       		.byte	0x4
 1857 04e2 F5030000 		.4byte	0x3f5
 1858 04e6 13       		.uleb128 0x13
 1859 04e7 01       		.byte	0x1
 1860 04e8 65040000 		.4byte	.LASF92
 1861 04ec 01       		.byte	0x1
 1862 04ed F4       		.byte	0xf4
 1863 04ee 01       		.byte	0x1
 1864 04ef 01       		.byte	0x1
 1865 04f0 0A050000 		.4byte	0x50a
 1866 04f4 14       		.uleb128 0x14
ARM GAS  C:\Users\LAB_ME~1\AppData\Local\Temp\ccxQGkYa.s 			page 34


 1867 04f5 747000   		.ascii	"tp\000"
 1868 04f8 01       		.byte	0x1
 1869 04f9 F4       		.byte	0xf4
 1870 04fa 53020000 		.4byte	0x253
 1871 04fe 15       		.uleb128 0x15
 1872 04ff 22010000 		.4byte	.LASF72
 1873 0503 01       		.byte	0x1
 1874 0504 F4       		.byte	0xf4
 1875 0505 DD000000 		.4byte	0xdd
 1876 0509 00       		.byte	0
 1877 050a 16       		.uleb128 0x16
 1878 050b 01       		.byte	0x1
 1879 050c B7010000 		.4byte	.LASF73
 1880 0510 01       		.byte	0x1
 1881 0511 4E       		.byte	0x4e
 1882 0512 01       		.byte	0x1
 1883 0513 00000000 		.4byte	.LFB7
 1884 0517 28000000 		.4byte	.LFE7
 1885 051b 00000000 		.4byte	.LLST0
 1886 051f 01       		.byte	0x1
 1887 0520 7E050000 		.4byte	0x57e
 1888 0524 17       		.uleb128 0x17
 1889 0525 65737000 		.ascii	"esp\000"
 1890 0529 01       		.byte	0x1
 1891 052a 4E       		.byte	0x4e
 1892 052b 7E050000 		.4byte	0x57e
 1893 052f 01       		.byte	0x1
 1894 0530 50       		.byte	0x50
 1895 0531 17       		.uleb128 0x17
 1896 0532 656C7000 		.ascii	"elp\000"
 1897 0536 01       		.byte	0x1
 1898 0537 4E       		.byte	0x4e
 1899 0538 50040000 		.4byte	0x450
 1900 053c 01       		.byte	0x1
 1901 053d 51       		.byte	0x51
 1902 053e 18       		.uleb128 0x18
 1903 053f 22010000 		.4byte	.LASF72
 1904 0543 01       		.byte	0x1
 1905 0544 4E       		.byte	0x4e
 1906 0545 DD000000 		.4byte	0xdd
 1907 0549 01       		.byte	0x1
 1908 054a 52       		.byte	0x52
 1909 054b 19       		.uleb128 0x19
 1910 054c 02000000 		.4byte	.LBB2
 1911 0550 08000000 		.4byte	.LBE2
 1912 0554 68050000 		.4byte	0x568
 1913 0558 1A       		.uleb128 0x1a
 1914 0559 746D7000 		.ascii	"tmp\000"
 1915 055d 01       		.byte	0x1
 1916 055e 52       		.byte	0x52
 1917 055f 70000000 		.4byte	0x70
 1918 0563 20000000 		.4byte	.LLST1
 1919 0567 00       		.byte	0
 1920 0568 1B       		.uleb128 0x1b
 1921 0569 00000000 		.4byte	.Ldebug_ranges0+0
 1922 056d 1A       		.uleb128 0x1a
 1923 056e 746D7000 		.ascii	"tmp\000"
ARM GAS  C:\Users\LAB_ME~1\AppData\Local\Temp\ccxQGkYa.s 			page 35


 1924 0572 01       		.byte	0x1
 1925 0573 58       		.byte	0x58
 1926 0574 70000000 		.4byte	0x70
 1927 0578 33000000 		.4byte	.LLST2
 1928 057c 00       		.byte	0
 1929 057d 00       		.byte	0
 1930 057e 09       		.uleb128 0x9
 1931 057f 04       		.byte	0x4
 1932 0580 71040000 		.4byte	0x471
 1933 0584 1C       		.uleb128 0x1c
 1934 0585 01       		.byte	0x1
 1935 0586 D7010000 		.4byte	.LASF74
 1936 058a 01       		.byte	0x1
 1937 058b 68       		.byte	0x68
 1938 058c 01       		.byte	0x1
 1939 058d 00000000 		.4byte	.LFB8
 1940 0591 22000000 		.4byte	.LFE8
 1941 0595 02       		.byte	0x2
 1942 0596 7D       		.byte	0x7d
 1943 0597 00       		.sleb128 0
 1944 0598 01       		.byte	0x1
 1945 0599 FB050000 		.4byte	0x5fb
 1946 059d 17       		.uleb128 0x17
 1947 059e 65737000 		.ascii	"esp\000"
 1948 05a2 01       		.byte	0x1
 1949 05a3 68       		.byte	0x68
 1950 05a4 7E050000 		.4byte	0x57e
 1951 05a8 01       		.byte	0x1
 1952 05a9 50       		.byte	0x50
 1953 05aa 17       		.uleb128 0x17
 1954 05ab 656C7000 		.ascii	"elp\000"
 1955 05af 01       		.byte	0x1
 1956 05b0 68       		.byte	0x68
 1957 05b1 50040000 		.4byte	0x450
 1958 05b5 01       		.byte	0x1
 1959 05b6 51       		.byte	0x51
 1960 05b7 1A       		.uleb128 0x1a
 1961 05b8 7000     		.ascii	"p\000"
 1962 05ba 01       		.byte	0x1
 1963 05bb 69       		.byte	0x69
 1964 05bc 50040000 		.4byte	0x450
 1965 05c0 46000000 		.4byte	.LLST3
 1966 05c4 19       		.uleb128 0x19
 1967 05c5 00000000 		.4byte	.LBB5
 1968 05c9 06000000 		.4byte	.LBE5
 1969 05cd E1050000 		.4byte	0x5e1
 1970 05d1 1A       		.uleb128 0x1a
 1971 05d2 746D7000 		.ascii	"tmp\000"
 1972 05d6 01       		.byte	0x1
 1973 05d7 6E       		.byte	0x6e
 1974 05d8 70000000 		.4byte	0x70
 1975 05dc 64000000 		.4byte	.LLST4
 1976 05e0 00       		.byte	0
 1977 05e1 1D       		.uleb128 0x1d
 1978 05e2 1A000000 		.4byte	.LBB6
 1979 05e6 22000000 		.4byte	.LBE6
 1980 05ea 1A       		.uleb128 0x1a
ARM GAS  C:\Users\LAB_ME~1\AppData\Local\Temp\ccxQGkYa.s 			page 36


 1981 05eb 746D7000 		.ascii	"tmp\000"
 1982 05ef 01       		.byte	0x1
 1983 05f0 76       		.byte	0x76
 1984 05f1 70000000 		.4byte	0x70
 1985 05f5 82000000 		.4byte	.LLST5
 1986 05f9 00       		.byte	0
 1987 05fa 00       		.byte	0
 1988 05fb 1E       		.uleb128 0x1e
 1989 05fc 01       		.byte	0x1
 1990 05fd 85010000 		.4byte	.LASF75
 1991 0601 01       		.byte	0x1
 1992 0602 81       		.byte	0x81
 1993 0603 01       		.byte	0x1
 1994 0604 DD000000 		.4byte	0xdd
 1995 0608 00000000 		.4byte	.LFB9
 1996 060c 20000000 		.4byte	.LFE9
 1997 0610 02       		.byte	0x2
 1998 0611 7D       		.byte	0x7d
 1999 0612 00       		.sleb128 0
 2000 0613 01       		.byte	0x1
 2001 0614 6B060000 		.4byte	0x66b
 2002 0618 1F       		.uleb128 0x1f
 2003 0619 22010000 		.4byte	.LASF72
 2004 061d 01       		.byte	0x1
 2005 061e 81       		.byte	0x81
 2006 061f DD000000 		.4byte	0xdd
 2007 0623 95000000 		.4byte	.LLST6
 2008 0627 1A       		.uleb128 0x1a
 2009 0628 6D00     		.ascii	"m\000"
 2010 062a 01       		.byte	0x1
 2011 062b 82       		.byte	0x82
 2012 062c DD000000 		.4byte	0xdd
 2013 0630 B6000000 		.4byte	.LLST7
 2014 0634 19       		.uleb128 0x19
 2015 0635 00000000 		.4byte	.LBB7
 2016 0639 06000000 		.4byte	.LBE7
 2017 063d 51060000 		.4byte	0x651
 2018 0641 1A       		.uleb128 0x1a
 2019 0642 746D7000 		.ascii	"tmp\000"
 2020 0646 01       		.byte	0x1
 2021 0647 84       		.byte	0x84
 2022 0648 70000000 		.4byte	0x70
 2023 064c D9000000 		.4byte	.LLST8
 2024 0650 00       		.byte	0
 2025 0651 1D       		.uleb128 0x1d
 2026 0652 12000000 		.4byte	.LBB8
 2027 0656 18000000 		.4byte	.LBE8
 2028 065a 1A       		.uleb128 0x1a
 2029 065b 746D7000 		.ascii	"tmp\000"
 2030 065f 01       		.byte	0x1
 2031 0660 89       		.byte	0x89
 2032 0661 70000000 		.4byte	0x70
 2033 0665 EC000000 		.4byte	.LLST9
 2034 0669 00       		.byte	0
 2035 066a 00       		.byte	0
 2036 066b 1E       		.uleb128 0x1e
 2037 066c 01       		.byte	0x1
ARM GAS  C:\Users\LAB_ME~1\AppData\Local\Temp\ccxQGkYa.s 			page 37


 2038 066d 30000000 		.4byte	.LASF76
 2039 0671 01       		.byte	0x1
 2040 0672 96       		.byte	0x96
 2041 0673 01       		.byte	0x1
 2042 0674 DD000000 		.4byte	0xdd
 2043 0678 00000000 		.4byte	.LFB10
 2044 067c 1C000000 		.4byte	.LFE10
 2045 0680 02       		.byte	0x2
 2046 0681 7D       		.byte	0x7d
 2047 0682 00       		.sleb128 0
 2048 0683 01       		.byte	0x1
 2049 0684 CE060000 		.4byte	0x6ce
 2050 0688 1F       		.uleb128 0x1f
 2051 0689 22010000 		.4byte	.LASF72
 2052 068d 01       		.byte	0x1
 2053 068e 96       		.byte	0x96
 2054 068f DD000000 		.4byte	0xdd
 2055 0693 FF000000 		.4byte	.LLST10
 2056 0697 19       		.uleb128 0x19
 2057 0698 00000000 		.4byte	.LBB9
 2058 069c 06000000 		.4byte	.LBE9
 2059 06a0 B4060000 		.4byte	0x6b4
 2060 06a4 1A       		.uleb128 0x1a
 2061 06a5 746D7000 		.ascii	"tmp\000"
 2062 06a9 01       		.byte	0x1
 2063 06aa 98       		.byte	0x98
 2064 06ab 70000000 		.4byte	0x70
 2065 06af 2B010000 		.4byte	.LLST11
 2066 06b3 00       		.byte	0
 2067 06b4 1D       		.uleb128 0x1d
 2068 06b5 10000000 		.4byte	.LBB10
 2069 06b9 16000000 		.4byte	.LBE10
 2070 06bd 1A       		.uleb128 0x1a
 2071 06be 746D7000 		.ascii	"tmp\000"
 2072 06c2 01       		.byte	0x1
 2073 06c3 9C       		.byte	0x9c
 2074 06c4 70000000 		.4byte	0x70
 2075 06c8 3E010000 		.4byte	.LLST12
 2076 06cc 00       		.byte	0
 2077 06cd 00       		.byte	0
 2078 06ce 1E       		.uleb128 0x1e
 2079 06cf 01       		.byte	0x1
 2080 06d0 1B040000 		.4byte	.LASF77
 2081 06d4 01       		.byte	0x1
 2082 06d5 CA       		.byte	0xca
 2083 06d6 01       		.byte	0x1
 2084 06d7 E8000000 		.4byte	0xe8
 2085 06db 00000000 		.4byte	.LFB12
 2086 06df 14000000 		.4byte	.LFE12
 2087 06e3 02       		.byte	0x2
 2088 06e4 7D       		.byte	0x7d
 2089 06e5 00       		.sleb128 0
 2090 06e6 01       		.byte	0x1
 2091 06e7 3C070000 		.4byte	0x73c
 2092 06eb 20       		.uleb128 0x20
 2093 06ec 656C7000 		.ascii	"elp\000"
 2094 06f0 01       		.byte	0x1
ARM GAS  C:\Users\LAB_ME~1\AppData\Local\Temp\ccxQGkYa.s 			page 38


 2095 06f1 CA       		.byte	0xca
 2096 06f2 50040000 		.4byte	0x450
 2097 06f6 51010000 		.4byte	.LLST13
 2098 06fa 21       		.uleb128 0x21
 2099 06fb BE030000 		.4byte	.LASF78
 2100 06ff 01       		.byte	0x1
 2101 0700 CB       		.byte	0xcb
 2102 0701 E8000000 		.4byte	0xe8
 2103 0705 01       		.byte	0x1
 2104 0706 50       		.byte	0x50
 2105 0707 19       		.uleb128 0x19
 2106 0708 02000000 		.4byte	.LBB11
 2107 070c 08000000 		.4byte	.LBE11
 2108 0710 24070000 		.4byte	0x724
 2109 0714 1A       		.uleb128 0x1a
 2110 0715 746D7000 		.ascii	"tmp\000"
 2111 0719 01       		.byte	0x1
 2112 071a CD       		.byte	0xcd
 2113 071b 70000000 		.4byte	0x70
 2114 071f 6F010000 		.4byte	.LLST14
 2115 0723 00       		.byte	0
 2116 0724 1D       		.uleb128 0x1d
 2117 0725 0E000000 		.4byte	.LBB12
 2118 0729 12000000 		.4byte	.LBE12
 2119 072d 22       		.uleb128 0x22
 2120 072e 746D7000 		.ascii	"tmp\000"
 2121 0732 01       		.byte	0x1
 2122 0733 D2       		.byte	0xd2
 2123 0734 70000000 		.4byte	0x70
 2124 0738 01       		.byte	0x1
 2125 0739 53       		.byte	0x53
 2126 073a 00       		.byte	0
 2127 073b 00       		.byte	0
 2128 073c 23       		.uleb128 0x23
 2129 073d E6040000 		.4byte	0x4e6
 2130 0741 00000000 		.4byte	.LFB14
 2131 0745 2E000000 		.4byte	.LFE14
 2132 0749 82010000 		.4byte	.LLST15
 2133 074d 01       		.byte	0x1
 2134 074e 9E070000 		.4byte	0x79e
 2135 0752 24       		.uleb128 0x24
 2136 0753 F4040000 		.4byte	0x4f4
 2137 0757 A2010000 		.4byte	.LLST16
 2138 075b 24       		.uleb128 0x24
 2139 075c FE040000 		.4byte	0x4fe
 2140 0760 CE010000 		.4byte	.LLST17
 2141 0764 25       		.uleb128 0x25
 2142 0765 E6040000 		.4byte	0x4e6
 2143 0769 1C000000 		.4byte	.LBB15
 2144 076d 26000000 		.4byte	.LBE15
 2145 0771 01       		.byte	0x1
 2146 0772 F4       		.byte	0xf4
 2147 0773 24       		.uleb128 0x24
 2148 0774 F4040000 		.4byte	0x4f4
 2149 0778 EF010000 		.4byte	.LLST18
 2150 077c 1D       		.uleb128 0x1d
 2151 077d 1C000000 		.4byte	.LBB16
ARM GAS  C:\Users\LAB_ME~1\AppData\Local\Temp\ccxQGkYa.s 			page 39


 2152 0781 26000000 		.4byte	.LBE16
 2153 0785 26       		.uleb128 0x26
 2154 0786 FE040000 		.4byte	0x4fe
 2155 078a 27       		.uleb128 0x27
 2156 078b 20000000 		.4byte	.LVL39
 2157 078f E40D0000 		.4byte	0xde4
 2158 0793 28       		.uleb128 0x28
 2159 0794 01       		.byte	0x1
 2160 0795 50       		.byte	0x50
 2161 0796 03       		.byte	0x3
 2162 0797 F3       		.byte	0xf3
 2163 0798 01       		.uleb128 0x1
 2164 0799 50       		.byte	0x50
 2165 079a 00       		.byte	0
 2166 079b 00       		.byte	0
 2167 079c 00       		.byte	0
 2168 079d 00       		.byte	0
 2169 079e 16       		.uleb128 0x16
 2170 079f 01       		.byte	0x1
 2171 07a0 0D000000 		.4byte	.LASF79
 2172 07a4 01       		.byte	0x1
 2173 07a5 DE       		.byte	0xde
 2174 07a6 01       		.byte	0x1
 2175 07a7 00000000 		.4byte	.LFB13
 2176 07ab 18000000 		.4byte	.LFE13
 2177 07af 10020000 		.4byte	.LLST19
 2178 07b3 01       		.byte	0x1
 2179 07b4 35080000 		.4byte	0x835
 2180 07b8 20       		.uleb128 0x20
 2181 07b9 747000   		.ascii	"tp\000"
 2182 07bc 01       		.byte	0x1
 2183 07bd DE       		.byte	0xde
 2184 07be 53020000 		.4byte	0x253
 2185 07c2 30020000 		.4byte	.LLST20
 2186 07c6 1F       		.uleb128 0x1f
 2187 07c7 22010000 		.4byte	.LASF72
 2188 07cb 01       		.byte	0x1
 2189 07cc DE       		.byte	0xde
 2190 07cd DD000000 		.4byte	0xdd
 2191 07d1 51020000 		.4byte	.LLST21
 2192 07d5 19       		.uleb128 0x19
 2193 07d6 02000000 		.4byte	.LBB17
 2194 07da 08000000 		.4byte	.LBE17
 2195 07de F2070000 		.4byte	0x7f2
 2196 07e2 1A       		.uleb128 0x1a
 2197 07e3 746D7000 		.ascii	"tmp\000"
 2198 07e7 01       		.byte	0x1
 2199 07e8 E2       		.byte	0xe2
 2200 07e9 70000000 		.4byte	0x70
 2201 07ed 72020000 		.4byte	.LLST22
 2202 07f1 00       		.byte	0
 2203 07f2 19       		.uleb128 0x19
 2204 07f3 10000000 		.4byte	.LBB18
 2205 07f7 18000000 		.4byte	.LBE18
 2206 07fb 0F080000 		.4byte	0x80f
 2207 07ff 1A       		.uleb128 0x1a
 2208 0800 746D7000 		.ascii	"tmp\000"
ARM GAS  C:\Users\LAB_ME~1\AppData\Local\Temp\ccxQGkYa.s 			page 40


 2209 0804 01       		.byte	0x1
 2210 0805 E5       		.byte	0xe5
 2211 0806 70000000 		.4byte	0x70
 2212 080a 85020000 		.4byte	.LLST23
 2213 080e 00       		.byte	0
 2214 080f 29       		.uleb128 0x29
 2215 0810 0C000000 		.4byte	.LVL44
 2216 0814 E6040000 		.4byte	0x4e6
 2217 0818 2B080000 		.4byte	0x82b
 2218 081c 28       		.uleb128 0x28
 2219 081d 01       		.byte	0x1
 2220 081e 51       		.byte	0x51
 2221 081f 03       		.byte	0x3
 2222 0820 F3       		.byte	0xf3
 2223 0821 01       		.uleb128 0x1
 2224 0822 51       		.byte	0x51
 2225 0823 28       		.uleb128 0x28
 2226 0824 01       		.byte	0x1
 2227 0825 50       		.byte	0x50
 2228 0826 03       		.byte	0x3
 2229 0827 F3       		.byte	0xf3
 2230 0828 01       		.uleb128 0x1
 2231 0829 50       		.byte	0x50
 2232 082a 00       		.byte	0
 2233 082b 2A       		.uleb128 0x2a
 2234 082c 10000000 		.4byte	.LVL45
 2235 0830 FC0D0000 		.4byte	0xdfc
 2236 0834 00       		.byte	0
 2237 0835 16       		.uleb128 0x16
 2238 0836 01       		.byte	0x1
 2239 0837 EC000000 		.4byte	.LASF80
 2240 083b 01       		.byte	0x1
 2241 083c B1       		.byte	0xb1
 2242 083d 01       		.byte	0x1
 2243 083e 00000000 		.4byte	.LFB11
 2244 0842 20000000 		.4byte	.LFE11
 2245 0846 98020000 		.4byte	.LLST24
 2246 084a 01       		.byte	0x1
 2247 084b 84080000 		.4byte	0x884
 2248 084f 20       		.uleb128 0x20
 2249 0850 65737000 		.ascii	"esp\000"
 2250 0854 01       		.byte	0x1
 2251 0855 B1       		.byte	0xb1
 2252 0856 7E050000 		.4byte	0x57e
 2253 085a B8020000 		.4byte	.LLST25
 2254 085e 1F       		.uleb128 0x1f
 2255 085f BE030000 		.4byte	.LASF78
 2256 0863 01       		.byte	0x1
 2257 0864 B1       		.byte	0xb1
 2258 0865 E8000000 		.4byte	0xe8
 2259 0869 D6020000 		.4byte	.LLST26
 2260 086d 22       		.uleb128 0x22
 2261 086e 656C7000 		.ascii	"elp\000"
 2262 0872 01       		.byte	0x1
 2263 0873 B2       		.byte	0xb2
 2264 0874 50040000 		.4byte	0x450
 2265 0878 01       		.byte	0x1
ARM GAS  C:\Users\LAB_ME~1\AppData\Local\Temp\ccxQGkYa.s 			page 41


 2266 0879 54       		.byte	0x54
 2267 087a 2A       		.uleb128 0x2a
 2268 087b 18000000 		.4byte	.LVL51
 2269 087f E6040000 		.4byte	0x4e6
 2270 0883 00       		.byte	0
 2271 0884 2B       		.uleb128 0x2b
 2272 0885 01       		.byte	0x1
 2273 0886 30010000 		.4byte	.LASF81
 2274 088a 01       		.byte	0x1
 2275 088b 0F01     		.2byte	0x10f
 2276 088d 01       		.byte	0x1
 2277 088e 00000000 		.4byte	.LFB15
 2278 0892 18000000 		.4byte	.LFE15
 2279 0896 F4020000 		.4byte	.LLST27
 2280 089a 01       		.byte	0x1
 2281 089b 21090000 		.4byte	0x921
 2282 089f 2C       		.uleb128 0x2c
 2283 08a0 65737000 		.ascii	"esp\000"
 2284 08a4 01       		.byte	0x1
 2285 08a5 0F01     		.2byte	0x10f
 2286 08a7 7E050000 		.4byte	0x57e
 2287 08ab 14030000 		.4byte	.LLST28
 2288 08af 2D       		.uleb128 0x2d
 2289 08b0 BE030000 		.4byte	.LASF78
 2290 08b4 01       		.byte	0x1
 2291 08b5 0F01     		.2byte	0x10f
 2292 08b7 E8000000 		.4byte	0xe8
 2293 08bb 35030000 		.4byte	.LLST29
 2294 08bf 19       		.uleb128 0x19
 2295 08c0 02000000 		.4byte	.LBB19
 2296 08c4 08000000 		.4byte	.LBE19
 2297 08c8 DD080000 		.4byte	0x8dd
 2298 08cc 2E       		.uleb128 0x2e
 2299 08cd 746D7000 		.ascii	"tmp\000"
 2300 08d1 01       		.byte	0x1
 2301 08d2 1101     		.2byte	0x111
 2302 08d4 70000000 		.4byte	0x70
 2303 08d8 56030000 		.4byte	.LLST30
 2304 08dc 00       		.byte	0
 2305 08dd 19       		.uleb128 0x19
 2306 08de 10000000 		.4byte	.LBB20
 2307 08e2 18000000 		.4byte	.LBE20
 2308 08e6 FB080000 		.4byte	0x8fb
 2309 08ea 2E       		.uleb128 0x2e
 2310 08eb 746D7000 		.ascii	"tmp\000"
 2311 08ef 01       		.byte	0x1
 2312 08f0 1401     		.2byte	0x114
 2313 08f2 70000000 		.4byte	0x70
 2314 08f6 69030000 		.4byte	.LLST31
 2315 08fa 00       		.byte	0
 2316 08fb 29       		.uleb128 0x29
 2317 08fc 0C000000 		.4byte	.LVL56
 2318 0900 35080000 		.4byte	0x835
 2319 0904 17090000 		.4byte	0x917
 2320 0908 28       		.uleb128 0x28
 2321 0909 01       		.byte	0x1
 2322 090a 51       		.byte	0x51
ARM GAS  C:\Users\LAB_ME~1\AppData\Local\Temp\ccxQGkYa.s 			page 42


 2323 090b 03       		.byte	0x3
 2324 090c F3       		.byte	0xf3
 2325 090d 01       		.uleb128 0x1
 2326 090e 51       		.byte	0x51
 2327 090f 28       		.uleb128 0x28
 2328 0910 01       		.byte	0x1
 2329 0911 50       		.byte	0x50
 2330 0912 03       		.byte	0x3
 2331 0913 F3       		.byte	0xf3
 2332 0914 01       		.uleb128 0x1
 2333 0915 50       		.byte	0x50
 2334 0916 00       		.byte	0
 2335 0917 2A       		.uleb128 0x2a
 2336 0918 10000000 		.4byte	.LVL57
 2337 091c FC0D0000 		.4byte	0xdfc
 2338 0920 00       		.byte	0
 2339 0921 2F       		.uleb128 0x2f
 2340 0922 01       		.byte	0x1
 2341 0923 EF020000 		.4byte	.LASF82
 2342 0927 01       		.byte	0x1
 2343 0928 2201     		.2byte	0x122
 2344 092a 01       		.byte	0x1
 2345 092b E8000000 		.4byte	0xe8
 2346 092f 00000000 		.4byte	.LFB16
 2347 0933 0A000000 		.4byte	.LFE16
 2348 0937 02       		.byte	0x2
 2349 0938 7D       		.byte	0x7d
 2350 0939 00       		.sleb128 0
 2351 093a 01       		.byte	0x1
 2352 093b 5E090000 		.4byte	0x95e
 2353 093f 2C       		.uleb128 0x2c
 2354 0940 656C7000 		.ascii	"elp\000"
 2355 0944 01       		.byte	0x1
 2356 0945 2201     		.2byte	0x122
 2357 0947 50040000 		.4byte	0x450
 2358 094b 7C030000 		.4byte	.LLST32
 2359 094f 30       		.uleb128 0x30
 2360 0950 BE030000 		.4byte	.LASF78
 2361 0954 01       		.byte	0x1
 2362 0955 2301     		.2byte	0x123
 2363 0957 E8000000 		.4byte	0xe8
 2364 095b 01       		.byte	0x1
 2365 095c 50       		.byte	0x50
 2366 095d 00       		.byte	0
 2367 095e 2B       		.uleb128 0x2b
 2368 095f 01       		.byte	0x1
 2369 0960 16020000 		.4byte	.LASF83
 2370 0964 01       		.byte	0x1
 2371 0965 3401     		.2byte	0x134
 2372 0967 01       		.byte	0x1
 2373 0968 00000000 		.4byte	.LFB17
 2374 096c 2E000000 		.4byte	.LFE17
 2375 0970 9A030000 		.4byte	.LLST33
 2376 0974 01       		.byte	0x1
 2377 0975 B6090000 		.4byte	0x9b6
 2378 0979 2D       		.uleb128 0x2d
 2379 097a 6A020000 		.4byte	.LASF84
ARM GAS  C:\Users\LAB_ME~1\AppData\Local\Temp\ccxQGkYa.s 			page 43


 2380 097e 01       		.byte	0x1
 2381 097f 3401     		.2byte	0x134
 2382 0981 B6090000 		.4byte	0x9b6
 2383 0985 BA030000 		.4byte	.LLST34
 2384 0989 2D       		.uleb128 0x2d
 2385 098a 22010000 		.4byte	.LASF72
 2386 098e 01       		.byte	0x1
 2387 098f 3401     		.2byte	0x134
 2388 0991 DD000000 		.4byte	0xdd
 2389 0995 D8030000 		.4byte	.LLST35
 2390 0999 2E       		.uleb128 0x2e
 2391 099a 65696400 		.ascii	"eid\000"
 2392 099e 01       		.byte	0x1
 2393 099f 3501     		.2byte	0x135
 2394 09a1 D2000000 		.4byte	0xd2
 2395 09a5 F6030000 		.4byte	.LLST36
 2396 09a9 31       		.uleb128 0x31
 2397 09aa 28000000 		.4byte	.LVL67
 2398 09ae 28       		.uleb128 0x28
 2399 09af 01       		.byte	0x1
 2400 09b0 50       		.byte	0x50
 2401 09b1 02       		.byte	0x2
 2402 09b2 74       		.byte	0x74
 2403 09b3 7F       		.sleb128 -1
 2404 09b4 00       		.byte	0
 2405 09b5 00       		.byte	0
 2406 09b6 09       		.uleb128 0x9
 2407 09b7 04       		.byte	0x4
 2408 09b8 BC090000 		.4byte	0x9bc
 2409 09bc 12       		.uleb128 0x12
 2410 09bd 7C040000 		.4byte	0x47c
 2411 09c1 32       		.uleb128 0x32
 2412 09c2 01       		.byte	0x1
 2413 09c3 A0020000 		.4byte	.LASF85
 2414 09c7 01       		.byte	0x1
 2415 09c8 5701     		.2byte	0x157
 2416 09ca 01       		.byte	0x1
 2417 09cb DD000000 		.4byte	0xdd
 2418 09cf 00000000 		.4byte	.LFB18
 2419 09d3 3C000000 		.4byte	.LFE18
 2420 09d7 20040000 		.4byte	.LLST37
 2421 09db 01       		.byte	0x1
 2422 09dc 580A0000 		.4byte	0xa58
 2423 09e0 2D       		.uleb128 0x2d
 2424 09e1 22010000 		.4byte	.LASF72
 2425 09e5 01       		.byte	0x1
 2426 09e6 5701     		.2byte	0x157
 2427 09e8 DD000000 		.4byte	0xdd
 2428 09ec 40040000 		.4byte	.LLST38
 2429 09f0 33       		.uleb128 0x33
 2430 09f1 63747000 		.ascii	"ctp\000"
 2431 09f5 01       		.byte	0x1
 2432 09f6 5801     		.2byte	0x158
 2433 09f8 53020000 		.4byte	0x253
 2434 09fc 01       		.byte	0x1
 2435 09fd 54       		.byte	0x54
 2436 09fe 2E       		.uleb128 0x2e
ARM GAS  C:\Users\LAB_ME~1\AppData\Local\Temp\ccxQGkYa.s 			page 44


 2437 09ff 6D00     		.ascii	"m\000"
 2438 0a01 01       		.byte	0x1
 2439 0a02 5901     		.2byte	0x159
 2440 0a04 DD000000 		.4byte	0xdd
 2441 0a08 5E040000 		.4byte	.LLST39
 2442 0a0c 19       		.uleb128 0x19
 2443 0a0d 08000000 		.4byte	.LBB21
 2444 0a11 0E000000 		.4byte	.LBE21
 2445 0a15 2A0A0000 		.4byte	0xa2a
 2446 0a19 2E       		.uleb128 0x2e
 2447 0a1a 746D7000 		.ascii	"tmp\000"
 2448 0a1e 01       		.byte	0x1
 2449 0a1f 5B01     		.2byte	0x15b
 2450 0a21 70000000 		.4byte	0x70
 2451 0a25 97040000 		.4byte	.LLST40
 2452 0a29 00       		.byte	0
 2453 0a2a 19       		.uleb128 0x19
 2454 0a2b 2E000000 		.4byte	.LBB22
 2455 0a2f 34000000 		.4byte	.LBE22
 2456 0a33 480A0000 		.4byte	0xa48
 2457 0a37 2E       		.uleb128 0x2e
 2458 0a38 746D7000 		.ascii	"tmp\000"
 2459 0a3c 01       		.byte	0x1
 2460 0a3d 6501     		.2byte	0x165
 2461 0a3f 70000000 		.4byte	0x70
 2462 0a43 AA040000 		.4byte	.LLST41
 2463 0a47 00       		.byte	0
 2464 0a48 27       		.uleb128 0x27
 2465 0a49 1E000000 		.4byte	.LVL76
 2466 0a4d 060E0000 		.4byte	0xe06
 2467 0a51 28       		.uleb128 0x28
 2468 0a52 01       		.byte	0x1
 2469 0a53 50       		.byte	0x50
 2470 0a54 01       		.byte	0x1
 2471 0a55 38       		.byte	0x38
 2472 0a56 00       		.byte	0
 2473 0a57 00       		.byte	0
 2474 0a58 32       		.uleb128 0x32
 2475 0a59 01       		.byte	0x1
 2476 0a5a CA000000 		.4byte	.LASF86
 2477 0a5e 01       		.byte	0x1
 2478 0a5f 7401     		.2byte	0x174
 2479 0a61 01       		.byte	0x1
 2480 0a62 DD000000 		.4byte	0xdd
 2481 0a66 00000000 		.4byte	.LFB19
 2482 0a6a 34000000 		.4byte	.LFE19
 2483 0a6e BD040000 		.4byte	.LLST42
 2484 0a72 01       		.byte	0x1
 2485 0a73 EF0A0000 		.4byte	0xaef
 2486 0a77 2D       		.uleb128 0x2d
 2487 0a78 22010000 		.4byte	.LASF72
 2488 0a7c 01       		.byte	0x1
 2489 0a7d 7401     		.2byte	0x174
 2490 0a7f DD000000 		.4byte	0xdd
 2491 0a83 DD040000 		.4byte	.LLST43
 2492 0a87 33       		.uleb128 0x33
 2493 0a88 63747000 		.ascii	"ctp\000"
ARM GAS  C:\Users\LAB_ME~1\AppData\Local\Temp\ccxQGkYa.s 			page 45


 2494 0a8c 01       		.byte	0x1
 2495 0a8d 7501     		.2byte	0x175
 2496 0a8f 53020000 		.4byte	0x253
 2497 0a93 01       		.byte	0x1
 2498 0a94 54       		.byte	0x54
 2499 0a95 2E       		.uleb128 0x2e
 2500 0a96 6D00     		.ascii	"m\000"
 2501 0a98 01       		.byte	0x1
 2502 0a99 7601     		.2byte	0x176
 2503 0a9b DD000000 		.4byte	0xdd
 2504 0a9f FB040000 		.4byte	.LLST44
 2505 0aa3 19       		.uleb128 0x19
 2506 0aa4 08000000 		.4byte	.LBB23
 2507 0aa8 0E000000 		.4byte	.LBE23
 2508 0aac C10A0000 		.4byte	0xac1
 2509 0ab0 2E       		.uleb128 0x2e
 2510 0ab1 746D7000 		.ascii	"tmp\000"
 2511 0ab5 01       		.byte	0x1
 2512 0ab6 7801     		.2byte	0x178
 2513 0ab8 70000000 		.4byte	0x70
 2514 0abc 39050000 		.4byte	.LLST45
 2515 0ac0 00       		.byte	0
 2516 0ac1 19       		.uleb128 0x19
 2517 0ac2 28000000 		.4byte	.LBB24
 2518 0ac6 2E000000 		.4byte	.LBE24
 2519 0aca DF0A0000 		.4byte	0xadf
 2520 0ace 2E       		.uleb128 0x2e
 2521 0acf 746D7000 		.ascii	"tmp\000"
 2522 0ad3 01       		.byte	0x1
 2523 0ad4 8101     		.2byte	0x181
 2524 0ad6 70000000 		.4byte	0x70
 2525 0ada 4C050000 		.4byte	.LLST46
 2526 0ade 00       		.byte	0
 2527 0adf 27       		.uleb128 0x27
 2528 0ae0 1C000000 		.4byte	.LVL88
 2529 0ae4 060E0000 		.4byte	0xe06
 2530 0ae8 28       		.uleb128 0x28
 2531 0ae9 01       		.byte	0x1
 2532 0aea 50       		.byte	0x50
 2533 0aeb 01       		.byte	0x1
 2534 0aec 38       		.byte	0x38
 2535 0aed 00       		.byte	0
 2536 0aee 00       		.byte	0
 2537 0aef 32       		.uleb128 0x32
 2538 0af0 01       		.byte	0x1
 2539 0af1 BD000000 		.4byte	.LASF87
 2540 0af5 01       		.byte	0x1
 2541 0af6 9001     		.2byte	0x190
 2542 0af8 01       		.byte	0x1
 2543 0af9 DD000000 		.4byte	0xdd
 2544 0afd 00000000 		.4byte	.LFB20
 2545 0b01 38000000 		.4byte	.LFE20
 2546 0b05 5F050000 		.4byte	.LLST47
 2547 0b09 01       		.byte	0x1
 2548 0b0a 780B0000 		.4byte	0xb78
 2549 0b0e 2D       		.uleb128 0x2d
 2550 0b0f 22010000 		.4byte	.LASF72
ARM GAS  C:\Users\LAB_ME~1\AppData\Local\Temp\ccxQGkYa.s 			page 46


 2551 0b13 01       		.byte	0x1
 2552 0b14 9001     		.2byte	0x190
 2553 0b16 DD000000 		.4byte	0xdd
 2554 0b1a 7F050000 		.4byte	.LLST48
 2555 0b1e 33       		.uleb128 0x33
 2556 0b1f 63747000 		.ascii	"ctp\000"
 2557 0b23 01       		.byte	0x1
 2558 0b24 9101     		.2byte	0x191
 2559 0b26 53020000 		.4byte	0x253
 2560 0b2a 01       		.byte	0x1
 2561 0b2b 55       		.byte	0x55
 2562 0b2c 19       		.uleb128 0x19
 2563 0b2d 08000000 		.4byte	.LBB25
 2564 0b31 0E000000 		.4byte	.LBE25
 2565 0b35 4A0B0000 		.4byte	0xb4a
 2566 0b39 2E       		.uleb128 0x2e
 2567 0b3a 746D7000 		.ascii	"tmp\000"
 2568 0b3e 01       		.byte	0x1
 2569 0b3f 9301     		.2byte	0x193
 2570 0b41 70000000 		.4byte	0x70
 2571 0b45 9D050000 		.4byte	.LLST49
 2572 0b49 00       		.byte	0
 2573 0b4a 19       		.uleb128 0x19
 2574 0b4b 28000000 		.4byte	.LBB26
 2575 0b4f 2E000000 		.4byte	.LBE26
 2576 0b53 680B0000 		.4byte	0xb68
 2577 0b57 2E       		.uleb128 0x2e
 2578 0b58 746D7000 		.ascii	"tmp\000"
 2579 0b5c 01       		.byte	0x1
 2580 0b5d 9B01     		.2byte	0x19b
 2581 0b5f 70000000 		.4byte	0x70
 2582 0b63 B0050000 		.4byte	.LLST50
 2583 0b67 00       		.byte	0
 2584 0b68 27       		.uleb128 0x27
 2585 0b69 20000000 		.4byte	.LVL98
 2586 0b6d 060E0000 		.4byte	0xe06
 2587 0b71 28       		.uleb128 0x28
 2588 0b72 01       		.byte	0x1
 2589 0b73 50       		.byte	0x50
 2590 0b74 01       		.byte	0x1
 2591 0b75 39       		.byte	0x39
 2592 0b76 00       		.byte	0
 2593 0b77 00       		.byte	0
 2594 0b78 32       		.uleb128 0x32
 2595 0b79 01       		.byte	0x1
 2596 0b7a F1030000 		.4byte	.LASF88
 2597 0b7e 01       		.byte	0x1
 2598 0b7f B701     		.2byte	0x1b7
 2599 0b81 01       		.byte	0x1
 2600 0b82 DD000000 		.4byte	0xdd
 2601 0b86 00000000 		.4byte	.LFB21
 2602 0b8a 4C000000 		.4byte	.LFE21
 2603 0b8e C3050000 		.4byte	.LLST51
 2604 0b92 01       		.byte	0x1
 2605 0b93 3D0C0000 		.4byte	0xc3d
 2606 0b97 2D       		.uleb128 0x2d
 2607 0b98 22010000 		.4byte	.LASF72
ARM GAS  C:\Users\LAB_ME~1\AppData\Local\Temp\ccxQGkYa.s 			page 47


 2608 0b9c 01       		.byte	0x1
 2609 0b9d B701     		.2byte	0x1b7
 2610 0b9f DD000000 		.4byte	0xdd
 2611 0ba3 E3050000 		.4byte	.LLST52
 2612 0ba7 2D       		.uleb128 0x2d
 2613 0ba8 3F020000 		.4byte	.LASF89
 2614 0bac 01       		.byte	0x1
 2615 0bad B701     		.2byte	0x1b7
 2616 0baf F3000000 		.4byte	0xf3
 2617 0bb3 17060000 		.4byte	.LLST53
 2618 0bb7 33       		.uleb128 0x33
 2619 0bb8 63747000 		.ascii	"ctp\000"
 2620 0bbc 01       		.byte	0x1
 2621 0bbd B801     		.2byte	0x1b8
 2622 0bbf 53020000 		.4byte	0x253
 2623 0bc3 01       		.byte	0x1
 2624 0bc4 56       		.byte	0x56
 2625 0bc5 2E       		.uleb128 0x2e
 2626 0bc6 6D00     		.ascii	"m\000"
 2627 0bc8 01       		.byte	0x1
 2628 0bc9 B901     		.2byte	0x1b9
 2629 0bcb DD000000 		.4byte	0xdd
 2630 0bcf 51060000 		.4byte	.LLST54
 2631 0bd3 19       		.uleb128 0x19
 2632 0bd4 08000000 		.4byte	.LBB27
 2633 0bd8 0E000000 		.4byte	.LBE27
 2634 0bdc F10B0000 		.4byte	0xbf1
 2635 0be0 2E       		.uleb128 0x2e
 2636 0be1 746D7000 		.ascii	"tmp\000"
 2637 0be5 01       		.byte	0x1
 2638 0be6 BB01     		.2byte	0x1bb
 2639 0be8 70000000 		.4byte	0x70
 2640 0bec 74060000 		.4byte	.LLST55
 2641 0bf0 00       		.byte	0
 2642 0bf1 19       		.uleb128 0x19
 2643 0bf2 18000000 		.4byte	.LBB28
 2644 0bf6 1E000000 		.4byte	.LBE28
 2645 0bfa 0F0C0000 		.4byte	0xc0f
 2646 0bfe 2E       		.uleb128 0x2e
 2647 0bff 746D7000 		.ascii	"tmp\000"
 2648 0c03 01       		.byte	0x1
 2649 0c04 C401     		.2byte	0x1c4
 2650 0c06 70000000 		.4byte	0x70
 2651 0c0a 87060000 		.4byte	.LLST56
 2652 0c0e 00       		.byte	0
 2653 0c0f 19       		.uleb128 0x19
 2654 0c10 3E000000 		.4byte	.LBB29
 2655 0c14 44000000 		.4byte	.LBE29
 2656 0c18 2D0C0000 		.4byte	0xc2d
 2657 0c1c 2E       		.uleb128 0x2e
 2658 0c1d 746D7000 		.ascii	"tmp\000"
 2659 0c21 01       		.byte	0x1
 2660 0c22 CC01     		.2byte	0x1cc
 2661 0c24 70000000 		.4byte	0x70
 2662 0c28 9A060000 		.4byte	.LLST57
 2663 0c2c 00       		.byte	0
 2664 0c2d 27       		.uleb128 0x27
ARM GAS  C:\Users\LAB_ME~1\AppData\Local\Temp\ccxQGkYa.s 			page 48


 2665 0c2e 2A000000 		.4byte	.LVL112
 2666 0c32 1A0E0000 		.4byte	0xe1a
 2667 0c36 28       		.uleb128 0x28
 2668 0c37 01       		.byte	0x1
 2669 0c38 50       		.byte	0x50
 2670 0c39 01       		.byte	0x1
 2671 0c3a 38       		.byte	0x38
 2672 0c3b 00       		.byte	0
 2673 0c3c 00       		.byte	0
 2674 0c3d 32       		.uleb128 0x32
 2675 0c3e 01       		.byte	0x1
 2676 0c3f 48000000 		.4byte	.LASF90
 2677 0c43 01       		.byte	0x1
 2678 0c44 E201     		.2byte	0x1e2
 2679 0c46 01       		.byte	0x1
 2680 0c47 DD000000 		.4byte	0xdd
 2681 0c4b 00000000 		.4byte	.LFB22
 2682 0c4f 48000000 		.4byte	.LFE22
 2683 0c53 AD060000 		.4byte	.LLST58
 2684 0c57 01       		.byte	0x1
 2685 0c58 020D0000 		.4byte	0xd02
 2686 0c5c 2D       		.uleb128 0x2d
 2687 0c5d 22010000 		.4byte	.LASF72
 2688 0c61 01       		.byte	0x1
 2689 0c62 E201     		.2byte	0x1e2
 2690 0c64 DD000000 		.4byte	0xdd
 2691 0c68 CD060000 		.4byte	.LLST59
 2692 0c6c 2D       		.uleb128 0x2d
 2693 0c6d 3F020000 		.4byte	.LASF89
 2694 0c71 01       		.byte	0x1
 2695 0c72 E201     		.2byte	0x1e2
 2696 0c74 F3000000 		.4byte	0xf3
 2697 0c78 01070000 		.4byte	.LLST60
 2698 0c7c 33       		.uleb128 0x33
 2699 0c7d 63747000 		.ascii	"ctp\000"
 2700 0c81 01       		.byte	0x1
 2701 0c82 E301     		.2byte	0x1e3
 2702 0c84 53020000 		.4byte	0x253
 2703 0c88 01       		.byte	0x1
 2704 0c89 56       		.byte	0x56
 2705 0c8a 2E       		.uleb128 0x2e
 2706 0c8b 6D00     		.ascii	"m\000"
 2707 0c8d 01       		.byte	0x1
 2708 0c8e E401     		.2byte	0x1e4
 2709 0c90 DD000000 		.4byte	0xdd
 2710 0c94 3B070000 		.4byte	.LLST61
 2711 0c98 19       		.uleb128 0x19
 2712 0c99 08000000 		.4byte	.LBB30
 2713 0c9d 0E000000 		.4byte	.LBE30
 2714 0ca1 B60C0000 		.4byte	0xcb6
 2715 0ca5 2E       		.uleb128 0x2e
 2716 0ca6 746D7000 		.ascii	"tmp\000"
 2717 0caa 01       		.byte	0x1
 2718 0cab E601     		.2byte	0x1e6
 2719 0cad 70000000 		.4byte	0x70
 2720 0cb1 5E070000 		.4byte	.LLST62
 2721 0cb5 00       		.byte	0
ARM GAS  C:\Users\LAB_ME~1\AppData\Local\Temp\ccxQGkYa.s 			page 49


 2722 0cb6 19       		.uleb128 0x19
 2723 0cb7 18000000 		.4byte	.LBB31
 2724 0cbb 1E000000 		.4byte	.LBE31
 2725 0cbf D40C0000 		.4byte	0xcd4
 2726 0cc3 2E       		.uleb128 0x2e
 2727 0cc4 746D7000 		.ascii	"tmp\000"
 2728 0cc8 01       		.byte	0x1
 2729 0cc9 EF01     		.2byte	0x1ef
 2730 0ccb 70000000 		.4byte	0x70
 2731 0ccf 87070000 		.4byte	.LLST63
 2732 0cd3 00       		.byte	0
 2733 0cd4 19       		.uleb128 0x19
 2734 0cd5 3A000000 		.4byte	.LBB32
 2735 0cd9 40000000 		.4byte	.LBE32
 2736 0cdd F20C0000 		.4byte	0xcf2
 2737 0ce1 2E       		.uleb128 0x2e
 2738 0ce2 746D7000 		.ascii	"tmp\000"
 2739 0ce6 01       		.byte	0x1
 2740 0ce7 F601     		.2byte	0x1f6
 2741 0ce9 70000000 		.4byte	0x70
 2742 0ced 9A070000 		.4byte	.LLST64
 2743 0cf1 00       		.byte	0
 2744 0cf2 27       		.uleb128 0x27
 2745 0cf3 2A000000 		.4byte	.LVL128
 2746 0cf7 1A0E0000 		.4byte	0xe1a
 2747 0cfb 28       		.uleb128 0x28
 2748 0cfc 01       		.byte	0x1
 2749 0cfd 50       		.byte	0x50
 2750 0cfe 01       		.byte	0x1
 2751 0cff 38       		.byte	0x38
 2752 0d00 00       		.byte	0
 2753 0d01 00       		.byte	0
 2754 0d02 32       		.uleb128 0x32
 2755 0d03 01       		.byte	0x1
 2756 0d04 7D000000 		.4byte	.LASF91
 2757 0d08 01       		.byte	0x1
 2758 0d09 0B02     		.2byte	0x20b
 2759 0d0b 01       		.byte	0x1
 2760 0d0c DD000000 		.4byte	0xdd
 2761 0d10 00000000 		.4byte	.LFB23
 2762 0d14 54000000 		.4byte	.LFE23
 2763 0d18 AD070000 		.4byte	.LLST65
 2764 0d1c 01       		.byte	0x1
 2765 0d1d D70D0000 		.4byte	0xdd7
 2766 0d21 2D       		.uleb128 0x2d
 2767 0d22 22010000 		.4byte	.LASF72
 2768 0d26 01       		.byte	0x1
 2769 0d27 0B02     		.2byte	0x20b
 2770 0d29 DD000000 		.4byte	0xdd
 2771 0d2d CD070000 		.4byte	.LLST66
 2772 0d31 2D       		.uleb128 0x2d
 2773 0d32 3F020000 		.4byte	.LASF89
 2774 0d36 01       		.byte	0x1
 2775 0d37 0B02     		.2byte	0x20b
 2776 0d39 F3000000 		.4byte	0xf3
 2777 0d3d 2B080000 		.4byte	.LLST67
 2778 0d41 33       		.uleb128 0x33
ARM GAS  C:\Users\LAB_ME~1\AppData\Local\Temp\ccxQGkYa.s 			page 50


 2779 0d42 63747000 		.ascii	"ctp\000"
 2780 0d46 01       		.byte	0x1
 2781 0d47 0C02     		.2byte	0x20c
 2782 0d49 53020000 		.4byte	0x253
 2783 0d4d 01       		.byte	0x1
 2784 0d4e 55       		.byte	0x55
 2785 0d4f 19       		.uleb128 0x19
 2786 0d50 08000000 		.4byte	.LBB33
 2787 0d54 0E000000 		.4byte	.LBE33
 2788 0d58 6D0D0000 		.4byte	0xd6d
 2789 0d5c 2E       		.uleb128 0x2e
 2790 0d5d 746D7000 		.ascii	"tmp\000"
 2791 0d61 01       		.byte	0x1
 2792 0d62 0E02     		.2byte	0x20e
 2793 0d64 70000000 		.4byte	0x70
 2794 0d68 4C080000 		.4byte	.LLST68
 2795 0d6c 00       		.byte	0
 2796 0d6d 19       		.uleb128 0x19
 2797 0d6e 1A000000 		.4byte	.LBB34
 2798 0d72 20000000 		.4byte	.LBE34
 2799 0d76 8B0D0000 		.4byte	0xd8b
 2800 0d7a 2E       		.uleb128 0x2e
 2801 0d7b 746D7000 		.ascii	"tmp\000"
 2802 0d7f 01       		.byte	0x1
 2803 0d80 1202     		.2byte	0x212
 2804 0d82 70000000 		.4byte	0x70
 2805 0d86 5F080000 		.4byte	.LLST69
 2806 0d8a 00       		.byte	0
 2807 0d8b 19       		.uleb128 0x19
 2808 0d8c 3A000000 		.4byte	.LBB35
 2809 0d90 40000000 		.4byte	.LBE35
 2810 0d94 A90D0000 		.4byte	0xda9
 2811 0d98 2E       		.uleb128 0x2e
 2812 0d99 746D7000 		.ascii	"tmp\000"
 2813 0d9d 01       		.byte	0x1
 2814 0d9e 1D02     		.2byte	0x21d
 2815 0da0 70000000 		.4byte	0x70
 2816 0da4 72080000 		.4byte	.LLST70
 2817 0da8 00       		.byte	0
 2818 0da9 19       		.uleb128 0x19
 2819 0daa 44000000 		.4byte	.LBB36
 2820 0dae 4A000000 		.4byte	.LBE36
 2821 0db2 C70D0000 		.4byte	0xdc7
 2822 0db6 2E       		.uleb128 0x2e
 2823 0db7 746D7000 		.ascii	"tmp\000"
 2824 0dbb 01       		.byte	0x1
 2825 0dbc 1702     		.2byte	0x217
 2826 0dbe 70000000 		.4byte	0x70
 2827 0dc2 85080000 		.4byte	.LLST71
 2828 0dc6 00       		.byte	0
 2829 0dc7 27       		.uleb128 0x27
 2830 0dc8 2E000000 		.4byte	.LVL142
 2831 0dcc 1A0E0000 		.4byte	0xe1a
 2832 0dd0 28       		.uleb128 0x28
 2833 0dd1 01       		.byte	0x1
 2834 0dd2 50       		.byte	0x50
 2835 0dd3 01       		.byte	0x1
ARM GAS  C:\Users\LAB_ME~1\AppData\Local\Temp\ccxQGkYa.s 			page 51


 2836 0dd4 39       		.byte	0x39
 2837 0dd5 00       		.byte	0
 2838 0dd6 00       		.byte	0
 2839 0dd7 34       		.uleb128 0x34
 2840 0dd8 B0030000 		.4byte	.LASF98
 2841 0ddc 07       		.byte	0x7
 2842 0ddd 68       		.byte	0x68
 2843 0dde AD030000 		.4byte	0x3ad
 2844 0de2 01       		.byte	0x1
 2845 0de3 01       		.byte	0x1
 2846 0de4 35       		.uleb128 0x35
 2847 0de5 01       		.byte	0x1
 2848 0de6 4D030000 		.4byte	.LASF99
 2849 0dea 07       		.byte	0x7
 2850 0deb 89       		.byte	0x89
 2851 0dec 01       		.byte	0x1
 2852 0ded 53020000 		.4byte	0x253
 2853 0df1 01       		.byte	0x1
 2854 0df2 FC0D0000 		.4byte	0xdfc
 2855 0df6 0F       		.uleb128 0xf
 2856 0df7 53020000 		.4byte	0x253
 2857 0dfb 00       		.byte	0
 2858 0dfc 36       		.uleb128 0x36
 2859 0dfd 01       		.byte	0x1
 2860 0dfe 09010000 		.4byte	.LASF100
 2861 0e02 07       		.byte	0x7
 2862 0e03 95       		.byte	0x95
 2863 0e04 01       		.byte	0x1
 2864 0e05 01       		.byte	0x1
 2865 0e06 37       		.uleb128 0x37
 2866 0e07 01       		.byte	0x1
 2867 0e08 23030000 		.4byte	.LASF93
 2868 0e0c 07       		.byte	0x7
 2869 0e0d 8C       		.byte	0x8c
 2870 0e0e 01       		.byte	0x1
 2871 0e0f 01       		.byte	0x1
 2872 0e10 1A0E0000 		.4byte	0xe1a
 2873 0e14 0F       		.uleb128 0xf
 2874 0e15 9B000000 		.4byte	0x9b
 2875 0e19 00       		.byte	0
 2876 0e1a 38       		.uleb128 0x38
 2877 0e1b 01       		.byte	0x1
 2878 0e1c D7000000 		.4byte	.LASF94
 2879 0e20 07       		.byte	0x7
 2880 0e21 8F       		.byte	0x8f
 2881 0e22 01       		.byte	0x1
 2882 0e23 C7000000 		.4byte	0xc7
 2883 0e27 01       		.byte	0x1
 2884 0e28 0F       		.uleb128 0xf
 2885 0e29 9B000000 		.4byte	0x9b
 2886 0e2d 0F       		.uleb128 0xf
 2887 0e2e F3000000 		.4byte	0xf3
 2888 0e32 00       		.byte	0
 2889 0e33 00       		.byte	0
 2890              		.section	.debug_abbrev,"",%progbits
 2891              	.Ldebug_abbrev0:
 2892 0000 01       		.uleb128 0x1
ARM GAS  C:\Users\LAB_ME~1\AppData\Local\Temp\ccxQGkYa.s 			page 52


 2893 0001 11       		.uleb128 0x11
 2894 0002 01       		.byte	0x1
 2895 0003 25       		.uleb128 0x25
 2896 0004 0E       		.uleb128 0xe
 2897 0005 13       		.uleb128 0x13
 2898 0006 0B       		.uleb128 0xb
 2899 0007 03       		.uleb128 0x3
 2900 0008 0E       		.uleb128 0xe
 2901 0009 1B       		.uleb128 0x1b
 2902 000a 0E       		.uleb128 0xe
 2903 000b 55       		.uleb128 0x55
 2904 000c 06       		.uleb128 0x6
 2905 000d 11       		.uleb128 0x11
 2906 000e 01       		.uleb128 0x1
 2907 000f 52       		.uleb128 0x52
 2908 0010 01       		.uleb128 0x1
 2909 0011 10       		.uleb128 0x10
 2910 0012 06       		.uleb128 0x6
 2911 0013 00       		.byte	0
 2912 0014 00       		.byte	0
 2913 0015 02       		.uleb128 0x2
 2914 0016 24       		.uleb128 0x24
 2915 0017 00       		.byte	0
 2916 0018 0B       		.uleb128 0xb
 2917 0019 0B       		.uleb128 0xb
 2918 001a 3E       		.uleb128 0x3e
 2919 001b 0B       		.uleb128 0xb
 2920 001c 03       		.uleb128 0x3
 2921 001d 08       		.uleb128 0x8
 2922 001e 00       		.byte	0
 2923 001f 00       		.byte	0
 2924 0020 03       		.uleb128 0x3
 2925 0021 24       		.uleb128 0x24
 2926 0022 00       		.byte	0
 2927 0023 0B       		.uleb128 0xb
 2928 0024 0B       		.uleb128 0xb
 2929 0025 3E       		.uleb128 0x3e
 2930 0026 0B       		.uleb128 0xb
 2931 0027 03       		.uleb128 0x3
 2932 0028 0E       		.uleb128 0xe
 2933 0029 00       		.byte	0
 2934 002a 00       		.byte	0
 2935 002b 04       		.uleb128 0x4
 2936 002c 16       		.uleb128 0x16
 2937 002d 00       		.byte	0
 2938 002e 03       		.uleb128 0x3
 2939 002f 0E       		.uleb128 0xe
 2940 0030 3A       		.uleb128 0x3a
 2941 0031 0B       		.uleb128 0xb
 2942 0032 3B       		.uleb128 0x3b
 2943 0033 0B       		.uleb128 0xb
 2944 0034 49       		.uleb128 0x49
 2945 0035 13       		.uleb128 0x13
 2946 0036 00       		.byte	0
 2947 0037 00       		.byte	0
 2948 0038 05       		.uleb128 0x5
 2949 0039 13       		.uleb128 0x13
ARM GAS  C:\Users\LAB_ME~1\AppData\Local\Temp\ccxQGkYa.s 			page 53


 2950 003a 01       		.byte	0x1
 2951 003b 03       		.uleb128 0x3
 2952 003c 0E       		.uleb128 0xe
 2953 003d 0B       		.uleb128 0xb
 2954 003e 0B       		.uleb128 0xb
 2955 003f 3A       		.uleb128 0x3a
 2956 0040 0B       		.uleb128 0xb
 2957 0041 3B       		.uleb128 0x3b
 2958 0042 0B       		.uleb128 0xb
 2959 0043 01       		.uleb128 0x1
 2960 0044 13       		.uleb128 0x13
 2961 0045 00       		.byte	0
 2962 0046 00       		.byte	0
 2963 0047 06       		.uleb128 0x6
 2964 0048 0D       		.uleb128 0xd
 2965 0049 00       		.byte	0
 2966 004a 03       		.uleb128 0x3
 2967 004b 0E       		.uleb128 0xe
 2968 004c 3A       		.uleb128 0x3a
 2969 004d 0B       		.uleb128 0xb
 2970 004e 3B       		.uleb128 0x3b
 2971 004f 0B       		.uleb128 0xb
 2972 0050 49       		.uleb128 0x49
 2973 0051 13       		.uleb128 0x13
 2974 0052 38       		.uleb128 0x38
 2975 0053 0A       		.uleb128 0xa
 2976 0054 00       		.byte	0
 2977 0055 00       		.byte	0
 2978 0056 07       		.uleb128 0x7
 2979 0057 0D       		.uleb128 0xd
 2980 0058 00       		.byte	0
 2981 0059 03       		.uleb128 0x3
 2982 005a 08       		.uleb128 0x8
 2983 005b 3A       		.uleb128 0x3a
 2984 005c 0B       		.uleb128 0xb
 2985 005d 3B       		.uleb128 0x3b
 2986 005e 0B       		.uleb128 0xb
 2987 005f 49       		.uleb128 0x49
 2988 0060 13       		.uleb128 0x13
 2989 0061 38       		.uleb128 0x38
 2990 0062 0A       		.uleb128 0xa
 2991 0063 00       		.byte	0
 2992 0064 00       		.byte	0
 2993 0065 08       		.uleb128 0x8
 2994 0066 13       		.uleb128 0x13
 2995 0067 01       		.byte	0x1
 2996 0068 0B       		.uleb128 0xb
 2997 0069 0B       		.uleb128 0xb
 2998 006a 3A       		.uleb128 0x3a
 2999 006b 0B       		.uleb128 0xb
 3000 006c 3B       		.uleb128 0x3b
 3001 006d 0B       		.uleb128 0xb
 3002 006e 01       		.uleb128 0x1
 3003 006f 13       		.uleb128 0x13
 3004 0070 00       		.byte	0
 3005 0071 00       		.byte	0
 3006 0072 09       		.uleb128 0x9
ARM GAS  C:\Users\LAB_ME~1\AppData\Local\Temp\ccxQGkYa.s 			page 54


 3007 0073 0F       		.uleb128 0xf
 3008 0074 00       		.byte	0
 3009 0075 0B       		.uleb128 0xb
 3010 0076 0B       		.uleb128 0xb
 3011 0077 49       		.uleb128 0x49
 3012 0078 13       		.uleb128 0x13
 3013 0079 00       		.byte	0
 3014 007a 00       		.byte	0
 3015 007b 0A       		.uleb128 0xa
 3016 007c 0F       		.uleb128 0xf
 3017 007d 00       		.byte	0
 3018 007e 0B       		.uleb128 0xb
 3019 007f 0B       		.uleb128 0xb
 3020 0080 00       		.byte	0
 3021 0081 00       		.byte	0
 3022 0082 0B       		.uleb128 0xb
 3023 0083 13       		.uleb128 0x13
 3024 0084 01       		.byte	0x1
 3025 0085 03       		.uleb128 0x3
 3026 0086 0E       		.uleb128 0xe
 3027 0087 0B       		.uleb128 0xb
 3028 0088 0B       		.uleb128 0xb
 3029 0089 3A       		.uleb128 0x3a
 3030 008a 0B       		.uleb128 0xb
 3031 008b 3B       		.uleb128 0x3b
 3032 008c 05       		.uleb128 0x5
 3033 008d 01       		.uleb128 0x1
 3034 008e 13       		.uleb128 0x13
 3035 008f 00       		.byte	0
 3036 0090 00       		.byte	0
 3037 0091 0C       		.uleb128 0xc
 3038 0092 0D       		.uleb128 0xd
 3039 0093 00       		.byte	0
 3040 0094 03       		.uleb128 0x3
 3041 0095 08       		.uleb128 0x8
 3042 0096 3A       		.uleb128 0x3a
 3043 0097 0B       		.uleb128 0xb
 3044 0098 3B       		.uleb128 0x3b
 3045 0099 05       		.uleb128 0x5
 3046 009a 49       		.uleb128 0x49
 3047 009b 13       		.uleb128 0x13
 3048 009c 38       		.uleb128 0x38
 3049 009d 0A       		.uleb128 0xa
 3050 009e 00       		.byte	0
 3051 009f 00       		.byte	0
 3052 00a0 0D       		.uleb128 0xd
 3053 00a1 35       		.uleb128 0x35
 3054 00a2 00       		.byte	0
 3055 00a3 49       		.uleb128 0x49
 3056 00a4 13       		.uleb128 0x13
 3057 00a5 00       		.byte	0
 3058 00a6 00       		.byte	0
 3059 00a7 0E       		.uleb128 0xe
 3060 00a8 15       		.uleb128 0x15
 3061 00a9 01       		.byte	0x1
 3062 00aa 27       		.uleb128 0x27
 3063 00ab 0C       		.uleb128 0xc
ARM GAS  C:\Users\LAB_ME~1\AppData\Local\Temp\ccxQGkYa.s 			page 55


 3064 00ac 01       		.uleb128 0x1
 3065 00ad 13       		.uleb128 0x13
 3066 00ae 00       		.byte	0
 3067 00af 00       		.byte	0
 3068 00b0 0F       		.uleb128 0xf
 3069 00b1 05       		.uleb128 0x5
 3070 00b2 00       		.byte	0
 3071 00b3 49       		.uleb128 0x49
 3072 00b4 13       		.uleb128 0x13
 3073 00b5 00       		.byte	0
 3074 00b6 00       		.byte	0
 3075 00b7 10       		.uleb128 0x10
 3076 00b8 17       		.uleb128 0x17
 3077 00b9 01       		.byte	0x1
 3078 00ba 0B       		.uleb128 0xb
 3079 00bb 0B       		.uleb128 0xb
 3080 00bc 3A       		.uleb128 0x3a
 3081 00bd 0B       		.uleb128 0xb
 3082 00be 3B       		.uleb128 0x3b
 3083 00bf 0B       		.uleb128 0xb
 3084 00c0 01       		.uleb128 0x1
 3085 00c1 13       		.uleb128 0x13
 3086 00c2 00       		.byte	0
 3087 00c3 00       		.byte	0
 3088 00c4 11       		.uleb128 0x11
 3089 00c5 0D       		.uleb128 0xd
 3090 00c6 00       		.byte	0
 3091 00c7 03       		.uleb128 0x3
 3092 00c8 0E       		.uleb128 0xe
 3093 00c9 3A       		.uleb128 0x3a
 3094 00ca 0B       		.uleb128 0xb
 3095 00cb 3B       		.uleb128 0x3b
 3096 00cc 0B       		.uleb128 0xb
 3097 00cd 49       		.uleb128 0x49
 3098 00ce 13       		.uleb128 0x13
 3099 00cf 00       		.byte	0
 3100 00d0 00       		.byte	0
 3101 00d1 12       		.uleb128 0x12
 3102 00d2 26       		.uleb128 0x26
 3103 00d3 00       		.byte	0
 3104 00d4 49       		.uleb128 0x49
 3105 00d5 13       		.uleb128 0x13
 3106 00d6 00       		.byte	0
 3107 00d7 00       		.byte	0
 3108 00d8 13       		.uleb128 0x13
 3109 00d9 2E       		.uleb128 0x2e
 3110 00da 01       		.byte	0x1
 3111 00db 3F       		.uleb128 0x3f
 3112 00dc 0C       		.uleb128 0xc
 3113 00dd 03       		.uleb128 0x3
 3114 00de 0E       		.uleb128 0xe
 3115 00df 3A       		.uleb128 0x3a
 3116 00e0 0B       		.uleb128 0xb
 3117 00e1 3B       		.uleb128 0x3b
 3118 00e2 0B       		.uleb128 0xb
 3119 00e3 27       		.uleb128 0x27
 3120 00e4 0C       		.uleb128 0xc
ARM GAS  C:\Users\LAB_ME~1\AppData\Local\Temp\ccxQGkYa.s 			page 56


 3121 00e5 20       		.uleb128 0x20
 3122 00e6 0B       		.uleb128 0xb
 3123 00e7 01       		.uleb128 0x1
 3124 00e8 13       		.uleb128 0x13
 3125 00e9 00       		.byte	0
 3126 00ea 00       		.byte	0
 3127 00eb 14       		.uleb128 0x14
 3128 00ec 05       		.uleb128 0x5
 3129 00ed 00       		.byte	0
 3130 00ee 03       		.uleb128 0x3
 3131 00ef 08       		.uleb128 0x8
 3132 00f0 3A       		.uleb128 0x3a
 3133 00f1 0B       		.uleb128 0xb
 3134 00f2 3B       		.uleb128 0x3b
 3135 00f3 0B       		.uleb128 0xb
 3136 00f4 49       		.uleb128 0x49
 3137 00f5 13       		.uleb128 0x13
 3138 00f6 00       		.byte	0
 3139 00f7 00       		.byte	0
 3140 00f8 15       		.uleb128 0x15
 3141 00f9 05       		.uleb128 0x5
 3142 00fa 00       		.byte	0
 3143 00fb 03       		.uleb128 0x3
 3144 00fc 0E       		.uleb128 0xe
 3145 00fd 3A       		.uleb128 0x3a
 3146 00fe 0B       		.uleb128 0xb
 3147 00ff 3B       		.uleb128 0x3b
 3148 0100 0B       		.uleb128 0xb
 3149 0101 49       		.uleb128 0x49
 3150 0102 13       		.uleb128 0x13
 3151 0103 00       		.byte	0
 3152 0104 00       		.byte	0
 3153 0105 16       		.uleb128 0x16
 3154 0106 2E       		.uleb128 0x2e
 3155 0107 01       		.byte	0x1
 3156 0108 3F       		.uleb128 0x3f
 3157 0109 0C       		.uleb128 0xc
 3158 010a 03       		.uleb128 0x3
 3159 010b 0E       		.uleb128 0xe
 3160 010c 3A       		.uleb128 0x3a
 3161 010d 0B       		.uleb128 0xb
 3162 010e 3B       		.uleb128 0x3b
 3163 010f 0B       		.uleb128 0xb
 3164 0110 27       		.uleb128 0x27
 3165 0111 0C       		.uleb128 0xc
 3166 0112 11       		.uleb128 0x11
 3167 0113 01       		.uleb128 0x1
 3168 0114 12       		.uleb128 0x12
 3169 0115 01       		.uleb128 0x1
 3170 0116 40       		.uleb128 0x40
 3171 0117 06       		.uleb128 0x6
 3172 0118 9742     		.uleb128 0x2117
 3173 011a 0C       		.uleb128 0xc
 3174 011b 01       		.uleb128 0x1
 3175 011c 13       		.uleb128 0x13
 3176 011d 00       		.byte	0
 3177 011e 00       		.byte	0
ARM GAS  C:\Users\LAB_ME~1\AppData\Local\Temp\ccxQGkYa.s 			page 57


 3178 011f 17       		.uleb128 0x17
 3179 0120 05       		.uleb128 0x5
 3180 0121 00       		.byte	0
 3181 0122 03       		.uleb128 0x3
 3182 0123 08       		.uleb128 0x8
 3183 0124 3A       		.uleb128 0x3a
 3184 0125 0B       		.uleb128 0xb
 3185 0126 3B       		.uleb128 0x3b
 3186 0127 0B       		.uleb128 0xb
 3187 0128 49       		.uleb128 0x49
 3188 0129 13       		.uleb128 0x13
 3189 012a 02       		.uleb128 0x2
 3190 012b 0A       		.uleb128 0xa
 3191 012c 00       		.byte	0
 3192 012d 00       		.byte	0
 3193 012e 18       		.uleb128 0x18
 3194 012f 05       		.uleb128 0x5
 3195 0130 00       		.byte	0
 3196 0131 03       		.uleb128 0x3
 3197 0132 0E       		.uleb128 0xe
 3198 0133 3A       		.uleb128 0x3a
 3199 0134 0B       		.uleb128 0xb
 3200 0135 3B       		.uleb128 0x3b
 3201 0136 0B       		.uleb128 0xb
 3202 0137 49       		.uleb128 0x49
 3203 0138 13       		.uleb128 0x13
 3204 0139 02       		.uleb128 0x2
 3205 013a 0A       		.uleb128 0xa
 3206 013b 00       		.byte	0
 3207 013c 00       		.byte	0
 3208 013d 19       		.uleb128 0x19
 3209 013e 0B       		.uleb128 0xb
 3210 013f 01       		.byte	0x1
 3211 0140 11       		.uleb128 0x11
 3212 0141 01       		.uleb128 0x1
 3213 0142 12       		.uleb128 0x12
 3214 0143 01       		.uleb128 0x1
 3215 0144 01       		.uleb128 0x1
 3216 0145 13       		.uleb128 0x13
 3217 0146 00       		.byte	0
 3218 0147 00       		.byte	0
 3219 0148 1A       		.uleb128 0x1a
 3220 0149 34       		.uleb128 0x34
 3221 014a 00       		.byte	0
 3222 014b 03       		.uleb128 0x3
 3223 014c 08       		.uleb128 0x8
 3224 014d 3A       		.uleb128 0x3a
 3225 014e 0B       		.uleb128 0xb
 3226 014f 3B       		.uleb128 0x3b
 3227 0150 0B       		.uleb128 0xb
 3228 0151 49       		.uleb128 0x49
 3229 0152 13       		.uleb128 0x13
 3230 0153 02       		.uleb128 0x2
 3231 0154 06       		.uleb128 0x6
 3232 0155 00       		.byte	0
 3233 0156 00       		.byte	0
 3234 0157 1B       		.uleb128 0x1b
ARM GAS  C:\Users\LAB_ME~1\AppData\Local\Temp\ccxQGkYa.s 			page 58


 3235 0158 0B       		.uleb128 0xb
 3236 0159 01       		.byte	0x1
 3237 015a 55       		.uleb128 0x55
 3238 015b 06       		.uleb128 0x6
 3239 015c 00       		.byte	0
 3240 015d 00       		.byte	0
 3241 015e 1C       		.uleb128 0x1c
 3242 015f 2E       		.uleb128 0x2e
 3243 0160 01       		.byte	0x1
 3244 0161 3F       		.uleb128 0x3f
 3245 0162 0C       		.uleb128 0xc
 3246 0163 03       		.uleb128 0x3
 3247 0164 0E       		.uleb128 0xe
 3248 0165 3A       		.uleb128 0x3a
 3249 0166 0B       		.uleb128 0xb
 3250 0167 3B       		.uleb128 0x3b
 3251 0168 0B       		.uleb128 0xb
 3252 0169 27       		.uleb128 0x27
 3253 016a 0C       		.uleb128 0xc
 3254 016b 11       		.uleb128 0x11
 3255 016c 01       		.uleb128 0x1
 3256 016d 12       		.uleb128 0x12
 3257 016e 01       		.uleb128 0x1
 3258 016f 40       		.uleb128 0x40
 3259 0170 0A       		.uleb128 0xa
 3260 0171 9742     		.uleb128 0x2117
 3261 0173 0C       		.uleb128 0xc
 3262 0174 01       		.uleb128 0x1
 3263 0175 13       		.uleb128 0x13
 3264 0176 00       		.byte	0
 3265 0177 00       		.byte	0
 3266 0178 1D       		.uleb128 0x1d
 3267 0179 0B       		.uleb128 0xb
 3268 017a 01       		.byte	0x1
 3269 017b 11       		.uleb128 0x11
 3270 017c 01       		.uleb128 0x1
 3271 017d 12       		.uleb128 0x12
 3272 017e 01       		.uleb128 0x1
 3273 017f 00       		.byte	0
 3274 0180 00       		.byte	0
 3275 0181 1E       		.uleb128 0x1e
 3276 0182 2E       		.uleb128 0x2e
 3277 0183 01       		.byte	0x1
 3278 0184 3F       		.uleb128 0x3f
 3279 0185 0C       		.uleb128 0xc
 3280 0186 03       		.uleb128 0x3
 3281 0187 0E       		.uleb128 0xe
 3282 0188 3A       		.uleb128 0x3a
 3283 0189 0B       		.uleb128 0xb
 3284 018a 3B       		.uleb128 0x3b
 3285 018b 0B       		.uleb128 0xb
 3286 018c 27       		.uleb128 0x27
 3287 018d 0C       		.uleb128 0xc
 3288 018e 49       		.uleb128 0x49
 3289 018f 13       		.uleb128 0x13
 3290 0190 11       		.uleb128 0x11
 3291 0191 01       		.uleb128 0x1
ARM GAS  C:\Users\LAB_ME~1\AppData\Local\Temp\ccxQGkYa.s 			page 59


 3292 0192 12       		.uleb128 0x12
 3293 0193 01       		.uleb128 0x1
 3294 0194 40       		.uleb128 0x40
 3295 0195 0A       		.uleb128 0xa
 3296 0196 9742     		.uleb128 0x2117
 3297 0198 0C       		.uleb128 0xc
 3298 0199 01       		.uleb128 0x1
 3299 019a 13       		.uleb128 0x13
 3300 019b 00       		.byte	0
 3301 019c 00       		.byte	0
 3302 019d 1F       		.uleb128 0x1f
 3303 019e 05       		.uleb128 0x5
 3304 019f 00       		.byte	0
 3305 01a0 03       		.uleb128 0x3
 3306 01a1 0E       		.uleb128 0xe
 3307 01a2 3A       		.uleb128 0x3a
 3308 01a3 0B       		.uleb128 0xb
 3309 01a4 3B       		.uleb128 0x3b
 3310 01a5 0B       		.uleb128 0xb
 3311 01a6 49       		.uleb128 0x49
 3312 01a7 13       		.uleb128 0x13
 3313 01a8 02       		.uleb128 0x2
 3314 01a9 06       		.uleb128 0x6
 3315 01aa 00       		.byte	0
 3316 01ab 00       		.byte	0
 3317 01ac 20       		.uleb128 0x20
 3318 01ad 05       		.uleb128 0x5
 3319 01ae 00       		.byte	0
 3320 01af 03       		.uleb128 0x3
 3321 01b0 08       		.uleb128 0x8
 3322 01b1 3A       		.uleb128 0x3a
 3323 01b2 0B       		.uleb128 0xb
 3324 01b3 3B       		.uleb128 0x3b
 3325 01b4 0B       		.uleb128 0xb
 3326 01b5 49       		.uleb128 0x49
 3327 01b6 13       		.uleb128 0x13
 3328 01b7 02       		.uleb128 0x2
 3329 01b8 06       		.uleb128 0x6
 3330 01b9 00       		.byte	0
 3331 01ba 00       		.byte	0
 3332 01bb 21       		.uleb128 0x21
 3333 01bc 34       		.uleb128 0x34
 3334 01bd 00       		.byte	0
 3335 01be 03       		.uleb128 0x3
 3336 01bf 0E       		.uleb128 0xe
 3337 01c0 3A       		.uleb128 0x3a
 3338 01c1 0B       		.uleb128 0xb
 3339 01c2 3B       		.uleb128 0x3b
 3340 01c3 0B       		.uleb128 0xb
 3341 01c4 49       		.uleb128 0x49
 3342 01c5 13       		.uleb128 0x13
 3343 01c6 02       		.uleb128 0x2
 3344 01c7 0A       		.uleb128 0xa
 3345 01c8 00       		.byte	0
 3346 01c9 00       		.byte	0
 3347 01ca 22       		.uleb128 0x22
 3348 01cb 34       		.uleb128 0x34
ARM GAS  C:\Users\LAB_ME~1\AppData\Local\Temp\ccxQGkYa.s 			page 60


 3349 01cc 00       		.byte	0
 3350 01cd 03       		.uleb128 0x3
 3351 01ce 08       		.uleb128 0x8
 3352 01cf 3A       		.uleb128 0x3a
 3353 01d0 0B       		.uleb128 0xb
 3354 01d1 3B       		.uleb128 0x3b
 3355 01d2 0B       		.uleb128 0xb
 3356 01d3 49       		.uleb128 0x49
 3357 01d4 13       		.uleb128 0x13
 3358 01d5 02       		.uleb128 0x2
 3359 01d6 0A       		.uleb128 0xa
 3360 01d7 00       		.byte	0
 3361 01d8 00       		.byte	0
 3362 01d9 23       		.uleb128 0x23
 3363 01da 2E       		.uleb128 0x2e
 3364 01db 01       		.byte	0x1
 3365 01dc 31       		.uleb128 0x31
 3366 01dd 13       		.uleb128 0x13
 3367 01de 11       		.uleb128 0x11
 3368 01df 01       		.uleb128 0x1
 3369 01e0 12       		.uleb128 0x12
 3370 01e1 01       		.uleb128 0x1
 3371 01e2 40       		.uleb128 0x40
 3372 01e3 06       		.uleb128 0x6
 3373 01e4 9742     		.uleb128 0x2117
 3374 01e6 0C       		.uleb128 0xc
 3375 01e7 01       		.uleb128 0x1
 3376 01e8 13       		.uleb128 0x13
 3377 01e9 00       		.byte	0
 3378 01ea 00       		.byte	0
 3379 01eb 24       		.uleb128 0x24
 3380 01ec 05       		.uleb128 0x5
 3381 01ed 00       		.byte	0
 3382 01ee 31       		.uleb128 0x31
 3383 01ef 13       		.uleb128 0x13
 3384 01f0 02       		.uleb128 0x2
 3385 01f1 06       		.uleb128 0x6
 3386 01f2 00       		.byte	0
 3387 01f3 00       		.byte	0
 3388 01f4 25       		.uleb128 0x25
 3389 01f5 1D       		.uleb128 0x1d
 3390 01f6 01       		.byte	0x1
 3391 01f7 31       		.uleb128 0x31
 3392 01f8 13       		.uleb128 0x13
 3393 01f9 11       		.uleb128 0x11
 3394 01fa 01       		.uleb128 0x1
 3395 01fb 12       		.uleb128 0x12
 3396 01fc 01       		.uleb128 0x1
 3397 01fd 58       		.uleb128 0x58
 3398 01fe 0B       		.uleb128 0xb
 3399 01ff 59       		.uleb128 0x59
 3400 0200 0B       		.uleb128 0xb
 3401 0201 00       		.byte	0
 3402 0202 00       		.byte	0
 3403 0203 26       		.uleb128 0x26
 3404 0204 05       		.uleb128 0x5
 3405 0205 00       		.byte	0
ARM GAS  C:\Users\LAB_ME~1\AppData\Local\Temp\ccxQGkYa.s 			page 61


 3406 0206 31       		.uleb128 0x31
 3407 0207 13       		.uleb128 0x13
 3408 0208 00       		.byte	0
 3409 0209 00       		.byte	0
 3410 020a 27       		.uleb128 0x27
 3411 020b 898201   		.uleb128 0x4109
 3412 020e 01       		.byte	0x1
 3413 020f 11       		.uleb128 0x11
 3414 0210 01       		.uleb128 0x1
 3415 0211 31       		.uleb128 0x31
 3416 0212 13       		.uleb128 0x13
 3417 0213 00       		.byte	0
 3418 0214 00       		.byte	0
 3419 0215 28       		.uleb128 0x28
 3420 0216 8A8201   		.uleb128 0x410a
 3421 0219 00       		.byte	0
 3422 021a 02       		.uleb128 0x2
 3423 021b 0A       		.uleb128 0xa
 3424 021c 9142     		.uleb128 0x2111
 3425 021e 0A       		.uleb128 0xa
 3426 021f 00       		.byte	0
 3427 0220 00       		.byte	0
 3428 0221 29       		.uleb128 0x29
 3429 0222 898201   		.uleb128 0x4109
 3430 0225 01       		.byte	0x1
 3431 0226 11       		.uleb128 0x11
 3432 0227 01       		.uleb128 0x1
 3433 0228 31       		.uleb128 0x31
 3434 0229 13       		.uleb128 0x13
 3435 022a 01       		.uleb128 0x1
 3436 022b 13       		.uleb128 0x13
 3437 022c 00       		.byte	0
 3438 022d 00       		.byte	0
 3439 022e 2A       		.uleb128 0x2a
 3440 022f 898201   		.uleb128 0x4109
 3441 0232 00       		.byte	0
 3442 0233 11       		.uleb128 0x11
 3443 0234 01       		.uleb128 0x1
 3444 0235 31       		.uleb128 0x31
 3445 0236 13       		.uleb128 0x13
 3446 0237 00       		.byte	0
 3447 0238 00       		.byte	0
 3448 0239 2B       		.uleb128 0x2b
 3449 023a 2E       		.uleb128 0x2e
 3450 023b 01       		.byte	0x1
 3451 023c 3F       		.uleb128 0x3f
 3452 023d 0C       		.uleb128 0xc
 3453 023e 03       		.uleb128 0x3
 3454 023f 0E       		.uleb128 0xe
 3455 0240 3A       		.uleb128 0x3a
 3456 0241 0B       		.uleb128 0xb
 3457 0242 3B       		.uleb128 0x3b
 3458 0243 05       		.uleb128 0x5
 3459 0244 27       		.uleb128 0x27
 3460 0245 0C       		.uleb128 0xc
 3461 0246 11       		.uleb128 0x11
 3462 0247 01       		.uleb128 0x1
ARM GAS  C:\Users\LAB_ME~1\AppData\Local\Temp\ccxQGkYa.s 			page 62


 3463 0248 12       		.uleb128 0x12
 3464 0249 01       		.uleb128 0x1
 3465 024a 40       		.uleb128 0x40
 3466 024b 06       		.uleb128 0x6
 3467 024c 9742     		.uleb128 0x2117
 3468 024e 0C       		.uleb128 0xc
 3469 024f 01       		.uleb128 0x1
 3470 0250 13       		.uleb128 0x13
 3471 0251 00       		.byte	0
 3472 0252 00       		.byte	0
 3473 0253 2C       		.uleb128 0x2c
 3474 0254 05       		.uleb128 0x5
 3475 0255 00       		.byte	0
 3476 0256 03       		.uleb128 0x3
 3477 0257 08       		.uleb128 0x8
 3478 0258 3A       		.uleb128 0x3a
 3479 0259 0B       		.uleb128 0xb
 3480 025a 3B       		.uleb128 0x3b
 3481 025b 05       		.uleb128 0x5
 3482 025c 49       		.uleb128 0x49
 3483 025d 13       		.uleb128 0x13
 3484 025e 02       		.uleb128 0x2
 3485 025f 06       		.uleb128 0x6
 3486 0260 00       		.byte	0
 3487 0261 00       		.byte	0
 3488 0262 2D       		.uleb128 0x2d
 3489 0263 05       		.uleb128 0x5
 3490 0264 00       		.byte	0
 3491 0265 03       		.uleb128 0x3
 3492 0266 0E       		.uleb128 0xe
 3493 0267 3A       		.uleb128 0x3a
 3494 0268 0B       		.uleb128 0xb
 3495 0269 3B       		.uleb128 0x3b
 3496 026a 05       		.uleb128 0x5
 3497 026b 49       		.uleb128 0x49
 3498 026c 13       		.uleb128 0x13
 3499 026d 02       		.uleb128 0x2
 3500 026e 06       		.uleb128 0x6
 3501 026f 00       		.byte	0
 3502 0270 00       		.byte	0
 3503 0271 2E       		.uleb128 0x2e
 3504 0272 34       		.uleb128 0x34
 3505 0273 00       		.byte	0
 3506 0274 03       		.uleb128 0x3
 3507 0275 08       		.uleb128 0x8
 3508 0276 3A       		.uleb128 0x3a
 3509 0277 0B       		.uleb128 0xb
 3510 0278 3B       		.uleb128 0x3b
 3511 0279 05       		.uleb128 0x5
 3512 027a 49       		.uleb128 0x49
 3513 027b 13       		.uleb128 0x13
 3514 027c 02       		.uleb128 0x2
 3515 027d 06       		.uleb128 0x6
 3516 027e 00       		.byte	0
 3517 027f 00       		.byte	0
 3518 0280 2F       		.uleb128 0x2f
 3519 0281 2E       		.uleb128 0x2e
ARM GAS  C:\Users\LAB_ME~1\AppData\Local\Temp\ccxQGkYa.s 			page 63


 3520 0282 01       		.byte	0x1
 3521 0283 3F       		.uleb128 0x3f
 3522 0284 0C       		.uleb128 0xc
 3523 0285 03       		.uleb128 0x3
 3524 0286 0E       		.uleb128 0xe
 3525 0287 3A       		.uleb128 0x3a
 3526 0288 0B       		.uleb128 0xb
 3527 0289 3B       		.uleb128 0x3b
 3528 028a 05       		.uleb128 0x5
 3529 028b 27       		.uleb128 0x27
 3530 028c 0C       		.uleb128 0xc
 3531 028d 49       		.uleb128 0x49
 3532 028e 13       		.uleb128 0x13
 3533 028f 11       		.uleb128 0x11
 3534 0290 01       		.uleb128 0x1
 3535 0291 12       		.uleb128 0x12
 3536 0292 01       		.uleb128 0x1
 3537 0293 40       		.uleb128 0x40
 3538 0294 0A       		.uleb128 0xa
 3539 0295 9742     		.uleb128 0x2117
 3540 0297 0C       		.uleb128 0xc
 3541 0298 01       		.uleb128 0x1
 3542 0299 13       		.uleb128 0x13
 3543 029a 00       		.byte	0
 3544 029b 00       		.byte	0
 3545 029c 30       		.uleb128 0x30
 3546 029d 34       		.uleb128 0x34
 3547 029e 00       		.byte	0
 3548 029f 03       		.uleb128 0x3
 3549 02a0 0E       		.uleb128 0xe
 3550 02a1 3A       		.uleb128 0x3a
 3551 02a2 0B       		.uleb128 0xb
 3552 02a3 3B       		.uleb128 0x3b
 3553 02a4 05       		.uleb128 0x5
 3554 02a5 49       		.uleb128 0x49
 3555 02a6 13       		.uleb128 0x13
 3556 02a7 02       		.uleb128 0x2
 3557 02a8 0A       		.uleb128 0xa
 3558 02a9 00       		.byte	0
 3559 02aa 00       		.byte	0
 3560 02ab 31       		.uleb128 0x31
 3561 02ac 898201   		.uleb128 0x4109
 3562 02af 01       		.byte	0x1
 3563 02b0 11       		.uleb128 0x11
 3564 02b1 01       		.uleb128 0x1
 3565 02b2 00       		.byte	0
 3566 02b3 00       		.byte	0
 3567 02b4 32       		.uleb128 0x32
 3568 02b5 2E       		.uleb128 0x2e
 3569 02b6 01       		.byte	0x1
 3570 02b7 3F       		.uleb128 0x3f
 3571 02b8 0C       		.uleb128 0xc
 3572 02b9 03       		.uleb128 0x3
 3573 02ba 0E       		.uleb128 0xe
 3574 02bb 3A       		.uleb128 0x3a
 3575 02bc 0B       		.uleb128 0xb
 3576 02bd 3B       		.uleb128 0x3b
ARM GAS  C:\Users\LAB_ME~1\AppData\Local\Temp\ccxQGkYa.s 			page 64


 3577 02be 05       		.uleb128 0x5
 3578 02bf 27       		.uleb128 0x27
 3579 02c0 0C       		.uleb128 0xc
 3580 02c1 49       		.uleb128 0x49
 3581 02c2 13       		.uleb128 0x13
 3582 02c3 11       		.uleb128 0x11
 3583 02c4 01       		.uleb128 0x1
 3584 02c5 12       		.uleb128 0x12
 3585 02c6 01       		.uleb128 0x1
 3586 02c7 40       		.uleb128 0x40
 3587 02c8 06       		.uleb128 0x6
 3588 02c9 9742     		.uleb128 0x2117
 3589 02cb 0C       		.uleb128 0xc
 3590 02cc 01       		.uleb128 0x1
 3591 02cd 13       		.uleb128 0x13
 3592 02ce 00       		.byte	0
 3593 02cf 00       		.byte	0
 3594 02d0 33       		.uleb128 0x33
 3595 02d1 34       		.uleb128 0x34
 3596 02d2 00       		.byte	0
 3597 02d3 03       		.uleb128 0x3
 3598 02d4 08       		.uleb128 0x8
 3599 02d5 3A       		.uleb128 0x3a
 3600 02d6 0B       		.uleb128 0xb
 3601 02d7 3B       		.uleb128 0x3b
 3602 02d8 05       		.uleb128 0x5
 3603 02d9 49       		.uleb128 0x49
 3604 02da 13       		.uleb128 0x13
 3605 02db 02       		.uleb128 0x2
 3606 02dc 0A       		.uleb128 0xa
 3607 02dd 00       		.byte	0
 3608 02de 00       		.byte	0
 3609 02df 34       		.uleb128 0x34
 3610 02e0 34       		.uleb128 0x34
 3611 02e1 00       		.byte	0
 3612 02e2 03       		.uleb128 0x3
 3613 02e3 0E       		.uleb128 0xe
 3614 02e4 3A       		.uleb128 0x3a
 3615 02e5 0B       		.uleb128 0xb
 3616 02e6 3B       		.uleb128 0x3b
 3617 02e7 0B       		.uleb128 0xb
 3618 02e8 49       		.uleb128 0x49
 3619 02e9 13       		.uleb128 0x13
 3620 02ea 3F       		.uleb128 0x3f
 3621 02eb 0C       		.uleb128 0xc
 3622 02ec 3C       		.uleb128 0x3c
 3623 02ed 0C       		.uleb128 0xc
 3624 02ee 00       		.byte	0
 3625 02ef 00       		.byte	0
 3626 02f0 35       		.uleb128 0x35
 3627 02f1 2E       		.uleb128 0x2e
 3628 02f2 01       		.byte	0x1
 3629 02f3 3F       		.uleb128 0x3f
 3630 02f4 0C       		.uleb128 0xc
 3631 02f5 03       		.uleb128 0x3
 3632 02f6 0E       		.uleb128 0xe
 3633 02f7 3A       		.uleb128 0x3a
ARM GAS  C:\Users\LAB_ME~1\AppData\Local\Temp\ccxQGkYa.s 			page 65


 3634 02f8 0B       		.uleb128 0xb
 3635 02f9 3B       		.uleb128 0x3b
 3636 02fa 0B       		.uleb128 0xb
 3637 02fb 27       		.uleb128 0x27
 3638 02fc 0C       		.uleb128 0xc
 3639 02fd 49       		.uleb128 0x49
 3640 02fe 13       		.uleb128 0x13
 3641 02ff 3C       		.uleb128 0x3c
 3642 0300 0C       		.uleb128 0xc
 3643 0301 01       		.uleb128 0x1
 3644 0302 13       		.uleb128 0x13
 3645 0303 00       		.byte	0
 3646 0304 00       		.byte	0
 3647 0305 36       		.uleb128 0x36
 3648 0306 2E       		.uleb128 0x2e
 3649 0307 00       		.byte	0
 3650 0308 3F       		.uleb128 0x3f
 3651 0309 0C       		.uleb128 0xc
 3652 030a 03       		.uleb128 0x3
 3653 030b 0E       		.uleb128 0xe
 3654 030c 3A       		.uleb128 0x3a
 3655 030d 0B       		.uleb128 0xb
 3656 030e 3B       		.uleb128 0x3b
 3657 030f 0B       		.uleb128 0xb
 3658 0310 27       		.uleb128 0x27
 3659 0311 0C       		.uleb128 0xc
 3660 0312 3C       		.uleb128 0x3c
 3661 0313 0C       		.uleb128 0xc
 3662 0314 00       		.byte	0
 3663 0315 00       		.byte	0
 3664 0316 37       		.uleb128 0x37
 3665 0317 2E       		.uleb128 0x2e
 3666 0318 01       		.byte	0x1
 3667 0319 3F       		.uleb128 0x3f
 3668 031a 0C       		.uleb128 0xc
 3669 031b 03       		.uleb128 0x3
 3670 031c 0E       		.uleb128 0xe
 3671 031d 3A       		.uleb128 0x3a
 3672 031e 0B       		.uleb128 0xb
 3673 031f 3B       		.uleb128 0x3b
 3674 0320 0B       		.uleb128 0xb
 3675 0321 27       		.uleb128 0x27
 3676 0322 0C       		.uleb128 0xc
 3677 0323 3C       		.uleb128 0x3c
 3678 0324 0C       		.uleb128 0xc
 3679 0325 01       		.uleb128 0x1
 3680 0326 13       		.uleb128 0x13
 3681 0327 00       		.byte	0
 3682 0328 00       		.byte	0
 3683 0329 38       		.uleb128 0x38
 3684 032a 2E       		.uleb128 0x2e
 3685 032b 01       		.byte	0x1
 3686 032c 3F       		.uleb128 0x3f
 3687 032d 0C       		.uleb128 0xc
 3688 032e 03       		.uleb128 0x3
 3689 032f 0E       		.uleb128 0xe
 3690 0330 3A       		.uleb128 0x3a
ARM GAS  C:\Users\LAB_ME~1\AppData\Local\Temp\ccxQGkYa.s 			page 66


 3691 0331 0B       		.uleb128 0xb
 3692 0332 3B       		.uleb128 0x3b
 3693 0333 0B       		.uleb128 0xb
 3694 0334 27       		.uleb128 0x27
 3695 0335 0C       		.uleb128 0xc
 3696 0336 49       		.uleb128 0x49
 3697 0337 13       		.uleb128 0x13
 3698 0338 3C       		.uleb128 0x3c
 3699 0339 0C       		.uleb128 0xc
 3700 033a 00       		.byte	0
 3701 033b 00       		.byte	0
 3702 033c 00       		.byte	0
 3703              		.section	.debug_loc,"",%progbits
 3704              	.Ldebug_loc0:
 3705              	.LLST0:
 3706 0000 00000000 		.4byte	.LFB7
 3707 0004 02000000 		.4byte	.LCFI0
 3708 0008 0200     		.2byte	0x2
 3709 000a 7D       		.byte	0x7d
 3710 000b 00       		.sleb128 0
 3711 000c 02000000 		.4byte	.LCFI0
 3712 0010 28000000 		.4byte	.LFE7
 3713 0014 0200     		.2byte	0x2
 3714 0016 7D       		.byte	0x7d
 3715 0017 08       		.sleb128 8
 3716 0018 00000000 		.4byte	0
 3717 001c 00000000 		.4byte	0
 3718              	.LLST1:
 3719 0020 08000000 		.4byte	.LVL2
 3720 0024 0C000000 		.4byte	.LVL3
 3721 0028 0100     		.2byte	0x1
 3722 002a 53       		.byte	0x53
 3723 002b 00000000 		.4byte	0
 3724 002f 00000000 		.4byte	0
 3725              	.LLST2:
 3726 0033 20000000 		.4byte	.LVL5
 3727 0037 28000000 		.4byte	.LFE7
 3728 003b 0100     		.2byte	0x1
 3729 003d 53       		.byte	0x53
 3730 003e 00000000 		.4byte	0
 3731 0042 00000000 		.4byte	0
 3732              	.LLST3:
 3733 0046 00000000 		.4byte	.LVL6
 3734 004a 0A000000 		.4byte	.LVL9
 3735 004e 0100     		.2byte	0x1
 3736 0050 50       		.byte	0x50
 3737 0051 0A000000 		.4byte	.LVL9
 3738 0055 22000000 		.4byte	.LFE8
 3739 0059 0100     		.2byte	0x1
 3740 005b 52       		.byte	0x52
 3741 005c 00000000 		.4byte	0
 3742 0060 00000000 		.4byte	0
 3743              	.LLST4:
 3744 0064 06000000 		.4byte	.LVL8
 3745 0068 0A000000 		.4byte	.LVL9
 3746 006c 0100     		.2byte	0x1
 3747 006e 53       		.byte	0x53
ARM GAS  C:\Users\LAB_ME~1\AppData\Local\Temp\ccxQGkYa.s 			page 67


 3748 006f 0C000000 		.4byte	.LVL10
 3749 0073 0E000000 		.4byte	.LVL11
 3750 0077 0100     		.2byte	0x1
 3751 0079 53       		.byte	0x53
 3752 007a 00000000 		.4byte	0
 3753 007e 00000000 		.4byte	0
 3754              	.LLST5:
 3755 0082 20000000 		.4byte	.LVL13
 3756 0086 22000000 		.4byte	.LFE8
 3757 008a 0100     		.2byte	0x1
 3758 008c 53       		.byte	0x53
 3759 008d 00000000 		.4byte	0
 3760 0091 00000000 		.4byte	0
 3761              	.LLST6:
 3762 0095 00000000 		.4byte	.LVL14
 3763 0099 1A000000 		.4byte	.LVL21
 3764 009d 0100     		.2byte	0x1
 3765 009f 50       		.byte	0x50
 3766 00a0 1A000000 		.4byte	.LVL21
 3767 00a4 20000000 		.4byte	.LFE9
 3768 00a8 0400     		.2byte	0x4
 3769 00aa F3       		.byte	0xf3
 3770 00ab 01       		.uleb128 0x1
 3771 00ac 50       		.byte	0x50
 3772 00ad 9F       		.byte	0x9f
 3773 00ae 00000000 		.4byte	0
 3774 00b2 00000000 		.4byte	0
 3775              	.LLST7:
 3776 00b6 0C000000 		.4byte	.LVL18
 3777 00ba 1A000000 		.4byte	.LVL21
 3778 00be 0600     		.2byte	0x6
 3779 00c0 70       		.byte	0x70
 3780 00c1 00       		.sleb128 0
 3781 00c2 72       		.byte	0x72
 3782 00c3 00       		.sleb128 0
 3783 00c4 1A       		.byte	0x1a
 3784 00c5 9F       		.byte	0x9f
 3785 00c6 1A000000 		.4byte	.LVL21
 3786 00ca 20000000 		.4byte	.LFE9
 3787 00ce 0100     		.2byte	0x1
 3788 00d0 50       		.byte	0x50
 3789 00d1 00000000 		.4byte	0
 3790 00d5 00000000 		.4byte	0
 3791              	.LLST8:
 3792 00d9 06000000 		.4byte	.LVL16
 3793 00dd 08000000 		.4byte	.LVL17
 3794 00e1 0100     		.2byte	0x1
 3795 00e3 53       		.byte	0x53
 3796 00e4 00000000 		.4byte	0
 3797 00e8 00000000 		.4byte	0
 3798              	.LLST9:
 3799 00ec 18000000 		.4byte	.LVL20
 3800 00f0 20000000 		.4byte	.LFE9
 3801 00f4 0100     		.2byte	0x1
 3802 00f6 53       		.byte	0x53
 3803 00f7 00000000 		.4byte	0
 3804 00fb 00000000 		.4byte	0
ARM GAS  C:\Users\LAB_ME~1\AppData\Local\Temp\ccxQGkYa.s 			page 68


 3805              	.LLST10:
 3806 00ff 00000000 		.4byte	.LVL22
 3807 0103 0E000000 		.4byte	.LVL26
 3808 0107 0100     		.2byte	0x1
 3809 0109 50       		.byte	0x50
 3810 010a 0E000000 		.4byte	.LVL26
 3811 010e 10000000 		.4byte	.LVL27
 3812 0112 0400     		.2byte	0x4
 3813 0114 F3       		.byte	0xf3
 3814 0115 01       		.uleb128 0x1
 3815 0116 50       		.byte	0x50
 3816 0117 9F       		.byte	0x9f
 3817 0118 10000000 		.4byte	.LVL27
 3818 011c 1C000000 		.4byte	.LFE10
 3819 0120 0100     		.2byte	0x1
 3820 0122 50       		.byte	0x50
 3821 0123 00000000 		.4byte	0
 3822 0127 00000000 		.4byte	0
 3823              	.LLST11:
 3824 012b 06000000 		.4byte	.LVL24
 3825 012f 08000000 		.4byte	.LVL25
 3826 0133 0100     		.2byte	0x1
 3827 0135 53       		.byte	0x53
 3828 0136 00000000 		.4byte	0
 3829 013a 00000000 		.4byte	0
 3830              	.LLST12:
 3831 013e 16000000 		.4byte	.LVL29
 3832 0142 1C000000 		.4byte	.LFE10
 3833 0146 0100     		.2byte	0x1
 3834 0148 53       		.byte	0x53
 3835 0149 00000000 		.4byte	0
 3836 014d 00000000 		.4byte	0
 3837              	.LLST13:
 3838 0151 00000000 		.4byte	.LVL30
 3839 0155 0C000000 		.4byte	.LVL34
 3840 0159 0100     		.2byte	0x1
 3841 015b 50       		.byte	0x50
 3842 015c 0C000000 		.4byte	.LVL34
 3843 0160 14000000 		.4byte	.LFE12
 3844 0164 0100     		.2byte	0x1
 3845 0166 52       		.byte	0x52
 3846 0167 00000000 		.4byte	0
 3847 016b 00000000 		.4byte	0
 3848              	.LLST14:
 3849 016f 08000000 		.4byte	.LVL32
 3850 0173 0A000000 		.4byte	.LVL33
 3851 0177 0100     		.2byte	0x1
 3852 0179 53       		.byte	0x53
 3853 017a 00000000 		.4byte	0
 3854 017e 00000000 		.4byte	0
 3855              	.LLST15:
 3856 0182 00000000 		.4byte	.LFB14
 3857 0186 02000000 		.4byte	.LCFI1
 3858 018a 0200     		.2byte	0x2
 3859 018c 7D       		.byte	0x7d
 3860 018d 00       		.sleb128 0
 3861 018e 02000000 		.4byte	.LCFI1
ARM GAS  C:\Users\LAB_ME~1\AppData\Local\Temp\ccxQGkYa.s 			page 69


 3862 0192 2E000000 		.4byte	.LFE14
 3863 0196 0200     		.2byte	0x2
 3864 0198 7D       		.byte	0x7d
 3865 0199 08       		.sleb128 8
 3866 019a 00000000 		.4byte	0
 3867 019e 00000000 		.4byte	0
 3868              	.LLST16:
 3869 01a2 00000000 		.4byte	.LVL36
 3870 01a6 1F000000 		.4byte	.LVL39-1
 3871 01aa 0100     		.2byte	0x1
 3872 01ac 50       		.byte	0x50
 3873 01ad 1F000000 		.4byte	.LVL39-1
 3874 01b1 26000000 		.4byte	.LVL40
 3875 01b5 0400     		.2byte	0x4
 3876 01b7 F3       		.byte	0xf3
 3877 01b8 01       		.uleb128 0x1
 3878 01b9 50       		.byte	0x50
 3879 01ba 9F       		.byte	0x9f
 3880 01bb 26000000 		.4byte	.LVL40
 3881 01bf 2E000000 		.4byte	.LFE14
 3882 01c3 0100     		.2byte	0x1
 3883 01c5 50       		.byte	0x50
 3884 01c6 00000000 		.4byte	0
 3885 01ca 00000000 		.4byte	0
 3886              	.LLST17:
 3887 01ce 00000000 		.4byte	.LVL36
 3888 01d2 08000000 		.4byte	.LVL37
 3889 01d6 0100     		.2byte	0x1
 3890 01d8 51       		.byte	0x51
 3891 01d9 08000000 		.4byte	.LVL37
 3892 01dd 2E000000 		.4byte	.LFE14
 3893 01e1 0400     		.2byte	0x4
 3894 01e3 F3       		.byte	0xf3
 3895 01e4 01       		.uleb128 0x1
 3896 01e5 51       		.byte	0x51
 3897 01e6 9F       		.byte	0x9f
 3898 01e7 00000000 		.4byte	0
 3899 01eb 00000000 		.4byte	0
 3900              	.LLST18:
 3901 01ef 1C000000 		.4byte	.LVL38
 3902 01f3 1F000000 		.4byte	.LVL39-1
 3903 01f7 0100     		.2byte	0x1
 3904 01f9 50       		.byte	0x50
 3905 01fa 1F000000 		.4byte	.LVL39-1
 3906 01fe 26000000 		.4byte	.LVL40
 3907 0202 0400     		.2byte	0x4
 3908 0204 F3       		.byte	0xf3
 3909 0205 01       		.uleb128 0x1
 3910 0206 50       		.byte	0x50
 3911 0207 9F       		.byte	0x9f
 3912 0208 00000000 		.4byte	0
 3913 020c 00000000 		.4byte	0
 3914              	.LLST19:
 3915 0210 00000000 		.4byte	.LFB13
 3916 0214 02000000 		.4byte	.LCFI2
 3917 0218 0200     		.2byte	0x2
 3918 021a 7D       		.byte	0x7d
ARM GAS  C:\Users\LAB_ME~1\AppData\Local\Temp\ccxQGkYa.s 			page 70


 3919 021b 00       		.sleb128 0
 3920 021c 02000000 		.4byte	.LCFI2
 3921 0220 18000000 		.4byte	.LFE13
 3922 0224 0200     		.2byte	0x2
 3923 0226 7D       		.byte	0x7d
 3924 0227 08       		.sleb128 8
 3925 0228 00000000 		.4byte	0
 3926 022c 00000000 		.4byte	0
 3927              	.LLST20:
 3928 0230 00000000 		.4byte	.LVL41
 3929 0234 0B000000 		.4byte	.LVL44-1
 3930 0238 0100     		.2byte	0x1
 3931 023a 50       		.byte	0x50
 3932 023b 0B000000 		.4byte	.LVL44-1
 3933 023f 18000000 		.4byte	.LFE13
 3934 0243 0400     		.2byte	0x4
 3935 0245 F3       		.byte	0xf3
 3936 0246 01       		.uleb128 0x1
 3937 0247 50       		.byte	0x50
 3938 0248 9F       		.byte	0x9f
 3939 0249 00000000 		.4byte	0
 3940 024d 00000000 		.4byte	0
 3941              	.LLST21:
 3942 0251 00000000 		.4byte	.LVL41
 3943 0255 0B000000 		.4byte	.LVL44-1
 3944 0259 0100     		.2byte	0x1
 3945 025b 51       		.byte	0x51
 3946 025c 0B000000 		.4byte	.LVL44-1
 3947 0260 18000000 		.4byte	.LFE13
 3948 0264 0400     		.2byte	0x4
 3949 0266 F3       		.byte	0xf3
 3950 0267 01       		.uleb128 0x1
 3951 0268 51       		.byte	0x51
 3952 0269 9F       		.byte	0x9f
 3953 026a 00000000 		.4byte	0
 3954 026e 00000000 		.4byte	0
 3955              	.LLST22:
 3956 0272 08000000 		.4byte	.LVL43
 3957 0276 0B000000 		.4byte	.LVL44-1
 3958 027a 0100     		.2byte	0x1
 3959 027c 53       		.byte	0x53
 3960 027d 00000000 		.4byte	0
 3961 0281 00000000 		.4byte	0
 3962              	.LLST23:
 3963 0285 16000000 		.4byte	.LVL47
 3964 0289 18000000 		.4byte	.LFE13
 3965 028d 0100     		.2byte	0x1
 3966 028f 53       		.byte	0x53
 3967 0290 00000000 		.4byte	0
 3968 0294 00000000 		.4byte	0
 3969              	.LLST24:
 3970 0298 00000000 		.4byte	.LFB11
 3971 029c 02000000 		.4byte	.LCFI3
 3972 02a0 0200     		.2byte	0x2
 3973 02a2 7D       		.byte	0x7d
 3974 02a3 00       		.sleb128 0
 3975 02a4 02000000 		.4byte	.LCFI3
ARM GAS  C:\Users\LAB_ME~1\AppData\Local\Temp\ccxQGkYa.s 			page 71


 3976 02a8 20000000 		.4byte	.LFE11
 3977 02ac 0200     		.2byte	0x2
 3978 02ae 7D       		.byte	0x7d
 3979 02af 10       		.sleb128 16
 3980 02b0 00000000 		.4byte	0
 3981 02b4 00000000 		.4byte	0
 3982              	.LLST25:
 3983 02b8 00000000 		.4byte	.LVL48
 3984 02bc 0C000000 		.4byte	.LVL50
 3985 02c0 0100     		.2byte	0x1
 3986 02c2 50       		.byte	0x50
 3987 02c3 0C000000 		.4byte	.LVL50
 3988 02c7 20000000 		.4byte	.LFE11
 3989 02cb 0100     		.2byte	0x1
 3990 02cd 55       		.byte	0x55
 3991 02ce 00000000 		.4byte	0
 3992 02d2 00000000 		.4byte	0
 3993              	.LLST26:
 3994 02d6 00000000 		.4byte	.LVL48
 3995 02da 0C000000 		.4byte	.LVL50
 3996 02de 0100     		.2byte	0x1
 3997 02e0 51       		.byte	0x51
 3998 02e1 0C000000 		.4byte	.LVL50
 3999 02e5 20000000 		.4byte	.LFE11
 4000 02e9 0100     		.2byte	0x1
 4001 02eb 56       		.byte	0x56
 4002 02ec 00000000 		.4byte	0
 4003 02f0 00000000 		.4byte	0
 4004              	.LLST27:
 4005 02f4 00000000 		.4byte	.LFB15
 4006 02f8 02000000 		.4byte	.LCFI4
 4007 02fc 0200     		.2byte	0x2
 4008 02fe 7D       		.byte	0x7d
 4009 02ff 00       		.sleb128 0
 4010 0300 02000000 		.4byte	.LCFI4
 4011 0304 18000000 		.4byte	.LFE15
 4012 0308 0200     		.2byte	0x2
 4013 030a 7D       		.byte	0x7d
 4014 030b 08       		.sleb128 8
 4015 030c 00000000 		.4byte	0
 4016 0310 00000000 		.4byte	0
 4017              	.LLST28:
 4018 0314 00000000 		.4byte	.LVL53
 4019 0318 0B000000 		.4byte	.LVL56-1
 4020 031c 0100     		.2byte	0x1
 4021 031e 50       		.byte	0x50
 4022 031f 0B000000 		.4byte	.LVL56-1
 4023 0323 18000000 		.4byte	.LFE15
 4024 0327 0400     		.2byte	0x4
 4025 0329 F3       		.byte	0xf3
 4026 032a 01       		.uleb128 0x1
 4027 032b 50       		.byte	0x50
 4028 032c 9F       		.byte	0x9f
 4029 032d 00000000 		.4byte	0
 4030 0331 00000000 		.4byte	0
 4031              	.LLST29:
 4032 0335 00000000 		.4byte	.LVL53
ARM GAS  C:\Users\LAB_ME~1\AppData\Local\Temp\ccxQGkYa.s 			page 72


 4033 0339 0B000000 		.4byte	.LVL56-1
 4034 033d 0100     		.2byte	0x1
 4035 033f 51       		.byte	0x51
 4036 0340 0B000000 		.4byte	.LVL56-1
 4037 0344 18000000 		.4byte	.LFE15
 4038 0348 0400     		.2byte	0x4
 4039 034a F3       		.byte	0xf3
 4040 034b 01       		.uleb128 0x1
 4041 034c 51       		.byte	0x51
 4042 034d 9F       		.byte	0x9f
 4043 034e 00000000 		.4byte	0
 4044 0352 00000000 		.4byte	0
 4045              	.LLST30:
 4046 0356 08000000 		.4byte	.LVL55
 4047 035a 0B000000 		.4byte	.LVL56-1
 4048 035e 0100     		.2byte	0x1
 4049 0360 53       		.byte	0x53
 4050 0361 00000000 		.4byte	0
 4051 0365 00000000 		.4byte	0
 4052              	.LLST31:
 4053 0369 16000000 		.4byte	.LVL59
 4054 036d 18000000 		.4byte	.LFE15
 4055 0371 0100     		.2byte	0x1
 4056 0373 53       		.byte	0x53
 4057 0374 00000000 		.4byte	0
 4058 0378 00000000 		.4byte	0
 4059              	.LLST32:
 4060 037c 00000000 		.4byte	.LVL60
 4061 0380 06000000 		.4byte	.LVL61
 4062 0384 0100     		.2byte	0x1
 4063 0386 50       		.byte	0x50
 4064 0387 06000000 		.4byte	.LVL61
 4065 038b 0A000000 		.4byte	.LFE16
 4066 038f 0100     		.2byte	0x1
 4067 0391 53       		.byte	0x53
 4068 0392 00000000 		.4byte	0
 4069 0396 00000000 		.4byte	0
 4070              	.LLST33:
 4071 039a 00000000 		.4byte	.LFB17
 4072 039e 02000000 		.4byte	.LCFI5
 4073 03a2 0200     		.2byte	0x2
 4074 03a4 7D       		.byte	0x7d
 4075 03a5 00       		.sleb128 0
 4076 03a6 02000000 		.4byte	.LCFI5
 4077 03aa 2E000000 		.4byte	.LFE17
 4078 03ae 0200     		.2byte	0x2
 4079 03b0 7D       		.byte	0x7d
 4080 03b1 18       		.sleb128 24
 4081 03b2 00000000 		.4byte	0
 4082 03b6 00000000 		.4byte	0
 4083              	.LLST34:
 4084 03ba 00000000 		.4byte	.LVL62
 4085 03be 0E000000 		.4byte	.LVL63
 4086 03c2 0100     		.2byte	0x1
 4087 03c4 50       		.byte	0x50
 4088 03c5 0E000000 		.4byte	.LVL63
 4089 03c9 2E000000 		.4byte	.LFE17
ARM GAS  C:\Users\LAB_ME~1\AppData\Local\Temp\ccxQGkYa.s 			page 73


 4090 03cd 0100     		.2byte	0x1
 4091 03cf 57       		.byte	0x57
 4092 03d0 00000000 		.4byte	0
 4093 03d4 00000000 		.4byte	0
 4094              	.LLST35:
 4095 03d8 00000000 		.4byte	.LVL62
 4096 03dc 0E000000 		.4byte	.LVL63
 4097 03e0 0100     		.2byte	0x1
 4098 03e2 51       		.byte	0x51
 4099 03e3 0E000000 		.4byte	.LVL63
 4100 03e7 2E000000 		.4byte	.LFE17
 4101 03eb 0100     		.2byte	0x1
 4102 03ed 55       		.byte	0x55
 4103 03ee 00000000 		.4byte	0
 4104 03f2 00000000 		.4byte	0
 4105              	.LLST36:
 4106 03f6 00000000 		.4byte	.LVL62
 4107 03fa 0E000000 		.4byte	.LVL63
 4108 03fe 0200     		.2byte	0x2
 4109 0400 30       		.byte	0x30
 4110 0401 9F       		.byte	0x9f
 4111 0402 10000000 		.4byte	.LVL64
 4112 0406 12000000 		.4byte	.LVL65
 4113 040a 0100     		.2byte	0x1
 4114 040c 54       		.byte	0x54
 4115 040d 28000000 		.4byte	.LVL67
 4116 0411 2C000000 		.4byte	.LVL68
 4117 0415 0100     		.2byte	0x1
 4118 0417 54       		.byte	0x54
 4119 0418 00000000 		.4byte	0
 4120 041c 00000000 		.4byte	0
 4121              	.LLST37:
 4122 0420 00000000 		.4byte	.LFB18
 4123 0424 02000000 		.4byte	.LCFI6
 4124 0428 0200     		.2byte	0x2
 4125 042a 7D       		.byte	0x7d
 4126 042b 00       		.sleb128 0
 4127 042c 02000000 		.4byte	.LCFI6
 4128 0430 3C000000 		.4byte	.LFE18
 4129 0434 0200     		.2byte	0x2
 4130 0436 7D       		.byte	0x7d
 4131 0437 10       		.sleb128 16
 4132 0438 00000000 		.4byte	0
 4133 043c 00000000 		.4byte	0
 4134              	.LLST38:
 4135 0440 00000000 		.4byte	.LVL69
 4136 0444 1A000000 		.4byte	.LVL75
 4137 0448 0100     		.2byte	0x1
 4138 044a 50       		.byte	0x50
 4139 044b 1A000000 		.4byte	.LVL75
 4140 044f 3C000000 		.4byte	.LFE18
 4141 0453 0100     		.2byte	0x1
 4142 0455 55       		.byte	0x55
 4143 0456 00000000 		.4byte	0
 4144 045a 00000000 		.4byte	0
 4145              	.LLST39:
 4146 045e 10000000 		.4byte	.LVL73
ARM GAS  C:\Users\LAB_ME~1\AppData\Local\Temp\ccxQGkYa.s 			page 74


 4147 0462 14000000 		.4byte	.LVL74
 4148 0466 0600     		.2byte	0x6
 4149 0468 70       		.byte	0x70
 4150 0469 00       		.sleb128 0
 4151 046a 73       		.byte	0x73
 4152 046b 00       		.sleb128 0
 4153 046c 1A       		.byte	0x1a
 4154 046d 9F       		.byte	0x9f
 4155 046e 14000000 		.4byte	.LVL74
 4156 0472 1D000000 		.4byte	.LVL76-1
 4157 0476 0100     		.2byte	0x1
 4158 0478 52       		.byte	0x52
 4159 0479 24000000 		.4byte	.LVL77
 4160 047d 28000000 		.4byte	.LVL78
 4161 0481 0100     		.2byte	0x1
 4162 0483 52       		.byte	0x52
 4163 0484 28000000 		.4byte	.LVL78
 4164 0488 3C000000 		.4byte	.LFE18
 4165 048c 0100     		.2byte	0x1
 4166 048e 50       		.byte	0x50
 4167 048f 00000000 		.4byte	0
 4168 0493 00000000 		.4byte	0
 4169              	.LLST40:
 4170 0497 0E000000 		.4byte	.LVL72
 4171 049b 10000000 		.4byte	.LVL73
 4172 049f 0100     		.2byte	0x1
 4173 04a1 53       		.byte	0x53
 4174 04a2 00000000 		.4byte	0
 4175 04a6 00000000 		.4byte	0
 4176              	.LLST41:
 4177 04aa 34000000 		.4byte	.LVL80
 4178 04ae 3C000000 		.4byte	.LFE18
 4179 04b2 0100     		.2byte	0x1
 4180 04b4 53       		.byte	0x53
 4181 04b5 00000000 		.4byte	0
 4182 04b9 00000000 		.4byte	0
 4183              	.LLST42:
 4184 04bd 00000000 		.4byte	.LFB19
 4185 04c1 02000000 		.4byte	.LCFI7
 4186 04c5 0200     		.2byte	0x2
 4187 04c7 7D       		.byte	0x7d
 4188 04c8 00       		.sleb128 0
 4189 04c9 02000000 		.4byte	.LCFI7
 4190 04cd 34000000 		.4byte	.LFE19
 4191 04d1 0200     		.2byte	0x2
 4192 04d3 7D       		.byte	0x7d
 4193 04d4 10       		.sleb128 16
 4194 04d5 00000000 		.4byte	0
 4195 04d9 00000000 		.4byte	0
 4196              	.LLST43:
 4197 04dd 00000000 		.4byte	.LVL81
 4198 04e1 12000000 		.4byte	.LVL86
 4199 04e5 0100     		.2byte	0x1
 4200 04e7 50       		.byte	0x50
 4201 04e8 12000000 		.4byte	.LVL86
 4202 04ec 34000000 		.4byte	.LFE19
 4203 04f0 0100     		.2byte	0x1
ARM GAS  C:\Users\LAB_ME~1\AppData\Local\Temp\ccxQGkYa.s 			page 75


 4204 04f2 55       		.byte	0x55
 4205 04f3 00000000 		.4byte	0
 4206 04f7 00000000 		.4byte	0
 4207              	.LLST44:
 4208 04fb 10000000 		.4byte	.LVL85
 4209 04ff 12000000 		.4byte	.LVL86
 4210 0503 0600     		.2byte	0x6
 4211 0505 70       		.byte	0x70
 4212 0506 00       		.sleb128 0
 4213 0507 73       		.byte	0x73
 4214 0508 00       		.sleb128 0
 4215 0509 1A       		.byte	0x1a
 4216 050a 9F       		.byte	0x9f
 4217 050b 12000000 		.4byte	.LVL86
 4218 050f 16000000 		.4byte	.LVL87
 4219 0513 0100     		.2byte	0x1
 4220 0515 50       		.byte	0x50
 4221 0516 16000000 		.4byte	.LVL87
 4222 051a 1B000000 		.4byte	.LVL88-1
 4223 051e 0600     		.2byte	0x6
 4224 0520 75       		.byte	0x75
 4225 0521 00       		.sleb128 0
 4226 0522 73       		.byte	0x73
 4227 0523 00       		.sleb128 0
 4228 0524 1A       		.byte	0x1a
 4229 0525 9F       		.byte	0x9f
 4230 0526 22000000 		.4byte	.LVL89
 4231 052a 34000000 		.4byte	.LFE19
 4232 052e 0100     		.2byte	0x1
 4233 0530 50       		.byte	0x50
 4234 0531 00000000 		.4byte	0
 4235 0535 00000000 		.4byte	0
 4236              	.LLST45:
 4237 0539 0E000000 		.4byte	.LVL84
 4238 053d 10000000 		.4byte	.LVL85
 4239 0541 0100     		.2byte	0x1
 4240 0543 53       		.byte	0x53
 4241 0544 00000000 		.4byte	0
 4242 0548 00000000 		.4byte	0
 4243              	.LLST46:
 4244 054c 2E000000 		.4byte	.LVL91
 4245 0550 34000000 		.4byte	.LFE19
 4246 0554 0100     		.2byte	0x1
 4247 0556 53       		.byte	0x53
 4248 0557 00000000 		.4byte	0
 4249 055b 00000000 		.4byte	0
 4250              	.LLST47:
 4251 055f 00000000 		.4byte	.LFB20
 4252 0563 02000000 		.4byte	.LCFI8
 4253 0567 0200     		.2byte	0x2
 4254 0569 7D       		.byte	0x7d
 4255 056a 00       		.sleb128 0
 4256 056b 02000000 		.4byte	.LCFI8
 4257 056f 38000000 		.4byte	.LFE20
 4258 0573 0200     		.2byte	0x2
 4259 0575 7D       		.byte	0x7d
 4260 0576 10       		.sleb128 16
ARM GAS  C:\Users\LAB_ME~1\AppData\Local\Temp\ccxQGkYa.s 			page 76


 4261 0577 00000000 		.4byte	0
 4262 057b 00000000 		.4byte	0
 4263              	.LLST48:
 4264 057f 00000000 		.4byte	.LVL92
 4265 0583 1C000000 		.4byte	.LVL97
 4266 0587 0100     		.2byte	0x1
 4267 0589 50       		.byte	0x50
 4268 058a 1C000000 		.4byte	.LVL97
 4269 058e 38000000 		.4byte	.LFE20
 4270 0592 0100     		.2byte	0x1
 4271 0594 54       		.byte	0x54
 4272 0595 00000000 		.4byte	0
 4273 0599 00000000 		.4byte	0
 4274              	.LLST49:
 4275 059d 0E000000 		.4byte	.LVL95
 4276 05a1 10000000 		.4byte	.LVL96
 4277 05a5 0100     		.2byte	0x1
 4278 05a7 53       		.byte	0x53
 4279 05a8 00000000 		.4byte	0
 4280 05ac 00000000 		.4byte	0
 4281              	.LLST50:
 4282 05b0 2E000000 		.4byte	.LVL100
 4283 05b4 38000000 		.4byte	.LFE20
 4284 05b8 0100     		.2byte	0x1
 4285 05ba 53       		.byte	0x53
 4286 05bb 00000000 		.4byte	0
 4287 05bf 00000000 		.4byte	0
 4288              	.LLST51:
 4289 05c3 00000000 		.4byte	.LFB21
 4290 05c7 04000000 		.4byte	.LCFI9
 4291 05cb 0200     		.2byte	0x2
 4292 05cd 7D       		.byte	0x7d
 4293 05ce 00       		.sleb128 0
 4294 05cf 04000000 		.4byte	.LCFI9
 4295 05d3 4C000000 		.4byte	.LFE21
 4296 05d7 0200     		.2byte	0x2
 4297 05d9 7D       		.byte	0x7d
 4298 05da 10       		.sleb128 16
 4299 05db 00000000 		.4byte	0
 4300 05df 00000000 		.4byte	0
 4301              	.LLST52:
 4302 05e3 00000000 		.4byte	.LVL101
 4303 05e7 18000000 		.4byte	.LVL107
 4304 05eb 0100     		.2byte	0x1
 4305 05ed 50       		.byte	0x50
 4306 05ee 18000000 		.4byte	.LVL107
 4307 05f2 22000000 		.4byte	.LVL110
 4308 05f6 0100     		.2byte	0x1
 4309 05f8 55       		.byte	0x55
 4310 05f9 22000000 		.4byte	.LVL110
 4311 05fd 26000000 		.4byte	.LVL111
 4312 0601 0100     		.2byte	0x1
 4313 0603 50       		.byte	0x50
 4314 0604 26000000 		.4byte	.LVL111
 4315 0608 4C000000 		.4byte	.LFE21
 4316 060c 0100     		.2byte	0x1
 4317 060e 55       		.byte	0x55
ARM GAS  C:\Users\LAB_ME~1\AppData\Local\Temp\ccxQGkYa.s 			page 77


 4318 060f 00000000 		.4byte	0
 4319 0613 00000000 		.4byte	0
 4320              	.LLST53:
 4321 0617 00000000 		.4byte	.LVL101
 4322 061b 18000000 		.4byte	.LVL107
 4323 061f 0100     		.2byte	0x1
 4324 0621 51       		.byte	0x51
 4325 0622 18000000 		.4byte	.LVL107
 4326 0626 22000000 		.4byte	.LVL110
 4327 062a 0400     		.2byte	0x4
 4328 062c F3       		.byte	0xf3
 4329 062d 01       		.uleb128 0x1
 4330 062e 51       		.byte	0x51
 4331 062f 9F       		.byte	0x9f
 4332 0630 22000000 		.4byte	.LVL110
 4333 0634 29000000 		.4byte	.LVL112-1
 4334 0638 0100     		.2byte	0x1
 4335 063a 51       		.byte	0x51
 4336 063b 29000000 		.4byte	.LVL112-1
 4337 063f 4C000000 		.4byte	.LFE21
 4338 0643 0400     		.2byte	0x4
 4339 0645 F3       		.byte	0xf3
 4340 0646 01       		.uleb128 0x1
 4341 0647 51       		.byte	0x51
 4342 0648 9F       		.byte	0x9f
 4343 0649 00000000 		.4byte	0
 4344 064d 00000000 		.4byte	0
 4345              	.LLST54:
 4346 0651 10000000 		.4byte	.LVL105
 4347 0655 14000000 		.4byte	.LVL106
 4348 0659 0600     		.2byte	0x6
 4349 065b 70       		.byte	0x70
 4350 065c 00       		.sleb128 0
 4351 065d 73       		.byte	0x73
 4352 065e 00       		.sleb128 0
 4353 065f 1A       		.byte	0x1a
 4354 0660 9F       		.byte	0x9f
 4355 0661 14000000 		.4byte	.LVL106
 4356 0665 4C000000 		.4byte	.LFE21
 4357 0669 0100     		.2byte	0x1
 4358 066b 54       		.byte	0x54
 4359 066c 00000000 		.4byte	0
 4360 0670 00000000 		.4byte	0
 4361              	.LLST55:
 4362 0674 0E000000 		.4byte	.LVL104
 4363 0678 10000000 		.4byte	.LVL105
 4364 067c 0100     		.2byte	0x1
 4365 067e 53       		.byte	0x53
 4366 067f 00000000 		.4byte	0
 4367 0683 00000000 		.4byte	0
 4368              	.LLST56:
 4369 0687 1E000000 		.4byte	.LVL109
 4370 068b 22000000 		.4byte	.LVL110
 4371 068f 0100     		.2byte	0x1
 4372 0691 53       		.byte	0x53
 4373 0692 00000000 		.4byte	0
 4374 0696 00000000 		.4byte	0
ARM GAS  C:\Users\LAB_ME~1\AppData\Local\Temp\ccxQGkYa.s 			page 78


 4375              	.LLST57:
 4376 069a 44000000 		.4byte	.LVL116
 4377 069e 4C000000 		.4byte	.LFE21
 4378 06a2 0100     		.2byte	0x1
 4379 06a4 53       		.byte	0x53
 4380 06a5 00000000 		.4byte	0
 4381 06a9 00000000 		.4byte	0
 4382              	.LLST58:
 4383 06ad 00000000 		.4byte	.LFB22
 4384 06b1 04000000 		.4byte	.LCFI10
 4385 06b5 0200     		.2byte	0x2
 4386 06b7 7D       		.byte	0x7d
 4387 06b8 00       		.sleb128 0
 4388 06b9 04000000 		.4byte	.LCFI10
 4389 06bd 48000000 		.4byte	.LFE22
 4390 06c1 0200     		.2byte	0x2
 4391 06c3 7D       		.byte	0x7d
 4392 06c4 10       		.sleb128 16
 4393 06c5 00000000 		.4byte	0
 4394 06c9 00000000 		.4byte	0
 4395              	.LLST59:
 4396 06cd 00000000 		.4byte	.LVL117
 4397 06d1 18000000 		.4byte	.LVL123
 4398 06d5 0100     		.2byte	0x1
 4399 06d7 50       		.byte	0x50
 4400 06d8 18000000 		.4byte	.LVL123
 4401 06dc 22000000 		.4byte	.LVL126
 4402 06e0 0100     		.2byte	0x1
 4403 06e2 54       		.byte	0x54
 4404 06e3 22000000 		.4byte	.LVL126
 4405 06e7 24000000 		.4byte	.LVL127
 4406 06eb 0100     		.2byte	0x1
 4407 06ed 50       		.byte	0x50
 4408 06ee 24000000 		.4byte	.LVL127
 4409 06f2 48000000 		.4byte	.LFE22
 4410 06f6 0100     		.2byte	0x1
 4411 06f8 54       		.byte	0x54
 4412 06f9 00000000 		.4byte	0
 4413 06fd 00000000 		.4byte	0
 4414              	.LLST60:
 4415 0701 00000000 		.4byte	.LVL117
 4416 0705 18000000 		.4byte	.LVL123
 4417 0709 0100     		.2byte	0x1
 4418 070b 51       		.byte	0x51
 4419 070c 18000000 		.4byte	.LVL123
 4420 0710 22000000 		.4byte	.LVL126
 4421 0714 0400     		.2byte	0x4
 4422 0716 F3       		.byte	0xf3
 4423 0717 01       		.uleb128 0x1
 4424 0718 51       		.byte	0x51
 4425 0719 9F       		.byte	0x9f
 4426 071a 22000000 		.4byte	.LVL126
 4427 071e 29000000 		.4byte	.LVL128-1
 4428 0722 0100     		.2byte	0x1
 4429 0724 51       		.byte	0x51
 4430 0725 29000000 		.4byte	.LVL128-1
 4431 0729 48000000 		.4byte	.LFE22
ARM GAS  C:\Users\LAB_ME~1\AppData\Local\Temp\ccxQGkYa.s 			page 79


 4432 072d 0400     		.2byte	0x4
 4433 072f F3       		.byte	0xf3
 4434 0730 01       		.uleb128 0x1
 4435 0731 51       		.byte	0x51
 4436 0732 9F       		.byte	0x9f
 4437 0733 00000000 		.4byte	0
 4438 0737 00000000 		.4byte	0
 4439              	.LLST61:
 4440 073b 10000000 		.4byte	.LVL121
 4441 073f 14000000 		.4byte	.LVL122
 4442 0743 0600     		.2byte	0x6
 4443 0745 70       		.byte	0x70
 4444 0746 00       		.sleb128 0
 4445 0747 72       		.byte	0x72
 4446 0748 00       		.sleb128 0
 4447 0749 1A       		.byte	0x1a
 4448 074a 9F       		.byte	0x9f
 4449 074b 14000000 		.4byte	.LVL122
 4450 074f 48000000 		.4byte	.LFE22
 4451 0753 0100     		.2byte	0x1
 4452 0755 55       		.byte	0x55
 4453 0756 00000000 		.4byte	0
 4454 075a 00000000 		.4byte	0
 4455              	.LLST62:
 4456 075e 0E000000 		.4byte	.LVL120
 4457 0762 1A000000 		.4byte	.LVL124
 4458 0766 0100     		.2byte	0x1
 4459 0768 53       		.byte	0x53
 4460 0769 22000000 		.4byte	.LVL126
 4461 076d 29000000 		.4byte	.LVL128-1
 4462 0771 0100     		.2byte	0x1
 4463 0773 53       		.byte	0x53
 4464 0774 34000000 		.4byte	.LVL129
 4465 0778 3C000000 		.4byte	.LVL130
 4466 077c 0100     		.2byte	0x1
 4467 077e 53       		.byte	0x53
 4468 077f 00000000 		.4byte	0
 4469 0783 00000000 		.4byte	0
 4470              	.LLST63:
 4471 0787 1E000000 		.4byte	.LVL125
 4472 078b 22000000 		.4byte	.LVL126
 4473 078f 0100     		.2byte	0x1
 4474 0791 53       		.byte	0x53
 4475 0792 00000000 		.4byte	0
 4476 0796 00000000 		.4byte	0
 4477              	.LLST64:
 4478 079a 40000000 		.4byte	.LVL131
 4479 079e 48000000 		.4byte	.LFE22
 4480 07a2 0100     		.2byte	0x1
 4481 07a4 53       		.byte	0x53
 4482 07a5 00000000 		.4byte	0
 4483 07a9 00000000 		.4byte	0
 4484              	.LLST65:
 4485 07ad 00000000 		.4byte	.LFB23
 4486 07b1 02000000 		.4byte	.LCFI11
 4487 07b5 0200     		.2byte	0x2
 4488 07b7 7D       		.byte	0x7d
ARM GAS  C:\Users\LAB_ME~1\AppData\Local\Temp\ccxQGkYa.s 			page 80


 4489 07b8 00       		.sleb128 0
 4490 07b9 02000000 		.4byte	.LCFI11
 4491 07bd 54000000 		.4byte	.LFE23
 4492 07c1 0200     		.2byte	0x2
 4493 07c3 7D       		.byte	0x7d
 4494 07c4 10       		.sleb128 16
 4495 07c5 00000000 		.4byte	0
 4496 07c9 00000000 		.4byte	0
 4497              	.LLST66:
 4498 07cd 00000000 		.4byte	.LVL132
 4499 07d1 24000000 		.4byte	.LVL139
 4500 07d5 0100     		.2byte	0x1
 4501 07d7 50       		.byte	0x50
 4502 07d8 24000000 		.4byte	.LVL139
 4503 07dc 26000000 		.4byte	.LVL140
 4504 07e0 0400     		.2byte	0x4
 4505 07e2 F3       		.byte	0xf3
 4506 07e3 01       		.uleb128 0x1
 4507 07e4 50       		.byte	0x50
 4508 07e5 9F       		.byte	0x9f
 4509 07e6 26000000 		.4byte	.LVL140
 4510 07ea 28000000 		.4byte	.LVL141
 4511 07ee 0100     		.2byte	0x1
 4512 07f0 50       		.byte	0x50
 4513 07f1 28000000 		.4byte	.LVL141
 4514 07f5 40000000 		.4byte	.LVL144
 4515 07f9 0100     		.2byte	0x1
 4516 07fb 54       		.byte	0x54
 4517 07fc 40000000 		.4byte	.LVL144
 4518 0800 44000000 		.4byte	.LVL145
 4519 0804 0400     		.2byte	0x4
 4520 0806 F3       		.byte	0xf3
 4521 0807 01       		.uleb128 0x1
 4522 0808 50       		.byte	0x50
 4523 0809 9F       		.byte	0x9f
 4524 080a 44000000 		.4byte	.LVL145
 4525 080e 4C000000 		.4byte	.LVL147
 4526 0812 0100     		.2byte	0x1
 4527 0814 54       		.byte	0x54
 4528 0815 4C000000 		.4byte	.LVL147
 4529 0819 54000000 		.4byte	.LFE23
 4530 081d 0400     		.2byte	0x4
 4531 081f F3       		.byte	0xf3
 4532 0820 01       		.uleb128 0x1
 4533 0821 50       		.byte	0x50
 4534 0822 9F       		.byte	0x9f
 4535 0823 00000000 		.4byte	0
 4536 0827 00000000 		.4byte	0
 4537              	.LLST67:
 4538 082b 00000000 		.4byte	.LVL132
 4539 082f 2D000000 		.4byte	.LVL142-1
 4540 0833 0100     		.2byte	0x1
 4541 0835 51       		.byte	0x51
 4542 0836 2D000000 		.4byte	.LVL142-1
 4543 083a 54000000 		.4byte	.LFE23
 4544 083e 0400     		.2byte	0x4
 4545 0840 F3       		.byte	0xf3
ARM GAS  C:\Users\LAB_ME~1\AppData\Local\Temp\ccxQGkYa.s 			page 81


 4546 0841 01       		.uleb128 0x1
 4547 0842 51       		.byte	0x51
 4548 0843 9F       		.byte	0x9f
 4549 0844 00000000 		.4byte	0
 4550 0848 00000000 		.4byte	0
 4551              	.LLST68:
 4552 084c 0E000000 		.4byte	.LVL135
 4553 0850 14000000 		.4byte	.LVL136
 4554 0854 0100     		.2byte	0x1
 4555 0856 53       		.byte	0x53
 4556 0857 00000000 		.4byte	0
 4557 085b 00000000 		.4byte	0
 4558              	.LLST69:
 4559 085f 20000000 		.4byte	.LVL138
 4560 0863 26000000 		.4byte	.LVL140
 4561 0867 0100     		.2byte	0x1
 4562 0869 53       		.byte	0x53
 4563 086a 00000000 		.4byte	0
 4564 086e 00000000 		.4byte	0
 4565              	.LLST70:
 4566 0872 40000000 		.4byte	.LVL144
 4567 0876 44000000 		.4byte	.LVL145
 4568 087a 0100     		.2byte	0x1
 4569 087c 53       		.byte	0x53
 4570 087d 00000000 		.4byte	0
 4571 0881 00000000 		.4byte	0
 4572              	.LLST71:
 4573 0885 40000000 		.4byte	.LVL144
 4574 0889 44000000 		.4byte	.LVL145
 4575 088d 0100     		.2byte	0x1
 4576 088f 53       		.byte	0x53
 4577 0890 4A000000 		.4byte	.LVL146
 4578 0894 54000000 		.4byte	.LFE23
 4579 0898 0100     		.2byte	0x1
 4580 089a 53       		.byte	0x53
 4581 089b 00000000 		.4byte	0
 4582 089f 00000000 		.4byte	0
 4583              		.section	.debug_aranges,"",%progbits
 4584 0000 9C000000 		.4byte	0x9c
 4585 0004 0200     		.2byte	0x2
 4586 0006 00000000 		.4byte	.Ldebug_info0
 4587 000a 04       		.byte	0x4
 4588 000b 00       		.byte	0
 4589 000c 0000     		.2byte	0
 4590 000e 0000     		.2byte	0
 4591 0010 00000000 		.4byte	.LFB7
 4592 0014 28000000 		.4byte	.LFE7-.LFB7
 4593 0018 00000000 		.4byte	.LFB8
 4594 001c 22000000 		.4byte	.LFE8-.LFB8
 4595 0020 00000000 		.4byte	.LFB9
 4596 0024 20000000 		.4byte	.LFE9-.LFB9
 4597 0028 00000000 		.4byte	.LFB10
 4598 002c 1C000000 		.4byte	.LFE10-.LFB10
 4599 0030 00000000 		.4byte	.LFB12
 4600 0034 14000000 		.4byte	.LFE12-.LFB12
 4601 0038 00000000 		.4byte	.LFB14
 4602 003c 2E000000 		.4byte	.LFE14-.LFB14
ARM GAS  C:\Users\LAB_ME~1\AppData\Local\Temp\ccxQGkYa.s 			page 82


 4603 0040 00000000 		.4byte	.LFB13
 4604 0044 18000000 		.4byte	.LFE13-.LFB13
 4605 0048 00000000 		.4byte	.LFB11
 4606 004c 20000000 		.4byte	.LFE11-.LFB11
 4607 0050 00000000 		.4byte	.LFB15
 4608 0054 18000000 		.4byte	.LFE15-.LFB15
 4609 0058 00000000 		.4byte	.LFB16
 4610 005c 0A000000 		.4byte	.LFE16-.LFB16
 4611 0060 00000000 		.4byte	.LFB17
 4612 0064 2E000000 		.4byte	.LFE17-.LFB17
 4613 0068 00000000 		.4byte	.LFB18
 4614 006c 3C000000 		.4byte	.LFE18-.LFB18
 4615 0070 00000000 		.4byte	.LFB19
 4616 0074 34000000 		.4byte	.LFE19-.LFB19
 4617 0078 00000000 		.4byte	.LFB20
 4618 007c 38000000 		.4byte	.LFE20-.LFB20
 4619 0080 00000000 		.4byte	.LFB21
 4620 0084 4C000000 		.4byte	.LFE21-.LFB21
 4621 0088 00000000 		.4byte	.LFB22
 4622 008c 48000000 		.4byte	.LFE22-.LFB22
 4623 0090 00000000 		.4byte	.LFB23
 4624 0094 54000000 		.4byte	.LFE23-.LFB23
 4625 0098 00000000 		.4byte	0
 4626 009c 00000000 		.4byte	0
 4627              		.section	.debug_ranges,"",%progbits
 4628              	.Ldebug_ranges0:
 4629 0000 14000000 		.4byte	.LBB3
 4630 0004 16000000 		.4byte	.LBE3
 4631 0008 1C000000 		.4byte	.LBB4
 4632 000c 20000000 		.4byte	.LBE4
 4633 0010 00000000 		.4byte	0
 4634 0014 00000000 		.4byte	0
 4635 0018 00000000 		.4byte	.LFB7
 4636 001c 28000000 		.4byte	.LFE7
 4637 0020 00000000 		.4byte	.LFB8
 4638 0024 22000000 		.4byte	.LFE8
 4639 0028 00000000 		.4byte	.LFB9
 4640 002c 20000000 		.4byte	.LFE9
 4641 0030 00000000 		.4byte	.LFB10
 4642 0034 1C000000 		.4byte	.LFE10
 4643 0038 00000000 		.4byte	.LFB12
 4644 003c 14000000 		.4byte	.LFE12
 4645 0040 00000000 		.4byte	.LFB14
 4646 0044 2E000000 		.4byte	.LFE14
 4647 0048 00000000 		.4byte	.LFB13
 4648 004c 18000000 		.4byte	.LFE13
 4649 0050 00000000 		.4byte	.LFB11
 4650 0054 20000000 		.4byte	.LFE11
 4651 0058 00000000 		.4byte	.LFB15
 4652 005c 18000000 		.4byte	.LFE15
 4653 0060 00000000 		.4byte	.LFB16
 4654 0064 0A000000 		.4byte	.LFE16
 4655 0068 00000000 		.4byte	.LFB17
 4656 006c 2E000000 		.4byte	.LFE17
 4657 0070 00000000 		.4byte	.LFB18
 4658 0074 3C000000 		.4byte	.LFE18
 4659 0078 00000000 		.4byte	.LFB19
ARM GAS  C:\Users\LAB_ME~1\AppData\Local\Temp\ccxQGkYa.s 			page 83


 4660 007c 34000000 		.4byte	.LFE19
 4661 0080 00000000 		.4byte	.LFB20
 4662 0084 38000000 		.4byte	.LFE20
 4663 0088 00000000 		.4byte	.LFB21
 4664 008c 4C000000 		.4byte	.LFE21
 4665 0090 00000000 		.4byte	.LFB22
 4666 0094 48000000 		.4byte	.LFE22
 4667 0098 00000000 		.4byte	.LFB23
 4668 009c 54000000 		.4byte	.LFE23
 4669 00a0 00000000 		.4byte	0
 4670 00a4 00000000 		.4byte	0
 4671              		.section	.debug_line,"",%progbits
 4672              	.Ldebug_line0:
 4673 0000 3D030000 		.section	.debug_str,"MS",%progbits,1
 4673      02005F01 
 4673      00000201 
 4673      FB0E0D00 
 4673      01010101 
 4674              	.LASF37:
 4675 0000 705F6D73 		.ascii	"p_msg\000"
 4675      6700
 4676              	.LASF67:
 4677 0006 7264796D 		.ascii	"rdymsg\000"
 4677      736700
 4678              	.LASF79:
 4679 000d 63684576 		.ascii	"chEvtSignal\000"
 4679      74536967 
 4679      6E616C00 
 4680              	.LASF11:
 4681 0019 6C6F6E67 		.ascii	"long long unsigned int\000"
 4681      206C6F6E 
 4681      6720756E 
 4681      7369676E 
 4681      65642069 
 4682              	.LASF76:
 4683 0030 63684576 		.ascii	"chEvtAddEvents\000"
 4683      74416464 
 4683      4576656E 
 4683      747300
 4684              	.LASF68:
 4685 003f 65786974 		.ascii	"exitcode\000"
 4685      636F6465 
 4685      00
 4686              	.LASF90:
 4687 0048 63684576 		.ascii	"chEvtWaitAnyTimeout\000"
 4687      74576169 
 4687      74416E79 
 4687      54696D65 
 4687      6F757400 
 4688              	.LASF25:
 4689 005c 705F7072 		.ascii	"p_prio\000"
 4689      696F00
 4690              	.LASF10:
 4691 0063 6C6F6E67 		.ascii	"long long int\000"
 4691      206C6F6E 
 4691      6720696E 
 4691      7400
ARM GAS  C:\Users\LAB_ME~1\AppData\Local\Temp\ccxQGkYa.s 			page 84


 4692              	.LASF1:
 4693 0071 7369676E 		.ascii	"signed char\000"
 4693      65642063 
 4693      68617200 
 4694              	.LASF91:
 4695 007d 63684576 		.ascii	"chEvtWaitAllTimeout\000"
 4695      74576169 
 4695      74416C6C 
 4695      54696D65 
 4695      6F757400 
 4696              	.LASF41:
 4697 0091 705F6D70 		.ascii	"p_mpool\000"
 4697      6F6F6C00 
 4698              	.LASF56:
 4699 0099 6D5F7175 		.ascii	"m_queue\000"
 4699      65756500 
 4700              	.LASF15:
 4701 00a1 74736C69 		.ascii	"tslices_t\000"
 4701      6365735F 
 4701      7400
 4702              	.LASF7:
 4703 00ab 6C6F6E67 		.ascii	"long int\000"
 4703      20696E74 
 4703      00
 4704              	.LASF13:
 4705 00b4 74737461 		.ascii	"tstate_t\000"
 4705      74655F74 
 4705      00
 4706              	.LASF87:
 4707 00bd 63684576 		.ascii	"chEvtWaitAll\000"
 4707      74576169 
 4707      74416C6C 
 4707      00
 4708              	.LASF86:
 4709 00ca 63684576 		.ascii	"chEvtWaitAny\000"
 4709      74576169 
 4709      74416E79 
 4709      00
 4710              	.LASF94:
 4711 00d7 63685363 		.ascii	"chSchGoSleepTimeoutS\000"
 4711      68476F53 
 4711      6C656570 
 4711      54696D65 
 4711      6F757453 
 4712              	.LASF80:
 4713 00ec 63684576 		.ascii	"chEvtBroadcastFlagsI\000"
 4713      7442726F 
 4713      61646361 
 4713      7374466C 
 4713      61677349 
 4714              	.LASF27:
 4715 0101 705F6E65 		.ascii	"p_newer\000"
 4715      77657200 
 4716              	.LASF100:
 4717 0109 63685363 		.ascii	"chSchRescheduleS\000"
 4717      68526573 
 4717      63686564 
ARM GAS  C:\Users\LAB_ME~1\AppData\Local\Temp\ccxQGkYa.s 			page 85


 4717      756C6553 
 4717      00
 4718              	.LASF51:
 4719 011a 725F6E65 		.ascii	"r_newer\000"
 4719      77657200 
 4720              	.LASF72:
 4721 0122 6D61736B 		.ascii	"mask\000"
 4721      00
 4722              	.LASF44:
 4723 0127 72656761 		.ascii	"regarm_t\000"
 4723      726D5F74 
 4723      00
 4724              	.LASF81:
 4725 0130 63684576 		.ascii	"chEvtBroadcastFlags\000"
 4725      7442726F 
 4725      61646361 
 4725      7374466C 
 4725      61677300 
 4726              	.LASF18:
 4727 0144 6576656E 		.ascii	"eventid_t\000"
 4727      7469645F 
 4727      7400
 4728              	.LASF64:
 4729 014e 4576656E 		.ascii	"EventSource\000"
 4729      74536F75 
 4729      72636500 
 4730              	.LASF66:
 4731 015a 65766861 		.ascii	"evhandler_t\000"
 4731      6E646C65 
 4731      725F7400 
 4732              	.LASF0:
 4733 0166 756E7369 		.ascii	"unsigned int\000"
 4733      676E6564 
 4733      20696E74 
 4733      00
 4734              	.LASF9:
 4735 0173 6C6F6E67 		.ascii	"long unsigned int\000"
 4735      20756E73 
 4735      69676E65 
 4735      6420696E 
 4735      7400
 4736              	.LASF75:
 4737 0185 63684576 		.ascii	"chEvtGetAndClearEvents\000"
 4737      74476574 
 4737      416E6443 
 4737      6C656172 
 4737      4576656E 
 4738              	.LASF46:
 4739 019c 636F6E74 		.ascii	"context\000"
 4739      65787400 
 4740              	.LASF4:
 4741 01a4 73686F72 		.ascii	"short unsigned int\000"
 4741      7420756E 
 4741      7369676E 
 4741      65642069 
 4741      6E7400
 4742              	.LASF73:
ARM GAS  C:\Users\LAB_ME~1\AppData\Local\Temp\ccxQGkYa.s 			page 86


 4743 01b7 63684576 		.ascii	"chEvtRegisterMask\000"
 4743      74526567 
 4743      69737465 
 4743      724D6173 
 4743      6B00
 4744              	.LASF17:
 4745 01c9 6D73675F 		.ascii	"msg_t\000"
 4745      7400
 4746              	.LASF60:
 4747 01cf 656C5F6E 		.ascii	"el_next\000"
 4747      65787400 
 4748              	.LASF74:
 4749 01d7 63684576 		.ascii	"chEvtUnregister\000"
 4749      74556E72 
 4749      65676973 
 4749      74657200 
 4750              	.LASF12:
 4751 01e7 746D6F64 		.ascii	"tmode_t\000"
 4751      655F7400 
 4752              	.LASF43:
 4753 01ef 54687265 		.ascii	"ThreadsList\000"
 4753      6164734C 
 4753      69737400 
 4754              	.LASF19:
 4755 01fb 6576656E 		.ascii	"eventmask_t\000"
 4755      746D6173 
 4755      6B5F7400 
 4756              	.LASF55:
 4757 0207 4D757465 		.ascii	"Mutex\000"
 4757      7800
 4758              	.LASF47:
 4759 020d 73697A65 		.ascii	"sizetype\000"
 4759      74797065 
 4759      00
 4760              	.LASF83:
 4761 0216 63684576 		.ascii	"chEvtDispatch\000"
 4761      74446973 
 4761      70617463 
 4761      6800
 4762              	.LASF28:
 4763 0224 705F6F6C 		.ascii	"p_older\000"
 4763      64657200 
 4764              	.LASF50:
 4765 022c 725F6374 		.ascii	"r_ctx\000"
 4765      7800
 4766              	.LASF42:
 4767 0232 54687265 		.ascii	"ThreadsQueue\000"
 4767      61647351 
 4767      75657565 
 4767      00
 4768              	.LASF89:
 4769 023f 74696D65 		.ascii	"time\000"
 4769      00
 4770              	.LASF95:
 4771 0244 474E5520 		.ascii	"GNU C 4.7.2\000"
 4771      4320342E 
 4771      372E3200 
ARM GAS  C:\Users\LAB_ME~1\AppData\Local\Temp\ccxQGkYa.s 			page 87


 4772              	.LASF53:
 4773 0250 725F6375 		.ascii	"r_current\000"
 4773      7272656E 
 4773      7400
 4774              	.LASF52:
 4775 025a 725F6F6C 		.ascii	"r_older\000"
 4775      64657200 
 4776              	.LASF62:
 4777 0262 656C5F6D 		.ascii	"el_mask\000"
 4777      61736B00 
 4778              	.LASF84:
 4779 026a 68616E64 		.ascii	"handlers\000"
 4779      6C657273 
 4779      00
 4780              	.LASF14:
 4781 0273 74726566 		.ascii	"trefs_t\000"
 4781      735F7400 
 4782              	.LASF24:
 4783 027b 705F7072 		.ascii	"p_prev\000"
 4783      657600
 4784              	.LASF16:
 4785 0282 74707269 		.ascii	"tprio_t\000"
 4785      6F5F7400 
 4786              	.LASF6:
 4787 028a 696E7433 		.ascii	"int32_t\000"
 4787      325F7400 
 4788              	.LASF2:
 4789 0292 756E7369 		.ascii	"unsigned char\000"
 4789      676E6564 
 4789      20636861 
 4789      7200
 4790              	.LASF85:
 4791 02a0 63684576 		.ascii	"chEvtWaitOne\000"
 4791      74576169 
 4791      744F6E65 
 4791      00
 4792              	.LASF61:
 4793 02ad 656C5F6C 		.ascii	"el_listener\000"
 4793      69737465 
 4793      6E657200 
 4794              	.LASF63:
 4795 02b9 656C5F66 		.ascii	"el_flags\000"
 4795      6C616773 
 4795      00
 4796              	.LASF39:
 4797 02c2 705F6D74 		.ascii	"p_mtxlist\000"
 4797      786C6973 
 4797      7400
 4798              	.LASF3:
 4799 02cc 73686F72 		.ascii	"short int\000"
 4799      7420696E 
 4799      7400
 4800              	.LASF30:
 4801 02d6 705F7374 		.ascii	"p_state\000"
 4801      61746500 
 4802              	.LASF33:
 4803 02de 705F7072 		.ascii	"p_preempt\000"
ARM GAS  C:\Users\LAB_ME~1\AppData\Local\Temp\ccxQGkYa.s 			page 88


 4803      65656D70 
 4803      7400
 4804              	.LASF49:
 4805 02e8 725F7072 		.ascii	"r_prio\000"
 4805      696F00
 4806              	.LASF82:
 4807 02ef 63684576 		.ascii	"chEvtGetAndClearFlagsI\000"
 4807      74476574 
 4807      416E6443 
 4807      6C656172 
 4807      466C6167 
 4808              	.LASF70:
 4809 0306 65776D61 		.ascii	"ewmask\000"
 4809      736B00
 4810              	.LASF23:
 4811 030d 705F6E65 		.ascii	"p_next\000"
 4811      787400
 4812              	.LASF31:
 4813 0314 705F666C 		.ascii	"p_flags\000"
 4813      61677300 
 4814              	.LASF22:
 4815 031c 54687265 		.ascii	"Thread\000"
 4815      616400
 4816              	.LASF93:
 4817 0323 63685363 		.ascii	"chSchGoSleepS\000"
 4817      68476F53 
 4817      6C656570 
 4817      5300
 4818              	.LASF38:
 4819 0331 705F6570 		.ascii	"p_epending\000"
 4819      656E6469 
 4819      6E6700
 4820              	.LASF8:
 4821 033c 75696E74 		.ascii	"uint32_t\000"
 4821      33325F74 
 4821      00
 4822              	.LASF48:
 4823 0345 725F7175 		.ascii	"r_queue\000"
 4823      65756500 
 4824              	.LASF99:
 4825 034d 63685363 		.ascii	"chSchReadyI\000"
 4825      68526561 
 4825      64794900 
 4826              	.LASF71:
 4827 0359 63686172 		.ascii	"char\000"
 4827      00
 4828              	.LASF58:
 4829 035e 6D5F6E65 		.ascii	"m_next\000"
 4829      787400
 4830              	.LASF21:
 4831 0365 73797374 		.ascii	"systime_t\000"
 4831      696D655F 
 4831      7400
 4832              	.LASF40:
 4833 036f 705F7265 		.ascii	"p_realprio\000"
 4833      616C7072 
 4833      696F00
ARM GAS  C:\Users\LAB_ME~1\AppData\Local\Temp\ccxQGkYa.s 			page 89


 4834              	.LASF34:
 4835 037a 705F7469 		.ascii	"p_time\000"
 4835      6D6500
 4836              	.LASF45:
 4837 0381 696E7463 		.ascii	"intctx\000"
 4837      747800
 4838              	.LASF36:
 4839 0388 705F6D73 		.ascii	"p_msgqueue\000"
 4839      67717565 
 4839      756500
 4840              	.LASF20:
 4841 0393 666C6167 		.ascii	"flagsmask_t\000"
 4841      736D6173 
 4841      6B5F7400 
 4842              	.LASF32:
 4843 039f 705F7265 		.ascii	"p_refs\000"
 4843      667300
 4844              	.LASF54:
 4845 03a6 52656164 		.ascii	"ReadyList\000"
 4845      794C6973 
 4845      7400
 4846              	.LASF98:
 4847 03b0 726C6973 		.ascii	"rlist\000"
 4847      7400
 4848              	.LASF5:
 4849 03b6 75696E74 		.ascii	"uint8_t\000"
 4849      385F7400 
 4850              	.LASF78:
 4851 03be 666C6167 		.ascii	"flags\000"
 4851      7300
 4852              	.LASF96:
 4853 03c4 2E2E2F2E 		.ascii	"../../os/kernel/src/chevents.c\000"
 4853      2E2F6F73 
 4853      2F6B6572 
 4853      6E656C2F 
 4853      7372632F 
 4854              	.LASF59:
 4855 03e3 4576656E 		.ascii	"EventListener\000"
 4855      744C6973 
 4855      74656E65 
 4855      7200
 4856              	.LASF88:
 4857 03f1 63684576 		.ascii	"chEvtWaitOneTimeout\000"
 4857      74576169 
 4857      744F6E65 
 4857      54696D65 
 4857      6F757400 
 4858              	.LASF69:
 4859 0405 77746F62 		.ascii	"wtobjp\000"
 4859      6A7000
 4860              	.LASF29:
 4861 040c 705F6E61 		.ascii	"p_name\000"
 4861      6D6500
 4862              	.LASF65:
 4863 0413 65735F6E 		.ascii	"es_next\000"
 4863      65787400 
 4864              	.LASF77:
ARM GAS  C:\Users\LAB_ME~1\AppData\Local\Temp\ccxQGkYa.s 			page 90


 4865 041b 63684576 		.ascii	"chEvtGetAndClearFlags\000"
 4865      74476574 
 4865      416E6443 
 4865      6C656172 
 4865      466C6167 
 4866              	.LASF57:
 4867 0431 6D5F6F77 		.ascii	"m_owner\000"
 4867      6E657200 
 4868              	.LASF97:
 4869 0439 433A5C43 		.ascii	"C:\\Chibios\\demos\\FirmwareV2\000"
 4869      68696269 
 4869      6F735C64 
 4869      656D6F73 
 4869      5C466972 
 4870              	.LASF26:
 4871 0455 705F6374 		.ascii	"p_ctx\000"
 4871      7800
 4872              	.LASF35:
 4873 045b 705F7761 		.ascii	"p_waiting\000"
 4873      6974696E 
 4873      6700
 4874              	.LASF92:
 4875 0465 63684576 		.ascii	"chEvtSignalI\000"
 4875      74536967 
 4875      6E616C49 
 4875      00
 4876              		.ident	"GCC: (Sourcery CodeBench Lite 2012.09-63) 4.7.2"
ARM GAS  C:\Users\LAB_ME~1\AppData\Local\Temp\ccxQGkYa.s 			page 91


DEFINED SYMBOLS
                            *ABS*:00000000 chevents.c
C:\Users\LAB_ME~1\AppData\Local\Temp\ccxQGkYa.s:19     .text.chEvtRegisterMask:00000000 $t
C:\Users\LAB_ME~1\AppData\Local\Temp\ccxQGkYa.s:25     .text.chEvtRegisterMask:00000000 chEvtRegisterMask
C:\Users\LAB_ME~1\AppData\Local\Temp\ccxQGkYa.s:87     .text.chEvtRegisterMask:00000024 $d
C:\Users\LAB_ME~1\AppData\Local\Temp\ccxQGkYa.s:92     .text.chEvtUnregister:00000000 $t
C:\Users\LAB_ME~1\AppData\Local\Temp\ccxQGkYa.s:98     .text.chEvtUnregister:00000000 chEvtUnregister
C:\Users\LAB_ME~1\AppData\Local\Temp\ccxQGkYa.s:153    .text.chEvtGetAndClearEvents:00000000 $t
C:\Users\LAB_ME~1\AppData\Local\Temp\ccxQGkYa.s:159    .text.chEvtGetAndClearEvents:00000000 chEvtGetAndClearEvents
C:\Users\LAB_ME~1\AppData\Local\Temp\ccxQGkYa.s:203    .text.chEvtGetAndClearEvents:0000001c $d
C:\Users\LAB_ME~1\AppData\Local\Temp\ccxQGkYa.s:208    .text.chEvtAddEvents:00000000 $t
C:\Users\LAB_ME~1\AppData\Local\Temp\ccxQGkYa.s:214    .text.chEvtAddEvents:00000000 chEvtAddEvents
C:\Users\LAB_ME~1\AppData\Local\Temp\ccxQGkYa.s:256    .text.chEvtAddEvents:00000018 $d
C:\Users\LAB_ME~1\AppData\Local\Temp\ccxQGkYa.s:261    .text.chEvtGetAndClearFlags:00000000 $t
C:\Users\LAB_ME~1\AppData\Local\Temp\ccxQGkYa.s:267    .text.chEvtGetAndClearFlags:00000000 chEvtGetAndClearFlags
C:\Users\LAB_ME~1\AppData\Local\Temp\ccxQGkYa.s:309    .text.chEvtSignalI:00000000 $t
C:\Users\LAB_ME~1\AppData\Local\Temp\ccxQGkYa.s:315    .text.chEvtSignalI:00000000 chEvtSignalI
C:\Users\LAB_ME~1\AppData\Local\Temp\ccxQGkYa.s:376    .text.chEvtSignal:00000000 $t
C:\Users\LAB_ME~1\AppData\Local\Temp\ccxQGkYa.s:382    .text.chEvtSignal:00000000 chEvtSignal
C:\Users\LAB_ME~1\AppData\Local\Temp\ccxQGkYa.s:425    .text.chEvtBroadcastFlagsI:00000000 $t
C:\Users\LAB_ME~1\AppData\Local\Temp\ccxQGkYa.s:431    .text.chEvtBroadcastFlagsI:00000000 chEvtBroadcastFlagsI
C:\Users\LAB_ME~1\AppData\Local\Temp\ccxQGkYa.s:478    .text.chEvtBroadcastFlags:00000000 $t
C:\Users\LAB_ME~1\AppData\Local\Temp\ccxQGkYa.s:484    .text.chEvtBroadcastFlags:00000000 chEvtBroadcastFlags
C:\Users\LAB_ME~1\AppData\Local\Temp\ccxQGkYa.s:527    .text.chEvtGetAndClearFlagsI:00000000 $t
C:\Users\LAB_ME~1\AppData\Local\Temp\ccxQGkYa.s:533    .text.chEvtGetAndClearFlagsI:00000000 chEvtGetAndClearFlagsI
C:\Users\LAB_ME~1\AppData\Local\Temp\ccxQGkYa.s:556    .text.chEvtDispatch:00000000 $t
C:\Users\LAB_ME~1\AppData\Local\Temp\ccxQGkYa.s:562    .text.chEvtDispatch:00000000 chEvtDispatch
C:\Users\LAB_ME~1\AppData\Local\Temp\ccxQGkYa.s:622    .text.chEvtWaitOne:00000000 $t
C:\Users\LAB_ME~1\AppData\Local\Temp\ccxQGkYa.s:628    .text.chEvtWaitOne:00000000 chEvtWaitOne
C:\Users\LAB_ME~1\AppData\Local\Temp\ccxQGkYa.s:699    .text.chEvtWaitOne:00000038 $d
C:\Users\LAB_ME~1\AppData\Local\Temp\ccxQGkYa.s:704    .text.chEvtWaitAny:00000000 $t
C:\Users\LAB_ME~1\AppData\Local\Temp\ccxQGkYa.s:710    .text.chEvtWaitAny:00000000 chEvtWaitAny
C:\Users\LAB_ME~1\AppData\Local\Temp\ccxQGkYa.s:778    .text.chEvtWaitAny:00000030 $d
C:\Users\LAB_ME~1\AppData\Local\Temp\ccxQGkYa.s:783    .text.chEvtWaitAll:00000000 $t
C:\Users\LAB_ME~1\AppData\Local\Temp\ccxQGkYa.s:789    .text.chEvtWaitAll:00000000 chEvtWaitAll
C:\Users\LAB_ME~1\AppData\Local\Temp\ccxQGkYa.s:854    .text.chEvtWaitAll:00000034 $d
C:\Users\LAB_ME~1\AppData\Local\Temp\ccxQGkYa.s:859    .text.chEvtWaitOneTimeout:00000000 $t
C:\Users\LAB_ME~1\AppData\Local\Temp\ccxQGkYa.s:865    .text.chEvtWaitOneTimeout:00000000 chEvtWaitOneTimeout
C:\Users\LAB_ME~1\AppData\Local\Temp\ccxQGkYa.s:959    .text.chEvtWaitOneTimeout:00000048 $d
C:\Users\LAB_ME~1\AppData\Local\Temp\ccxQGkYa.s:964    .text.chEvtWaitAnyTimeout:00000000 $t
C:\Users\LAB_ME~1\AppData\Local\Temp\ccxQGkYa.s:970    .text.chEvtWaitAnyTimeout:00000000 chEvtWaitAnyTimeout
C:\Users\LAB_ME~1\AppData\Local\Temp\ccxQGkYa.s:1061   .text.chEvtWaitAnyTimeout:00000044 $d
C:\Users\LAB_ME~1\AppData\Local\Temp\ccxQGkYa.s:1066   .text.chEvtWaitAllTimeout:00000000 $t
C:\Users\LAB_ME~1\AppData\Local\Temp\ccxQGkYa.s:1072   .text.chEvtWaitAllTimeout:00000000 chEvtWaitAllTimeout
C:\Users\LAB_ME~1\AppData\Local\Temp\ccxQGkYa.s:1176   .text.chEvtWaitAllTimeout:00000050 $d
                     .debug_frame:00000010 $d
C:\Users\LAB_ME~1\AppData\Local\Temp\ccxQGkYa.s:91     .text.chEvtRegisterMask:00000028 $t
C:\Users\LAB_ME~1\AppData\Local\Temp\ccxQGkYa.s:260    .text.chEvtAddEvents:0000001c $t
C:\Users\LAB_ME~1\AppData\Local\Temp\ccxQGkYa.s:703    .text.chEvtWaitOne:0000003c $t
C:\Users\LAB_ME~1\AppData\Local\Temp\ccxQGkYa.s:782    .text.chEvtWaitAny:00000034 $t
C:\Users\LAB_ME~1\AppData\Local\Temp\ccxQGkYa.s:858    .text.chEvtWaitAll:00000038 $t
C:\Users\LAB_ME~1\AppData\Local\Temp\ccxQGkYa.s:963    .text.chEvtWaitOneTimeout:0000004c $t
C:\Users\LAB_ME~1\AppData\Local\Temp\ccxQGkYa.s:1065   .text.chEvtWaitAnyTimeout:00000048 $t
C:\Users\LAB_ME~1\AppData\Local\Temp\ccxQGkYa.s:1180   .text.chEvtWaitAllTimeout:00000054 $t

UNDEFINED SYMBOLS
rlist
ARM GAS  C:\Users\LAB_ME~1\AppData\Local\Temp\ccxQGkYa.s 			page 92


chSchReadyI
chSchRescheduleS
chSchGoSleepS
chSchGoSleepTimeoutS
