ARM GAS  C:\Users\LAB_ME~1\AppData\Local\Temp\ccHbNwTO.s 			page 1


   1              		.syntax unified
   2              		.cpu cortex-m4
   3              		.fpu softvfp
   4              		.eabi_attribute 20, 1
   5              		.eabi_attribute 21, 1
   6              		.eabi_attribute 23, 3
   7              		.eabi_attribute 24, 1
   8              		.eabi_attribute 25, 1
   9              		.eabi_attribute 26, 1
  10              		.eabi_attribute 30, 2
  11              		.eabi_attribute 34, 1
  12              		.eabi_attribute 18, 4
  13              		.thumb
  14              		.file	"chmtx.c"
  15              		.text
  16              	.Ltext0:
  17              		.cfi_sections	.debug_frame
  18              		.section	.text.chMtxInit,"ax",%progbits
  19              		.align	2
  20              		.p2align 4,,15
  21              		.global	chMtxInit
  22              		.thumb
  23              		.thumb_func
  24              		.type	chMtxInit, %function
  25              	chMtxInit:
  26              	.LFB7:
  27              		.file 1 "../../os/kernel/src/chmtx.c"
  28              		.loc 1 79 0
  29              		.cfi_startproc
  30              		@ args = 0, pretend = 0, frame = 0
  31              		@ frame_needed = 0, uses_anonymous_args = 0
  32              		@ link register save eliminated.
  33              	.LVL0:
  34              		.loc 1 84 0
  35 0000 0023     		movs	r3, #0
  36              		.loc 1 83 0
  37 0002 4060     		str	r0, [r0, #4]
  38 0004 0060     		str	r0, [r0, #0]
  39              		.loc 1 84 0
  40 0006 8360     		str	r3, [r0, #8]
  41 0008 7047     		bx	lr
  42              		.cfi_endproc
  43              	.LFE7:
  44              		.size	chMtxInit, .-chMtxInit
  45 000a 00BFAFF3 		.section	.text.chMtxLockS,"ax",%progbits
  45      0080
  46              		.align	2
  47              		.p2align 4,,15
  48              		.global	chMtxLockS
  49              		.thumb
  50              		.thumb_func
  51              		.type	chMtxLockS, %function
  52              	chMtxLockS:
  53              	.LFB9:
  54              		.loc 1 114 0
  55              		.cfi_startproc
  56              		@ args = 0, pretend = 0, frame = 0
ARM GAS  C:\Users\LAB_ME~1\AppData\Local\Temp\ccHbNwTO.s 			page 2


  57              		@ frame_needed = 0, uses_anonymous_args = 0
  58              	.LVL1:
  59 0000 F8B5     		push	{r3, r4, r5, r6, r7, lr}
  60              	.LCFI0:
  61              		.cfi_def_cfa_offset 24
  62              		.cfi_offset 3, -24
  63              		.cfi_offset 4, -20
  64              		.cfi_offset 5, -16
  65              		.cfi_offset 6, -12
  66              		.cfi_offset 7, -8
  67              		.cfi_offset 14, -4
  68              		.loc 1 115 0
  69 0002 2F4A     		ldr	r2, .L27
  70              		.loc 1 121 0
  71 0004 8368     		ldr	r3, [r0, #8]
  72              		.loc 1 115 0
  73 0006 9469     		ldr	r4, [r2, #24]
  74              	.LVL2:
  75              		.loc 1 114 0
  76 0008 0546     		mov	r5, r0
  77              		.loc 1 121 0
  78 000a 002B     		cmp	r3, #0
  79 000c 51D0     		beq	.L3
  80              	.LVL3:
  81              	.LBB33:
  82              		.loc 1 128 0 discriminator 1
  83 000e A168     		ldr	r1, [r4, #8]
  84 0010 9A68     		ldr	r2, [r3, #8]
  85 0012 9142     		cmp	r1, r2
  86 0014 06D9     		bls	.L5
  87              	.LVL4:
  88              	.L20:
  89              		.loc 1 132 0
  90 0016 1A7F     		ldrb	r2, [r3, #28]	@ zero_extendqisi2
  91              		.loc 1 130 0
  92 0018 9960     		str	r1, [r3, #8]
  93              		.loc 1 132 0
  94 001a 042A     		cmp	r2, #4
  95 001c 31D0     		beq	.L7
  96 001e 052A     		cmp	r2, #5
  97 0020 1CD0     		beq	.L8
  98 0022 92B1     		cbz	r2, .L6
  99              	.LVL5:
 100              	.L5:
 101              		.file 2 "../../os/kernel/include/chinline.h"
 102              		.loc 2 36 0
 103 0024 2B46     		mov	r3, r5
 104              	.LVL6:
 105              	.L18:
 106              	.LBB34:
 107              	.LBB35:
 108              		.loc 2 38 0
 109 0026 1B68     		ldr	r3, [r3, #0]
 110              	.LVL7:
 111              		.loc 2 39 0
 112 0028 9D42     		cmp	r5, r3
 113 002a 03D0     		beq	.L19
ARM GAS  C:\Users\LAB_ME~1\AppData\Local\Temp\ccHbNwTO.s 			page 3


 114 002c 9968     		ldr	r1, [r3, #8]
 115 002e A268     		ldr	r2, [r4, #8]
 116 0030 9142     		cmp	r1, r2
 117 0032 F8D2     		bcs	.L18
 118              	.L19:
 119              		.loc 2 41 0
 120 0034 5A68     		ldr	r2, [r3, #4]
 121              		.loc 2 40 0
 122 0036 2360     		str	r3, [r4, #0]
 123              	.LBE35:
 124              	.LBE34:
 125              		.loc 1 168 0
 126 0038 0420     		movs	r0, #4
 127              	.LBB37:
 128              	.LBB36:
 129              		.loc 2 41 0
 130 003a 6260     		str	r2, [r4, #4]
 131              		.loc 2 42 0
 132 003c 1460     		str	r4, [r2, #0]
 133 003e 5C60     		str	r4, [r3, #4]
 134              	.LBE36:
 135              	.LBE37:
 136              		.loc 1 167 0
 137 0040 6562     		str	r5, [r4, #36]
 138              	.LBE33:
 139              		.loc 1 180 0
 140 0042 BDE8F840 		pop	{r3, r4, r5, r6, r7, lr}
 141              	.LBB60:
 142              		.loc 1 168 0
 143 0046 FFF7FEBF 		b	chSchGoSleepS
 144              	.LVL8:
 145              	.L6:
 146              	.LBB38:
 147              	.LBB39:
 148              		.loc 2 68 0
 149 004a 93E80600 		ldmia	r3, {r1, r2}
 150 004e 1160     		str	r1, [r2, #0]
 151              		.loc 2 69 0
 152 0050 1968     		ldr	r1, [r3, #0]
 153              	.LBE39:
 154              	.LBE38:
 155              		.loc 1 160 0
 156 0052 1846     		mov	r0, r3
 157              	.LBB41:
 158              	.LBB40:
 159              		.loc 2 69 0
 160 0054 4A60     		str	r2, [r1, #4]
 161              	.LBE40:
 162              	.LBE41:
 163              		.loc 1 160 0
 164 0056 FFF7FEFF 		bl	chSchReadyI
 165              	.LVL9:
 166              		.loc 1 161 0
 167 005a E3E7     		b	.L5
 168              	.LVL10:
 169              	.L8:
 170              	.LBB42:
ARM GAS  C:\Users\LAB_ME~1\AppData\Local\Temp\ccHbNwTO.s 			page 4


 171              	.LBB43:
 172              		.loc 2 68 0
 173 005c 5868     		ldr	r0, [r3, #4]
 174 005e 1A68     		ldr	r2, [r3, #0]
 175              	.LBE43:
 176              	.LBE42:
 177              		.loc 1 151 0
 178 0060 5E6A     		ldr	r6, [r3, #36]
 179              	.LVL11:
 180              	.LBB46:
 181              	.LBB44:
 182              		.loc 2 68 0
 183 0062 0260     		str	r2, [r0, #0]
 184              		.loc 2 69 0
 185 0064 1F68     		ldr	r7, [r3, #0]
 186              	.LBE44:
 187              	.LBE46:
 188              		.loc 2 36 0
 189 0066 3246     		mov	r2, r6
 190              	.LBB47:
 191              	.LBB45:
 192              		.loc 2 69 0
 193 0068 7860     		str	r0, [r7, #4]
 194              	.LVL12:
 195              	.L15:
 196              	.LBE45:
 197              	.LBE47:
 198              	.LBB48:
 199              	.LBB49:
 200              		.loc 2 38 0
 201 006a 1268     		ldr	r2, [r2, #0]
 202              	.LVL13:
 203              		.loc 2 39 0
 204 006c 9642     		cmp	r6, r2
 205 006e 02D0     		beq	.L16
 206 0070 9068     		ldr	r0, [r2, #8]
 207 0072 8842     		cmp	r0, r1
 208 0074 F9D2     		bcs	.L15
 209              	.L16:
 210              		.loc 2 41 0
 211 0076 5168     		ldr	r1, [r2, #4]
 212              		.loc 2 40 0
 213 0078 1A60     		str	r2, [r3, #0]
 214              		.loc 2 41 0
 215 007a 5960     		str	r1, [r3, #4]
 216              		.loc 2 42 0
 217 007c 0B60     		str	r3, [r1, #0]
 218 007e 5360     		str	r3, [r2, #4]
 219 0080 D0E7     		b	.L5
 220              	.LVL14:
 221              	.L7:
 222              	.LBE49:
 223              	.LBE48:
 224              	.LBB50:
 225              	.LBB51:
 226              		.loc 2 68 0
 227 0082 5868     		ldr	r0, [r3, #4]
ARM GAS  C:\Users\LAB_ME~1\AppData\Local\Temp\ccHbNwTO.s 			page 5


 228 0084 1A68     		ldr	r2, [r3, #0]
 229              	.LBE51:
 230              	.LBE50:
 231              		.loc 1 135 0
 232 0086 5E6A     		ldr	r6, [r3, #36]
 233              	.LVL15:
 234              	.LBB54:
 235              	.LBB52:
 236              		.loc 2 68 0
 237 0088 0260     		str	r2, [r0, #0]
 238              		.loc 2 69 0
 239 008a 1F68     		ldr	r7, [r3, #0]
 240              	.LBE52:
 241              	.LBE54:
 242              		.loc 1 135 0
 243 008c 3246     		mov	r2, r6
 244              	.LBB55:
 245              	.LBB53:
 246              		.loc 2 69 0
 247 008e 7860     		str	r0, [r7, #4]
 248              	.LVL16:
 249              	.L12:
 250              	.LBE53:
 251              	.LBE55:
 252              	.LBB56:
 253              	.LBB57:
 254              		.loc 2 38 0
 255 0090 1268     		ldr	r2, [r2, #0]
 256              	.LVL17:
 257              		.loc 2 39 0
 258 0092 9642     		cmp	r6, r2
 259 0094 12D0     		beq	.L26
 260 0096 9068     		ldr	r0, [r2, #8]
 261 0098 8842     		cmp	r0, r1
 262 009a F9D2     		bcs	.L12
 263              	.LVL18:
 264              	.L13:
 265              		.loc 2 41 0
 266 009c 5168     		ldr	r1, [r2, #4]
 267              		.loc 2 40 0
 268 009e 1A60     		str	r2, [r3, #0]
 269              		.loc 2 41 0
 270 00a0 5960     		str	r1, [r3, #4]
 271              		.loc 2 42 0
 272 00a2 0B60     		str	r3, [r1, #0]
 273 00a4 5360     		str	r3, [r2, #4]
 274              	.LBE57:
 275              	.LBE56:
 276              		.loc 1 136 0
 277 00a6 B368     		ldr	r3, [r6, #8]
 278              	.LVL19:
 279              		.loc 1 128 0
 280 00a8 A168     		ldr	r1, [r4, #8]
 281 00aa 9A68     		ldr	r2, [r3, #8]
 282              	.LVL20:
 283 00ac 8A42     		cmp	r2, r1
 284 00ae B2D3     		bcc	.L20
ARM GAS  C:\Users\LAB_ME~1\AppData\Local\Temp\ccHbNwTO.s 			page 6


 285 00b0 B8E7     		b	.L5
 286              	.LVL21:
 287              	.L3:
 288              	.LBE60:
 289              		.loc 1 177 0
 290 00b2 E36B     		ldr	r3, [r4, #60]
 291              		.loc 1 176 0
 292 00b4 8460     		str	r4, [r0, #8]
 293              		.loc 1 177 0
 294 00b6 C360     		str	r3, [r0, #12]
 295              		.loc 1 178 0
 296 00b8 E063     		str	r0, [r4, #60]
 297 00ba F8BD     		pop	{r3, r4, r5, r6, r7, pc}
 298              	.LVL22:
 299              	.L26:
 300              	.LBB61:
 301              	.LBB59:
 302              	.LBB58:
 303              		.loc 2 39 0
 304 00bc 3246     		mov	r2, r6
 305              	.LVL23:
 306 00be EDE7     		b	.L13
 307              	.L28:
 308              		.align	2
 309              	.L27:
 310 00c0 00000000 		.word	rlist
 311              	.LBE58:
 312              	.LBE59:
 313              	.LBE61:
 314              		.cfi_endproc
 315              	.LFE9:
 316              		.size	chMtxLockS, .-chMtxLockS
 317 00c4 AFF30080 		.section	.text.chMtxLock,"ax",%progbits
 317      AFF30080 
 317      AFF30080 
 318              		.align	2
 319              		.p2align 4,,15
 320              		.global	chMtxLock
 321              		.thumb
 322              		.thumb_func
 323              		.type	chMtxLock, %function
 324              	chMtxLock:
 325              	.LFB8:
 326              		.loc 1 96 0
 327              		.cfi_startproc
 328              		@ args = 0, pretend = 0, frame = 0
 329              		@ frame_needed = 0, uses_anonymous_args = 0
 330              	.LVL24:
 331 0000 08B5     		push	{r3, lr}
 332              	.LCFI1:
 333              		.cfi_def_cfa_offset 8
 334              		.cfi_offset 3, -8
 335              		.cfi_offset 14, -4
 336              	.LBB62:
 337              		.loc 1 98 0
 338 0002 2023     		movs	r3, #32
 339              	.LVL25:
ARM GAS  C:\Users\LAB_ME~1\AppData\Local\Temp\ccHbNwTO.s 			page 7


 340              	@ 98 "../../os/kernel/src/chmtx.c" 1
 341 0004 83F31188 		msr     BASEPRI, r3
 342              	@ 0 "" 2
 343              	.LVL26:
 344              		.thumb
 345              	.LBE62:
 346              		.loc 1 100 0
 347 0008 FFF7FEFF 		bl	chMtxLockS
 348              	.LVL27:
 349              	.LBB63:
 350              		.loc 1 102 0
 351 000c 0023     		movs	r3, #0
 352              	.LVL28:
 353              	@ 102 "../../os/kernel/src/chmtx.c" 1
 354 000e 83F31188 		msr     BASEPRI, r3
 355              	@ 0 "" 2
 356              	.LVL29:
 357              		.thumb
 358 0012 08BD     		pop	{r3, pc}
 359              	.LBE63:
 360              		.cfi_endproc
 361              	.LFE8:
 362              		.size	chMtxLock, .-chMtxLock
 363 0014 AFF30080 		.section	.text.chMtxTryLock,"ax",%progbits
 363      AFF30080 
 363      AFF30080 
 364              		.align	2
 365              		.p2align 4,,15
 366              		.global	chMtxTryLock
 367              		.thumb
 368              		.thumb_func
 369              		.type	chMtxTryLock, %function
 370              	chMtxTryLock:
 371              	.LFB10:
 372              		.loc 1 199 0
 373              		.cfi_startproc
 374              		@ args = 0, pretend = 0, frame = 0
 375              		@ frame_needed = 0, uses_anonymous_args = 0
 376              		@ link register save eliminated.
 377              	.LVL30:
 378              		.loc 1 199 0
 379 0000 0246     		mov	r2, r0
 380              	.LBB64:
 381              		.loc 1 202 0
 382 0002 2023     		movs	r3, #32
 383              	.LVL31:
 384              	@ 202 "../../os/kernel/src/chmtx.c" 1
 385 0004 83F31188 		msr     BASEPRI, r3
 386              	@ 0 "" 2
 387              	.LVL32:
 388              		.thumb
 389              	.LBE64:
 390              	.LBB65:
 391              	.LBB66:
 392              		.loc 1 232 0
 393 0008 8368     		ldr	r3, [r0, #8]
 394              	.LVL33:
ARM GAS  C:\Users\LAB_ME~1\AppData\Local\Temp\ccHbNwTO.s 			page 8


 395 000a 23B1     		cbz	r3, .L33
 396              		.loc 1 233 0
 397 000c 0020     		movs	r0, #0
 398              	.LVL34:
 399              	.L31:
 400              	.LBE66:
 401              	.LBE65:
 402              	.LBB68:
 403              		.loc 1 206 0
 404 000e 0023     		movs	r3, #0
 405              	.LVL35:
 406              	@ 206 "../../os/kernel/src/chmtx.c" 1
 407 0010 83F31188 		msr     BASEPRI, r3
 408              	@ 0 "" 2
 409              	.LVL36:
 410              		.thumb
 411              	.LBE68:
 412              		.loc 1 208 0
 413 0014 7047     		bx	lr
 414              	.LVL37:
 415              	.L33:
 416              	.LBB69:
 417              	.LBB67:
 418              		.loc 1 234 0
 419 0016 044B     		ldr	r3, .L34
 420 0018 9B69     		ldr	r3, [r3, #24]
 421              		.loc 1 235 0
 422 001a D96B     		ldr	r1, [r3, #60]
 423              		.loc 1 234 0
 424 001c 8360     		str	r3, [r0, #8]
 425              		.loc 1 235 0
 426 001e C160     		str	r1, [r0, #12]
 427              		.loc 1 237 0
 428 0020 0120     		movs	r0, #1
 429              	.LVL38:
 430              		.loc 1 236 0
 431 0022 DA63     		str	r2, [r3, #60]
 432 0024 F3E7     		b	.L31
 433              	.L35:
 434 0026 00BF     		.align	2
 435              	.L34:
 436 0028 00000000 		.word	rlist
 437              	.LBE67:
 438              	.LBE69:
 439              		.cfi_endproc
 440              	.LFE10:
 441              		.size	chMtxTryLock, .-chMtxTryLock
 442 002c AFF30080 		.section	.text.chMtxTryLockS,"ax",%progbits
 443              		.align	2
 444              		.p2align 4,,15
 445              		.global	chMtxTryLockS
 446              		.thumb
 447              		.thumb_func
 448              		.type	chMtxTryLockS, %function
 449              	chMtxTryLockS:
 450              	.LFB11:
 451              		.loc 1 227 0
ARM GAS  C:\Users\LAB_ME~1\AppData\Local\Temp\ccHbNwTO.s 			page 9


 452              		.cfi_startproc
 453              		@ args = 0, pretend = 0, frame = 0
 454              		@ frame_needed = 0, uses_anonymous_args = 0
 455              		@ link register save eliminated.
 456              	.LVL39:
 457              		.loc 1 232 0
 458 0000 8268     		ldr	r2, [r0, #8]
 459              		.loc 1 227 0
 460 0002 0346     		mov	r3, r0
 461              		.loc 1 232 0
 462 0004 0AB1     		cbz	r2, .L39
 463              		.loc 1 233 0
 464 0006 0020     		movs	r0, #0
 465              	.LVL40:
 466              		.loc 1 238 0
 467 0008 7047     		bx	lr
 468              	.LVL41:
 469              	.L39:
 470              		.loc 1 234 0
 471 000a 044A     		ldr	r2, .L40
 472 000c 9269     		ldr	r2, [r2, #24]
 473              		.loc 1 235 0
 474 000e D16B     		ldr	r1, [r2, #60]
 475              		.loc 1 234 0
 476 0010 8260     		str	r2, [r0, #8]
 477              		.loc 1 235 0
 478 0012 C160     		str	r1, [r0, #12]
 479              		.loc 1 237 0
 480 0014 0120     		movs	r0, #1
 481              	.LVL42:
 482              		.loc 1 236 0
 483 0016 D363     		str	r3, [r2, #60]
 484              		.loc 1 237 0
 485 0018 7047     		bx	lr
 486              	.L41:
 487 001a 00BF     		.align	2
 488              	.L40:
 489 001c 00000000 		.word	rlist
 490              		.cfi_endproc
 491              	.LFE11:
 492              		.size	chMtxTryLockS, .-chMtxTryLockS
 493              		.section	.text.chMtxUnlock,"ax",%progbits
 494              		.align	2
 495              		.p2align 4,,15
 496              		.global	chMtxUnlock
 497              		.thumb
 498              		.thumb_func
 499              		.type	chMtxUnlock, %function
 500              	chMtxUnlock:
 501              	.LFB12:
 502              		.loc 1 250 0
 503              		.cfi_startproc
 504              		@ args = 0, pretend = 0, frame = 0
 505              		@ frame_needed = 0, uses_anonymous_args = 0
 506              		.loc 1 251 0
 507 0000 154A     		ldr	r2, .L53
 508              		.loc 1 250 0
ARM GAS  C:\Users\LAB_ME~1\AppData\Local\Temp\ccHbNwTO.s 			page 10


 509 0002 38B5     		push	{r3, r4, r5, lr}
 510              	.LCFI2:
 511              		.cfi_def_cfa_offset 16
 512              		.cfi_offset 3, -16
 513              		.cfi_offset 4, -12
 514              		.cfi_offset 5, -8
 515              		.cfi_offset 14, -4
 516              		.loc 1 251 0
 517 0004 9069     		ldr	r0, [r2, #24]
 518              	.LVL43:
 519              	.LBB70:
 520              		.loc 1 254 0
 521 0006 2023     		movs	r3, #32
 522              	.LVL44:
 523              	@ 254 "../../os/kernel/src/chmtx.c" 1
 524 0008 83F31188 		msr     BASEPRI, r3
 525              	@ 0 "" 2
 526              	.LVL45:
 527              		.thumb
 528              	.LBE70:
 529              		.loc 1 263 0
 530 000c C46B     		ldr	r4, [r0, #60]
 531              	.LVL46:
 532              		.loc 1 266 0
 533 000e 2568     		ldr	r5, [r4, #0]
 534              		.loc 1 264 0
 535 0010 E368     		ldr	r3, [r4, #12]
 536              	.LVL47:
 537              		.loc 1 266 0
 538 0012 A542     		cmp	r5, r4
 539              		.loc 1 264 0
 540 0014 C363     		str	r3, [r0, #60]
 541              		.loc 1 266 0
 542 0016 1CD0     		beq	.L43
 543              	.LBB71:
 544              		.loc 1 271 0
 545 0018 016C     		ldr	r1, [r0, #64]
 546              	.LVL48:
 547              		.loc 1 273 0
 548 001a 4BB1     		cbz	r3, .L44
 549              	.L50:
 550              		.loc 1 277 0
 551 001c 1A68     		ldr	r2, [r3, #0]
 552 001e 9A42     		cmp	r2, r3
 553 0020 03D0     		beq	.L45
 554              		.loc 1 277 0 is_stmt 0 discriminator 1
 555 0022 9268     		ldr	r2, [r2, #8]
 556 0024 9142     		cmp	r1, r2
 557 0026 38BF     		it	cc
 558 0028 1146     		movcc	r1, r2
 559              	.LVL49:
 560              	.L45:
 561              		.loc 1 279 0 is_stmt 1
 562 002a DB68     		ldr	r3, [r3, #12]
 563              	.LVL50:
 564              		.loc 1 273 0
 565 002c 002B     		cmp	r3, #0
ARM GAS  C:\Users\LAB_ME~1\AppData\Local\Temp\ccHbNwTO.s 			page 11


 566 002e F5D1     		bne	.L50
 567              	.L44:
 568              	.LBB72:
 569              	.LBB73:
 570              		.loc 2 55 0
 571 0030 2B68     		ldr	r3, [r5, #0]
 572              	.LVL51:
 573              	.LBE73:
 574              	.LBE72:
 575              		.loc 1 288 0
 576 0032 EA6B     		ldr	r2, [r5, #60]
 577              		.loc 1 283 0
 578 0034 8160     		str	r1, [r0, #8]
 579              	.LVL52:
 580              	.LBB76:
 581              	.LBB74:
 582              		.loc 2 55 0
 583 0036 2360     		str	r3, [r4, #0]
 584              	.LBE74:
 585              	.LBE76:
 586              		.loc 1 290 0
 587 0038 2846     		mov	r0, r5
 588              	.LVL53:
 589              	.LBB77:
 590              	.LBB75:
 591              		.loc 2 55 0
 592 003a 5C60     		str	r4, [r3, #4]
 593              	.LBE75:
 594              	.LBE77:
 595              		.loc 1 290 0
 596 003c 0021     		movs	r1, #0
 597              	.LVL54:
 598              		.loc 1 287 0
 599 003e A560     		str	r5, [r4, #8]
 600              		.loc 1 288 0
 601 0040 E260     		str	r2, [r4, #12]
 602              		.loc 1 289 0
 603 0042 EC63     		str	r4, [r5, #60]
 604              		.loc 1 290 0
 605 0044 FFF7FEFF 		bl	chSchWakeupS
 606              	.LVL55:
 607              	.L47:
 608              	.LBE71:
 609              	.LBB78:
 610              		.loc 1 294 0
 611 0048 0023     		movs	r3, #0
 612              	.LVL56:
 613              	@ 294 "../../os/kernel/src/chmtx.c" 1
 614 004a 83F31188 		msr     BASEPRI, r3
 615              	@ 0 "" 2
 616              	.LVL57:
 617              		.thumb
 618              	.LBE78:
 619              		.loc 1 296 0
 620 004e 2046     		mov	r0, r4
 621 0050 38BD     		pop	{r3, r4, r5, pc}
 622              	.LVL58:
ARM GAS  C:\Users\LAB_ME~1\AppData\Local\Temp\ccHbNwTO.s 			page 12


 623              	.L43:
 624              		.loc 1 293 0
 625 0052 0023     		movs	r3, #0
 626 0054 A360     		str	r3, [r4, #8]
 627 0056 F7E7     		b	.L47
 628              	.L54:
 629              		.align	2
 630              	.L53:
 631 0058 00000000 		.word	rlist
 632              		.cfi_endproc
 633              	.LFE12:
 634              		.size	chMtxUnlock, .-chMtxUnlock
 635 005c AFF30080 		.section	.text.chMtxUnlockS,"ax",%progbits
 636              		.align	2
 637              		.p2align 4,,15
 638              		.global	chMtxUnlockS
 639              		.thumb
 640              		.thumb_func
 641              		.type	chMtxUnlockS, %function
 642              	chMtxUnlockS:
 643              	.LFB13:
 644              		.loc 1 310 0
 645              		.cfi_startproc
 646              		@ args = 0, pretend = 0, frame = 0
 647              		@ frame_needed = 0, uses_anonymous_args = 0
 648 0000 38B5     		push	{r3, r4, r5, lr}
 649              	.LCFI3:
 650              		.cfi_def_cfa_offset 16
 651              		.cfi_offset 3, -16
 652              		.cfi_offset 4, -12
 653              		.cfi_offset 5, -8
 654              		.cfi_offset 14, -4
 655              		.loc 1 311 0
 656 0002 124B     		ldr	r3, .L66
 657 0004 9869     		ldr	r0, [r3, #24]
 658              	.LVL59:
 659              		.loc 1 324 0
 660 0006 C46B     		ldr	r4, [r0, #60]
 661              	.LVL60:
 662              		.loc 1 327 0
 663 0008 2568     		ldr	r5, [r4, #0]
 664              		.loc 1 325 0
 665 000a E368     		ldr	r3, [r4, #12]
 666              		.loc 1 327 0
 667 000c A542     		cmp	r5, r4
 668              		.loc 1 325 0
 669 000e C363     		str	r3, [r0, #60]
 670              		.loc 1 327 0
 671 0010 18D0     		beq	.L56
 672              	.LBB79:
 673              		.loc 1 332 0
 674 0012 016C     		ldr	r1, [r0, #64]
 675              	.LVL61:
 676              		.loc 1 334 0
 677 0014 4BB1     		cbz	r3, .L57
 678              	.L63:
 679              		.loc 1 338 0
ARM GAS  C:\Users\LAB_ME~1\AppData\Local\Temp\ccHbNwTO.s 			page 13


 680 0016 1A68     		ldr	r2, [r3, #0]
 681 0018 9A42     		cmp	r2, r3
 682 001a 03D0     		beq	.L58
 683              		.loc 1 338 0 is_stmt 0 discriminator 1
 684 001c 9268     		ldr	r2, [r2, #8]
 685 001e 9142     		cmp	r1, r2
 686 0020 38BF     		it	cc
 687 0022 1146     		movcc	r1, r2
 688              	.LVL62:
 689              	.L58:
 690              		.loc 1 340 0 is_stmt 1
 691 0024 DB68     		ldr	r3, [r3, #12]
 692              	.LVL63:
 693              		.loc 1 334 0
 694 0026 002B     		cmp	r3, #0
 695 0028 F5D1     		bne	.L63
 696              	.L57:
 697              	.LBB80:
 698              	.LBB81:
 699              		.loc 2 55 0
 700 002a 2B68     		ldr	r3, [r5, #0]
 701              	.LVL64:
 702              	.LBE81:
 703              	.LBE80:
 704              		.loc 1 347 0
 705 002c EA6B     		ldr	r2, [r5, #60]
 706              		.loc 1 342 0
 707 002e 8160     		str	r1, [r0, #8]
 708              	.LVL65:
 709              	.LBB84:
 710              	.LBB82:
 711              		.loc 2 55 0
 712 0030 2360     		str	r3, [r4, #0]
 713              	.LBE82:
 714              	.LBE84:
 715              		.loc 1 349 0
 716 0032 2846     		mov	r0, r5
 717              	.LVL66:
 718              	.LBB85:
 719              	.LBB83:
 720              		.loc 2 55 0
 721 0034 5C60     		str	r4, [r3, #4]
 722              	.LBE83:
 723              	.LBE85:
 724              		.loc 1 346 0
 725 0036 A560     		str	r5, [r4, #8]
 726              		.loc 1 347 0
 727 0038 E260     		str	r2, [r4, #12]
 728              		.loc 1 348 0
 729 003a EC63     		str	r4, [r5, #60]
 730              		.loc 1 349 0
 731 003c FFF7FEFF 		bl	chSchReadyI
 732              	.LVL67:
 733              	.LBE79:
 734              		.loc 1 354 0
 735 0040 2046     		mov	r0, r4
 736 0042 38BD     		pop	{r3, r4, r5, pc}
ARM GAS  C:\Users\LAB_ME~1\AppData\Local\Temp\ccHbNwTO.s 			page 14


 737              	.LVL68:
 738              	.L56:
 739              		.loc 1 352 0
 740 0044 0023     		movs	r3, #0
 741 0046 A360     		str	r3, [r4, #8]
 742              		.loc 1 354 0
 743 0048 2046     		mov	r0, r4
 744              	.LVL69:
 745 004a 38BD     		pop	{r3, r4, r5, pc}
 746              	.L67:
 747              		.align	2
 748              	.L66:
 749 004c 00000000 		.word	rlist
 750              		.cfi_endproc
 751              	.LFE13:
 752              		.size	chMtxUnlockS, .-chMtxUnlockS
 753              		.section	.text.chMtxUnlockAll,"ax",%progbits
 754              		.align	2
 755              		.p2align 4,,15
 756              		.global	chMtxUnlockAll
 757              		.thumb
 758              		.thumb_func
 759              		.type	chMtxUnlockAll, %function
 760              	chMtxUnlockAll:
 761              	.LFB14:
 762              		.loc 1 367 0
 763              		.cfi_startproc
 764              		@ args = 0, pretend = 0, frame = 0
 765              		@ frame_needed = 0, uses_anonymous_args = 0
 766              		.loc 1 368 0
 767 0000 134A     		ldr	r2, .L80
 768              		.loc 1 367 0
 769 0002 70B5     		push	{r4, r5, r6, lr}
 770              	.LCFI4:
 771              		.cfi_def_cfa_offset 16
 772              		.cfi_offset 4, -16
 773              		.cfi_offset 5, -12
 774              		.cfi_offset 6, -8
 775              		.cfi_offset 14, -4
 776              	.LBB86:
 777              		.loc 1 370 0
 778 0004 2023     		movs	r3, #32
 779              	.LVL70:
 780              	.LBE86:
 781              		.loc 1 368 0
 782 0006 9469     		ldr	r4, [r2, #24]
 783              	.LVL71:
 784              	.LBB87:
 785              		.loc 1 370 0
 786              	@ 370 "../../os/kernel/src/chmtx.c" 1
 787 0008 83F31188 		msr     BASEPRI, r3
 788              	@ 0 "" 2
 789              	.LVL72:
 790              		.thumb
 791              	.LBE87:
 792              		.loc 1 371 0
 793 000c E36B     		ldr	r3, [r4, #60]
ARM GAS  C:\Users\LAB_ME~1\AppData\Local\Temp\ccHbNwTO.s 			page 15


 794              	.LVL73:
 795 000e D3B1     		cbz	r3, .L69
 796              	.LBB88:
 797              		.loc 1 383 0
 798 0010 0026     		movs	r6, #0
 799 0012 0BE0     		b	.L75
 800              	.LVL74:
 801              	.L79:
 802              	.LBB89:
 803              	.LBB90:
 804              	.LBB91:
 805              		.loc 2 55 0
 806 0014 1168     		ldr	r1, [r2, #0]
 807              	.LBE91:
 808              	.LBE90:
 809              		.loc 1 378 0
 810 0016 D56B     		ldr	r5, [r2, #60]
 811              	.LBB94:
 812              	.LBB92:
 813              		.loc 2 55 0
 814 0018 1960     		str	r1, [r3, #0]
 815              	.LBE92:
 816              	.LBE94:
 817              		.loc 1 380 0
 818 001a 1046     		mov	r0, r2
 819              	.LBB95:
 820              	.LBB93:
 821              		.loc 2 55 0
 822 001c 4B60     		str	r3, [r1, #4]
 823              	.LBE93:
 824              	.LBE95:
 825              		.loc 1 377 0
 826 001e 9A60     		str	r2, [r3, #8]
 827              		.loc 1 378 0
 828 0020 DD60     		str	r5, [r3, #12]
 829              		.loc 1 379 0
 830 0022 D363     		str	r3, [r2, #60]
 831              		.loc 1 380 0
 832 0024 FFF7FEFF 		bl	chSchReadyI
 833              	.LVL75:
 834              	.LBE89:
 835              	.LBE88:
 836              		.loc 1 384 0
 837 0028 E36B     		ldr	r3, [r4, #60]
 838 002a 43B1     		cbz	r3, .L78
 839              	.L75:
 840              	.LVL76:
 841              	.LBB96:
 842              		.loc 1 375 0
 843 002c 1A68     		ldr	r2, [r3, #0]
 844              	.LVL77:
 845              		.loc 1 374 0
 846 002e D968     		ldr	r1, [r3, #12]
 847              		.loc 1 375 0
 848 0030 9A42     		cmp	r2, r3
 849              		.loc 1 374 0
 850 0032 E163     		str	r1, [r4, #60]
ARM GAS  C:\Users\LAB_ME~1\AppData\Local\Temp\ccHbNwTO.s 			page 16


 851              		.loc 1 375 0
 852 0034 EED1     		bne	.L79
 853              		.loc 1 383 0
 854 0036 9E60     		str	r6, [r3, #8]
 855              	.LBE96:
 856              		.loc 1 384 0
 857 0038 E36B     		ldr	r3, [r4, #60]
 858              	.LVL78:
 859 003a 002B     		cmp	r3, #0
 860 003c F6D1     		bne	.L75
 861              	.LVL79:
 862              	.L78:
 863              		.loc 1 385 0
 864 003e 236C     		ldr	r3, [r4, #64]
 865 0040 A360     		str	r3, [r4, #8]
 866              		.loc 1 386 0
 867 0042 FFF7FEFF 		bl	chSchRescheduleS
 868              	.LVL80:
 869              	.L69:
 870              	.LBB97:
 871              		.loc 1 388 0
 872 0046 0023     		movs	r3, #0
 873              	.LVL81:
 874              	@ 388 "../../os/kernel/src/chmtx.c" 1
 875 0048 83F31188 		msr     BASEPRI, r3
 876              	@ 0 "" 2
 877              	.LVL82:
 878              		.thumb
 879 004c 70BD     		pop	{r4, r5, r6, pc}
 880              	.L81:
 881 004e 00BF     		.align	2
 882              	.L80:
 883 0050 00000000 		.word	rlist
 884              	.LBE97:
 885              		.cfi_endproc
 886              	.LFE14:
 887              		.size	chMtxUnlockAll, .-chMtxUnlockAll
 888 0054 AFF30080 		.text
 888      AFF30080 
 888      AFF30080 
 889              	.Letext0:
 890              		.file 3 "c:\\program files (x86)\\codesourcery\\sourcery_codebench_lite_for_arm_eabi\\bin\\../lib/
 891              		.file 4 "../../os/ports/GCC/ARMCMx/chtypes.h"
 892              		.file 5 "../../os/kernel/include/chlists.h"
 893              		.file 6 "../../os/kernel/include/chthreads.h"
 894              		.file 7 "../../os/ports/GCC/ARMCMx/chcore_v7m.h"
 895              		.file 8 "../../os/kernel/include/chschd.h"
 896              		.file 9 "../../os/kernel/include/chmtx.h"
 897              		.section	.debug_info,"",%progbits
 898              	.Ldebug_info0:
 899 0000 3C0A0000 		.4byte	0xa3c
 900 0004 0200     		.2byte	0x2
 901 0006 00000000 		.4byte	.Ldebug_abbrev0
 902 000a 04       		.byte	0x4
 903 000b 01       		.uleb128 0x1
 904 000c A9010000 		.4byte	.LASF77
 905 0010 01       		.byte	0x1
ARM GAS  C:\Users\LAB_ME~1\AppData\Local\Temp\ccHbNwTO.s 			page 17


 906 0011 85020000 		.4byte	.LASF78
 907 0015 22030000 		.4byte	.LASF79
 908 0019 E0010000 		.4byte	.Ldebug_ranges0+0x1e0
 909 001d 00000000 		.4byte	0
 910 0021 00000000 		.4byte	0
 911 0025 00000000 		.4byte	.Ldebug_line0
 912 0029 02       		.uleb128 0x2
 913 002a 04       		.byte	0x4
 914 002b 05       		.byte	0x5
 915 002c 696E7400 		.ascii	"int\000"
 916 0030 03       		.uleb128 0x3
 917 0031 04       		.byte	0x4
 918 0032 07       		.byte	0x7
 919 0033 DD000000 		.4byte	.LASF0
 920 0037 03       		.uleb128 0x3
 921 0038 01       		.byte	0x1
 922 0039 06       		.byte	0x6
 923 003a 4E000000 		.4byte	.LASF1
 924 003e 04       		.uleb128 0x4
 925 003f 04030000 		.4byte	.LASF5
 926 0043 03       		.byte	0x3
 927 0044 2A       		.byte	0x2a
 928 0045 49000000 		.4byte	0x49
 929 0049 03       		.uleb128 0x3
 930 004a 01       		.byte	0x1
 931 004b 08       		.byte	0x8
 932 004c E6010000 		.4byte	.LASF2
 933 0050 03       		.uleb128 0x3
 934 0051 02       		.byte	0x2
 935 0052 05       		.byte	0x5
 936 0053 FE010000 		.4byte	.LASF3
 937 0057 03       		.uleb128 0x3
 938 0058 02       		.byte	0x2
 939 0059 07       		.byte	0x7
 940 005a 04010000 		.4byte	.LASF4
 941 005e 04       		.uleb128 0x4
 942 005f DE010000 		.4byte	.LASF6
 943 0063 03       		.byte	0x3
 944 0064 4F       		.byte	0x4f
 945 0065 69000000 		.4byte	0x69
 946 0069 03       		.uleb128 0x3
 947 006a 04       		.byte	0x4
 948 006b 05       		.byte	0x5
 949 006c 7B000000 		.4byte	.LASF7
 950 0070 04       		.uleb128 0x4
 951 0071 57020000 		.4byte	.LASF8
 952 0075 03       		.byte	0x3
 953 0076 50       		.byte	0x50
 954 0077 7B000000 		.4byte	0x7b
 955 007b 03       		.uleb128 0x3
 956 007c 04       		.byte	0x4
 957 007d 07       		.byte	0x7
 958 007e EA000000 		.4byte	.LASF9
 959 0082 03       		.uleb128 0x3
 960 0083 08       		.byte	0x8
 961 0084 05       		.byte	0x5
 962 0085 40000000 		.4byte	.LASF10
ARM GAS  C:\Users\LAB_ME~1\AppData\Local\Temp\ccHbNwTO.s 			page 18


 963 0089 03       		.uleb128 0x3
 964 008a 08       		.byte	0x8
 965 008b 07       		.byte	0x7
 966 008c 0D000000 		.4byte	.LASF11
 967 0090 04       		.uleb128 0x4
 968 0091 62000000 		.4byte	.LASF12
 969 0095 04       		.byte	0x4
 970 0096 27       		.byte	0x27
 971 0097 5E000000 		.4byte	0x5e
 972 009b 04       		.uleb128 0x4
 973 009c 40010000 		.4byte	.LASF13
 974 00a0 04       		.byte	0x4
 975 00a1 28       		.byte	0x28
 976 00a2 3E000000 		.4byte	0x3e
 977 00a6 04       		.uleb128 0x4
 978 00a7 84000000 		.4byte	.LASF14
 979 00ab 04       		.byte	0x4
 980 00ac 29       		.byte	0x29
 981 00ad 3E000000 		.4byte	0x3e
 982 00b1 04       		.uleb128 0x4
 983 00b2 C7010000 		.4byte	.LASF15
 984 00b6 04       		.byte	0x4
 985 00b7 2A       		.byte	0x2a
 986 00b8 3E000000 		.4byte	0x3e
 987 00bc 04       		.uleb128 0x4
 988 00bd 71000000 		.4byte	.LASF16
 989 00c1 04       		.byte	0x4
 990 00c2 2B       		.byte	0x2b
 991 00c3 3E000000 		.4byte	0x3e
 992 00c7 04       		.uleb128 0x4
 993 00c8 D6010000 		.4byte	.LASF17
 994 00cc 04       		.byte	0x4
 995 00cd 2C       		.byte	0x2c
 996 00ce 70000000 		.4byte	0x70
 997 00d2 04       		.uleb128 0x4
 998 00d3 17010000 		.4byte	.LASF18
 999 00d7 04       		.byte	0x4
 1000 00d8 2D       		.byte	0x2d
 1001 00d9 5E000000 		.4byte	0x5e
 1002 00dd 04       		.uleb128 0x4
 1003 00de 54010000 		.4byte	.LASF19
 1004 00e2 04       		.byte	0x4
 1005 00e3 2F       		.byte	0x2f
 1006 00e4 70000000 		.4byte	0x70
 1007 00e8 04       		.uleb128 0x4
 1008 00e9 A8020000 		.4byte	.LASF20
 1009 00ed 04       		.byte	0x4
 1010 00ee 31       		.byte	0x31
 1011 00ef 70000000 		.4byte	0x70
 1012 00f3 04       		.uleb128 0x4
 1013 00f4 37020000 		.4byte	.LASF21
 1014 00f8 05       		.byte	0x5
 1015 00f9 23       		.byte	0x23
 1016 00fa FE000000 		.4byte	0xfe
 1017 00fe 05       		.uleb128 0x5
 1018 00ff 37020000 		.4byte	.LASF21
 1019 0103 48       		.byte	0x48
ARM GAS  C:\Users\LAB_ME~1\AppData\Local\Temp\ccHbNwTO.s 			page 19


 1020 0104 06       		.byte	0x6
 1021 0105 57       		.byte	0x57
 1022 0106 23020000 		.4byte	0x223
 1023 010a 06       		.uleb128 0x6
 1024 010b 28020000 		.4byte	.LASF22
 1025 010f 06       		.byte	0x6
 1026 0110 58       		.byte	0x58
 1027 0111 48020000 		.4byte	0x248
 1028 0115 02       		.byte	0x2
 1029 0116 23       		.byte	0x23
 1030 0117 00       		.uleb128 0
 1031 0118 06       		.uleb128 0x6
 1032 0119 CF010000 		.4byte	.LASF23
 1033 011d 06       		.byte	0x6
 1034 011e 5A       		.byte	0x5a
 1035 011f 48020000 		.4byte	0x248
 1036 0123 02       		.byte	0x2
 1037 0124 23       		.byte	0x23
 1038 0125 04       		.uleb128 0x4
 1039 0126 06       		.uleb128 0x6
 1040 0127 39000000 		.4byte	.LASF24
 1041 012b 06       		.byte	0x6
 1042 012c 5C       		.byte	0x5c
 1043 012d C7000000 		.4byte	0xc7
 1044 0131 02       		.byte	0x2
 1045 0132 23       		.byte	0x23
 1046 0133 08       		.uleb128 0x8
 1047 0134 06       		.uleb128 0x6
 1048 0135 3E030000 		.4byte	.LASF25
 1049 0139 06       		.byte	0x6
 1050 013a 5D       		.byte	0x5d
 1051 013b 16030000 		.4byte	0x316
 1052 013f 02       		.byte	0x2
 1053 0140 23       		.byte	0x23
 1054 0141 0C       		.uleb128 0xc
 1055 0142 06       		.uleb128 0x6
 1056 0143 A6000000 		.4byte	.LASF26
 1057 0147 06       		.byte	0x6
 1058 0148 5F       		.byte	0x5f
 1059 0149 48020000 		.4byte	0x248
 1060 014d 02       		.byte	0x2
 1061 014e 23       		.byte	0x23
 1062 014f 10       		.uleb128 0x10
 1063 0150 06       		.uleb128 0x6
 1064 0151 86010000 		.4byte	.LASF27
 1065 0155 06       		.byte	0x6
 1066 0156 60       		.byte	0x60
 1067 0157 48020000 		.4byte	0x248
 1068 015b 02       		.byte	0x2
 1069 015c 23       		.byte	0x23
 1070 015d 14       		.uleb128 0x14
 1071 015e 06       		.uleb128 0x6
 1072 015f 13030000 		.4byte	.LASF28
 1073 0163 06       		.byte	0x6
 1074 0164 67       		.byte	0x67
 1075 0165 2A040000 		.4byte	0x42a
 1076 0169 02       		.byte	0x2
ARM GAS  C:\Users\LAB_ME~1\AppData\Local\Temp\ccHbNwTO.s 			page 20


 1077 016a 23       		.byte	0x23
 1078 016b 18       		.uleb128 0x18
 1079 016c 06       		.uleb128 0x6
 1080 016d 08020000 		.4byte	.LASF29
 1081 0171 06       		.byte	0x6
 1082 0172 72       		.byte	0x72
 1083 0173 A6000000 		.4byte	0xa6
 1084 0177 02       		.byte	0x2
 1085 0178 23       		.byte	0x23
 1086 0179 1C       		.uleb128 0x1c
 1087 017a 06       		.uleb128 0x6
 1088 017b 2F020000 		.4byte	.LASF30
 1089 017f 06       		.byte	0x6
 1090 0180 76       		.byte	0x76
 1091 0181 9B000000 		.4byte	0x9b
 1092 0185 02       		.byte	0x2
 1093 0186 23       		.byte	0x23
 1094 0187 1D       		.uleb128 0x1d
 1095 0188 06       		.uleb128 0x6
 1096 0189 ED020000 		.4byte	.LASF31
 1097 018d 06       		.byte	0x6
 1098 018e 7B       		.byte	0x7b
 1099 018f B1000000 		.4byte	0xb1
 1100 0193 02       		.byte	0x2
 1101 0194 23       		.byte	0x23
 1102 0195 1E       		.uleb128 0x1e
 1103 0196 06       		.uleb128 0x6
 1104 0197 10020000 		.4byte	.LASF32
 1105 019b 06       		.byte	0x6
 1106 019c 81       		.byte	0x81
 1107 019d BC000000 		.4byte	0xbc
 1108 01a1 02       		.byte	0x2
 1109 01a2 23       		.byte	0x23
 1110 01a3 1F       		.uleb128 0x1f
 1111 01a4 06       		.uleb128 0x6
 1112 01a5 BD020000 		.4byte	.LASF33
 1113 01a9 06       		.byte	0x6
 1114 01aa 88       		.byte	0x88
 1115 01ab 40030000 		.4byte	0x340
 1116 01af 02       		.byte	0x2
 1117 01b0 23       		.byte	0x23
 1118 01b1 20       		.uleb128 0x20
 1119 01b2 07       		.uleb128 0x7
 1120 01b3 705F7500 		.ascii	"p_u\000"
 1121 01b7 06       		.byte	0x6
 1122 01b8 AD       		.byte	0xad
 1123 01b9 F5030000 		.4byte	0x3f5
 1124 01bd 02       		.byte	0x2
 1125 01be 23       		.byte	0x23
 1126 01bf 24       		.uleb128 0x24
 1127 01c0 06       		.uleb128 0x6
 1128 01c1 44030000 		.4byte	.LASF34
 1129 01c5 06       		.byte	0x6
 1130 01c6 B2       		.byte	0xb2
 1131 01c7 70020000 		.4byte	0x270
 1132 01cb 02       		.byte	0x2
 1133 01cc 23       		.byte	0x23
ARM GAS  C:\Users\LAB_ME~1\AppData\Local\Temp\ccHbNwTO.s 			page 21


 1134 01cd 28       		.uleb128 0x28
 1135 01ce 06       		.uleb128 0x6
 1136 01cf CB020000 		.4byte	.LASF35
 1137 01d3 06       		.byte	0x6
 1138 01d4 B8       		.byte	0xb8
 1139 01d5 4E020000 		.4byte	0x24e
 1140 01d9 02       		.byte	0x2
 1141 01da 23       		.byte	0x23
 1142 01db 2C       		.uleb128 0x2c
 1143 01dc 06       		.uleb128 0x6
 1144 01dd 00000000 		.4byte	.LASF36
 1145 01e1 06       		.byte	0x6
 1146 01e2 BC       		.byte	0xbc
 1147 01e3 D2000000 		.4byte	0xd2
 1148 01e7 02       		.byte	0x2
 1149 01e8 23       		.byte	0x23
 1150 01e9 34       		.uleb128 0x34
 1151 01ea 06       		.uleb128 0x6
 1152 01eb 4C020000 		.4byte	.LASF37
 1153 01ef 06       		.byte	0x6
 1154 01f0 C2       		.byte	0xc2
 1155 01f1 DD000000 		.4byte	0xdd
 1156 01f5 02       		.byte	0x2
 1157 01f6 23       		.byte	0x23
 1158 01f7 38       		.uleb128 0x38
 1159 01f8 06       		.uleb128 0x6
 1160 01f9 F4010000 		.4byte	.LASF38
 1161 01fd 06       		.byte	0x6
 1162 01fe C9       		.byte	0xc9
 1163 01ff 3C040000 		.4byte	0x43c
 1164 0203 02       		.byte	0x2
 1165 0204 23       		.byte	0x23
 1166 0205 3C       		.uleb128 0x3c
 1167 0206 06       		.uleb128 0x6
 1168 0207 B2020000 		.4byte	.LASF39
 1169 020b 06       		.byte	0x6
 1170 020c CD       		.byte	0xcd
 1171 020d C7000000 		.4byte	0xc7
 1172 0211 02       		.byte	0x2
 1173 0212 23       		.byte	0x23
 1174 0213 40       		.uleb128 0x40
 1175 0214 06       		.uleb128 0x6
 1176 0215 5A000000 		.4byte	.LASF40
 1177 0219 06       		.byte	0x6
 1178 021a D3       		.byte	0xd3
 1179 021b 86020000 		.4byte	0x286
 1180 021f 02       		.byte	0x2
 1181 0220 23       		.byte	0x23
 1182 0221 44       		.uleb128 0x44
 1183 0222 00       		.byte	0
 1184 0223 08       		.uleb128 0x8
 1185 0224 08       		.byte	0x8
 1186 0225 05       		.byte	0x5
 1187 0226 5A       		.byte	0x5a
 1188 0227 48020000 		.4byte	0x248
 1189 022b 06       		.uleb128 0x6
 1190 022c 28020000 		.4byte	.LASF22
ARM GAS  C:\Users\LAB_ME~1\AppData\Local\Temp\ccHbNwTO.s 			page 22


 1191 0230 05       		.byte	0x5
 1192 0231 5B       		.byte	0x5b
 1193 0232 48020000 		.4byte	0x248
 1194 0236 02       		.byte	0x2
 1195 0237 23       		.byte	0x23
 1196 0238 00       		.uleb128 0
 1197 0239 06       		.uleb128 0x6
 1198 023a CF010000 		.4byte	.LASF23
 1199 023e 05       		.byte	0x5
 1200 023f 5D       		.byte	0x5d
 1201 0240 48020000 		.4byte	0x248
 1202 0244 02       		.byte	0x2
 1203 0245 23       		.byte	0x23
 1204 0246 04       		.uleb128 0x4
 1205 0247 00       		.byte	0
 1206 0248 09       		.uleb128 0x9
 1207 0249 04       		.byte	0x4
 1208 024a F3000000 		.4byte	0xf3
 1209 024e 04       		.uleb128 0x4
 1210 024f 94010000 		.4byte	.LASF41
 1211 0253 05       		.byte	0x5
 1212 0254 5F       		.byte	0x5f
 1213 0255 23020000 		.4byte	0x223
 1214 0259 08       		.uleb128 0x8
 1215 025a 04       		.byte	0x4
 1216 025b 05       		.byte	0x5
 1217 025c 64       		.byte	0x64
 1218 025d 70020000 		.4byte	0x270
 1219 0261 06       		.uleb128 0x6
 1220 0262 28020000 		.4byte	.LASF22
 1221 0266 05       		.byte	0x5
 1222 0267 66       		.byte	0x66
 1223 0268 48020000 		.4byte	0x248
 1224 026c 02       		.byte	0x2
 1225 026d 23       		.byte	0x23
 1226 026e 00       		.uleb128 0
 1227 026f 00       		.byte	0
 1228 0270 04       		.uleb128 0x4
 1229 0271 48010000 		.4byte	.LASF42
 1230 0275 05       		.byte	0x5
 1231 0276 69       		.byte	0x69
 1232 0277 59020000 		.4byte	0x259
 1233 027b 04       		.uleb128 0x4
 1234 027c C7000000 		.4byte	.LASF43
 1235 0280 07       		.byte	0x7
 1236 0281 DE       		.byte	0xde
 1237 0282 86020000 		.4byte	0x286
 1238 0286 0A       		.uleb128 0xa
 1239 0287 04       		.byte	0x4
 1240 0288 0B       		.uleb128 0xb
 1241 0289 C4020000 		.4byte	.LASF44
 1242 028d 24       		.byte	0x24
 1243 028e 07       		.byte	0x7
 1244 028f 0501     		.2byte	0x105
 1245 0291 16030000 		.4byte	0x316
 1246 0295 0C       		.uleb128 0xc
 1247 0296 723400   		.ascii	"r4\000"
ARM GAS  C:\Users\LAB_ME~1\AppData\Local\Temp\ccHbNwTO.s 			page 23


 1248 0299 07       		.byte	0x7
 1249 029a 1801     		.2byte	0x118
 1250 029c 7B020000 		.4byte	0x27b
 1251 02a0 02       		.byte	0x2
 1252 02a1 23       		.byte	0x23
 1253 02a2 00       		.uleb128 0
 1254 02a3 0C       		.uleb128 0xc
 1255 02a4 723500   		.ascii	"r5\000"
 1256 02a7 07       		.byte	0x7
 1257 02a8 1901     		.2byte	0x119
 1258 02aa 7B020000 		.4byte	0x27b
 1259 02ae 02       		.byte	0x2
 1260 02af 23       		.byte	0x23
 1261 02b0 04       		.uleb128 0x4
 1262 02b1 0C       		.uleb128 0xc
 1263 02b2 723600   		.ascii	"r6\000"
 1264 02b5 07       		.byte	0x7
 1265 02b6 1A01     		.2byte	0x11a
 1266 02b8 7B020000 		.4byte	0x27b
 1267 02bc 02       		.byte	0x2
 1268 02bd 23       		.byte	0x23
 1269 02be 08       		.uleb128 0x8
 1270 02bf 0C       		.uleb128 0xc
 1271 02c0 723700   		.ascii	"r7\000"
 1272 02c3 07       		.byte	0x7
 1273 02c4 1B01     		.2byte	0x11b
 1274 02c6 7B020000 		.4byte	0x27b
 1275 02ca 02       		.byte	0x2
 1276 02cb 23       		.byte	0x23
 1277 02cc 0C       		.uleb128 0xc
 1278 02cd 0C       		.uleb128 0xc
 1279 02ce 723800   		.ascii	"r8\000"
 1280 02d1 07       		.byte	0x7
 1281 02d2 1C01     		.2byte	0x11c
 1282 02d4 7B020000 		.4byte	0x27b
 1283 02d8 02       		.byte	0x2
 1284 02d9 23       		.byte	0x23
 1285 02da 10       		.uleb128 0x10
 1286 02db 0C       		.uleb128 0xc
 1287 02dc 723900   		.ascii	"r9\000"
 1288 02df 07       		.byte	0x7
 1289 02e0 1D01     		.2byte	0x11d
 1290 02e2 7B020000 		.4byte	0x27b
 1291 02e6 02       		.byte	0x2
 1292 02e7 23       		.byte	0x23
 1293 02e8 14       		.uleb128 0x14
 1294 02e9 0C       		.uleb128 0xc
 1295 02ea 72313000 		.ascii	"r10\000"
 1296 02ee 07       		.byte	0x7
 1297 02ef 1E01     		.2byte	0x11e
 1298 02f1 7B020000 		.4byte	0x27b
 1299 02f5 02       		.byte	0x2
 1300 02f6 23       		.byte	0x23
 1301 02f7 18       		.uleb128 0x18
 1302 02f8 0C       		.uleb128 0xc
 1303 02f9 72313100 		.ascii	"r11\000"
 1304 02fd 07       		.byte	0x7
ARM GAS  C:\Users\LAB_ME~1\AppData\Local\Temp\ccHbNwTO.s 			page 24


 1305 02fe 1F01     		.2byte	0x11f
 1306 0300 7B020000 		.4byte	0x27b
 1307 0304 02       		.byte	0x2
 1308 0305 23       		.byte	0x23
 1309 0306 1C       		.uleb128 0x1c
 1310 0307 0C       		.uleb128 0xc
 1311 0308 6C7200   		.ascii	"lr\000"
 1312 030b 07       		.byte	0x7
 1313 030c 2001     		.2byte	0x120
 1314 030e 7B020000 		.4byte	0x27b
 1315 0312 02       		.byte	0x2
 1316 0313 23       		.byte	0x23
 1317 0314 20       		.uleb128 0x20
 1318 0315 00       		.byte	0
 1319 0316 0B       		.uleb128 0xb
 1320 0317 FC000000 		.4byte	.LASF45
 1321 031b 04       		.byte	0x4
 1322 031c 07       		.byte	0x7
 1323 031d 2A01     		.2byte	0x12a
 1324 031f 33030000 		.4byte	0x333
 1325 0323 0C       		.uleb128 0xc
 1326 0324 72313300 		.ascii	"r13\000"
 1327 0328 07       		.byte	0x7
 1328 0329 2B01     		.2byte	0x12b
 1329 032b 33030000 		.4byte	0x333
 1330 032f 02       		.byte	0x2
 1331 0330 23       		.byte	0x23
 1332 0331 00       		.uleb128 0
 1333 0332 00       		.byte	0
 1334 0333 09       		.uleb128 0x9
 1335 0334 04       		.byte	0x4
 1336 0335 88020000 		.4byte	0x288
 1337 0339 03       		.uleb128 0x3
 1338 033a 04       		.byte	0x4
 1339 033b 07       		.byte	0x7
 1340 033c 73010000 		.4byte	.LASF46
 1341 0340 0D       		.uleb128 0xd
 1342 0341 E8000000 		.4byte	0xe8
 1343 0345 08       		.uleb128 0x8
 1344 0346 1C       		.byte	0x1c
 1345 0347 08       		.byte	0x8
 1346 0348 57       		.byte	0x57
 1347 0349 A2030000 		.4byte	0x3a2
 1348 034d 06       		.uleb128 0x6
 1349 034e 60020000 		.4byte	.LASF47
 1350 0352 08       		.byte	0x8
 1351 0353 58       		.byte	0x58
 1352 0354 4E020000 		.4byte	0x24e
 1353 0358 02       		.byte	0x2
 1354 0359 23       		.byte	0x23
 1355 035a 00       		.uleb128 0
 1356 035b 06       		.uleb128 0x6
 1357 035c 1A020000 		.4byte	.LASF48
 1358 0360 08       		.byte	0x8
 1359 0361 59       		.byte	0x59
 1360 0362 C7000000 		.4byte	0xc7
 1361 0366 02       		.byte	0x2
ARM GAS  C:\Users\LAB_ME~1\AppData\Local\Temp\ccHbNwTO.s 			page 25


 1362 0367 23       		.byte	0x23
 1363 0368 08       		.uleb128 0x8
 1364 0369 06       		.uleb128 0x6
 1365 036a 8E010000 		.4byte	.LASF49
 1366 036e 08       		.byte	0x8
 1367 036f 5B       		.byte	0x5b
 1368 0370 16030000 		.4byte	0x316
 1369 0374 02       		.byte	0x2
 1370 0375 23       		.byte	0x23
 1371 0376 0C       		.uleb128 0xc
 1372 0377 06       		.uleb128 0x6
 1373 0378 BF000000 		.4byte	.LASF50
 1374 037c 08       		.byte	0x8
 1375 037d 5E       		.byte	0x5e
 1376 037e 48020000 		.4byte	0x248
 1377 0382 02       		.byte	0x2
 1378 0383 23       		.byte	0x23
 1379 0384 10       		.uleb128 0x10
 1380 0385 06       		.uleb128 0x6
 1381 0386 BF010000 		.4byte	.LASF51
 1382 038a 08       		.byte	0x8
 1383 038b 5F       		.byte	0x5f
 1384 038c 48020000 		.4byte	0x248
 1385 0390 02       		.byte	0x2
 1386 0391 23       		.byte	0x23
 1387 0392 14       		.uleb128 0x14
 1388 0393 06       		.uleb128 0x6
 1389 0394 B5010000 		.4byte	.LASF52
 1390 0398 08       		.byte	0x8
 1391 0399 62       		.byte	0x62
 1392 039a 48020000 		.4byte	0x248
 1393 039e 02       		.byte	0x2
 1394 039f 23       		.byte	0x23
 1395 03a0 18       		.uleb128 0x18
 1396 03a1 00       		.byte	0
 1397 03a2 04       		.uleb128 0x4
 1398 03a3 F4020000 		.4byte	.LASF53
 1399 03a7 08       		.byte	0x8
 1400 03a8 64       		.byte	0x64
 1401 03a9 45030000 		.4byte	0x345
 1402 03ad 05       		.uleb128 0x5
 1403 03ae 6D010000 		.4byte	.LASF54
 1404 03b2 10       		.byte	0x10
 1405 03b3 09       		.byte	0x9
 1406 03b4 25       		.byte	0x25
 1407 03b5 E4030000 		.4byte	0x3e4
 1408 03b9 06       		.uleb128 0x6
 1409 03ba 69000000 		.4byte	.LASF55
 1410 03be 09       		.byte	0x9
 1411 03bf 26       		.byte	0x26
 1412 03c0 4E020000 		.4byte	0x24e
 1413 03c4 02       		.byte	0x2
 1414 03c5 23       		.byte	0x23
 1415 03c6 00       		.uleb128 0
 1416 03c7 06       		.uleb128 0x6
 1417 03c8 1A030000 		.4byte	.LASF56
 1418 03cc 09       		.byte	0x9
ARM GAS  C:\Users\LAB_ME~1\AppData\Local\Temp\ccHbNwTO.s 			page 26


 1419 03cd 28       		.byte	0x28
 1420 03ce 48020000 		.4byte	0x248
 1421 03d2 02       		.byte	0x2
 1422 03d3 23       		.byte	0x23
 1423 03d4 08       		.uleb128 0x8
 1424 03d5 06       		.uleb128 0x6
 1425 03d6 A1020000 		.4byte	.LASF57
 1426 03da 09       		.byte	0x9
 1427 03db 2A       		.byte	0x2a
 1428 03dc E4030000 		.4byte	0x3e4
 1429 03e0 02       		.byte	0x2
 1430 03e1 23       		.byte	0x23
 1431 03e2 0C       		.uleb128 0xc
 1432 03e3 00       		.byte	0
 1433 03e4 09       		.uleb128 0x9
 1434 03e5 04       		.byte	0x4
 1435 03e6 AD030000 		.4byte	0x3ad
 1436 03ea 04       		.uleb128 0x4
 1437 03eb 6D010000 		.4byte	.LASF54
 1438 03ef 09       		.byte	0x9
 1439 03f0 2C       		.byte	0x2c
 1440 03f1 AD030000 		.4byte	0x3ad
 1441 03f5 0E       		.uleb128 0xe
 1442 03f6 04       		.byte	0x4
 1443 03f7 06       		.byte	0x6
 1444 03f8 8F       		.byte	0x8f
 1445 03f9 2A040000 		.4byte	0x42a
 1446 03fd 0F       		.uleb128 0xf
 1447 03fe 06000000 		.4byte	.LASF58
 1448 0402 06       		.byte	0x6
 1449 0403 96       		.byte	0x96
 1450 0404 D2000000 		.4byte	0xd2
 1451 0408 0F       		.uleb128 0xf
 1452 0409 24000000 		.4byte	.LASF59
 1453 040d 06       		.byte	0x6
 1454 040e 9D       		.byte	0x9d
 1455 040f D2000000 		.4byte	0xd2
 1456 0413 0F       		.uleb128 0xf
 1457 0414 0C030000 		.4byte	.LASF60
 1458 0418 06       		.byte	0x6
 1459 0419 A4       		.byte	0xa4
 1460 041a 86020000 		.4byte	0x286
 1461 041e 0F       		.uleb128 0xf
 1462 041f 21020000 		.4byte	.LASF61
 1463 0423 06       		.byte	0x6
 1464 0424 AB       		.byte	0xab
 1465 0425 DD000000 		.4byte	0xdd
 1466 0429 00       		.byte	0
 1467 042a 09       		.uleb128 0x9
 1468 042b 04       		.byte	0x4
 1469 042c 30040000 		.4byte	0x430
 1470 0430 10       		.uleb128 0x10
 1471 0431 35040000 		.4byte	0x435
 1472 0435 03       		.uleb128 0x3
 1473 0436 01       		.byte	0x1
 1474 0437 08       		.byte	0x8
 1475 0438 74020000 		.4byte	.LASF62
ARM GAS  C:\Users\LAB_ME~1\AppData\Local\Temp\ccHbNwTO.s 			page 27


 1476 043c 09       		.uleb128 0x9
 1477 043d 04       		.byte	0x4
 1478 043e EA030000 		.4byte	0x3ea
 1479 0442 11       		.uleb128 0x11
 1480 0443 A1010000 		.4byte	.LASF63
 1481 0447 02       		.byte	0x2
 1482 0448 42       		.byte	0x42
 1483 0449 01       		.byte	0x1
 1484 044a 48020000 		.4byte	0x248
 1485 044e 03       		.byte	0x3
 1486 044f 5E040000 		.4byte	0x45e
 1487 0453 12       		.uleb128 0x12
 1488 0454 747000   		.ascii	"tp\000"
 1489 0457 02       		.byte	0x2
 1490 0458 42       		.byte	0x42
 1491 0459 48020000 		.4byte	0x248
 1492 045d 00       		.byte	0
 1493 045e 13       		.uleb128 0x13
 1494 045f 1D010000 		.4byte	.LASF80
 1495 0463 02       		.byte	0x2
 1496 0464 22       		.byte	0x22
 1497 0465 01       		.byte	0x1
 1498 0466 03       		.byte	0x3
 1499 0467 8B040000 		.4byte	0x48b
 1500 046b 12       		.uleb128 0x12
 1501 046c 747000   		.ascii	"tp\000"
 1502 046f 02       		.byte	0x2
 1503 0470 22       		.byte	0x22
 1504 0471 48020000 		.4byte	0x248
 1505 0475 12       		.uleb128 0x12
 1506 0476 74717000 		.ascii	"tqp\000"
 1507 047a 02       		.byte	0x2
 1508 047b 22       		.byte	0x22
 1509 047c 8B040000 		.4byte	0x48b
 1510 0480 14       		.uleb128 0x14
 1511 0481 637000   		.ascii	"cp\000"
 1512 0484 02       		.byte	0x2
 1513 0485 24       		.byte	0x24
 1514 0486 48020000 		.4byte	0x248
 1515 048a 00       		.byte	0
 1516 048b 09       		.uleb128 0x9
 1517 048c 04       		.byte	0x4
 1518 048d 4E020000 		.4byte	0x24e
 1519 0491 15       		.uleb128 0x15
 1520 0492 01       		.byte	0x1
 1521 0493 98000000 		.4byte	.LASF73
 1522 0497 01       		.byte	0x1
 1523 0498 E3       		.byte	0xe3
 1524 0499 01       		.byte	0x1
 1525 049a 90000000 		.4byte	0x90
 1526 049e 01       		.byte	0x1
 1527 049f AE040000 		.4byte	0x4ae
 1528 04a3 12       		.uleb128 0x12
 1529 04a4 6D7000   		.ascii	"mp\000"
 1530 04a7 01       		.byte	0x1
 1531 04a8 E3       		.byte	0xe3
 1532 04a9 3C040000 		.4byte	0x43c
ARM GAS  C:\Users\LAB_ME~1\AppData\Local\Temp\ccHbNwTO.s 			page 28


 1533 04ad 00       		.byte	0
 1534 04ae 11       		.uleb128 0x11
 1535 04af 79020000 		.4byte	.LASF64
 1536 04b3 02       		.byte	0x2
 1537 04b4 34       		.byte	0x34
 1538 04b5 01       		.byte	0x1
 1539 04b6 48020000 		.4byte	0x248
 1540 04ba 03       		.byte	0x3
 1541 04bb D5040000 		.4byte	0x4d5
 1542 04bf 12       		.uleb128 0x12
 1543 04c0 74717000 		.ascii	"tqp\000"
 1544 04c4 02       		.byte	0x2
 1545 04c5 34       		.byte	0x34
 1546 04c6 8B040000 		.4byte	0x48b
 1547 04ca 14       		.uleb128 0x14
 1548 04cb 747000   		.ascii	"tp\000"
 1549 04ce 02       		.byte	0x2
 1550 04cf 35       		.byte	0x35
 1551 04d0 48020000 		.4byte	0x248
 1552 04d4 00       		.byte	0
 1553 04d5 16       		.uleb128 0x16
 1554 04d6 01       		.byte	0x1
 1555 04d7 E3020000 		.4byte	.LASF65
 1556 04db 01       		.byte	0x1
 1557 04dc 4F       		.byte	0x4f
 1558 04dd 01       		.byte	0x1
 1559 04de 00000000 		.4byte	.LFB7
 1560 04e2 0A000000 		.4byte	.LFE7
 1561 04e6 02       		.byte	0x2
 1562 04e7 7D       		.byte	0x7d
 1563 04e8 00       		.sleb128 0
 1564 04e9 01       		.byte	0x1
 1565 04ea FB040000 		.4byte	0x4fb
 1566 04ee 17       		.uleb128 0x17
 1567 04ef 6D7000   		.ascii	"mp\000"
 1568 04f2 01       		.byte	0x1
 1569 04f3 4F       		.byte	0x4f
 1570 04f4 3C040000 		.4byte	0x43c
 1571 04f8 01       		.byte	0x1
 1572 04f9 50       		.byte	0x50
 1573 04fa 00       		.byte	0
 1574 04fb 18       		.uleb128 0x18
 1575 04fc 01       		.byte	0x1
 1576 04fd 8D000000 		.4byte	.LASF66
 1577 0501 01       		.byte	0x1
 1578 0502 72       		.byte	0x72
 1579 0503 01       		.byte	0x1
 1580 0504 00000000 		.4byte	.LFB9
 1581 0508 C4000000 		.4byte	.LFE9
 1582 050c 00000000 		.4byte	.LLST0
 1583 0510 01       		.byte	0x1
 1584 0511 5C060000 		.4byte	0x65c
 1585 0515 19       		.uleb128 0x19
 1586 0516 6D7000   		.ascii	"mp\000"
 1587 0519 01       		.byte	0x1
 1588 051a 72       		.byte	0x72
 1589 051b 3C040000 		.4byte	0x43c
ARM GAS  C:\Users\LAB_ME~1\AppData\Local\Temp\ccHbNwTO.s 			page 29


 1590 051f 20000000 		.4byte	.LLST1
 1591 0523 1A       		.uleb128 0x1a
 1592 0524 63747000 		.ascii	"ctp\000"
 1593 0528 01       		.byte	0x1
 1594 0529 73       		.byte	0x73
 1595 052a 48020000 		.4byte	0x248
 1596 052e 01       		.byte	0x1
 1597 052f 54       		.byte	0x54
 1598 0530 1B       		.uleb128 0x1b
 1599 0531 00000000 		.4byte	.Ldebug_ranges0+0
 1600 0535 1C       		.uleb128 0x1c
 1601 0536 747000   		.ascii	"tp\000"
 1602 0539 01       		.byte	0x1
 1603 053a 7D       		.byte	0x7d
 1604 053b 48020000 		.4byte	0x248
 1605 053f 54000000 		.4byte	.LLST2
 1606 0543 1D       		.uleb128 0x1d
 1607 0544 5E040000 		.4byte	0x45e
 1608 0548 26000000 		.4byte	.LBB34
 1609 054c 20000000 		.4byte	.Ldebug_ranges0+0x20
 1610 0550 01       		.byte	0x1
 1611 0551 A6       		.byte	0xa6
 1612 0552 78050000 		.4byte	0x578
 1613 0556 1E       		.uleb128 0x1e
 1614 0557 75040000 		.4byte	0x475
 1615 055b 88000000 		.4byte	.LLST3
 1616 055f 1E       		.uleb128 0x1e
 1617 0560 6B040000 		.4byte	0x46b
 1618 0564 9B000000 		.4byte	.LLST4
 1619 0568 1B       		.uleb128 0x1b
 1620 0569 38000000 		.4byte	.Ldebug_ranges0+0x38
 1621 056d 1F       		.uleb128 0x1f
 1622 056e 80040000 		.4byte	0x480
 1623 0572 AE000000 		.4byte	.LLST5
 1624 0576 00       		.byte	0
 1625 0577 00       		.byte	0
 1626 0578 1D       		.uleb128 0x1d
 1627 0579 42040000 		.4byte	0x442
 1628 057d 4A000000 		.4byte	.LBB38
 1629 0581 50000000 		.4byte	.Ldebug_ranges0+0x50
 1630 0585 01       		.byte	0x1
 1631 0586 A0       		.byte	0xa0
 1632 0587 95050000 		.4byte	0x595
 1633 058b 1E       		.uleb128 0x1e
 1634 058c 53040000 		.4byte	0x453
 1635 0590 CC000000 		.4byte	.LLST6
 1636 0594 00       		.byte	0
 1637 0595 1D       		.uleb128 0x1d
 1638 0596 42040000 		.4byte	0x442
 1639 059a 5C000000 		.4byte	.LBB42
 1640 059e 68000000 		.4byte	.Ldebug_ranges0+0x68
 1641 05a2 01       		.byte	0x1
 1642 05a3 97       		.byte	0x97
 1643 05a4 B2050000 		.4byte	0x5b2
 1644 05a8 1E       		.uleb128 0x1e
 1645 05a9 53040000 		.4byte	0x453
 1646 05ad DF000000 		.4byte	.LLST7
ARM GAS  C:\Users\LAB_ME~1\AppData\Local\Temp\ccHbNwTO.s 			page 30


 1647 05b1 00       		.byte	0
 1648 05b2 20       		.uleb128 0x20
 1649 05b3 5E040000 		.4byte	0x45e
 1650 05b7 6A000000 		.4byte	.LBB48
 1651 05bb 82000000 		.4byte	.LBE48
 1652 05bf 01       		.byte	0x1
 1653 05c0 97       		.byte	0x97
 1654 05c1 EB050000 		.4byte	0x5eb
 1655 05c5 1E       		.uleb128 0x1e
 1656 05c6 75040000 		.4byte	0x475
 1657 05ca F2000000 		.4byte	.LLST8
 1658 05ce 1E       		.uleb128 0x1e
 1659 05cf 6B040000 		.4byte	0x46b
 1660 05d3 05010000 		.4byte	.LLST9
 1661 05d7 21       		.uleb128 0x21
 1662 05d8 6A000000 		.4byte	.LBB49
 1663 05dc 82000000 		.4byte	.LBE49
 1664 05e0 1F       		.uleb128 0x1f
 1665 05e1 80040000 		.4byte	0x480
 1666 05e5 18010000 		.4byte	.LLST10
 1667 05e9 00       		.byte	0
 1668 05ea 00       		.byte	0
 1669 05eb 1D       		.uleb128 0x1d
 1670 05ec 42040000 		.4byte	0x442
 1671 05f0 82000000 		.4byte	.LBB50
 1672 05f4 88000000 		.4byte	.Ldebug_ranges0+0x88
 1673 05f8 01       		.byte	0x1
 1674 05f9 87       		.byte	0x87
 1675 05fa 08060000 		.4byte	0x608
 1676 05fe 1E       		.uleb128 0x1e
 1677 05ff 53040000 		.4byte	0x453
 1678 0603 36010000 		.4byte	.LLST11
 1679 0607 00       		.byte	0
 1680 0608 1D       		.uleb128 0x1d
 1681 0609 5E040000 		.4byte	0x45e
 1682 060d 90000000 		.4byte	.LBB56
 1683 0611 A8000000 		.4byte	.Ldebug_ranges0+0xa8
 1684 0615 01       		.byte	0x1
 1685 0616 87       		.byte	0x87
 1686 0617 3D060000 		.4byte	0x63d
 1687 061b 1E       		.uleb128 0x1e
 1688 061c 75040000 		.4byte	0x475
 1689 0620 60010000 		.4byte	.LLST12
 1690 0624 1E       		.uleb128 0x1e
 1691 0625 6B040000 		.4byte	0x46b
 1692 0629 7E010000 		.4byte	.LLST13
 1693 062d 1B       		.uleb128 0x1b
 1694 062e C0000000 		.4byte	.Ldebug_ranges0+0xc0
 1695 0632 1F       		.uleb128 0x1f
 1696 0633 80040000 		.4byte	0x480
 1697 0637 A8010000 		.4byte	.LLST14
 1698 063b 00       		.byte	0
 1699 063c 00       		.byte	0
 1700 063d 22       		.uleb128 0x22
 1701 063e 4A000000 		.4byte	.LVL8
 1702 0642 01       		.byte	0x1
 1703 0643 F0090000 		.4byte	0x9f0
ARM GAS  C:\Users\LAB_ME~1\AppData\Local\Temp\ccHbNwTO.s 			page 31


 1704 0647 51060000 		.4byte	0x651
 1705 064b 23       		.uleb128 0x23
 1706 064c 01       		.byte	0x1
 1707 064d 50       		.byte	0x50
 1708 064e 01       		.byte	0x1
 1709 064f 34       		.byte	0x34
 1710 0650 00       		.byte	0
 1711 0651 24       		.uleb128 0x24
 1712 0652 5A000000 		.4byte	.LVL9
 1713 0656 040A0000 		.4byte	0xa04
 1714 065a 00       		.byte	0
 1715 065b 00       		.byte	0
 1716 065c 18       		.uleb128 0x18
 1717 065d 01       		.byte	0x1
 1718 065e 7C010000 		.4byte	.LASF67
 1719 0662 01       		.byte	0x1
 1720 0663 60       		.byte	0x60
 1721 0664 01       		.byte	0x1
 1722 0665 00000000 		.4byte	.LFB8
 1723 0669 14000000 		.4byte	.LFE8
 1724 066d D1010000 		.4byte	.LLST15
 1725 0671 01       		.byte	0x1
 1726 0672 D0060000 		.4byte	0x6d0
 1727 0676 19       		.uleb128 0x19
 1728 0677 6D7000   		.ascii	"mp\000"
 1729 067a 01       		.byte	0x1
 1730 067b 60       		.byte	0x60
 1731 067c 3C040000 		.4byte	0x43c
 1732 0680 F1010000 		.4byte	.LLST16
 1733 0684 25       		.uleb128 0x25
 1734 0685 02000000 		.4byte	.LBB62
 1735 0689 08000000 		.4byte	.LBE62
 1736 068d A1060000 		.4byte	0x6a1
 1737 0691 1C       		.uleb128 0x1c
 1738 0692 746D7000 		.ascii	"tmp\000"
 1739 0696 01       		.byte	0x1
 1740 0697 62       		.byte	0x62
 1741 0698 70000000 		.4byte	0x70
 1742 069c 12020000 		.4byte	.LLST17
 1743 06a0 00       		.byte	0
 1744 06a1 25       		.uleb128 0x25
 1745 06a2 0C000000 		.4byte	.LBB63
 1746 06a6 14000000 		.4byte	.LBE63
 1747 06aa BE060000 		.4byte	0x6be
 1748 06ae 1C       		.uleb128 0x1c
 1749 06af 746D7000 		.ascii	"tmp\000"
 1750 06b3 01       		.byte	0x1
 1751 06b4 66       		.byte	0x66
 1752 06b5 70000000 		.4byte	0x70
 1753 06b9 25020000 		.4byte	.LLST18
 1754 06bd 00       		.byte	0
 1755 06be 26       		.uleb128 0x26
 1756 06bf 0C000000 		.4byte	.LVL27
 1757 06c3 FB040000 		.4byte	0x4fb
 1758 06c7 23       		.uleb128 0x23
 1759 06c8 01       		.byte	0x1
 1760 06c9 50       		.byte	0x50
ARM GAS  C:\Users\LAB_ME~1\AppData\Local\Temp\ccHbNwTO.s 			page 32


 1761 06ca 03       		.byte	0x3
 1762 06cb F3       		.byte	0xf3
 1763 06cc 01       		.uleb128 0x1
 1764 06cd 50       		.byte	0x50
 1765 06ce 00       		.byte	0
 1766 06cf 00       		.byte	0
 1767 06d0 27       		.uleb128 0x27
 1768 06d1 01       		.byte	0x1
 1769 06d2 60010000 		.4byte	.LASF68
 1770 06d6 01       		.byte	0x1
 1771 06d7 C7       		.byte	0xc7
 1772 06d8 01       		.byte	0x1
 1773 06d9 90000000 		.4byte	0x90
 1774 06dd 00000000 		.4byte	.LFB10
 1775 06e1 2C000000 		.4byte	.LFE10
 1776 06e5 02       		.byte	0x2
 1777 06e6 7D       		.byte	0x7d
 1778 06e7 00       		.sleb128 0
 1779 06e8 01       		.byte	0x1
 1780 06e9 5A070000 		.4byte	0x75a
 1781 06ed 19       		.uleb128 0x19
 1782 06ee 6D7000   		.ascii	"mp\000"
 1783 06f1 01       		.byte	0x1
 1784 06f2 C7       		.byte	0xc7
 1785 06f3 3C040000 		.4byte	0x43c
 1786 06f7 38020000 		.4byte	.LLST19
 1787 06fb 1A       		.uleb128 0x1a
 1788 06fc 6200     		.ascii	"b\000"
 1789 06fe 01       		.byte	0x1
 1790 06ff C8       		.byte	0xc8
 1791 0700 90000000 		.4byte	0x90
 1792 0704 01       		.byte	0x1
 1793 0705 50       		.byte	0x50
 1794 0706 25       		.uleb128 0x25
 1795 0707 02000000 		.4byte	.LBB64
 1796 070b 08000000 		.4byte	.LBE64
 1797 070f 23070000 		.4byte	0x723
 1798 0713 1C       		.uleb128 0x1c
 1799 0714 746D7000 		.ascii	"tmp\000"
 1800 0718 01       		.byte	0x1
 1801 0719 CA       		.byte	0xca
 1802 071a 70000000 		.4byte	0x70
 1803 071e 6C020000 		.4byte	.LLST20
 1804 0722 00       		.byte	0
 1805 0723 1D       		.uleb128 0x1d
 1806 0724 91040000 		.4byte	0x491
 1807 0728 08000000 		.4byte	.LBB65
 1808 072c D8000000 		.4byte	.Ldebug_ranges0+0xd8
 1809 0730 01       		.byte	0x1
 1810 0731 CC       		.byte	0xcc
 1811 0732 40070000 		.4byte	0x740
 1812 0736 1E       		.uleb128 0x1e
 1813 0737 A3040000 		.4byte	0x4a3
 1814 073b 7F020000 		.4byte	.LLST21
 1815 073f 00       		.byte	0
 1816 0740 21       		.uleb128 0x21
 1817 0741 0E000000 		.4byte	.LBB68
ARM GAS  C:\Users\LAB_ME~1\AppData\Local\Temp\ccHbNwTO.s 			page 33


 1818 0745 14000000 		.4byte	.LBE68
 1819 0749 1C       		.uleb128 0x1c
 1820 074a 746D7000 		.ascii	"tmp\000"
 1821 074e 01       		.byte	0x1
 1822 074f CE       		.byte	0xce
 1823 0750 70000000 		.4byte	0x70
 1824 0754 B3020000 		.4byte	.LLST22
 1825 0758 00       		.byte	0
 1826 0759 00       		.byte	0
 1827 075a 28       		.uleb128 0x28
 1828 075b 91040000 		.4byte	0x491
 1829 075f 00000000 		.4byte	.LFB11
 1830 0763 20000000 		.4byte	.LFE11
 1831 0767 02       		.byte	0x2
 1832 0768 7D       		.byte	0x7d
 1833 0769 00       		.sleb128 0
 1834 076a 01       		.byte	0x1
 1835 076b 79070000 		.4byte	0x779
 1836 076f 1E       		.uleb128 0x1e
 1837 0770 A3040000 		.4byte	0x4a3
 1838 0774 C6020000 		.4byte	.LLST23
 1839 0778 00       		.byte	0
 1840 0779 29       		.uleb128 0x29
 1841 077a 01       		.byte	0x1
 1842 077b 2D000000 		.4byte	.LASF69
 1843 077f 01       		.byte	0x1
 1844 0780 FA       		.byte	0xfa
 1845 0781 01       		.byte	0x1
 1846 0782 3C040000 		.4byte	0x43c
 1847 0786 00000000 		.4byte	.LFB12
 1848 078a 5C000000 		.4byte	.LFE12
 1849 078e FA020000 		.4byte	.LLST24
 1850 0792 01       		.byte	0x1
 1851 0793 64080000 		.4byte	0x864
 1852 0797 1C       		.uleb128 0x1c
 1853 0798 63747000 		.ascii	"ctp\000"
 1854 079c 01       		.byte	0x1
 1855 079d FB       		.byte	0xfb
 1856 079e 48020000 		.4byte	0x248
 1857 07a2 1A030000 		.4byte	.LLST25
 1858 07a6 1A       		.uleb128 0x1a
 1859 07a7 756D7000 		.ascii	"ump\000"
 1860 07ab 01       		.byte	0x1
 1861 07ac FC       		.byte	0xfc
 1862 07ad 3C040000 		.4byte	0x43c
 1863 07b1 01       		.byte	0x1
 1864 07b2 54       		.byte	0x54
 1865 07b3 1C       		.uleb128 0x1c
 1866 07b4 6D7000   		.ascii	"mp\000"
 1867 07b7 01       		.byte	0x1
 1868 07b8 FC       		.byte	0xfc
 1869 07b9 3C040000 		.4byte	0x43c
 1870 07bd 38030000 		.4byte	.LLST26
 1871 07c1 25       		.uleb128 0x25
 1872 07c2 06000000 		.4byte	.LBB70
 1873 07c6 0C000000 		.4byte	.LBE70
 1874 07ca DE070000 		.4byte	0x7de
ARM GAS  C:\Users\LAB_ME~1\AppData\Local\Temp\ccHbNwTO.s 			page 34


 1875 07ce 1C       		.uleb128 0x1c
 1876 07cf 746D7000 		.ascii	"tmp\000"
 1877 07d3 01       		.byte	0x1
 1878 07d4 FE       		.byte	0xfe
 1879 07d5 70000000 		.4byte	0x70
 1880 07d9 4B030000 		.4byte	.LLST27
 1881 07dd 00       		.byte	0
 1882 07de 25       		.uleb128 0x25
 1883 07df 18000000 		.4byte	.LBB71
 1884 07e3 48000000 		.4byte	.LBE71
 1885 07e7 49080000 		.4byte	0x849
 1886 07eb 2A       		.uleb128 0x2a
 1887 07ec 747000   		.ascii	"tp\000"
 1888 07ef 01       		.byte	0x1
 1889 07f0 0B01     		.2byte	0x10b
 1890 07f2 48020000 		.4byte	0x248
 1891 07f6 2B       		.uleb128 0x2b
 1892 07f7 38010000 		.4byte	.LASF70
 1893 07fb 01       		.byte	0x1
 1894 07fc 0F01     		.2byte	0x10f
 1895 07fe C7000000 		.4byte	0xc7
 1896 0802 5E030000 		.4byte	.LLST28
 1897 0806 2C       		.uleb128 0x2c
 1898 0807 AE040000 		.4byte	0x4ae
 1899 080b 30000000 		.4byte	.LBB72
 1900 080f F0000000 		.4byte	.Ldebug_ranges0+0xf0
 1901 0813 01       		.byte	0x1
 1902 0814 1E01     		.2byte	0x11e
 1903 0816 33080000 		.4byte	0x833
 1904 081a 1E       		.uleb128 0x1e
 1905 081b BF040000 		.4byte	0x4bf
 1906 081f 71030000 		.4byte	.LLST29
 1907 0823 1B       		.uleb128 0x1b
 1908 0824 10010000 		.4byte	.Ldebug_ranges0+0x110
 1909 0828 1F       		.uleb128 0x1f
 1910 0829 CA040000 		.4byte	0x4ca
 1911 082d 84030000 		.4byte	.LLST30
 1912 0831 00       		.byte	0
 1913 0832 00       		.byte	0
 1914 0833 26       		.uleb128 0x26
 1915 0834 48000000 		.4byte	.LVL55
 1916 0838 1C0A0000 		.4byte	0xa1c
 1917 083c 23       		.uleb128 0x23
 1918 083d 01       		.byte	0x1
 1919 083e 51       		.byte	0x51
 1920 083f 01       		.byte	0x1
 1921 0840 30       		.byte	0x30
 1922 0841 23       		.uleb128 0x23
 1923 0842 01       		.byte	0x1
 1924 0843 50       		.byte	0x50
 1925 0844 02       		.byte	0x2
 1926 0845 75       		.byte	0x75
 1927 0846 00       		.sleb128 0
 1928 0847 00       		.byte	0
 1929 0848 00       		.byte	0
 1930 0849 21       		.uleb128 0x21
 1931 084a 48000000 		.4byte	.LBB78
ARM GAS  C:\Users\LAB_ME~1\AppData\Local\Temp\ccHbNwTO.s 			page 35


 1932 084e 4E000000 		.4byte	.LBE78
 1933 0852 2D       		.uleb128 0x2d
 1934 0853 746D7000 		.ascii	"tmp\000"
 1935 0857 01       		.byte	0x1
 1936 0858 2601     		.2byte	0x126
 1937 085a 70000000 		.4byte	0x70
 1938 085e 97030000 		.4byte	.LLST31
 1939 0862 00       		.byte	0
 1940 0863 00       		.byte	0
 1941 0864 2E       		.uleb128 0x2e
 1942 0865 01       		.byte	0x1
 1943 0866 D0000000 		.4byte	.LASF71
 1944 086a 01       		.byte	0x1
 1945 086b 3601     		.2byte	0x136
 1946 086d 01       		.byte	0x1
 1947 086e 3C040000 		.4byte	0x43c
 1948 0872 00000000 		.4byte	.LFB13
 1949 0876 50000000 		.4byte	.LFE13
 1950 087a AA030000 		.4byte	.LLST32
 1951 087e 01       		.byte	0x1
 1952 087f 13090000 		.4byte	0x913
 1953 0883 2D       		.uleb128 0x2d
 1954 0884 63747000 		.ascii	"ctp\000"
 1955 0888 01       		.byte	0x1
 1956 0889 3701     		.2byte	0x137
 1957 088b 48020000 		.4byte	0x248
 1958 088f CA030000 		.4byte	.LLST33
 1959 0893 2F       		.uleb128 0x2f
 1960 0894 756D7000 		.ascii	"ump\000"
 1961 0898 01       		.byte	0x1
 1962 0899 3801     		.2byte	0x138
 1963 089b 3C040000 		.4byte	0x43c
 1964 089f 01       		.byte	0x1
 1965 08a0 54       		.byte	0x54
 1966 08a1 2D       		.uleb128 0x2d
 1967 08a2 6D7000   		.ascii	"mp\000"
 1968 08a5 01       		.byte	0x1
 1969 08a6 3801     		.2byte	0x138
 1970 08a8 3C040000 		.4byte	0x43c
 1971 08ac E8030000 		.4byte	.LLST34
 1972 08b0 21       		.uleb128 0x21
 1973 08b1 12000000 		.4byte	.LBB79
 1974 08b5 40000000 		.4byte	.LBE79
 1975 08b9 2A       		.uleb128 0x2a
 1976 08ba 747000   		.ascii	"tp\000"
 1977 08bd 01       		.byte	0x1
 1978 08be 4801     		.2byte	0x148
 1979 08c0 48020000 		.4byte	0x248
 1980 08c4 2B       		.uleb128 0x2b
 1981 08c5 38010000 		.4byte	.LASF70
 1982 08c9 01       		.byte	0x1
 1983 08ca 4C01     		.2byte	0x14c
 1984 08cc C7000000 		.4byte	0xc7
 1985 08d0 FB030000 		.4byte	.LLST35
 1986 08d4 2C       		.uleb128 0x2c
 1987 08d5 AE040000 		.4byte	0x4ae
 1988 08d9 2A000000 		.4byte	.LBB80
ARM GAS  C:\Users\LAB_ME~1\AppData\Local\Temp\ccHbNwTO.s 			page 36


 1989 08dd 30010000 		.4byte	.Ldebug_ranges0+0x130
 1990 08e1 01       		.byte	0x1
 1991 08e2 5901     		.2byte	0x159
 1992 08e4 01090000 		.4byte	0x901
 1993 08e8 1E       		.uleb128 0x1e
 1994 08e9 BF040000 		.4byte	0x4bf
 1995 08ed 0E040000 		.4byte	.LLST36
 1996 08f1 1B       		.uleb128 0x1b
 1997 08f2 50010000 		.4byte	.Ldebug_ranges0+0x150
 1998 08f6 1F       		.uleb128 0x1f
 1999 08f7 CA040000 		.4byte	0x4ca
 2000 08fb 21040000 		.4byte	.LLST37
 2001 08ff 00       		.byte	0
 2002 0900 00       		.byte	0
 2003 0901 26       		.uleb128 0x26
 2004 0902 40000000 		.4byte	.LVL67
 2005 0906 040A0000 		.4byte	0xa04
 2006 090a 23       		.uleb128 0x23
 2007 090b 01       		.byte	0x1
 2008 090c 50       		.byte	0x50
 2009 090d 02       		.byte	0x2
 2010 090e 75       		.byte	0x75
 2011 090f 00       		.sleb128 0
 2012 0910 00       		.byte	0
 2013 0911 00       		.byte	0
 2014 0912 00       		.byte	0
 2015 0913 30       		.uleb128 0x30
 2016 0914 01       		.byte	0x1
 2017 0915 29010000 		.4byte	.LASF72
 2018 0919 01       		.byte	0x1
 2019 091a 6F01     		.2byte	0x16f
 2020 091c 01       		.byte	0x1
 2021 091d 00000000 		.4byte	.LFB14
 2022 0921 54000000 		.4byte	.LFE14
 2023 0925 34040000 		.4byte	.LLST38
 2024 0929 01       		.byte	0x1
 2025 092a E3090000 		.4byte	0x9e3
 2026 092e 2F       		.uleb128 0x2f
 2027 092f 63747000 		.ascii	"ctp\000"
 2028 0933 01       		.byte	0x1
 2029 0934 7001     		.2byte	0x170
 2030 0936 48020000 		.4byte	0x248
 2031 093a 01       		.byte	0x1
 2032 093b 54       		.byte	0x54
 2033 093c 31       		.uleb128 0x31
 2034 093d 70010000 		.4byte	.Ldebug_ranges0+0x170
 2035 0941 56090000 		.4byte	0x956
 2036 0945 2D       		.uleb128 0x2d
 2037 0946 746D7000 		.ascii	"tmp\000"
 2038 094a 01       		.byte	0x1
 2039 094b 7201     		.2byte	0x172
 2040 094d 70000000 		.4byte	0x70
 2041 0951 54040000 		.4byte	.LLST39
 2042 0955 00       		.byte	0
 2043 0956 31       		.uleb128 0x31
 2044 0957 88010000 		.4byte	.Ldebug_ranges0+0x188
 2045 095b BB090000 		.4byte	0x9bb
ARM GAS  C:\Users\LAB_ME~1\AppData\Local\Temp\ccHbNwTO.s 			page 37


 2046 095f 2D       		.uleb128 0x2d
 2047 0960 756D7000 		.ascii	"ump\000"
 2048 0964 01       		.byte	0x1
 2049 0965 7501     		.2byte	0x175
 2050 0967 3C040000 		.4byte	0x43c
 2051 096b 67040000 		.4byte	.LLST40
 2052 096f 21       		.uleb128 0x21
 2053 0970 14000000 		.4byte	.LBB89
 2054 0974 28000000 		.4byte	.LBE89
 2055 0978 2A       		.uleb128 0x2a
 2056 0979 747000   		.ascii	"tp\000"
 2057 097c 01       		.byte	0x1
 2058 097d 7801     		.2byte	0x178
 2059 097f 48020000 		.4byte	0x248
 2060 0983 2C       		.uleb128 0x2c
 2061 0984 AE040000 		.4byte	0x4ae
 2062 0988 14000000 		.4byte	.LBB90
 2063 098c A0010000 		.4byte	.Ldebug_ranges0+0x1a0
 2064 0990 01       		.byte	0x1
 2065 0991 7801     		.2byte	0x178
 2066 0993 B0090000 		.4byte	0x9b0
 2067 0997 1E       		.uleb128 0x1e
 2068 0998 BF040000 		.4byte	0x4bf
 2069 099c 67040000 		.4byte	.LLST40
 2070 09a0 1B       		.uleb128 0x1b
 2071 09a1 C0010000 		.4byte	.Ldebug_ranges0+0x1c0
 2072 09a5 1F       		.uleb128 0x1f
 2073 09a6 CA040000 		.4byte	0x4ca
 2074 09aa 85040000 		.4byte	.LLST42
 2075 09ae 00       		.byte	0
 2076 09af 00       		.byte	0
 2077 09b0 24       		.uleb128 0x24
 2078 09b1 28000000 		.4byte	.LVL75
 2079 09b5 040A0000 		.4byte	0xa04
 2080 09b9 00       		.byte	0
 2081 09ba 00       		.byte	0
 2082 09bb 25       		.uleb128 0x25
 2083 09bc 46000000 		.4byte	.LBB97
 2084 09c0 54000000 		.4byte	.LBE97
 2085 09c4 D9090000 		.4byte	0x9d9
 2086 09c8 2D       		.uleb128 0x2d
 2087 09c9 746D7000 		.ascii	"tmp\000"
 2088 09cd 01       		.byte	0x1
 2089 09ce 8401     		.2byte	0x184
 2090 09d0 70000000 		.4byte	0x70
 2091 09d4 A3040000 		.4byte	.LLST43
 2092 09d8 00       		.byte	0
 2093 09d9 24       		.uleb128 0x24
 2094 09da 46000000 		.4byte	.LVL80
 2095 09de 350A0000 		.4byte	0xa35
 2096 09e2 00       		.byte	0
 2097 09e3 32       		.uleb128 0x32
 2098 09e4 FE020000 		.4byte	.LASF81
 2099 09e8 08       		.byte	0x8
 2100 09e9 68       		.byte	0x68
 2101 09ea A2030000 		.4byte	0x3a2
 2102 09ee 01       		.byte	0x1
ARM GAS  C:\Users\LAB_ME~1\AppData\Local\Temp\ccHbNwTO.s 			page 38


 2103 09ef 01       		.byte	0x1
 2104 09f0 33       		.uleb128 0x33
 2105 09f1 01       		.byte	0x1
 2106 09f2 3E020000 		.4byte	.LASF75
 2107 09f6 08       		.byte	0x8
 2108 09f7 8C       		.byte	0x8c
 2109 09f8 01       		.byte	0x1
 2110 09f9 01       		.byte	0x1
 2111 09fa 040A0000 		.4byte	0xa04
 2112 09fe 34       		.uleb128 0x34
 2113 09ff A6000000 		.4byte	0xa6
 2114 0a03 00       		.byte	0
 2115 0a04 35       		.uleb128 0x35
 2116 0a05 01       		.byte	0x1
 2117 0a06 68020000 		.4byte	.LASF74
 2118 0a0a 08       		.byte	0x8
 2119 0a0b 89       		.byte	0x89
 2120 0a0c 01       		.byte	0x1
 2121 0a0d 48020000 		.4byte	0x248
 2122 0a11 01       		.byte	0x1
 2123 0a12 1C0A0000 		.4byte	0xa1c
 2124 0a16 34       		.uleb128 0x34
 2125 0a17 48020000 		.4byte	0x248
 2126 0a1b 00       		.byte	0
 2127 0a1c 33       		.uleb128 0x33
 2128 0a1d 01       		.byte	0x1
 2129 0a1e D6020000 		.4byte	.LASF76
 2130 0a22 08       		.byte	0x8
 2131 0a23 92       		.byte	0x92
 2132 0a24 01       		.byte	0x1
 2133 0a25 01       		.byte	0x1
 2134 0a26 350A0000 		.4byte	0xa35
 2135 0a2a 34       		.uleb128 0x34
 2136 0a2b 48020000 		.4byte	0x248
 2137 0a2f 34       		.uleb128 0x34
 2138 0a30 D2000000 		.4byte	0xd2
 2139 0a34 00       		.byte	0
 2140 0a35 36       		.uleb128 0x36
 2141 0a36 01       		.byte	0x1
 2142 0a37 AE000000 		.4byte	.LASF82
 2143 0a3b 08       		.byte	0x8
 2144 0a3c 95       		.byte	0x95
 2145 0a3d 01       		.byte	0x1
 2146 0a3e 01       		.byte	0x1
 2147 0a3f 00       		.byte	0
 2148              		.section	.debug_abbrev,"",%progbits
 2149              	.Ldebug_abbrev0:
 2150 0000 01       		.uleb128 0x1
 2151 0001 11       		.uleb128 0x11
 2152 0002 01       		.byte	0x1
 2153 0003 25       		.uleb128 0x25
 2154 0004 0E       		.uleb128 0xe
 2155 0005 13       		.uleb128 0x13
 2156 0006 0B       		.uleb128 0xb
 2157 0007 03       		.uleb128 0x3
 2158 0008 0E       		.uleb128 0xe
 2159 0009 1B       		.uleb128 0x1b
ARM GAS  C:\Users\LAB_ME~1\AppData\Local\Temp\ccHbNwTO.s 			page 39


 2160 000a 0E       		.uleb128 0xe
 2161 000b 55       		.uleb128 0x55
 2162 000c 06       		.uleb128 0x6
 2163 000d 11       		.uleb128 0x11
 2164 000e 01       		.uleb128 0x1
 2165 000f 52       		.uleb128 0x52
 2166 0010 01       		.uleb128 0x1
 2167 0011 10       		.uleb128 0x10
 2168 0012 06       		.uleb128 0x6
 2169 0013 00       		.byte	0
 2170 0014 00       		.byte	0
 2171 0015 02       		.uleb128 0x2
 2172 0016 24       		.uleb128 0x24
 2173 0017 00       		.byte	0
 2174 0018 0B       		.uleb128 0xb
 2175 0019 0B       		.uleb128 0xb
 2176 001a 3E       		.uleb128 0x3e
 2177 001b 0B       		.uleb128 0xb
 2178 001c 03       		.uleb128 0x3
 2179 001d 08       		.uleb128 0x8
 2180 001e 00       		.byte	0
 2181 001f 00       		.byte	0
 2182 0020 03       		.uleb128 0x3
 2183 0021 24       		.uleb128 0x24
 2184 0022 00       		.byte	0
 2185 0023 0B       		.uleb128 0xb
 2186 0024 0B       		.uleb128 0xb
 2187 0025 3E       		.uleb128 0x3e
 2188 0026 0B       		.uleb128 0xb
 2189 0027 03       		.uleb128 0x3
 2190 0028 0E       		.uleb128 0xe
 2191 0029 00       		.byte	0
 2192 002a 00       		.byte	0
 2193 002b 04       		.uleb128 0x4
 2194 002c 16       		.uleb128 0x16
 2195 002d 00       		.byte	0
 2196 002e 03       		.uleb128 0x3
 2197 002f 0E       		.uleb128 0xe
 2198 0030 3A       		.uleb128 0x3a
 2199 0031 0B       		.uleb128 0xb
 2200 0032 3B       		.uleb128 0x3b
 2201 0033 0B       		.uleb128 0xb
 2202 0034 49       		.uleb128 0x49
 2203 0035 13       		.uleb128 0x13
 2204 0036 00       		.byte	0
 2205 0037 00       		.byte	0
 2206 0038 05       		.uleb128 0x5
 2207 0039 13       		.uleb128 0x13
 2208 003a 01       		.byte	0x1
 2209 003b 03       		.uleb128 0x3
 2210 003c 0E       		.uleb128 0xe
 2211 003d 0B       		.uleb128 0xb
 2212 003e 0B       		.uleb128 0xb
 2213 003f 3A       		.uleb128 0x3a
 2214 0040 0B       		.uleb128 0xb
 2215 0041 3B       		.uleb128 0x3b
 2216 0042 0B       		.uleb128 0xb
ARM GAS  C:\Users\LAB_ME~1\AppData\Local\Temp\ccHbNwTO.s 			page 40


 2217 0043 01       		.uleb128 0x1
 2218 0044 13       		.uleb128 0x13
 2219 0045 00       		.byte	0
 2220 0046 00       		.byte	0
 2221 0047 06       		.uleb128 0x6
 2222 0048 0D       		.uleb128 0xd
 2223 0049 00       		.byte	0
 2224 004a 03       		.uleb128 0x3
 2225 004b 0E       		.uleb128 0xe
 2226 004c 3A       		.uleb128 0x3a
 2227 004d 0B       		.uleb128 0xb
 2228 004e 3B       		.uleb128 0x3b
 2229 004f 0B       		.uleb128 0xb
 2230 0050 49       		.uleb128 0x49
 2231 0051 13       		.uleb128 0x13
 2232 0052 38       		.uleb128 0x38
 2233 0053 0A       		.uleb128 0xa
 2234 0054 00       		.byte	0
 2235 0055 00       		.byte	0
 2236 0056 07       		.uleb128 0x7
 2237 0057 0D       		.uleb128 0xd
 2238 0058 00       		.byte	0
 2239 0059 03       		.uleb128 0x3
 2240 005a 08       		.uleb128 0x8
 2241 005b 3A       		.uleb128 0x3a
 2242 005c 0B       		.uleb128 0xb
 2243 005d 3B       		.uleb128 0x3b
 2244 005e 0B       		.uleb128 0xb
 2245 005f 49       		.uleb128 0x49
 2246 0060 13       		.uleb128 0x13
 2247 0061 38       		.uleb128 0x38
 2248 0062 0A       		.uleb128 0xa
 2249 0063 00       		.byte	0
 2250 0064 00       		.byte	0
 2251 0065 08       		.uleb128 0x8
 2252 0066 13       		.uleb128 0x13
 2253 0067 01       		.byte	0x1
 2254 0068 0B       		.uleb128 0xb
 2255 0069 0B       		.uleb128 0xb
 2256 006a 3A       		.uleb128 0x3a
 2257 006b 0B       		.uleb128 0xb
 2258 006c 3B       		.uleb128 0x3b
 2259 006d 0B       		.uleb128 0xb
 2260 006e 01       		.uleb128 0x1
 2261 006f 13       		.uleb128 0x13
 2262 0070 00       		.byte	0
 2263 0071 00       		.byte	0
 2264 0072 09       		.uleb128 0x9
 2265 0073 0F       		.uleb128 0xf
 2266 0074 00       		.byte	0
 2267 0075 0B       		.uleb128 0xb
 2268 0076 0B       		.uleb128 0xb
 2269 0077 49       		.uleb128 0x49
 2270 0078 13       		.uleb128 0x13
 2271 0079 00       		.byte	0
 2272 007a 00       		.byte	0
 2273 007b 0A       		.uleb128 0xa
ARM GAS  C:\Users\LAB_ME~1\AppData\Local\Temp\ccHbNwTO.s 			page 41


 2274 007c 0F       		.uleb128 0xf
 2275 007d 00       		.byte	0
 2276 007e 0B       		.uleb128 0xb
 2277 007f 0B       		.uleb128 0xb
 2278 0080 00       		.byte	0
 2279 0081 00       		.byte	0
 2280 0082 0B       		.uleb128 0xb
 2281 0083 13       		.uleb128 0x13
 2282 0084 01       		.byte	0x1
 2283 0085 03       		.uleb128 0x3
 2284 0086 0E       		.uleb128 0xe
 2285 0087 0B       		.uleb128 0xb
 2286 0088 0B       		.uleb128 0xb
 2287 0089 3A       		.uleb128 0x3a
 2288 008a 0B       		.uleb128 0xb
 2289 008b 3B       		.uleb128 0x3b
 2290 008c 05       		.uleb128 0x5
 2291 008d 01       		.uleb128 0x1
 2292 008e 13       		.uleb128 0x13
 2293 008f 00       		.byte	0
 2294 0090 00       		.byte	0
 2295 0091 0C       		.uleb128 0xc
 2296 0092 0D       		.uleb128 0xd
 2297 0093 00       		.byte	0
 2298 0094 03       		.uleb128 0x3
 2299 0095 08       		.uleb128 0x8
 2300 0096 3A       		.uleb128 0x3a
 2301 0097 0B       		.uleb128 0xb
 2302 0098 3B       		.uleb128 0x3b
 2303 0099 05       		.uleb128 0x5
 2304 009a 49       		.uleb128 0x49
 2305 009b 13       		.uleb128 0x13
 2306 009c 38       		.uleb128 0x38
 2307 009d 0A       		.uleb128 0xa
 2308 009e 00       		.byte	0
 2309 009f 00       		.byte	0
 2310 00a0 0D       		.uleb128 0xd
 2311 00a1 35       		.uleb128 0x35
 2312 00a2 00       		.byte	0
 2313 00a3 49       		.uleb128 0x49
 2314 00a4 13       		.uleb128 0x13
 2315 00a5 00       		.byte	0
 2316 00a6 00       		.byte	0
 2317 00a7 0E       		.uleb128 0xe
 2318 00a8 17       		.uleb128 0x17
 2319 00a9 01       		.byte	0x1
 2320 00aa 0B       		.uleb128 0xb
 2321 00ab 0B       		.uleb128 0xb
 2322 00ac 3A       		.uleb128 0x3a
 2323 00ad 0B       		.uleb128 0xb
 2324 00ae 3B       		.uleb128 0x3b
 2325 00af 0B       		.uleb128 0xb
 2326 00b0 01       		.uleb128 0x1
 2327 00b1 13       		.uleb128 0x13
 2328 00b2 00       		.byte	0
 2329 00b3 00       		.byte	0
 2330 00b4 0F       		.uleb128 0xf
ARM GAS  C:\Users\LAB_ME~1\AppData\Local\Temp\ccHbNwTO.s 			page 42


 2331 00b5 0D       		.uleb128 0xd
 2332 00b6 00       		.byte	0
 2333 00b7 03       		.uleb128 0x3
 2334 00b8 0E       		.uleb128 0xe
 2335 00b9 3A       		.uleb128 0x3a
 2336 00ba 0B       		.uleb128 0xb
 2337 00bb 3B       		.uleb128 0x3b
 2338 00bc 0B       		.uleb128 0xb
 2339 00bd 49       		.uleb128 0x49
 2340 00be 13       		.uleb128 0x13
 2341 00bf 00       		.byte	0
 2342 00c0 00       		.byte	0
 2343 00c1 10       		.uleb128 0x10
 2344 00c2 26       		.uleb128 0x26
 2345 00c3 00       		.byte	0
 2346 00c4 49       		.uleb128 0x49
 2347 00c5 13       		.uleb128 0x13
 2348 00c6 00       		.byte	0
 2349 00c7 00       		.byte	0
 2350 00c8 11       		.uleb128 0x11
 2351 00c9 2E       		.uleb128 0x2e
 2352 00ca 01       		.byte	0x1
 2353 00cb 03       		.uleb128 0x3
 2354 00cc 0E       		.uleb128 0xe
 2355 00cd 3A       		.uleb128 0x3a
 2356 00ce 0B       		.uleb128 0xb
 2357 00cf 3B       		.uleb128 0x3b
 2358 00d0 0B       		.uleb128 0xb
 2359 00d1 27       		.uleb128 0x27
 2360 00d2 0C       		.uleb128 0xc
 2361 00d3 49       		.uleb128 0x49
 2362 00d4 13       		.uleb128 0x13
 2363 00d5 20       		.uleb128 0x20
 2364 00d6 0B       		.uleb128 0xb
 2365 00d7 01       		.uleb128 0x1
 2366 00d8 13       		.uleb128 0x13
 2367 00d9 00       		.byte	0
 2368 00da 00       		.byte	0
 2369 00db 12       		.uleb128 0x12
 2370 00dc 05       		.uleb128 0x5
 2371 00dd 00       		.byte	0
 2372 00de 03       		.uleb128 0x3
 2373 00df 08       		.uleb128 0x8
 2374 00e0 3A       		.uleb128 0x3a
 2375 00e1 0B       		.uleb128 0xb
 2376 00e2 3B       		.uleb128 0x3b
 2377 00e3 0B       		.uleb128 0xb
 2378 00e4 49       		.uleb128 0x49
 2379 00e5 13       		.uleb128 0x13
 2380 00e6 00       		.byte	0
 2381 00e7 00       		.byte	0
 2382 00e8 13       		.uleb128 0x13
 2383 00e9 2E       		.uleb128 0x2e
 2384 00ea 01       		.byte	0x1
 2385 00eb 03       		.uleb128 0x3
 2386 00ec 0E       		.uleb128 0xe
 2387 00ed 3A       		.uleb128 0x3a
ARM GAS  C:\Users\LAB_ME~1\AppData\Local\Temp\ccHbNwTO.s 			page 43


 2388 00ee 0B       		.uleb128 0xb
 2389 00ef 3B       		.uleb128 0x3b
 2390 00f0 0B       		.uleb128 0xb
 2391 00f1 27       		.uleb128 0x27
 2392 00f2 0C       		.uleb128 0xc
 2393 00f3 20       		.uleb128 0x20
 2394 00f4 0B       		.uleb128 0xb
 2395 00f5 01       		.uleb128 0x1
 2396 00f6 13       		.uleb128 0x13
 2397 00f7 00       		.byte	0
 2398 00f8 00       		.byte	0
 2399 00f9 14       		.uleb128 0x14
 2400 00fa 34       		.uleb128 0x34
 2401 00fb 00       		.byte	0
 2402 00fc 03       		.uleb128 0x3
 2403 00fd 08       		.uleb128 0x8
 2404 00fe 3A       		.uleb128 0x3a
 2405 00ff 0B       		.uleb128 0xb
 2406 0100 3B       		.uleb128 0x3b
 2407 0101 0B       		.uleb128 0xb
 2408 0102 49       		.uleb128 0x49
 2409 0103 13       		.uleb128 0x13
 2410 0104 00       		.byte	0
 2411 0105 00       		.byte	0
 2412 0106 15       		.uleb128 0x15
 2413 0107 2E       		.uleb128 0x2e
 2414 0108 01       		.byte	0x1
 2415 0109 3F       		.uleb128 0x3f
 2416 010a 0C       		.uleb128 0xc
 2417 010b 03       		.uleb128 0x3
 2418 010c 0E       		.uleb128 0xe
 2419 010d 3A       		.uleb128 0x3a
 2420 010e 0B       		.uleb128 0xb
 2421 010f 3B       		.uleb128 0x3b
 2422 0110 0B       		.uleb128 0xb
 2423 0111 27       		.uleb128 0x27
 2424 0112 0C       		.uleb128 0xc
 2425 0113 49       		.uleb128 0x49
 2426 0114 13       		.uleb128 0x13
 2427 0115 20       		.uleb128 0x20
 2428 0116 0B       		.uleb128 0xb
 2429 0117 01       		.uleb128 0x1
 2430 0118 13       		.uleb128 0x13
 2431 0119 00       		.byte	0
 2432 011a 00       		.byte	0
 2433 011b 16       		.uleb128 0x16
 2434 011c 2E       		.uleb128 0x2e
 2435 011d 01       		.byte	0x1
 2436 011e 3F       		.uleb128 0x3f
 2437 011f 0C       		.uleb128 0xc
 2438 0120 03       		.uleb128 0x3
 2439 0121 0E       		.uleb128 0xe
 2440 0122 3A       		.uleb128 0x3a
 2441 0123 0B       		.uleb128 0xb
 2442 0124 3B       		.uleb128 0x3b
 2443 0125 0B       		.uleb128 0xb
 2444 0126 27       		.uleb128 0x27
ARM GAS  C:\Users\LAB_ME~1\AppData\Local\Temp\ccHbNwTO.s 			page 44


 2445 0127 0C       		.uleb128 0xc
 2446 0128 11       		.uleb128 0x11
 2447 0129 01       		.uleb128 0x1
 2448 012a 12       		.uleb128 0x12
 2449 012b 01       		.uleb128 0x1
 2450 012c 40       		.uleb128 0x40
 2451 012d 0A       		.uleb128 0xa
 2452 012e 9742     		.uleb128 0x2117
 2453 0130 0C       		.uleb128 0xc
 2454 0131 01       		.uleb128 0x1
 2455 0132 13       		.uleb128 0x13
 2456 0133 00       		.byte	0
 2457 0134 00       		.byte	0
 2458 0135 17       		.uleb128 0x17
 2459 0136 05       		.uleb128 0x5
 2460 0137 00       		.byte	0
 2461 0138 03       		.uleb128 0x3
 2462 0139 08       		.uleb128 0x8
 2463 013a 3A       		.uleb128 0x3a
 2464 013b 0B       		.uleb128 0xb
 2465 013c 3B       		.uleb128 0x3b
 2466 013d 0B       		.uleb128 0xb
 2467 013e 49       		.uleb128 0x49
 2468 013f 13       		.uleb128 0x13
 2469 0140 02       		.uleb128 0x2
 2470 0141 0A       		.uleb128 0xa
 2471 0142 00       		.byte	0
 2472 0143 00       		.byte	0
 2473 0144 18       		.uleb128 0x18
 2474 0145 2E       		.uleb128 0x2e
 2475 0146 01       		.byte	0x1
 2476 0147 3F       		.uleb128 0x3f
 2477 0148 0C       		.uleb128 0xc
 2478 0149 03       		.uleb128 0x3
 2479 014a 0E       		.uleb128 0xe
 2480 014b 3A       		.uleb128 0x3a
 2481 014c 0B       		.uleb128 0xb
 2482 014d 3B       		.uleb128 0x3b
 2483 014e 0B       		.uleb128 0xb
 2484 014f 27       		.uleb128 0x27
 2485 0150 0C       		.uleb128 0xc
 2486 0151 11       		.uleb128 0x11
 2487 0152 01       		.uleb128 0x1
 2488 0153 12       		.uleb128 0x12
 2489 0154 01       		.uleb128 0x1
 2490 0155 40       		.uleb128 0x40
 2491 0156 06       		.uleb128 0x6
 2492 0157 9742     		.uleb128 0x2117
 2493 0159 0C       		.uleb128 0xc
 2494 015a 01       		.uleb128 0x1
 2495 015b 13       		.uleb128 0x13
 2496 015c 00       		.byte	0
 2497 015d 00       		.byte	0
 2498 015e 19       		.uleb128 0x19
 2499 015f 05       		.uleb128 0x5
 2500 0160 00       		.byte	0
 2501 0161 03       		.uleb128 0x3
ARM GAS  C:\Users\LAB_ME~1\AppData\Local\Temp\ccHbNwTO.s 			page 45


 2502 0162 08       		.uleb128 0x8
 2503 0163 3A       		.uleb128 0x3a
 2504 0164 0B       		.uleb128 0xb
 2505 0165 3B       		.uleb128 0x3b
 2506 0166 0B       		.uleb128 0xb
 2507 0167 49       		.uleb128 0x49
 2508 0168 13       		.uleb128 0x13
 2509 0169 02       		.uleb128 0x2
 2510 016a 06       		.uleb128 0x6
 2511 016b 00       		.byte	0
 2512 016c 00       		.byte	0
 2513 016d 1A       		.uleb128 0x1a
 2514 016e 34       		.uleb128 0x34
 2515 016f 00       		.byte	0
 2516 0170 03       		.uleb128 0x3
 2517 0171 08       		.uleb128 0x8
 2518 0172 3A       		.uleb128 0x3a
 2519 0173 0B       		.uleb128 0xb
 2520 0174 3B       		.uleb128 0x3b
 2521 0175 0B       		.uleb128 0xb
 2522 0176 49       		.uleb128 0x49
 2523 0177 13       		.uleb128 0x13
 2524 0178 02       		.uleb128 0x2
 2525 0179 0A       		.uleb128 0xa
 2526 017a 00       		.byte	0
 2527 017b 00       		.byte	0
 2528 017c 1B       		.uleb128 0x1b
 2529 017d 0B       		.uleb128 0xb
 2530 017e 01       		.byte	0x1
 2531 017f 55       		.uleb128 0x55
 2532 0180 06       		.uleb128 0x6
 2533 0181 00       		.byte	0
 2534 0182 00       		.byte	0
 2535 0183 1C       		.uleb128 0x1c
 2536 0184 34       		.uleb128 0x34
 2537 0185 00       		.byte	0
 2538 0186 03       		.uleb128 0x3
 2539 0187 08       		.uleb128 0x8
 2540 0188 3A       		.uleb128 0x3a
 2541 0189 0B       		.uleb128 0xb
 2542 018a 3B       		.uleb128 0x3b
 2543 018b 0B       		.uleb128 0xb
 2544 018c 49       		.uleb128 0x49
 2545 018d 13       		.uleb128 0x13
 2546 018e 02       		.uleb128 0x2
 2547 018f 06       		.uleb128 0x6
 2548 0190 00       		.byte	0
 2549 0191 00       		.byte	0
 2550 0192 1D       		.uleb128 0x1d
 2551 0193 1D       		.uleb128 0x1d
 2552 0194 01       		.byte	0x1
 2553 0195 31       		.uleb128 0x31
 2554 0196 13       		.uleb128 0x13
 2555 0197 52       		.uleb128 0x52
 2556 0198 01       		.uleb128 0x1
 2557 0199 55       		.uleb128 0x55
 2558 019a 06       		.uleb128 0x6
ARM GAS  C:\Users\LAB_ME~1\AppData\Local\Temp\ccHbNwTO.s 			page 46


 2559 019b 58       		.uleb128 0x58
 2560 019c 0B       		.uleb128 0xb
 2561 019d 59       		.uleb128 0x59
 2562 019e 0B       		.uleb128 0xb
 2563 019f 01       		.uleb128 0x1
 2564 01a0 13       		.uleb128 0x13
 2565 01a1 00       		.byte	0
 2566 01a2 00       		.byte	0
 2567 01a3 1E       		.uleb128 0x1e
 2568 01a4 05       		.uleb128 0x5
 2569 01a5 00       		.byte	0
 2570 01a6 31       		.uleb128 0x31
 2571 01a7 13       		.uleb128 0x13
 2572 01a8 02       		.uleb128 0x2
 2573 01a9 06       		.uleb128 0x6
 2574 01aa 00       		.byte	0
 2575 01ab 00       		.byte	0
 2576 01ac 1F       		.uleb128 0x1f
 2577 01ad 34       		.uleb128 0x34
 2578 01ae 00       		.byte	0
 2579 01af 31       		.uleb128 0x31
 2580 01b0 13       		.uleb128 0x13
 2581 01b1 02       		.uleb128 0x2
 2582 01b2 06       		.uleb128 0x6
 2583 01b3 00       		.byte	0
 2584 01b4 00       		.byte	0
 2585 01b5 20       		.uleb128 0x20
 2586 01b6 1D       		.uleb128 0x1d
 2587 01b7 01       		.byte	0x1
 2588 01b8 31       		.uleb128 0x31
 2589 01b9 13       		.uleb128 0x13
 2590 01ba 11       		.uleb128 0x11
 2591 01bb 01       		.uleb128 0x1
 2592 01bc 12       		.uleb128 0x12
 2593 01bd 01       		.uleb128 0x1
 2594 01be 58       		.uleb128 0x58
 2595 01bf 0B       		.uleb128 0xb
 2596 01c0 59       		.uleb128 0x59
 2597 01c1 0B       		.uleb128 0xb
 2598 01c2 01       		.uleb128 0x1
 2599 01c3 13       		.uleb128 0x13
 2600 01c4 00       		.byte	0
 2601 01c5 00       		.byte	0
 2602 01c6 21       		.uleb128 0x21
 2603 01c7 0B       		.uleb128 0xb
 2604 01c8 01       		.byte	0x1
 2605 01c9 11       		.uleb128 0x11
 2606 01ca 01       		.uleb128 0x1
 2607 01cb 12       		.uleb128 0x12
 2608 01cc 01       		.uleb128 0x1
 2609 01cd 00       		.byte	0
 2610 01ce 00       		.byte	0
 2611 01cf 22       		.uleb128 0x22
 2612 01d0 898201   		.uleb128 0x4109
 2613 01d3 01       		.byte	0x1
 2614 01d4 11       		.uleb128 0x11
 2615 01d5 01       		.uleb128 0x1
ARM GAS  C:\Users\LAB_ME~1\AppData\Local\Temp\ccHbNwTO.s 			page 47


 2616 01d6 9542     		.uleb128 0x2115
 2617 01d8 0C       		.uleb128 0xc
 2618 01d9 31       		.uleb128 0x31
 2619 01da 13       		.uleb128 0x13
 2620 01db 01       		.uleb128 0x1
 2621 01dc 13       		.uleb128 0x13
 2622 01dd 00       		.byte	0
 2623 01de 00       		.byte	0
 2624 01df 23       		.uleb128 0x23
 2625 01e0 8A8201   		.uleb128 0x410a
 2626 01e3 00       		.byte	0
 2627 01e4 02       		.uleb128 0x2
 2628 01e5 0A       		.uleb128 0xa
 2629 01e6 9142     		.uleb128 0x2111
 2630 01e8 0A       		.uleb128 0xa
 2631 01e9 00       		.byte	0
 2632 01ea 00       		.byte	0
 2633 01eb 24       		.uleb128 0x24
 2634 01ec 898201   		.uleb128 0x4109
 2635 01ef 00       		.byte	0
 2636 01f0 11       		.uleb128 0x11
 2637 01f1 01       		.uleb128 0x1
 2638 01f2 31       		.uleb128 0x31
 2639 01f3 13       		.uleb128 0x13
 2640 01f4 00       		.byte	0
 2641 01f5 00       		.byte	0
 2642 01f6 25       		.uleb128 0x25
 2643 01f7 0B       		.uleb128 0xb
 2644 01f8 01       		.byte	0x1
 2645 01f9 11       		.uleb128 0x11
 2646 01fa 01       		.uleb128 0x1
 2647 01fb 12       		.uleb128 0x12
 2648 01fc 01       		.uleb128 0x1
 2649 01fd 01       		.uleb128 0x1
 2650 01fe 13       		.uleb128 0x13
 2651 01ff 00       		.byte	0
 2652 0200 00       		.byte	0
 2653 0201 26       		.uleb128 0x26
 2654 0202 898201   		.uleb128 0x4109
 2655 0205 01       		.byte	0x1
 2656 0206 11       		.uleb128 0x11
 2657 0207 01       		.uleb128 0x1
 2658 0208 31       		.uleb128 0x31
 2659 0209 13       		.uleb128 0x13
 2660 020a 00       		.byte	0
 2661 020b 00       		.byte	0
 2662 020c 27       		.uleb128 0x27
 2663 020d 2E       		.uleb128 0x2e
 2664 020e 01       		.byte	0x1
 2665 020f 3F       		.uleb128 0x3f
 2666 0210 0C       		.uleb128 0xc
 2667 0211 03       		.uleb128 0x3
 2668 0212 0E       		.uleb128 0xe
 2669 0213 3A       		.uleb128 0x3a
 2670 0214 0B       		.uleb128 0xb
 2671 0215 3B       		.uleb128 0x3b
 2672 0216 0B       		.uleb128 0xb
ARM GAS  C:\Users\LAB_ME~1\AppData\Local\Temp\ccHbNwTO.s 			page 48


 2673 0217 27       		.uleb128 0x27
 2674 0218 0C       		.uleb128 0xc
 2675 0219 49       		.uleb128 0x49
 2676 021a 13       		.uleb128 0x13
 2677 021b 11       		.uleb128 0x11
 2678 021c 01       		.uleb128 0x1
 2679 021d 12       		.uleb128 0x12
 2680 021e 01       		.uleb128 0x1
 2681 021f 40       		.uleb128 0x40
 2682 0220 0A       		.uleb128 0xa
 2683 0221 9742     		.uleb128 0x2117
 2684 0223 0C       		.uleb128 0xc
 2685 0224 01       		.uleb128 0x1
 2686 0225 13       		.uleb128 0x13
 2687 0226 00       		.byte	0
 2688 0227 00       		.byte	0
 2689 0228 28       		.uleb128 0x28
 2690 0229 2E       		.uleb128 0x2e
 2691 022a 01       		.byte	0x1
 2692 022b 31       		.uleb128 0x31
 2693 022c 13       		.uleb128 0x13
 2694 022d 11       		.uleb128 0x11
 2695 022e 01       		.uleb128 0x1
 2696 022f 12       		.uleb128 0x12
 2697 0230 01       		.uleb128 0x1
 2698 0231 40       		.uleb128 0x40
 2699 0232 0A       		.uleb128 0xa
 2700 0233 9742     		.uleb128 0x2117
 2701 0235 0C       		.uleb128 0xc
 2702 0236 01       		.uleb128 0x1
 2703 0237 13       		.uleb128 0x13
 2704 0238 00       		.byte	0
 2705 0239 00       		.byte	0
 2706 023a 29       		.uleb128 0x29
 2707 023b 2E       		.uleb128 0x2e
 2708 023c 01       		.byte	0x1
 2709 023d 3F       		.uleb128 0x3f
 2710 023e 0C       		.uleb128 0xc
 2711 023f 03       		.uleb128 0x3
 2712 0240 0E       		.uleb128 0xe
 2713 0241 3A       		.uleb128 0x3a
 2714 0242 0B       		.uleb128 0xb
 2715 0243 3B       		.uleb128 0x3b
 2716 0244 0B       		.uleb128 0xb
 2717 0245 27       		.uleb128 0x27
 2718 0246 0C       		.uleb128 0xc
 2719 0247 49       		.uleb128 0x49
 2720 0248 13       		.uleb128 0x13
 2721 0249 11       		.uleb128 0x11
 2722 024a 01       		.uleb128 0x1
 2723 024b 12       		.uleb128 0x12
 2724 024c 01       		.uleb128 0x1
 2725 024d 40       		.uleb128 0x40
 2726 024e 06       		.uleb128 0x6
 2727 024f 9742     		.uleb128 0x2117
 2728 0251 0C       		.uleb128 0xc
 2729 0252 01       		.uleb128 0x1
ARM GAS  C:\Users\LAB_ME~1\AppData\Local\Temp\ccHbNwTO.s 			page 49


 2730 0253 13       		.uleb128 0x13
 2731 0254 00       		.byte	0
 2732 0255 00       		.byte	0
 2733 0256 2A       		.uleb128 0x2a
 2734 0257 34       		.uleb128 0x34
 2735 0258 00       		.byte	0
 2736 0259 03       		.uleb128 0x3
 2737 025a 08       		.uleb128 0x8
 2738 025b 3A       		.uleb128 0x3a
 2739 025c 0B       		.uleb128 0xb
 2740 025d 3B       		.uleb128 0x3b
 2741 025e 05       		.uleb128 0x5
 2742 025f 49       		.uleb128 0x49
 2743 0260 13       		.uleb128 0x13
 2744 0261 00       		.byte	0
 2745 0262 00       		.byte	0
 2746 0263 2B       		.uleb128 0x2b
 2747 0264 34       		.uleb128 0x34
 2748 0265 00       		.byte	0
 2749 0266 03       		.uleb128 0x3
 2750 0267 0E       		.uleb128 0xe
 2751 0268 3A       		.uleb128 0x3a
 2752 0269 0B       		.uleb128 0xb
 2753 026a 3B       		.uleb128 0x3b
 2754 026b 05       		.uleb128 0x5
 2755 026c 49       		.uleb128 0x49
 2756 026d 13       		.uleb128 0x13
 2757 026e 02       		.uleb128 0x2
 2758 026f 06       		.uleb128 0x6
 2759 0270 00       		.byte	0
 2760 0271 00       		.byte	0
 2761 0272 2C       		.uleb128 0x2c
 2762 0273 1D       		.uleb128 0x1d
 2763 0274 01       		.byte	0x1
 2764 0275 31       		.uleb128 0x31
 2765 0276 13       		.uleb128 0x13
 2766 0277 52       		.uleb128 0x52
 2767 0278 01       		.uleb128 0x1
 2768 0279 55       		.uleb128 0x55
 2769 027a 06       		.uleb128 0x6
 2770 027b 58       		.uleb128 0x58
 2771 027c 0B       		.uleb128 0xb
 2772 027d 59       		.uleb128 0x59
 2773 027e 05       		.uleb128 0x5
 2774 027f 01       		.uleb128 0x1
 2775 0280 13       		.uleb128 0x13
 2776 0281 00       		.byte	0
 2777 0282 00       		.byte	0
 2778 0283 2D       		.uleb128 0x2d
 2779 0284 34       		.uleb128 0x34
 2780 0285 00       		.byte	0
 2781 0286 03       		.uleb128 0x3
 2782 0287 08       		.uleb128 0x8
 2783 0288 3A       		.uleb128 0x3a
 2784 0289 0B       		.uleb128 0xb
 2785 028a 3B       		.uleb128 0x3b
 2786 028b 05       		.uleb128 0x5
ARM GAS  C:\Users\LAB_ME~1\AppData\Local\Temp\ccHbNwTO.s 			page 50


 2787 028c 49       		.uleb128 0x49
 2788 028d 13       		.uleb128 0x13
 2789 028e 02       		.uleb128 0x2
 2790 028f 06       		.uleb128 0x6
 2791 0290 00       		.byte	0
 2792 0291 00       		.byte	0
 2793 0292 2E       		.uleb128 0x2e
 2794 0293 2E       		.uleb128 0x2e
 2795 0294 01       		.byte	0x1
 2796 0295 3F       		.uleb128 0x3f
 2797 0296 0C       		.uleb128 0xc
 2798 0297 03       		.uleb128 0x3
 2799 0298 0E       		.uleb128 0xe
 2800 0299 3A       		.uleb128 0x3a
 2801 029a 0B       		.uleb128 0xb
 2802 029b 3B       		.uleb128 0x3b
 2803 029c 05       		.uleb128 0x5
 2804 029d 27       		.uleb128 0x27
 2805 029e 0C       		.uleb128 0xc
 2806 029f 49       		.uleb128 0x49
 2807 02a0 13       		.uleb128 0x13
 2808 02a1 11       		.uleb128 0x11
 2809 02a2 01       		.uleb128 0x1
 2810 02a3 12       		.uleb128 0x12
 2811 02a4 01       		.uleb128 0x1
 2812 02a5 40       		.uleb128 0x40
 2813 02a6 06       		.uleb128 0x6
 2814 02a7 9742     		.uleb128 0x2117
 2815 02a9 0C       		.uleb128 0xc
 2816 02aa 01       		.uleb128 0x1
 2817 02ab 13       		.uleb128 0x13
 2818 02ac 00       		.byte	0
 2819 02ad 00       		.byte	0
 2820 02ae 2F       		.uleb128 0x2f
 2821 02af 34       		.uleb128 0x34
 2822 02b0 00       		.byte	0
 2823 02b1 03       		.uleb128 0x3
 2824 02b2 08       		.uleb128 0x8
 2825 02b3 3A       		.uleb128 0x3a
 2826 02b4 0B       		.uleb128 0xb
 2827 02b5 3B       		.uleb128 0x3b
 2828 02b6 05       		.uleb128 0x5
 2829 02b7 49       		.uleb128 0x49
 2830 02b8 13       		.uleb128 0x13
 2831 02b9 02       		.uleb128 0x2
 2832 02ba 0A       		.uleb128 0xa
 2833 02bb 00       		.byte	0
 2834 02bc 00       		.byte	0
 2835 02bd 30       		.uleb128 0x30
 2836 02be 2E       		.uleb128 0x2e
 2837 02bf 01       		.byte	0x1
 2838 02c0 3F       		.uleb128 0x3f
 2839 02c1 0C       		.uleb128 0xc
 2840 02c2 03       		.uleb128 0x3
 2841 02c3 0E       		.uleb128 0xe
 2842 02c4 3A       		.uleb128 0x3a
 2843 02c5 0B       		.uleb128 0xb
ARM GAS  C:\Users\LAB_ME~1\AppData\Local\Temp\ccHbNwTO.s 			page 51


 2844 02c6 3B       		.uleb128 0x3b
 2845 02c7 05       		.uleb128 0x5
 2846 02c8 27       		.uleb128 0x27
 2847 02c9 0C       		.uleb128 0xc
 2848 02ca 11       		.uleb128 0x11
 2849 02cb 01       		.uleb128 0x1
 2850 02cc 12       		.uleb128 0x12
 2851 02cd 01       		.uleb128 0x1
 2852 02ce 40       		.uleb128 0x40
 2853 02cf 06       		.uleb128 0x6
 2854 02d0 9742     		.uleb128 0x2117
 2855 02d2 0C       		.uleb128 0xc
 2856 02d3 01       		.uleb128 0x1
 2857 02d4 13       		.uleb128 0x13
 2858 02d5 00       		.byte	0
 2859 02d6 00       		.byte	0
 2860 02d7 31       		.uleb128 0x31
 2861 02d8 0B       		.uleb128 0xb
 2862 02d9 01       		.byte	0x1
 2863 02da 55       		.uleb128 0x55
 2864 02db 06       		.uleb128 0x6
 2865 02dc 01       		.uleb128 0x1
 2866 02dd 13       		.uleb128 0x13
 2867 02de 00       		.byte	0
 2868 02df 00       		.byte	0
 2869 02e0 32       		.uleb128 0x32
 2870 02e1 34       		.uleb128 0x34
 2871 02e2 00       		.byte	0
 2872 02e3 03       		.uleb128 0x3
 2873 02e4 0E       		.uleb128 0xe
 2874 02e5 3A       		.uleb128 0x3a
 2875 02e6 0B       		.uleb128 0xb
 2876 02e7 3B       		.uleb128 0x3b
 2877 02e8 0B       		.uleb128 0xb
 2878 02e9 49       		.uleb128 0x49
 2879 02ea 13       		.uleb128 0x13
 2880 02eb 3F       		.uleb128 0x3f
 2881 02ec 0C       		.uleb128 0xc
 2882 02ed 3C       		.uleb128 0x3c
 2883 02ee 0C       		.uleb128 0xc
 2884 02ef 00       		.byte	0
 2885 02f0 00       		.byte	0
 2886 02f1 33       		.uleb128 0x33
 2887 02f2 2E       		.uleb128 0x2e
 2888 02f3 01       		.byte	0x1
 2889 02f4 3F       		.uleb128 0x3f
 2890 02f5 0C       		.uleb128 0xc
 2891 02f6 03       		.uleb128 0x3
 2892 02f7 0E       		.uleb128 0xe
 2893 02f8 3A       		.uleb128 0x3a
 2894 02f9 0B       		.uleb128 0xb
 2895 02fa 3B       		.uleb128 0x3b
 2896 02fb 0B       		.uleb128 0xb
 2897 02fc 27       		.uleb128 0x27
 2898 02fd 0C       		.uleb128 0xc
 2899 02fe 3C       		.uleb128 0x3c
 2900 02ff 0C       		.uleb128 0xc
ARM GAS  C:\Users\LAB_ME~1\AppData\Local\Temp\ccHbNwTO.s 			page 52


 2901 0300 01       		.uleb128 0x1
 2902 0301 13       		.uleb128 0x13
 2903 0302 00       		.byte	0
 2904 0303 00       		.byte	0
 2905 0304 34       		.uleb128 0x34
 2906 0305 05       		.uleb128 0x5
 2907 0306 00       		.byte	0
 2908 0307 49       		.uleb128 0x49
 2909 0308 13       		.uleb128 0x13
 2910 0309 00       		.byte	0
 2911 030a 00       		.byte	0
 2912 030b 35       		.uleb128 0x35
 2913 030c 2E       		.uleb128 0x2e
 2914 030d 01       		.byte	0x1
 2915 030e 3F       		.uleb128 0x3f
 2916 030f 0C       		.uleb128 0xc
 2917 0310 03       		.uleb128 0x3
 2918 0311 0E       		.uleb128 0xe
 2919 0312 3A       		.uleb128 0x3a
 2920 0313 0B       		.uleb128 0xb
 2921 0314 3B       		.uleb128 0x3b
 2922 0315 0B       		.uleb128 0xb
 2923 0316 27       		.uleb128 0x27
 2924 0317 0C       		.uleb128 0xc
 2925 0318 49       		.uleb128 0x49
 2926 0319 13       		.uleb128 0x13
 2927 031a 3C       		.uleb128 0x3c
 2928 031b 0C       		.uleb128 0xc
 2929 031c 01       		.uleb128 0x1
 2930 031d 13       		.uleb128 0x13
 2931 031e 00       		.byte	0
 2932 031f 00       		.byte	0
 2933 0320 36       		.uleb128 0x36
 2934 0321 2E       		.uleb128 0x2e
 2935 0322 00       		.byte	0
 2936 0323 3F       		.uleb128 0x3f
 2937 0324 0C       		.uleb128 0xc
 2938 0325 03       		.uleb128 0x3
 2939 0326 0E       		.uleb128 0xe
 2940 0327 3A       		.uleb128 0x3a
 2941 0328 0B       		.uleb128 0xb
 2942 0329 3B       		.uleb128 0x3b
 2943 032a 0B       		.uleb128 0xb
 2944 032b 27       		.uleb128 0x27
 2945 032c 0C       		.uleb128 0xc
 2946 032d 3C       		.uleb128 0x3c
 2947 032e 0C       		.uleb128 0xc
 2948 032f 00       		.byte	0
 2949 0330 00       		.byte	0
 2950 0331 00       		.byte	0
 2951              		.section	.debug_loc,"",%progbits
 2952              	.Ldebug_loc0:
 2953              	.LLST0:
 2954 0000 00000000 		.4byte	.LFB9
 2955 0004 02000000 		.4byte	.LCFI0
 2956 0008 0200     		.2byte	0x2
 2957 000a 7D       		.byte	0x7d
ARM GAS  C:\Users\LAB_ME~1\AppData\Local\Temp\ccHbNwTO.s 			page 53


 2958 000b 00       		.sleb128 0
 2959 000c 02000000 		.4byte	.LCFI0
 2960 0010 C4000000 		.4byte	.LFE9
 2961 0014 0200     		.2byte	0x2
 2962 0016 7D       		.byte	0x7d
 2963 0017 18       		.sleb128 24
 2964 0018 00000000 		.4byte	0
 2965 001c 00000000 		.4byte	0
 2966              	.LLST1:
 2967 0020 00000000 		.4byte	.LVL1
 2968 0024 16000000 		.4byte	.LVL4
 2969 0028 0100     		.2byte	0x1
 2970 002a 50       		.byte	0x50
 2971 002b 16000000 		.4byte	.LVL4
 2972 002f B2000000 		.4byte	.LVL21
 2973 0033 0100     		.2byte	0x1
 2974 0035 55       		.byte	0x55
 2975 0036 B2000000 		.4byte	.LVL21
 2976 003a BC000000 		.4byte	.LVL22
 2977 003e 0100     		.2byte	0x1
 2978 0040 50       		.byte	0x50
 2979 0041 BC000000 		.4byte	.LVL22
 2980 0045 C4000000 		.4byte	.LFE9
 2981 0049 0100     		.2byte	0x1
 2982 004b 55       		.byte	0x55
 2983 004c 00000000 		.4byte	0
 2984 0050 00000000 		.4byte	0
 2985              	.LLST2:
 2986 0054 0E000000 		.4byte	.LVL3
 2987 0058 24000000 		.4byte	.LVL5
 2988 005c 0100     		.2byte	0x1
 2989 005e 53       		.byte	0x53
 2990 005f 4A000000 		.4byte	.LVL8
 2991 0063 59000000 		.4byte	.LVL9-1
 2992 0067 0100     		.2byte	0x1
 2993 0069 53       		.byte	0x53
 2994 006a 5C000000 		.4byte	.LVL10
 2995 006e B2000000 		.4byte	.LVL21
 2996 0072 0100     		.2byte	0x1
 2997 0074 53       		.byte	0x53
 2998 0075 BC000000 		.4byte	.LVL22
 2999 0079 C4000000 		.4byte	.LFE9
 3000 007d 0100     		.2byte	0x1
 3001 007f 53       		.byte	0x53
 3002 0080 00000000 		.4byte	0
 3003 0084 00000000 		.4byte	0
 3004              	.LLST3:
 3005 0088 24000000 		.4byte	.LVL5
 3006 008c 4A000000 		.4byte	.LVL8
 3007 0090 0100     		.2byte	0x1
 3008 0092 55       		.byte	0x55
 3009 0093 00000000 		.4byte	0
 3010 0097 00000000 		.4byte	0
 3011              	.LLST4:
 3012 009b 24000000 		.4byte	.LVL5
 3013 009f 4A000000 		.4byte	.LVL8
 3014 00a3 0100     		.2byte	0x1
ARM GAS  C:\Users\LAB_ME~1\AppData\Local\Temp\ccHbNwTO.s 			page 54


 3015 00a5 54       		.byte	0x54
 3016 00a6 00000000 		.4byte	0
 3017 00aa 00000000 		.4byte	0
 3018              	.LLST5:
 3019 00ae 24000000 		.4byte	.LVL5
 3020 00b2 26000000 		.4byte	.LVL6
 3021 00b6 0100     		.2byte	0x1
 3022 00b8 55       		.byte	0x55
 3023 00b9 26000000 		.4byte	.LVL6
 3024 00bd 49000000 		.4byte	.LVL8-1
 3025 00c1 0100     		.2byte	0x1
 3026 00c3 53       		.byte	0x53
 3027 00c4 00000000 		.4byte	0
 3028 00c8 00000000 		.4byte	0
 3029              	.LLST6:
 3030 00cc 4A000000 		.4byte	.LVL8
 3031 00d0 59000000 		.4byte	.LVL9-1
 3032 00d4 0100     		.2byte	0x1
 3033 00d6 53       		.byte	0x53
 3034 00d7 00000000 		.4byte	0
 3035 00db 00000000 		.4byte	0
 3036              	.LLST7:
 3037 00df 5C000000 		.4byte	.LVL10
 3038 00e3 82000000 		.4byte	.LVL14
 3039 00e7 0100     		.2byte	0x1
 3040 00e9 53       		.byte	0x53
 3041 00ea 00000000 		.4byte	0
 3042 00ee 00000000 		.4byte	0
 3043              	.LLST8:
 3044 00f2 62000000 		.4byte	.LVL11
 3045 00f6 82000000 		.4byte	.LVL14
 3046 00fa 0100     		.2byte	0x1
 3047 00fc 56       		.byte	0x56
 3048 00fd 00000000 		.4byte	0
 3049 0101 00000000 		.4byte	0
 3050              	.LLST9:
 3051 0105 62000000 		.4byte	.LVL11
 3052 0109 82000000 		.4byte	.LVL14
 3053 010d 0100     		.2byte	0x1
 3054 010f 53       		.byte	0x53
 3055 0110 00000000 		.4byte	0
 3056 0114 00000000 		.4byte	0
 3057              	.LLST10:
 3058 0118 62000000 		.4byte	.LVL11
 3059 011c 6A000000 		.4byte	.LVL12
 3060 0120 0100     		.2byte	0x1
 3061 0122 56       		.byte	0x56
 3062 0123 6A000000 		.4byte	.LVL12
 3063 0127 82000000 		.4byte	.LVL14
 3064 012b 0100     		.2byte	0x1
 3065 012d 52       		.byte	0x52
 3066 012e 00000000 		.4byte	0
 3067 0132 00000000 		.4byte	0
 3068              	.LLST11:
 3069 0136 82000000 		.4byte	.LVL14
 3070 013a A8000000 		.4byte	.LVL19
 3071 013e 0100     		.2byte	0x1
ARM GAS  C:\Users\LAB_ME~1\AppData\Local\Temp\ccHbNwTO.s 			page 55


 3072 0140 53       		.byte	0x53
 3073 0141 A8000000 		.4byte	.LVL19
 3074 0145 AC000000 		.4byte	.LVL20
 3075 0149 0200     		.2byte	0x2
 3076 014b 72       		.byte	0x72
 3077 014c 04       		.sleb128 4
 3078 014d BC000000 		.4byte	.LVL22
 3079 0151 C4000000 		.4byte	.LFE9
 3080 0155 0100     		.2byte	0x1
 3081 0157 53       		.byte	0x53
 3082 0158 00000000 		.4byte	0
 3083 015c 00000000 		.4byte	0
 3084              	.LLST12:
 3085 0160 88000000 		.4byte	.LVL15
 3086 0164 B2000000 		.4byte	.LVL21
 3087 0168 0100     		.2byte	0x1
 3088 016a 56       		.byte	0x56
 3089 016b BC000000 		.4byte	.LVL22
 3090 016f C4000000 		.4byte	.LFE9
 3091 0173 0100     		.2byte	0x1
 3092 0175 56       		.byte	0x56
 3093 0176 00000000 		.4byte	0
 3094 017a 00000000 		.4byte	0
 3095              	.LLST13:
 3096 017e 88000000 		.4byte	.LVL15
 3097 0182 A8000000 		.4byte	.LVL19
 3098 0186 0100     		.2byte	0x1
 3099 0188 53       		.byte	0x53
 3100 0189 A8000000 		.4byte	.LVL19
 3101 018d AC000000 		.4byte	.LVL20
 3102 0191 0200     		.2byte	0x2
 3103 0193 72       		.byte	0x72
 3104 0194 04       		.sleb128 4
 3105 0195 BC000000 		.4byte	.LVL22
 3106 0199 C4000000 		.4byte	.LFE9
 3107 019d 0100     		.2byte	0x1
 3108 019f 53       		.byte	0x53
 3109 01a0 00000000 		.4byte	0
 3110 01a4 00000000 		.4byte	0
 3111              	.LLST14:
 3112 01a8 88000000 		.4byte	.LVL15
 3113 01ac 90000000 		.4byte	.LVL16
 3114 01b0 0100     		.2byte	0x1
 3115 01b2 56       		.byte	0x56
 3116 01b3 90000000 		.4byte	.LVL16
 3117 01b7 9C000000 		.4byte	.LVL18
 3118 01bb 0100     		.2byte	0x1
 3119 01bd 52       		.byte	0x52
 3120 01be BC000000 		.4byte	.LVL22
 3121 01c2 BE000000 		.4byte	.LVL23
 3122 01c6 0100     		.2byte	0x1
 3123 01c8 52       		.byte	0x52
 3124 01c9 00000000 		.4byte	0
 3125 01cd 00000000 		.4byte	0
 3126              	.LLST15:
 3127 01d1 00000000 		.4byte	.LFB8
 3128 01d5 02000000 		.4byte	.LCFI1
ARM GAS  C:\Users\LAB_ME~1\AppData\Local\Temp\ccHbNwTO.s 			page 56


 3129 01d9 0200     		.2byte	0x2
 3130 01db 7D       		.byte	0x7d
 3131 01dc 00       		.sleb128 0
 3132 01dd 02000000 		.4byte	.LCFI1
 3133 01e1 14000000 		.4byte	.LFE8
 3134 01e5 0200     		.2byte	0x2
 3135 01e7 7D       		.byte	0x7d
 3136 01e8 08       		.sleb128 8
 3137 01e9 00000000 		.4byte	0
 3138 01ed 00000000 		.4byte	0
 3139              	.LLST16:
 3140 01f1 00000000 		.4byte	.LVL24
 3141 01f5 0B000000 		.4byte	.LVL27-1
 3142 01f9 0100     		.2byte	0x1
 3143 01fb 50       		.byte	0x50
 3144 01fc 0B000000 		.4byte	.LVL27-1
 3145 0200 14000000 		.4byte	.LFE8
 3146 0204 0400     		.2byte	0x4
 3147 0206 F3       		.byte	0xf3
 3148 0207 01       		.uleb128 0x1
 3149 0208 50       		.byte	0x50
 3150 0209 9F       		.byte	0x9f
 3151 020a 00000000 		.4byte	0
 3152 020e 00000000 		.4byte	0
 3153              	.LLST17:
 3154 0212 08000000 		.4byte	.LVL26
 3155 0216 0B000000 		.4byte	.LVL27-1
 3156 021a 0100     		.2byte	0x1
 3157 021c 53       		.byte	0x53
 3158 021d 00000000 		.4byte	0
 3159 0221 00000000 		.4byte	0
 3160              	.LLST18:
 3161 0225 12000000 		.4byte	.LVL29
 3162 0229 14000000 		.4byte	.LFE8
 3163 022d 0100     		.2byte	0x1
 3164 022f 53       		.byte	0x53
 3165 0230 00000000 		.4byte	0
 3166 0234 00000000 		.4byte	0
 3167              	.LLST19:
 3168 0238 00000000 		.4byte	.LVL30
 3169 023c 0E000000 		.4byte	.LVL34
 3170 0240 0100     		.2byte	0x1
 3171 0242 50       		.byte	0x50
 3172 0243 0E000000 		.4byte	.LVL34
 3173 0247 16000000 		.4byte	.LVL37
 3174 024b 0100     		.2byte	0x1
 3175 024d 52       		.byte	0x52
 3176 024e 16000000 		.4byte	.LVL37
 3177 0252 22000000 		.4byte	.LVL38
 3178 0256 0100     		.2byte	0x1
 3179 0258 50       		.byte	0x50
 3180 0259 22000000 		.4byte	.LVL38
 3181 025d 2C000000 		.4byte	.LFE10
 3182 0261 0100     		.2byte	0x1
 3183 0263 52       		.byte	0x52
 3184 0264 00000000 		.4byte	0
 3185 0268 00000000 		.4byte	0
ARM GAS  C:\Users\LAB_ME~1\AppData\Local\Temp\ccHbNwTO.s 			page 57


 3186              	.LLST20:
 3187 026c 08000000 		.4byte	.LVL32
 3188 0270 0A000000 		.4byte	.LVL33
 3189 0274 0100     		.2byte	0x1
 3190 0276 53       		.byte	0x53
 3191 0277 00000000 		.4byte	0
 3192 027b 00000000 		.4byte	0
 3193              	.LLST21:
 3194 027f 08000000 		.4byte	.LVL32
 3195 0283 0E000000 		.4byte	.LVL34
 3196 0287 0100     		.2byte	0x1
 3197 0289 50       		.byte	0x50
 3198 028a 0E000000 		.4byte	.LVL34
 3199 028e 16000000 		.4byte	.LVL37
 3200 0292 0100     		.2byte	0x1
 3201 0294 52       		.byte	0x52
 3202 0295 16000000 		.4byte	.LVL37
 3203 0299 22000000 		.4byte	.LVL38
 3204 029d 0100     		.2byte	0x1
 3205 029f 50       		.byte	0x50
 3206 02a0 22000000 		.4byte	.LVL38
 3207 02a4 2C000000 		.4byte	.LFE10
 3208 02a8 0100     		.2byte	0x1
 3209 02aa 52       		.byte	0x52
 3210 02ab 00000000 		.4byte	0
 3211 02af 00000000 		.4byte	0
 3212              	.LLST22:
 3213 02b3 14000000 		.4byte	.LVL36
 3214 02b7 16000000 		.4byte	.LVL37
 3215 02bb 0100     		.2byte	0x1
 3216 02bd 53       		.byte	0x53
 3217 02be 00000000 		.4byte	0
 3218 02c2 00000000 		.4byte	0
 3219              	.LLST23:
 3220 02c6 00000000 		.4byte	.LVL39
 3221 02ca 08000000 		.4byte	.LVL40
 3222 02ce 0100     		.2byte	0x1
 3223 02d0 50       		.byte	0x50
 3224 02d1 08000000 		.4byte	.LVL40
 3225 02d5 0A000000 		.4byte	.LVL41
 3226 02d9 0100     		.2byte	0x1
 3227 02db 53       		.byte	0x53
 3228 02dc 0A000000 		.4byte	.LVL41
 3229 02e0 16000000 		.4byte	.LVL42
 3230 02e4 0100     		.2byte	0x1
 3231 02e6 50       		.byte	0x50
 3232 02e7 16000000 		.4byte	.LVL42
 3233 02eb 20000000 		.4byte	.LFE11
 3234 02ef 0100     		.2byte	0x1
 3235 02f1 53       		.byte	0x53
 3236 02f2 00000000 		.4byte	0
 3237 02f6 00000000 		.4byte	0
 3238              	.LLST24:
 3239 02fa 00000000 		.4byte	.LFB12
 3240 02fe 04000000 		.4byte	.LCFI2
 3241 0302 0200     		.2byte	0x2
 3242 0304 7D       		.byte	0x7d
ARM GAS  C:\Users\LAB_ME~1\AppData\Local\Temp\ccHbNwTO.s 			page 58


 3243 0305 00       		.sleb128 0
 3244 0306 04000000 		.4byte	.LCFI2
 3245 030a 5C000000 		.4byte	.LFE12
 3246 030e 0200     		.2byte	0x2
 3247 0310 7D       		.byte	0x7d
 3248 0311 10       		.sleb128 16
 3249 0312 00000000 		.4byte	0
 3250 0316 00000000 		.4byte	0
 3251              	.LLST25:
 3252 031a 06000000 		.4byte	.LVL43
 3253 031e 3A000000 		.4byte	.LVL53
 3254 0322 0100     		.2byte	0x1
 3255 0324 50       		.byte	0x50
 3256 0325 52000000 		.4byte	.LVL58
 3257 0329 5C000000 		.4byte	.LFE12
 3258 032d 0100     		.2byte	0x1
 3259 032f 50       		.byte	0x50
 3260 0330 00000000 		.4byte	0
 3261 0334 00000000 		.4byte	0
 3262              	.LLST26:
 3263 0338 1A000000 		.4byte	.LVL48
 3264 033c 32000000 		.4byte	.LVL51
 3265 0340 0100     		.2byte	0x1
 3266 0342 53       		.byte	0x53
 3267 0343 00000000 		.4byte	0
 3268 0347 00000000 		.4byte	0
 3269              	.LLST27:
 3270 034b 0C000000 		.4byte	.LVL45
 3271 034f 12000000 		.4byte	.LVL47
 3272 0353 0100     		.2byte	0x1
 3273 0355 53       		.byte	0x53
 3274 0356 00000000 		.4byte	0
 3275 035a 00000000 		.4byte	0
 3276              	.LLST28:
 3277 035e 1A000000 		.4byte	.LVL48
 3278 0362 3E000000 		.4byte	.LVL54
 3279 0366 0100     		.2byte	0x1
 3280 0368 51       		.byte	0x51
 3281 0369 00000000 		.4byte	0
 3282 036d 00000000 		.4byte	0
 3283              	.LLST29:
 3284 0371 36000000 		.4byte	.LVL52
 3285 0375 48000000 		.4byte	.LVL55
 3286 0379 0100     		.2byte	0x1
 3287 037b 54       		.byte	0x54
 3288 037c 00000000 		.4byte	0
 3289 0380 00000000 		.4byte	0
 3290              	.LLST30:
 3291 0384 36000000 		.4byte	.LVL52
 3292 0388 48000000 		.4byte	.LVL55
 3293 038c 0100     		.2byte	0x1
 3294 038e 55       		.byte	0x55
 3295 038f 00000000 		.4byte	0
 3296 0393 00000000 		.4byte	0
 3297              	.LLST31:
 3298 0397 4E000000 		.4byte	.LVL57
 3299 039b 52000000 		.4byte	.LVL58
ARM GAS  C:\Users\LAB_ME~1\AppData\Local\Temp\ccHbNwTO.s 			page 59


 3300 039f 0100     		.2byte	0x1
 3301 03a1 53       		.byte	0x53
 3302 03a2 00000000 		.4byte	0
 3303 03a6 00000000 		.4byte	0
 3304              	.LLST32:
 3305 03aa 00000000 		.4byte	.LFB13
 3306 03ae 02000000 		.4byte	.LCFI3
 3307 03b2 0200     		.2byte	0x2
 3308 03b4 7D       		.byte	0x7d
 3309 03b5 00       		.sleb128 0
 3310 03b6 02000000 		.4byte	.LCFI3
 3311 03ba 50000000 		.4byte	.LFE13
 3312 03be 0200     		.2byte	0x2
 3313 03c0 7D       		.byte	0x7d
 3314 03c1 10       		.sleb128 16
 3315 03c2 00000000 		.4byte	0
 3316 03c6 00000000 		.4byte	0
 3317              	.LLST33:
 3318 03ca 06000000 		.4byte	.LVL59
 3319 03ce 34000000 		.4byte	.LVL66
 3320 03d2 0100     		.2byte	0x1
 3321 03d4 50       		.byte	0x50
 3322 03d5 44000000 		.4byte	.LVL68
 3323 03d9 4A000000 		.4byte	.LVL69
 3324 03dd 0100     		.2byte	0x1
 3325 03df 50       		.byte	0x50
 3326 03e0 00000000 		.4byte	0
 3327 03e4 00000000 		.4byte	0
 3328              	.LLST34:
 3329 03e8 14000000 		.4byte	.LVL61
 3330 03ec 2C000000 		.4byte	.LVL64
 3331 03f0 0100     		.2byte	0x1
 3332 03f2 53       		.byte	0x53
 3333 03f3 00000000 		.4byte	0
 3334 03f7 00000000 		.4byte	0
 3335              	.LLST35:
 3336 03fb 14000000 		.4byte	.LVL61
 3337 03ff 3F000000 		.4byte	.LVL67-1
 3338 0403 0100     		.2byte	0x1
 3339 0405 51       		.byte	0x51
 3340 0406 00000000 		.4byte	0
 3341 040a 00000000 		.4byte	0
 3342              	.LLST36:
 3343 040e 30000000 		.4byte	.LVL65
 3344 0412 44000000 		.4byte	.LVL68
 3345 0416 0100     		.2byte	0x1
 3346 0418 54       		.byte	0x54
 3347 0419 00000000 		.4byte	0
 3348 041d 00000000 		.4byte	0
 3349              	.LLST37:
 3350 0421 30000000 		.4byte	.LVL65
 3351 0425 44000000 		.4byte	.LVL68
 3352 0429 0100     		.2byte	0x1
 3353 042b 55       		.byte	0x55
 3354 042c 00000000 		.4byte	0
 3355 0430 00000000 		.4byte	0
 3356              	.LLST38:
ARM GAS  C:\Users\LAB_ME~1\AppData\Local\Temp\ccHbNwTO.s 			page 60


 3357 0434 00000000 		.4byte	.LFB14
 3358 0438 04000000 		.4byte	.LCFI4
 3359 043c 0200     		.2byte	0x2
 3360 043e 7D       		.byte	0x7d
 3361 043f 00       		.sleb128 0
 3362 0440 04000000 		.4byte	.LCFI4
 3363 0444 54000000 		.4byte	.LFE14
 3364 0448 0200     		.2byte	0x2
 3365 044a 7D       		.byte	0x7d
 3366 044b 10       		.sleb128 16
 3367 044c 00000000 		.4byte	0
 3368 0450 00000000 		.4byte	0
 3369              	.LLST39:
 3370 0454 0C000000 		.4byte	.LVL72
 3371 0458 0E000000 		.4byte	.LVL73
 3372 045c 0100     		.2byte	0x1
 3373 045e 53       		.byte	0x53
 3374 045f 00000000 		.4byte	0
 3375 0463 00000000 		.4byte	0
 3376              	.LLST40:
 3377 0467 14000000 		.4byte	.LVL74
 3378 046b 27000000 		.4byte	.LVL75-1
 3379 046f 0100     		.2byte	0x1
 3380 0471 53       		.byte	0x53
 3381 0472 2C000000 		.4byte	.LVL76
 3382 0476 3A000000 		.4byte	.LVL78
 3383 047a 0100     		.2byte	0x1
 3384 047c 53       		.byte	0x53
 3385 047d 00000000 		.4byte	0
 3386 0481 00000000 		.4byte	0
 3387              	.LLST42:
 3388 0485 14000000 		.4byte	.LVL74
 3389 0489 27000000 		.4byte	.LVL75-1
 3390 048d 0100     		.2byte	0x1
 3391 048f 52       		.byte	0x52
 3392 0490 2E000000 		.4byte	.LVL77
 3393 0494 3E000000 		.4byte	.LVL79
 3394 0498 0100     		.2byte	0x1
 3395 049a 52       		.byte	0x52
 3396 049b 00000000 		.4byte	0
 3397 049f 00000000 		.4byte	0
 3398              	.LLST43:
 3399 04a3 4C000000 		.4byte	.LVL82
 3400 04a7 54000000 		.4byte	.LFE14
 3401 04ab 0100     		.2byte	0x1
 3402 04ad 53       		.byte	0x53
 3403 04ae 00000000 		.4byte	0
 3404 04b2 00000000 		.4byte	0
 3405              		.section	.debug_aranges,"",%progbits
 3406 0000 54000000 		.4byte	0x54
 3407 0004 0200     		.2byte	0x2
 3408 0006 00000000 		.4byte	.Ldebug_info0
 3409 000a 04       		.byte	0x4
 3410 000b 00       		.byte	0
 3411 000c 0000     		.2byte	0
 3412 000e 0000     		.2byte	0
 3413 0010 00000000 		.4byte	.LFB7
ARM GAS  C:\Users\LAB_ME~1\AppData\Local\Temp\ccHbNwTO.s 			page 61


 3414 0014 0A000000 		.4byte	.LFE7-.LFB7
 3415 0018 00000000 		.4byte	.LFB9
 3416 001c C4000000 		.4byte	.LFE9-.LFB9
 3417 0020 00000000 		.4byte	.LFB8
 3418 0024 14000000 		.4byte	.LFE8-.LFB8
 3419 0028 00000000 		.4byte	.LFB10
 3420 002c 2C000000 		.4byte	.LFE10-.LFB10
 3421 0030 00000000 		.4byte	.LFB11
 3422 0034 20000000 		.4byte	.LFE11-.LFB11
 3423 0038 00000000 		.4byte	.LFB12
 3424 003c 5C000000 		.4byte	.LFE12-.LFB12
 3425 0040 00000000 		.4byte	.LFB13
 3426 0044 50000000 		.4byte	.LFE13-.LFB13
 3427 0048 00000000 		.4byte	.LFB14
 3428 004c 54000000 		.4byte	.LFE14-.LFB14
 3429 0050 00000000 		.4byte	0
 3430 0054 00000000 		.4byte	0
 3431              		.section	.debug_ranges,"",%progbits
 3432              	.Ldebug_ranges0:
 3433 0000 0E000000 		.4byte	.LBB33
 3434 0004 42000000 		.4byte	.LBE33
 3435 0008 46000000 		.4byte	.LBB60
 3436 000c B2000000 		.4byte	.LBE60
 3437 0010 BC000000 		.4byte	.LBB61
 3438 0014 C4000000 		.4byte	.LBE61
 3439 0018 00000000 		.4byte	0
 3440 001c 00000000 		.4byte	0
 3441 0020 26000000 		.4byte	.LBB34
 3442 0024 38000000 		.4byte	.LBE34
 3443 0028 3A000000 		.4byte	.LBB37
 3444 002c 40000000 		.4byte	.LBE37
 3445 0030 00000000 		.4byte	0
 3446 0034 00000000 		.4byte	0
 3447 0038 26000000 		.4byte	.LBB35
 3448 003c 38000000 		.4byte	.LBE35
 3449 0040 3A000000 		.4byte	.LBB36
 3450 0044 40000000 		.4byte	.LBE36
 3451 0048 00000000 		.4byte	0
 3452 004c 00000000 		.4byte	0
 3453 0050 4A000000 		.4byte	.LBB38
 3454 0054 52000000 		.4byte	.LBE38
 3455 0058 54000000 		.4byte	.LBB41
 3456 005c 56000000 		.4byte	.LBE41
 3457 0060 00000000 		.4byte	0
 3458 0064 00000000 		.4byte	0
 3459 0068 5C000000 		.4byte	.LBB42
 3460 006c 60000000 		.4byte	.LBE42
 3461 0070 62000000 		.4byte	.LBB46
 3462 0074 66000000 		.4byte	.LBE46
 3463 0078 68000000 		.4byte	.LBB47
 3464 007c 6A000000 		.4byte	.LBE47
 3465 0080 00000000 		.4byte	0
 3466 0084 00000000 		.4byte	0
 3467 0088 82000000 		.4byte	.LBB50
 3468 008c 86000000 		.4byte	.LBE50
 3469 0090 88000000 		.4byte	.LBB54
 3470 0094 8C000000 		.4byte	.LBE54
ARM GAS  C:\Users\LAB_ME~1\AppData\Local\Temp\ccHbNwTO.s 			page 62


 3471 0098 8E000000 		.4byte	.LBB55
 3472 009c 90000000 		.4byte	.LBE55
 3473 00a0 00000000 		.4byte	0
 3474 00a4 00000000 		.4byte	0
 3475 00a8 90000000 		.4byte	.LBB56
 3476 00ac A6000000 		.4byte	.LBE56
 3477 00b0 BC000000 		.4byte	.LBB59
 3478 00b4 C4000000 		.4byte	.LBE59
 3479 00b8 00000000 		.4byte	0
 3480 00bc 00000000 		.4byte	0
 3481 00c0 90000000 		.4byte	.LBB57
 3482 00c4 A6000000 		.4byte	.LBE57
 3483 00c8 BC000000 		.4byte	.LBB58
 3484 00cc C4000000 		.4byte	.LBE58
 3485 00d0 00000000 		.4byte	0
 3486 00d4 00000000 		.4byte	0
 3487 00d8 08000000 		.4byte	.LBB65
 3488 00dc 0E000000 		.4byte	.LBE65
 3489 00e0 16000000 		.4byte	.LBB69
 3490 00e4 2C000000 		.4byte	.LBE69
 3491 00e8 00000000 		.4byte	0
 3492 00ec 00000000 		.4byte	0
 3493 00f0 30000000 		.4byte	.LBB72
 3494 00f4 32000000 		.4byte	.LBE72
 3495 00f8 36000000 		.4byte	.LBB76
 3496 00fc 38000000 		.4byte	.LBE76
 3497 0100 3A000000 		.4byte	.LBB77
 3498 0104 3C000000 		.4byte	.LBE77
 3499 0108 00000000 		.4byte	0
 3500 010c 00000000 		.4byte	0
 3501 0110 30000000 		.4byte	.LBB73
 3502 0114 32000000 		.4byte	.LBE73
 3503 0118 36000000 		.4byte	.LBB74
 3504 011c 38000000 		.4byte	.LBE74
 3505 0120 3A000000 		.4byte	.LBB75
 3506 0124 3C000000 		.4byte	.LBE75
 3507 0128 00000000 		.4byte	0
 3508 012c 00000000 		.4byte	0
 3509 0130 2A000000 		.4byte	.LBB80
 3510 0134 2C000000 		.4byte	.LBE80
 3511 0138 30000000 		.4byte	.LBB84
 3512 013c 32000000 		.4byte	.LBE84
 3513 0140 34000000 		.4byte	.LBB85
 3514 0144 36000000 		.4byte	.LBE85
 3515 0148 00000000 		.4byte	0
 3516 014c 00000000 		.4byte	0
 3517 0150 2A000000 		.4byte	.LBB81
 3518 0154 2C000000 		.4byte	.LBE81
 3519 0158 30000000 		.4byte	.LBB82
 3520 015c 32000000 		.4byte	.LBE82
 3521 0160 34000000 		.4byte	.LBB83
 3522 0164 36000000 		.4byte	.LBE83
 3523 0168 00000000 		.4byte	0
 3524 016c 00000000 		.4byte	0
 3525 0170 04000000 		.4byte	.LBB86
 3526 0174 06000000 		.4byte	.LBE86
 3527 0178 08000000 		.4byte	.LBB87
ARM GAS  C:\Users\LAB_ME~1\AppData\Local\Temp\ccHbNwTO.s 			page 63


 3528 017c 0C000000 		.4byte	.LBE87
 3529 0180 00000000 		.4byte	0
 3530 0184 00000000 		.4byte	0
 3531 0188 10000000 		.4byte	.LBB88
 3532 018c 28000000 		.4byte	.LBE88
 3533 0190 2C000000 		.4byte	.LBB96
 3534 0194 38000000 		.4byte	.LBE96
 3535 0198 00000000 		.4byte	0
 3536 019c 00000000 		.4byte	0
 3537 01a0 14000000 		.4byte	.LBB90
 3538 01a4 16000000 		.4byte	.LBE90
 3539 01a8 18000000 		.4byte	.LBB94
 3540 01ac 1A000000 		.4byte	.LBE94
 3541 01b0 1C000000 		.4byte	.LBB95
 3542 01b4 1E000000 		.4byte	.LBE95
 3543 01b8 00000000 		.4byte	0
 3544 01bc 00000000 		.4byte	0
 3545 01c0 14000000 		.4byte	.LBB91
 3546 01c4 16000000 		.4byte	.LBE91
 3547 01c8 18000000 		.4byte	.LBB92
 3548 01cc 1A000000 		.4byte	.LBE92
 3549 01d0 1C000000 		.4byte	.LBB93
 3550 01d4 1E000000 		.4byte	.LBE93
 3551 01d8 00000000 		.4byte	0
 3552 01dc 00000000 		.4byte	0
 3553 01e0 00000000 		.4byte	.LFB7
 3554 01e4 0A000000 		.4byte	.LFE7
 3555 01e8 00000000 		.4byte	.LFB9
 3556 01ec C4000000 		.4byte	.LFE9
 3557 01f0 00000000 		.4byte	.LFB8
 3558 01f4 14000000 		.4byte	.LFE8
 3559 01f8 00000000 		.4byte	.LFB10
 3560 01fc 2C000000 		.4byte	.LFE10
 3561 0200 00000000 		.4byte	.LFB11
 3562 0204 20000000 		.4byte	.LFE11
 3563 0208 00000000 		.4byte	.LFB12
 3564 020c 5C000000 		.4byte	.LFE12
 3565 0210 00000000 		.4byte	.LFB13
 3566 0214 50000000 		.4byte	.LFE13
 3567 0218 00000000 		.4byte	.LFB14
 3568 021c 54000000 		.4byte	.LFE14
 3569 0220 00000000 		.4byte	0
 3570 0224 00000000 		.4byte	0
 3571              		.section	.debug_line,"",%progbits
 3572              	.Ldebug_line0:
 3573 0000 71030000 		.section	.debug_str,"MS",%progbits,1
 3573      02005C01 
 3573      00000201 
 3573      FB0E0D00 
 3573      01010101 
 3574              	.LASF36:
 3575 0000 705F6D73 		.ascii	"p_msg\000"
 3575      6700
 3576              	.LASF58:
 3577 0006 7264796D 		.ascii	"rdymsg\000"
 3577      736700
 3578              	.LASF11:
ARM GAS  C:\Users\LAB_ME~1\AppData\Local\Temp\ccHbNwTO.s 			page 64


 3579 000d 6C6F6E67 		.ascii	"long long unsigned int\000"
 3579      206C6F6E 
 3579      6720756E 
 3579      7369676E 
 3579      65642069 
 3580              	.LASF59:
 3581 0024 65786974 		.ascii	"exitcode\000"
 3581      636F6465 
 3581      00
 3582              	.LASF69:
 3583 002d 63684D74 		.ascii	"chMtxUnlock\000"
 3583      78556E6C 
 3583      6F636B00 
 3584              	.LASF24:
 3585 0039 705F7072 		.ascii	"p_prio\000"
 3585      696F00
 3586              	.LASF10:
 3587 0040 6C6F6E67 		.ascii	"long long int\000"
 3587      206C6F6E 
 3587      6720696E 
 3587      7400
 3588              	.LASF1:
 3589 004e 7369676E 		.ascii	"signed char\000"
 3589      65642063 
 3589      68617200 
 3590              	.LASF40:
 3591 005a 705F6D70 		.ascii	"p_mpool\000"
 3591      6F6F6C00 
 3592              	.LASF12:
 3593 0062 626F6F6C 		.ascii	"bool_t\000"
 3593      5F7400
 3594              	.LASF55:
 3595 0069 6D5F7175 		.ascii	"m_queue\000"
 3595      65756500 
 3596              	.LASF16:
 3597 0071 74736C69 		.ascii	"tslices_t\000"
 3597      6365735F 
 3597      7400
 3598              	.LASF7:
 3599 007b 6C6F6E67 		.ascii	"long int\000"
 3599      20696E74 
 3599      00
 3600              	.LASF14:
 3601 0084 74737461 		.ascii	"tstate_t\000"
 3601      74655F74 
 3601      00
 3602              	.LASF66:
 3603 008d 63684D74 		.ascii	"chMtxLockS\000"
 3603      784C6F63 
 3603      6B5300
 3604              	.LASF73:
 3605 0098 63684D74 		.ascii	"chMtxTryLockS\000"
 3605      78547279 
 3605      4C6F636B 
 3605      5300
 3606              	.LASF26:
 3607 00a6 705F6E65 		.ascii	"p_newer\000"
ARM GAS  C:\Users\LAB_ME~1\AppData\Local\Temp\ccHbNwTO.s 			page 65


 3607      77657200 
 3608              	.LASF82:
 3609 00ae 63685363 		.ascii	"chSchRescheduleS\000"
 3609      68526573 
 3609      63686564 
 3609      756C6553 
 3609      00
 3610              	.LASF50:
 3611 00bf 725F6E65 		.ascii	"r_newer\000"
 3611      77657200 
 3612              	.LASF43:
 3613 00c7 72656761 		.ascii	"regarm_t\000"
 3613      726D5F74 
 3613      00
 3614              	.LASF71:
 3615 00d0 63684D74 		.ascii	"chMtxUnlockS\000"
 3615      78556E6C 
 3615      6F636B53 
 3615      00
 3616              	.LASF0:
 3617 00dd 756E7369 		.ascii	"unsigned int\000"
 3617      676E6564 
 3617      20696E74 
 3617      00
 3618              	.LASF9:
 3619 00ea 6C6F6E67 		.ascii	"long unsigned int\000"
 3619      20756E73 
 3619      69676E65 
 3619      6420696E 
 3619      7400
 3620              	.LASF45:
 3621 00fc 636F6E74 		.ascii	"context\000"
 3621      65787400 
 3622              	.LASF4:
 3623 0104 73686F72 		.ascii	"short unsigned int\000"
 3623      7420756E 
 3623      7369676E 
 3623      65642069 
 3623      6E7400
 3624              	.LASF18:
 3625 0117 6D73675F 		.ascii	"msg_t\000"
 3625      7400
 3626              	.LASF80:
 3627 011d 7072696F 		.ascii	"prio_insert\000"
 3627      5F696E73 
 3627      65727400 
 3628              	.LASF72:
 3629 0129 63684D74 		.ascii	"chMtxUnlockAll\000"
 3629      78556E6C 
 3629      6F636B41 
 3629      6C6C00
 3630              	.LASF70:
 3631 0138 6E657770 		.ascii	"newprio\000"
 3631      72696F00 
 3632              	.LASF13:
 3633 0140 746D6F64 		.ascii	"tmode_t\000"
 3633      655F7400 
ARM GAS  C:\Users\LAB_ME~1\AppData\Local\Temp\ccHbNwTO.s 			page 66


 3634              	.LASF42:
 3635 0148 54687265 		.ascii	"ThreadsList\000"
 3635      6164734C 
 3635      69737400 
 3636              	.LASF19:
 3637 0154 6576656E 		.ascii	"eventmask_t\000"
 3637      746D6173 
 3637      6B5F7400 
 3638              	.LASF68:
 3639 0160 63684D74 		.ascii	"chMtxTryLock\000"
 3639      78547279 
 3639      4C6F636B 
 3639      00
 3640              	.LASF54:
 3641 016d 4D757465 		.ascii	"Mutex\000"
 3641      7800
 3642              	.LASF46:
 3643 0173 73697A65 		.ascii	"sizetype\000"
 3643      74797065 
 3643      00
 3644              	.LASF67:
 3645 017c 63684D74 		.ascii	"chMtxLock\000"
 3645      784C6F63 
 3645      6B00
 3646              	.LASF27:
 3647 0186 705F6F6C 		.ascii	"p_older\000"
 3647      64657200 
 3648              	.LASF49:
 3649 018e 725F6374 		.ascii	"r_ctx\000"
 3649      7800
 3650              	.LASF41:
 3651 0194 54687265 		.ascii	"ThreadsQueue\000"
 3651      61647351 
 3651      75657565 
 3651      00
 3652              	.LASF63:
 3653 01a1 64657175 		.ascii	"dequeue\000"
 3653      65756500 
 3654              	.LASF77:
 3655 01a9 474E5520 		.ascii	"GNU C 4.7.2\000"
 3655      4320342E 
 3655      372E3200 
 3656              	.LASF52:
 3657 01b5 725F6375 		.ascii	"r_current\000"
 3657      7272656E 
 3657      7400
 3658              	.LASF51:
 3659 01bf 725F6F6C 		.ascii	"r_older\000"
 3659      64657200 
 3660              	.LASF15:
 3661 01c7 74726566 		.ascii	"trefs_t\000"
 3661      735F7400 
 3662              	.LASF23:
 3663 01cf 705F7072 		.ascii	"p_prev\000"
 3663      657600
 3664              	.LASF17:
 3665 01d6 74707269 		.ascii	"tprio_t\000"
ARM GAS  C:\Users\LAB_ME~1\AppData\Local\Temp\ccHbNwTO.s 			page 67


 3665      6F5F7400 
 3666              	.LASF6:
 3667 01de 696E7433 		.ascii	"int32_t\000"
 3667      325F7400 
 3668              	.LASF2:
 3669 01e6 756E7369 		.ascii	"unsigned char\000"
 3669      676E6564 
 3669      20636861 
 3669      7200
 3670              	.LASF38:
 3671 01f4 705F6D74 		.ascii	"p_mtxlist\000"
 3671      786C6973 
 3671      7400
 3672              	.LASF3:
 3673 01fe 73686F72 		.ascii	"short int\000"
 3673      7420696E 
 3673      7400
 3674              	.LASF29:
 3675 0208 705F7374 		.ascii	"p_state\000"
 3675      61746500 
 3676              	.LASF32:
 3677 0210 705F7072 		.ascii	"p_preempt\000"
 3677      65656D70 
 3677      7400
 3678              	.LASF48:
 3679 021a 725F7072 		.ascii	"r_prio\000"
 3679      696F00
 3680              	.LASF61:
 3681 0221 65776D61 		.ascii	"ewmask\000"
 3681      736B00
 3682              	.LASF22:
 3683 0228 705F6E65 		.ascii	"p_next\000"
 3683      787400
 3684              	.LASF30:
 3685 022f 705F666C 		.ascii	"p_flags\000"
 3685      61677300 
 3686              	.LASF21:
 3687 0237 54687265 		.ascii	"Thread\000"
 3687      616400
 3688              	.LASF75:
 3689 023e 63685363 		.ascii	"chSchGoSleepS\000"
 3689      68476F53 
 3689      6C656570 
 3689      5300
 3690              	.LASF37:
 3691 024c 705F6570 		.ascii	"p_epending\000"
 3691      656E6469 
 3691      6E6700
 3692              	.LASF8:
 3693 0257 75696E74 		.ascii	"uint32_t\000"
 3693      33325F74 
 3693      00
 3694              	.LASF47:
 3695 0260 725F7175 		.ascii	"r_queue\000"
 3695      65756500 
 3696              	.LASF74:
 3697 0268 63685363 		.ascii	"chSchReadyI\000"
ARM GAS  C:\Users\LAB_ME~1\AppData\Local\Temp\ccHbNwTO.s 			page 68


 3697      68526561 
 3697      64794900 
 3698              	.LASF62:
 3699 0274 63686172 		.ascii	"char\000"
 3699      00
 3700              	.LASF64:
 3701 0279 6669666F 		.ascii	"fifo_remove\000"
 3701      5F72656D 
 3701      6F766500 
 3702              	.LASF78:
 3703 0285 2E2E2F2E 		.ascii	"../../os/kernel/src/chmtx.c\000"
 3703      2E2F6F73 
 3703      2F6B6572 
 3703      6E656C2F 
 3703      7372632F 
 3704              	.LASF57:
 3705 02a1 6D5F6E65 		.ascii	"m_next\000"
 3705      787400
 3706              	.LASF20:
 3707 02a8 73797374 		.ascii	"systime_t\000"
 3707      696D655F 
 3707      7400
 3708              	.LASF39:
 3709 02b2 705F7265 		.ascii	"p_realprio\000"
 3709      616C7072 
 3709      696F00
 3710              	.LASF33:
 3711 02bd 705F7469 		.ascii	"p_time\000"
 3711      6D6500
 3712              	.LASF44:
 3713 02c4 696E7463 		.ascii	"intctx\000"
 3713      747800
 3714              	.LASF35:
 3715 02cb 705F6D73 		.ascii	"p_msgqueue\000"
 3715      67717565 
 3715      756500
 3716              	.LASF76:
 3717 02d6 63685363 		.ascii	"chSchWakeupS\000"
 3717      6857616B 
 3717      65757053 
 3717      00
 3718              	.LASF65:
 3719 02e3 63684D74 		.ascii	"chMtxInit\000"
 3719      78496E69 
 3719      7400
 3720              	.LASF31:
 3721 02ed 705F7265 		.ascii	"p_refs\000"
 3721      667300
 3722              	.LASF53:
 3723 02f4 52656164 		.ascii	"ReadyList\000"
 3723      794C6973 
 3723      7400
 3724              	.LASF81:
 3725 02fe 726C6973 		.ascii	"rlist\000"
 3725      7400
 3726              	.LASF5:
 3727 0304 75696E74 		.ascii	"uint8_t\000"
ARM GAS  C:\Users\LAB_ME~1\AppData\Local\Temp\ccHbNwTO.s 			page 69


 3727      385F7400 
 3728              	.LASF60:
 3729 030c 77746F62 		.ascii	"wtobjp\000"
 3729      6A7000
 3730              	.LASF28:
 3731 0313 705F6E61 		.ascii	"p_name\000"
 3731      6D6500
 3732              	.LASF56:
 3733 031a 6D5F6F77 		.ascii	"m_owner\000"
 3733      6E657200 
 3734              	.LASF79:
 3735 0322 433A5C43 		.ascii	"C:\\Chibios\\demos\\FirmwareV2\000"
 3735      68696269 
 3735      6F735C64 
 3735      656D6F73 
 3735      5C466972 
 3736              	.LASF25:
 3737 033e 705F6374 		.ascii	"p_ctx\000"
 3737      7800
 3738              	.LASF34:
 3739 0344 705F7761 		.ascii	"p_waiting\000"
 3739      6974696E 
 3739      6700
 3740              		.ident	"GCC: (Sourcery CodeBench Lite 2012.09-63) 4.7.2"
ARM GAS  C:\Users\LAB_ME~1\AppData\Local\Temp\ccHbNwTO.s 			page 70


DEFINED SYMBOLS
                            *ABS*:00000000 chmtx.c
C:\Users\LAB_ME~1\AppData\Local\Temp\ccHbNwTO.s:19     .text.chMtxInit:00000000 $t
C:\Users\LAB_ME~1\AppData\Local\Temp\ccHbNwTO.s:25     .text.chMtxInit:00000000 chMtxInit
C:\Users\LAB_ME~1\AppData\Local\Temp\ccHbNwTO.s:46     .text.chMtxLockS:00000000 $t
C:\Users\LAB_ME~1\AppData\Local\Temp\ccHbNwTO.s:52     .text.chMtxLockS:00000000 chMtxLockS
C:\Users\LAB_ME~1\AppData\Local\Temp\ccHbNwTO.s:310    .text.chMtxLockS:000000c0 $d
C:\Users\LAB_ME~1\AppData\Local\Temp\ccHbNwTO.s:318    .text.chMtxLock:00000000 $t
C:\Users\LAB_ME~1\AppData\Local\Temp\ccHbNwTO.s:324    .text.chMtxLock:00000000 chMtxLock
C:\Users\LAB_ME~1\AppData\Local\Temp\ccHbNwTO.s:364    .text.chMtxTryLock:00000000 $t
C:\Users\LAB_ME~1\AppData\Local\Temp\ccHbNwTO.s:370    .text.chMtxTryLock:00000000 chMtxTryLock
C:\Users\LAB_ME~1\AppData\Local\Temp\ccHbNwTO.s:436    .text.chMtxTryLock:00000028 $d
C:\Users\LAB_ME~1\AppData\Local\Temp\ccHbNwTO.s:443    .text.chMtxTryLockS:00000000 $t
C:\Users\LAB_ME~1\AppData\Local\Temp\ccHbNwTO.s:449    .text.chMtxTryLockS:00000000 chMtxTryLockS
C:\Users\LAB_ME~1\AppData\Local\Temp\ccHbNwTO.s:489    .text.chMtxTryLockS:0000001c $d
C:\Users\LAB_ME~1\AppData\Local\Temp\ccHbNwTO.s:494    .text.chMtxUnlock:00000000 $t
C:\Users\LAB_ME~1\AppData\Local\Temp\ccHbNwTO.s:500    .text.chMtxUnlock:00000000 chMtxUnlock
C:\Users\LAB_ME~1\AppData\Local\Temp\ccHbNwTO.s:631    .text.chMtxUnlock:00000058 $d
C:\Users\LAB_ME~1\AppData\Local\Temp\ccHbNwTO.s:636    .text.chMtxUnlockS:00000000 $t
C:\Users\LAB_ME~1\AppData\Local\Temp\ccHbNwTO.s:642    .text.chMtxUnlockS:00000000 chMtxUnlockS
C:\Users\LAB_ME~1\AppData\Local\Temp\ccHbNwTO.s:749    .text.chMtxUnlockS:0000004c $d
C:\Users\LAB_ME~1\AppData\Local\Temp\ccHbNwTO.s:754    .text.chMtxUnlockAll:00000000 $t
C:\Users\LAB_ME~1\AppData\Local\Temp\ccHbNwTO.s:760    .text.chMtxUnlockAll:00000000 chMtxUnlockAll
C:\Users\LAB_ME~1\AppData\Local\Temp\ccHbNwTO.s:883    .text.chMtxUnlockAll:00000050 $d
                     .debug_frame:00000010 $d
C:\Users\LAB_ME~1\AppData\Local\Temp\ccHbNwTO.s:317    .text.chMtxLockS:000000c4 $t
C:\Users\LAB_ME~1\AppData\Local\Temp\ccHbNwTO.s:442    .text.chMtxTryLock:0000002c $t
C:\Users\LAB_ME~1\AppData\Local\Temp\ccHbNwTO.s:635    .text.chMtxUnlock:0000005c $t
C:\Users\LAB_ME~1\AppData\Local\Temp\ccHbNwTO.s:888    .text.chMtxUnlockAll:00000054 $t

UNDEFINED SYMBOLS
chSchGoSleepS
chSchReadyI
rlist
chSchWakeupS
chSchRescheduleS
