ARM GAS  C:\Users\LAB_ME~1\AppData\Local\Temp\ccHbNwTO.s 			page 1


   1              		.syntax unified
   2              		.cpu cortex-m4
   3              		.fpu softvfp
   4              		.eabi_attribute 20, 1
   5              		.eabi_attribute 21, 1
   6              		.eabi_attribute 23, 3
   7              		.eabi_attribute 24, 1
   8              		.eabi_attribute 25, 1
   9              		.eabi_attribute 26, 1
  10              		.eabi_attribute 30, 2
  11              		.eabi_attribute 34, 1
  12              		.eabi_attribute 18, 4
  13              		.thumb
  14              		.file	"chmtx.c"
  15              		.text
  16              	.Ltext0:
  17              		.cfi_sections	.debug_frame
  18              		.section	.text.chMtxInit,"ax",%progbits
  19              		.align	2
  20              		.p2align 4,,15
  21              		.global	chMtxInit
  22              		.thumb
  23              		.thumb_func
  24              		.type	chMtxInit, %function
  25              	chMtxInit:
  26              	.LFB7:
  27              		.file 1 "../../os/kernel/src/chmtx.c"
  28              		.loc 1 79 0
  29              		.cfi_startproc
  30              		@ args = 0, pretend = 0, frame = 0
  31              		@ frame_needed = 0, uses_anonymous_args = 0
  32              		@ link register save eliminated.
  33              	.LVL0:
  34              		.loc 1 84 0
  35 0000 0023     		movs	r3, #0
  36              		.loc 1 83 0
  37 0002 4060     		str	r0, [r0, #4]
  38 0004 0060     		str	r0, [r0, #0]
  39              		.loc 1 84 0
  40 0006 8360     		str	r3, [r0, #8]
  41 0008 7047     		bx	lr
  42              		.cfi_endproc
  43              	.LFE7:
  44              		.size	chMtxInit, .-chMtxInit
  45 000a 00BFAFF3 		.section	.text.chMtxLockS,"ax",%progbits
  45      0080
  46              		.align	2
  47              		.p2align 4,,15
  48              		.global	chMtxLockS
  49              		.thumb
  50              		.thumb_func
  51              		.type	chMtxLockS, %function
  52              	chMtxLockS:
  53              	.LFB9:
  54              		.loc 1 114 0
  55              		.cfi_startproc
  56              		@ args = 0, pretend = 0, frame = 0
ARM GAS  C:\Users\LAB_ME~1\AppData\Local\Temp\ccHbNwTO.s 			page 2


  57              		@ frame_needed = 0, uses_anonymous_args = 0
  58              	.LVL1:
  59 0000 F8B5     		push	{r3, r4, r5, r6, r7, lr}
  60              	.LCFI0:
  61              		.cfi_def_cfa_offset 24
  62              		.cfi_offset 3, -24
  63              		.cfi_offset 4, -20
  64              		.cfi_offset 5, -16
  65              		.cfi_offset 6, -12
  66              		.cfi_offset 7, -8
  67              		.cfi_offset 14, -4
  68              		.loc 1 115 0
  69 0002 2F4A     		ldr	r2, .L27
  70              		.loc 1 121 0
  71 0004 8368     		ldr	r3, [r0, #8]
  72              		.loc 1 115 0
  73 0006 9469     		ldr	r4, [r2, #24]
  74              	.LVL2:
  75              		.loc 1 114 0
  76 0008 0546     		mov	r5, r0
  77              		.loc 1 121 0
  78 000a 002B     		cmp	r3, #0
  79 000c 51D0     		beq	.L3
  80              	.LVL3:
  81              	.LBB33:
  82              		.loc 1 128 0 discriminator 1
  83 000e A168     		ldr	r1, [r4, #8]
  84 0010 9A68     		ldr	r2, [r3, #8]
  85 0012 9142     		cmp	r1, r2
  86 0014 06D9     		bls	.L5
  87              	.LVL4:
  88              	.L20:
  89              		.loc 1 132 0
  90 0016 1A7F     		ldrb	r2, [r3, #28]	@ zero_extendqisi2
  91              		.loc 1 130 0
  92 0018 9960     		str	r1, [r3, #8]
  93              		.loc 1 132 0
  94 001a 042A     		cmp	r2, #4
  95 001c 31D0     		beq	.L7
  96 001e 052A     		cmp	r2, #5
  97 0020 1CD0     		beq	.L8
  98 0022 92B1     		cbz	r2, .L6
  99              	.LVL5:
 100              	.L5:
 101              		.file 2 "../../os/kernel/include/chinline.h"
 102              		.loc 2 36 0
 103 0024 2B46     		mov	r3, r5
 104              	.LVL6:
 105              	.L18:
 106              	.LBB34:
 107              	.LBB35:
 108              		.loc 2 38 0
 109 0026 1B68     		ldr	r3, [r3, #0]
 110              	.LVL7:
 111              		.loc 2 39 0
 112 0028 9D42     		cmp	r5, r3
 113 002a 03D0     		beq	.L19
ARM GAS  C:\Users\LAB_ME~1\AppData\Local\Temp\ccHbNwTO.s 			page 3


 114 002c 9968     		ldr	r1, [r3, #8]
 115 002e A268     		ldr	r2, [r4, #8]
 116 0030 9142     		cmp	r1, r2
 117 0032 F8D2     		bcs	.L18
 118              	.L19:
 119              		.loc 2 41 0
 120 0034 5A68     		ldr	r2, [r3, #4]
 121              		.loc 2 40 0
 122 0036 2360     		str	r3, [r4, #0]
 123              	.LBE35:
 124              	.LBE34:
 125              		.loc 1 168 0
 126 0038 0420     		movs	r0, #4
 127              	.LBB37:
 128              	.LBB36:
 129              		.loc 2 41 0
 130 003a 6260     		str	r2, [r4, #4]
 131              		.loc 2 42 0
 132 003c 1460     		str	r4, [r2, #0]
 133 003e 5C60     		str	r4, [r3, #4]
 134              	.LBE36:
 135              	.LBE37:
 136              		.loc 1 167 0
 137 0040 6562     		str	r5, [r4, #36]
 138              	.LBE33:
 139              		.loc 1 180 0
 140 0042 BDE8F840 		pop	{r3, r4, r5, r6, r7, lr}
 141              	.LBB60:
 142              		.loc 1 168 0
 143 0046 FFF7FEBF 		b	chSchGoSleepS
 144              	.LVL8:
 145              	.L6:
 146              	.LBB38:
 147              	.LBB39:
 148              		.loc 2 68 0
 149 004a 93E80600 		ldmia	r3, {r1, r2}
 150 004e 1160     		str	r1, [r2, #0]
 151              		.loc 2 69 0
 152 0050 1968     		ldr	r1, [r3, #0]
 153              	.LBE39:
 154              	.LBE38:
 155              		.loc 1 160 0
 156 0052 1846     		mov	r0, r3
 157              	.LBB41:
 158              	.LBB40:
 159              		.loc 2 69 0
 160 0054 4A60     		str	r2, [r1, #4]
 161              	.LBE40:
 162              	.LBE41:
 163              		.loc 1 160 0
 164 0056 FFF7FEFF 		bl	chSchReadyI
 165              	.LVL9:
 166              		.loc 1 161 0
 167 005a E3E7     		b	.L5
 168              	.LVL10:
 169              	.L8:
 170              	.LBB42:
ARM GAS  C:\Users\LAB_ME~1\AppData\Local\Temp\ccHbNwTO.s 			page 4


 171              	.LBB43:
 172              		.loc 2 68 0
 173 005c 5868     		ldr	r0, [r3, #4]
 174 005e 1A68     		ldr	r2, [r3, #0]
 175              	.LBE43:
 176              	.LBE42:
 177              		.loc 1 151 0
 178 0060 5E6A     		ldr	r6, [r3, #36]
 179              	.LVL11:
 180              	.LBB46:
 181              	.LBB44:
 182              		.loc 2 68 0
 183 0062 0260     		str	r2, [r0, #0]
 184              		.loc 2 69 0
 185 0064 1F68     		ldr	r7, [r3, #0]
 186              	.LBE44:
 187              	.LBE46:
 188              		.loc 2 36 0
 189 0066 3246     		mov	r2, r6
 190              	.LBB47:
 191              	.LBB45:
 192              		.loc 2 69 0
 193 0068 7860     		str	r0, [r7, #4]
 194              	.LVL12:
 195              	.L15:
 196              	.LBE45:
 197              	.LBE47:
 198              	.LBB48:
 199              	.LBB49:
 200              		.loc 2 38 0
 201 006a 1268     		ldr	r2, [r2, #0]
 202              	.LVL13:
 203              		.loc 2 39 0
 204 006c 9642     		cmp	r6, r2
 205 006e 02D0     		beq	.L16
 206 0070 9068     		ldr	r0, [r2, #8]
 207 0072 8842     		cmp	r0, r1
 208 0074 F9D2     		bcs	.L15
 209              	.L16:
 210              		.loc 2 41 0
 211 0076 5168     		ldr	r1, [r2, #4]
 212              		.loc 2 40 0
 213 0078 1A60     		str	r2, [r3, #0]
 214              		.loc 2 41 0
 215 007a 5960     		str	r1, [r3, #4]
 216              		.loc 2 42 0
 217 007c 0B60     		str	r3, [r1, #0]
 218 007e 5360     		str	r3, [r2, #4]
 219 0080 D0E7     		b	.L5
 220              	.LVL14:
 221              	.L7:
 222              	.LBE49:
 223              	.LBE48:
 224              	.LBB50:
 225              	.LBB51:
 226              		.loc 2 68 0
 227 0082 5868     		ldr	r0, [r3, #4]
ARM GAS  C:\Users\LAB_ME~1\AppData\Local\Temp\ccHbNwTO.s 			page 5


 228 0084 1A68     		ldr	r2, [r3, #0]
 229              	.LBE51:
 230              	.LBE50:
 231              		.loc 1 135 0
 232 0086 5E6A     		ldr	r6, [r3, #36]
 233              	.LVL15:
 234              	.LBB54:
 235              	.LBB52:
 236              		.loc 2 68 0
 237 0088 0260     		str	r2, [r0, #0]
 238              		.loc 2 69 0
 239 008a 1F68     		ldr	r7, [r3, #0]
 240              	.LBE52:
 241              	.LBE54:
 242              		.loc 1 135 0
 243 008c 3246     		mov	r2, r6
 244              	.LBB55:
 245              	.LBB53:
 246              		.loc 2 69 0
 247 008e 7860     		str	r0, [r7, #4]
 248              	.LVL16:
 249              	.L12:
 250              	.LBE53:
 251              	.LBE55:
 252              	.LBB56:
 253              	.LBB57:
 254              		.loc 2 38 0
 255 0090 1268     		ldr	r2, [r2, #0]
 256              	.LVL17:
 257              		.loc 2 39 0
 258 0092 9642     		cmp	r6, r2
 259 0094 12D0     		beq	.L26
 260 0096 9068     		ldr	r0, [r2, #8]
 261 0098 8842     		cmp	r0, r1
 262 009a F9D2     		bcs	.L12
 263              	.LVL18:
 264              	.L13:
 265              		.loc 2 41 0
 266 009c 5168     		ldr	r1, [r2, #4]
 267              		.loc 2 40 0
 268 009e 1A60     		str	r2, [r3, #0]
 269              		.loc 2 41 0
 270 00a0 5960     		str	r1, [r3, #4]
 271              		.loc 2 42 0
 272 00a2 0B60     		str	r3, [r1, #0]
 273 00a4 5360     		str	r3, [r2, #4]
 274              	.LBE57:
 275              	.LBE56:
 276              		.loc 1 136 0
 277 00a6 B368     		ldr	r3, [r6, #8]
 278              	.LVL19:
 279              		.loc 1 128 0
 280 00a8 A168     		ldr	r1, [r4, #8]
 281 00aa 9A68     		ldr	r2, [r3, #8]
 282              	.LVL20:
 283 00ac 8A42     		cmp	r2, r1
 284 00ae B2D3     		bcc	.L20
ARM GAS  C:\Users\LAB_ME~1\AppData\Local\Temp\ccHbNwTO.s 			page 6


 285 00b0 B8E7     		b	.L5
 286              	.LVL21:
 287              	.L3:
 288              	.LBE60:
 289              		.loc 1 177 0
 290 00b2 E36B     		ldr	r3, [r4, #60]
 291              		.loc 1 176 0
 292 00b4 8460     		str	r4, [r0, #8]
 293              		.loc 1 177 0
 294 00b6 C360     		str	r3, [r0, #12]
 295              		.loc 1 178 0
 296 00b8 E063     		str	r0, [r4, #60]
 297 00ba F8BD     		pop	{r3, r4, r5, r6, r7, pc}
 298              	.LVL22:
 299              	.L26:
 300              	.LBB61:
 301              	.LBB59:
 302              	.LBB58:
 303              		.loc 2 39 0
 304 00bc 3246     		mov	r2, r6
 305              	.LVL23:
 306 00be EDE7     		b	.L13
 307              	.L28:
 308              		.align	2
 309              	.L27:
 310 00c0 00000000 		.word	rlist
 311              	.LBE58:
 312              	.LBE59:
 313              	.LBE61:
 314              		.cfi_endproc
 315              	.LFE9:
 316              		.size	chMtxLockS, .-chMtxLockS
 317 00c4 AFF30080 		.section	.text.chMtxLock,"ax",%progbits
 317      AFF30080 
 317      AFF30080 
 318              		.align	2
 319              		.p2align 4,,15
 320              		.global	chMtxLock
 321              		.thumb
 322              		.thumb_func
 323              		.type	chMtxLock, %function
 324              	chMtxLock:
 325              	.LFB8:
 326              		.loc 1 96 0
 327              		.cfi_startproc
 328              		@ args = 0, pretend = 0, frame = 0
 329              		@ frame_needed = 0, uses_anonymous_args = 0
 330              	.LVL24:
 331 0000 08B5     		push	{r3, lr}
 332              	.LCFI1:
 333              		.cfi_def_cfa_offset 8
 334              		.cfi_offset 3, -8
 335              		.cfi_offset 14, -4
 336              	.LBB62:
 337              		.loc 1 98 0
 338 0002 2023     		movs	r3, #32
 339              	.LVL25:
ARM GAS  C:\Users\LAB_ME~1\AppData\Local\Temp\ccHbNwTO.s 			page 7


 340              	@ 98 "../../os/kernel/src/chmtx.c" 1
 341 0004 83F31188 		msr     BASEPRI, r3
 342              	@ 0 "" 2
 343              	.LVL26:
 344              		.thumb
 345              	.LBE62:
 346              		.loc 1 100 0
 347 0008 FFF7FEFF 		bl	chMtxLockS
 348              	.LVL27:
 349              	.LBB63:
 350              		.loc 1 102 0
 351 000c 0023     		movs	r3, #0
 352              	.LVL28:
 353              	@ 102 "../../os/kernel/src/chmtx.c" 1
 354 000e 83F31188 		msr     BASEPRI, r3
 355              	@ 0 "" 2
 356              	.LVL29:
 357              		.thumb
 358 0012 08BD     		pop	{r3, pc}
 359              	.LBE63:
 360              		.cfi_endproc
 361              	.LFE8:
 362              		.size	chMtxLock, .-chMtxLock
 363 0014 AFF30080 		.section	.text.chMtxTryLock,"ax",%progbits
 363      AFF30080 
 363      AFF30080 
 364              		.align	2
 365              		.p2align 4,,15
 366              		.global	chMtxTryLock
 367              		.thumb
 368              		.thumb_func
 369              		.type	chMtxTryLock, %function
 370              	chMtxTryLock:
 371              	.LFB10:
 372              		.loc 1 199 0
 373              		.cfi_startproc
 374              		@ args = 0, pretend = 0, frame = 0
 375              		@ frame_needed = 0, uses_anonymous_args = 0
 376              		@ link register save eliminated.
 377              	.LVL30:
 378              		.loc 1 199 0
 379 0000 0246     		mov	r2, r0
 380              	.LBB64:
 381              		.loc 1 202 0
 382 0002 2023     		movs	r3, #32
 383              	.LVL31:
 384              	@ 202 "../../os/kernel/src/chmtx.c" 1
 385 0004 83F31188 		msr     BASEPRI, r3
 386              	@ 0 "" 2
 387              	.LVL32:
 388              		.thumb
 389              	.LBE64:
 390              	.LBB65:
 391              	.LBB66:
 392              		.loc 1 232 0
 393 0008 8368     		ldr	r3, [r0, #8]
 394              	.LVL33:
ARM GAS  C:\Users\LAB_ME~1\AppData\Local\Temp\ccHbNwTO.s 			page 8


 395 000a 23B1     		cbz	r3, .L33
 396              		.loc 1 233 0
 397 000c 0020     		movs	r0, #0
 398              	.LVL34:
 399              	.L31:
 400              	.LBE66:
 401              	.LBE65:
 402              	.LBB68:
 403              		.loc 1 206 0
 404 000e 0023     		movs	r3, #0
 405              	.LVL35:
 406              	@ 206 "../../os/kernel/src/chmtx.c" 1
 407 0010 83F31188 		msr     BASEPRI, r3
 408              	@ 0 "" 2
 409              	.LVL36:
 410              		.thumb
 411              	.LBE68:
 412              		.loc 1 208 0
 413 0014 7047     		bx	lr
 414              	.LVL37:
 415              	.L33:
 416              	.LBB69:
 417              	.LBB67:
 418              		.loc 1 234 0
 419 0016 044B     		ldr	r3, .L34
 420 0018 9B69     		ldr	r3, [r3, #24]
 421              		.loc 1 235 0
 422 001a D96B     		ldr	r1, [r3, #60]
 423              		.loc 1 234 0
 424 001c 8360     		str	r3, [r0, #8]
 425              		.loc 1 235 0
 426 001e C160     		str	r1, [r0, #12]
 427              		.loc 1 237 0
 428 0020 0120     		movs	r0, #1
 429              	.LVL38:
 430              		.loc 1 236 0
 431 0022 DA63     		str	r2, [r3, #60]
 432 0024 F3E7     		b	.L31
 433              	.L35:
 434 0026 00BF     		.align	2
 435              	.L34:
 436 0028 00000000 		.word	rlist
 437              	.LBE67:
 438              	.LBE69:
 439              		.cfi_endproc
 440              	.LFE10:
 441              		.size	chMtxTryLock, .-chMtxTryLock
 442 002c AFF30080 		.section	.text.chMtxTryLockS,"ax",%progbits
 443              		.align	2
 444              		.p2align 4,,15
 445              		.global	chMtxTryLockS
 446              		.thumb
 447              		.thumb_func
 448              		.type	chMtxTryLockS, %function
 449              	chMtxTryLockS:
 450              	.LFB11:
 451              		.loc 1 227 0
ARM GAS  C:\Users\LAB_ME~1\AppData\Local\Temp\ccHbNwTO.s 			page 9


 452              		.cfi_startproc
 453              		@ args = 0, pretend = 0, frame = 0
 454              		@ frame_needed = 0, uses_anonymous_args = 0
 455              		@ link register save eliminated.
 456              	.LVL39:
 457              		.loc 1 232 0
 458 0000 8268     		ldr	r2, [r0, #8]
 459              		.loc 1 227 0
 460 0002 0346     		mov	r3, r0
 461              		.loc 1 232 0
 462 0004 0AB1     		cbz	r2, .L39
 463              		.loc 1 233 0
 464 0006 0020     		movs	r0, #0
 465              	.LVL40:
 466              		.loc 1 238 0
 467 0008 7047     		bx	lr
 468              	.LVL41:
 469              	.L39:
 470              		.loc 1 234 0
 471 000a 044A     		ldr	r2, .L40
 472 000c 9269     		ldr	r2, [r2, #24]
 473              		.loc 1 235 0
 474 000e D16B     		ldr	r1, [r2, #60]
 475              		.loc 1 234 0
 476 0010 8260     		str	r2, [r0, #8]
 477              		.loc 1 235 0
 478 0012 C160     		str	r1, [r0, #12]
 479              		.loc 1 237 0
 480 0014 0120     		movs	r0, #1
 481              	.LVL42:
 482              		.loc 1 236 0
 483 0016 D363     		str	r3, [r2, #60]
 484              		.loc 1 237 0
 485 0018 7047     		bx	lr
 486              	.L41:
 487 001a 00BF     		.align	2
 488              	.L40:
 489 001c 00000000 		.word	rlist
 490              		.cfi_endproc
 491              	.LFE11:
 492              		.size	chMtxTryLockS, .-chMtxTryLockS
 493              		.section	.text.chMtxUnlock,"ax",%progbits
 494              		.align	2
 495              		.p2align 4,,15
 496              		.global	chMtxUnlock
 497              		.thumb
 498              		.thumb_func
 499              		.type	chMtxUnlock, %function
 500              	chMtxUnlock:
 501              	.LFB12:
 502              		.loc 1 250 0
 503              		.cfi_startproc
 504              		@ args = 0, pretend = 0, frame = 0
 505              		@ frame_needed = 0, uses_anonymous_args = 0
 506              		.loc 1 251 0
 507 0000 154A     		ldr	r2, .L53
 508              		.loc 1 250 0
ARM GAS  C:\Users\LAB_ME~1\AppData\Local\Temp\ccHbNwTO.s 			page 10


 509 0002 38B5     		push	{r3, r4, r5, lr}
 510              	.LCFI2:
 511              		.cfi_def_cfa_offset 16
 512              		.cfi_offset 3, -16
 513              		.cfi_offset 4, -12
 514              		.cfi_offset 5, -8
 515              		.cfi_offset 14, -4
 516              		.loc 1 251 0
 517 0004 9069     		ldr	r0, [r2, #24]
 518              	.LVL43:
 519              	.LBB70:
 520              		.loc 1 254 0
 521 0006 2023     		movs	r3, #32
 522              	.LVL44:
 523              	@ 254 "../../os/kernel/src/chmtx.c" 1
 524 0008 83F31188 		msr     BASEPRI, r3
 525              	@ 0 "" 2
 526              	.LVL45:
 527              		.thumb
 528              	.LBE70:
 529              		.loc 1 263 0
 530 000c C46B     		ldr	r4, [r0, #60]
 531              	.LVL46:
 532              		.loc 1 266 0
 533 000e 2568     		ldr	r5, [r4, #0]
 534              		.loc 1 264 0
 535 0010 E368     		ldr	r3, [r4, #12]
 536              	.LVL47:
 537              		.loc 1 266 0
 538 0012 A542     		cmp	r5, r4
 539              		.loc 1 264 0
 540 0014 C363     		str	r3, [r0, #60]
 541              		.loc 1 266 0
 542 0016 1CD0     		beq	.L43
 543              	.LBB71:
 544              		.loc 1 271 0
 545 0018 016C     		ldr	r1, [r0, #64]
 546              	.LVL48:
 547              		.loc 1 273 0
 548 001a 4BB1     		cbz	r3, .L44
 549              	.L50:
 550              		.loc 1 277 0
 551 001c 1A68     		ldr	r2, [r3, #0]
 552 001e 9A42     		cmp	r2, r3
 553 0020 03D0     		beq	.L45
 554              		.loc 1 277 0 is_stmt 0 discriminator 1
 555 0022 9268     		ldr	r2, [r2, #8]
 556 0024 9142     		cmp	r1, r2
 557 0026 38BF     		it	cc
 558 0028 1146     		movcc	r1, r2
 559              	.LVL49:
 560              	.L45:
 561              		.loc 1 279 0 is_stmt 1
 562 002a DB68     		ldr	r3, [r3, #12]
 563              	.LVL50:
 564              		.loc 1 273 0
 565 002c 002B     		cmp	r3, #0
ARM GAS  C:\Users\LAB_ME~1\AppData\Local\Temp\ccHbNwTO.s 			page 11


 566 002e F5D1     		bne	.L50
 567              	.L44:
 568              	.LBB72:
 569              	.LBB73:
 570              		.loc 2 55 0
 571 0030 2B68     		ldr	r3, [r5, #0]
 572              	.LVL51:
 573              	.LBE73:
 574              	.LBE72:
 575              		.loc 1 288 0
 576 0032 EA6B     		ldr	r2, [r5, #60]
 577              		.loc 1 283 0
 578 0034 8160     		str	r1, [r0, #8]
 579              	.LVL52:
 580              	.LBB76:
 581              	.LBB74:
 582              		.loc 2 55 0
 583 0036 2360     		str	r3, [r4, #0]
 584              	.LBE74:
 585              	.LBE76:
 586              		.loc 1 290 0
 587 0038 2846     		mov	r0, r5
 588              	.LVL53:
 589              	.LBB77:
 590              	.LBB75:
 591              		.loc 2 55 0
 592 003a 5C60     		str	r4, [r3, #4]
 593              	.LBE75:
 594              	.LBE77:
 595              		.loc 1 290 0
 596 003c 0021     		movs	r1, #0
 597              	.LVL54:
 598              		.loc 1 287 0
 599 003e A560     		str	r5, [r4, #8]
 600              		.loc 1 288 0
 601 0040 E260     		str	r2, [r4, #12]
 602              		.loc 1 289 0
 603 0042 EC63     		str	r4, [r5, #60]
 604              		.loc 1 290 0
 605 0044 FFF7FEFF 		bl	chSchWakeupS
 606              	.LVL55:
 607              	.L47:
 608              	.LBE71:
 609              	.LBB78:
 610              		.loc 1 294 0
 611 0048 0023     		movs	r3, #0
 612              	.LVL56:
 613              	@ 294 "../../os/kernel/src/chmtx.c" 1
 614 004a 83F31188 		msr     BASEPRI, r3
 615              	@ 0 "" 2
 616              	.LVL57:
 617              		.thumb
 618              	.LBE78:
 619              		.loc 1 296 0
 620 004e 2046     		mov	r0, r4
 621 0050 38BD     		pop	{r3, r4, r5, pc}
 622              	.LVL58:
ARM GAS  C:\Users\LAB_ME~1\AppData\Local\Temp\ccHbNwTO.s 			page 12


 623              	.L43:
 624              		.loc 1 293 0
 625 0052 0023     		movs	r3, #0
 626 0054 A360     		str	r3, [r4, #8]
 627 0056 F7E7     		b	.L47
 628              	.L54:
 629              		.align	2
 630              	.L53:
 631 0058 00000000 		.word	rlist
 632              		.cfi_endproc
 633              	.LFE12:
 634              		.size	chMtxUnlock, .-chMtxUnlock
 635 005c AFF30080 		.section	.text.chMtxUnlockS,"ax",%progbits
 636              		.align	2
 637              		.p2align 4,,15
 638              		.global	chMtxUnlockS
 639              		.thumb
 640              		.thumb_func
 641              		.type	chMtxUnlockS, %function
 642              	chMtxUnlockS:
 643              	.LFB13:
 644              		.loc 1 310 0
 645              		.cfi_startproc
 646              		@ args = 0, pretend = 0, frame = 0
 647              		@ frame_needed = 0, uses_anonymous_args = 0
 648 0000 38B5     		push	{r3, r4, r5, lr}
 649              	.LCFI3:
 650              		.cfi_def_cfa_offset 16
 651              		.cfi_offset 3, -16
 652              		.cfi_offset 4, -12
 653              		.cfi_offset 5, -8
 654              		.cfi_offset 14, -4
 655              		.loc 1 311 0
 656 0002 124B     		ldr	r3, .L66
 657 0004 9869     		ldr	r0, [r3, #24]
 658              	.LVL59:
 659              		.loc 1 324 0
 660 0006 C46B     		ldr	r4, [r0, #60]
 661              	.LVL60:
 662              		.loc 1 327 0
 663 0008 2568     		ldr	r5, [r4, #0]
 664              		.loc 1 325 0
 665 000a E368     		ldr	r3, [r4, #12]
 666              		.loc 1 327 0
 667 000c A542     		cmp	r5, r4
 668              		.loc 1 325 0
 669 000e C363     		str	r3, [r0, #60]
 670              		.loc 1 327 0
 671 0010 18D0     		beq	.L56
 672              	.LBB79:
 673              		.loc 1 332 0
 674 0012 016C     		ldr	r1, [r0, #64]
 675              	.LVL61:
 676              		.loc 1 334 0
 677 0014 4BB1     		cbz	r3, .L57
 678              	.L63:
 679              		.loc 1 338 0
ARM GAS  C:\Users\LAB_ME~1\AppData\Local\Temp\ccHbNwTO.s 			page 13


 680 0016 1A68     		ldr	r2, [r3, #0]
 681 0018 9A42     		cmp	r2, r3
 682 001a 03D0     		beq	.L58
 683              		.loc 1 338 0 is_stmt 0 discriminator 1
 684 001c 9268     		ldr	r2, [r2, #8]
 685 001e 9142     		cmp	r1, r2
 686 0020 38BF     		it	cc
 687 0022 1146     		movcc	r1, r2
 688              	.LVL62:
 689              	.L58:
 690              		.loc 1 340 0 is_stmt 1
 691 0024 DB68     		ldr	r3, [r3, #12]
 692              	.LVL63:
 693              		.loc 1 334 0
 694 0026 002B     		cmp	r3, #0
 695 0028 F5D1     		bne	.L63
 696              	.L57:
 697              	.LBB80:
 698              	.LBB81:
 699              		.loc 2 55 0
 700 002a 2B68     		ldr	r3, [r5, #0]
 701              	.LVL64:
 702              	.LBE81:
 703              	.LBE80:
 704              		.loc 1 347 0
 705 002c EA6B     		ldr	r2, [r5, #60]
 706              		.loc 1 342 0
 707 002e 8160     		str	r1, [r0, #8]
 708              	.LVL65:
 709              	.LBB84:
 710              	.LBB82:
 711              		.loc 2 55 0
 712 0030 2360     		str	r3, [r4, #0]
 713              	.LBE82:
 714              	.LBE84:
 715              		.loc 1 349 0
 716 0032 2846     		mov	r0, r5
 717              	.LVL66:
 718              	.LBB85:
 719              	.LBB83:
 720              		.loc 2 55 0
 721 0034 5C60     		str	r4, [r3, #4]
 722              	.LBE83:
 723              	.LBE85:
 724              		.loc 1 346 0
 725 0036 A560     		str	r5, [r4, #8]
 726              		.loc 1 347 0
 727 0038 E260     		str	r2, [r4, #12]
 728              		.loc 1 348 0
 729 003a EC63     		str	r4, [r5, #60]
 730              		.loc 1 349 0
 731 003c FFF7FEFF 		bl	chSchReadyI
 732              	.LVL67:
 733              	.LBE79:
 734              		.loc 1 354 0
 735 0040 2046     		mov	r0, r4
 736 0042 38BD     		pop	{r3, r4, r5, pc}
ARM GAS  C:\Users\LAB_ME~1\AppData\Local\Temp\ccHbNwTO.s 			page 14


 737              	.LVL68:
 738              	.L56:
 739              		.loc 1 352 0
 740 0044 0023     		movs	r3, #0
 741 0046 A360     		str	r3, [r4, #8]
 742              		.loc 1 354 0
 743 0048 2046     		mov	r0, r4
 744              	.LVL69:
 745 004a 38BD     		pop	{r3, r4, r5, pc}
 746              	.L67:
 747              		.align	2
 748              	.L66:
 749 004c 00000000 		.word	rlist
 750              		.cfi_endproc
 751              	.LFE13:
 752              		.size	chMtxUnlockS, .-chMtxUnlockS
 753              		.section	.text.chMtxUnlockAll,"ax",%progbits
 754              		.align	2
 755              		.p2align 4,,15
 756              		.global	chMtxUnlockAll
 757              		.thumb
 758              		.thumb_func
 759              		.type	chMtxUnlockAll, %function
 760              	chMtxUnlockAll:
 761              	.LFB14:
 762              		.loc 1 367 0
 763              		.cfi_startproc
 764              		@ args = 0, pretend = 0, frame = 0
 765              		@ frame_needed = 0, uses_anonymous_args = 0
 766              		.loc 1 368 0
 767 0000 134A     		ldr	r2, .L80
 768              		.loc 1 367 0
 769 0002 70B5     		push	{r4, r5, r6, lr}
 770              	.LCFI4:
 771              		.cfi_def_cfa_offset 16
 772              		.cfi_offset 4, -16
 773              		.cfi_offset 5, -12
 774              		.cfi_offset 6, -8
 775              		.cfi_offset 14, -4
 776              	.LBB86:
 777              		.loc 1 370 0
 778 0004 2023     		movs	r3, #32
 779              	.LVL70:
 780              	.LBE86:
 781              		.loc 1 368 0
 782 0006 9469     		ldr	r4, [r2, #24]
 783              	.LVL71:
 784              	.LBB87:
 785              		.loc 1 370 0
 786              	@ 370 "../../os/kernel/src/chmtx.c" 1
 787 0008 83F31188 		msr     BASEPRI, r3
 788              	@ 0 "" 2
 789              	.LVL72:
 790              		.thumb
 791              	.LBE87:
 792              		.loc 1 371 0
 793 000c E36B     		ldr	r3, [r4, #60]
ARM GAS  C:\Users\LAB_ME~1\AppData\Local\Temp\ccHbNwTO.s 			page 15


 794              	.LVL73:
 795 000e D3B1     		cbz	r3, .L69
 796              	.LBB88:
 797              		.loc 1 383 0
 798 0010 0026     		movs	r6, #0
 799 0012 0BE0     		b	.L75
 800              	.LVL74:
 801              	.L79:
 802              	.LBB89:
 803              	.LBB90:
 804              	.LBB91:
 805              		.loc 2 55 0
 806 0014 1168     		ldr	r1, [r2, #0]
 807              	.LBE91:
 808              	.LBE90:
 809              		.loc 1 378 0
 810 0016 D56B     		ldr	r5, [r2, #60]
 811              	.LBB94:
 812              	.LBB92:
 813              		.loc 2 55 0
 814 0018 1960     		str	r1, [r3, #0]
 815              	.LBE92:
 816              	.LBE94:
 817              		.loc 1 380 0
 818 001a 1046     		mov	r0, r2
 819              	.LBB95:
 820              	.LBB93:
 821              		.loc 2 55 0
 822 001c 4B60     		str	r3, [r1, #4]
 823              	.LBE93:
 824              	.LBE95:
 825              		.loc 1 377 0
 826 001e 9A60     		str	r2, [r3, #8]
 827              		.loc 1 378 0
 828 0020 DD60     		str	r5, [r3, #12]
 829              		.loc 1 379 0
 830 0022 D363     		str	r3, [r2, #60]
 831              		.loc 1 380 0
 832 0024 FFF7FEFF 		bl	chSchReadyI
 833              	.LVL75:
 834              	.LBE89:
 835              	.LBE88:
 836              		.loc 1 384 0
 837 0028 E36B     		ldr	r3, [r4, #60]
 838 002a 43B1     		cbz	r3, .L78
 839              	.L75:
 840              	.LVL76:
 841              	.LBB96:
 842              		.loc 1 375 0
 843 002c 1A68     		ldr	r2, [r3, #0]
 844              	.LVL77:
 845              		.loc 1 374 0
 846 002e D968     		ldr	r1, [r3, #12]
 847              		.loc 1 375 0
 848 0030 9A42     		cmp	r2, r3
 849              		.loc 1 374 0
 850 0032 E163     		str	r1, [r4, #60]
ARM GAS  C:\Users\LAB_ME~1\AppData\Local\Temp\ccHbNwTO.s 			page 16


 851              		.loc 1 375 0
 852 0034 EED1     		bne	.L79
 853              		.loc 1 383 0
 854 0036 9E60     		str	r6, [r3, #8]
 855              	.LBE96:
 856              		.loc 1 384 0
 857 0038 E36B     		ldr	r3, [r4, #60]
 858              	.LVL78:
 859 003a 002B     		cmp	r3, #0
 860 003c F6D1     		bne	.L75
 861              	.LVL79:
 862              	.L78:
 863              		.loc 1 385 0
 864 003e 236C     		ldr	r3, [r4, #64]
 865 0040 A360     		str	r3, [r4, #8]
 866              		.loc 1 386 0
 867 0042 FFF7FEFF 		bl	chSchRescheduleS
 868              	.LVL80:
 869              	.L69:
 870              	.LBB97:
 871              		.loc 1 388 0
 872 0046 0023     		movs	r3, #0
 873              	.LVL81:
 874              	@ 388 "../../os/kernel/src/chmtx.c" 1
 875 0048 83F31188 		msr     BASEPRI, r3
 876              	@ 0 "" 2
 877              	.LVL82:
 878              		.thumb
 879 004c 70BD     		pop	{r4, r5, r6, pc}
 880              	.L81:
 881 004e 00BF     		.align	2
 882              	.L80:
 883 0050 00000000 		.word	rlist
 884              	.LBE97:
 885              		.cfi_endproc
 886              	.LFE14:
 887              		.size	chMtxUnlockAll, .-chMtxUnlockAll
 888 0054 AFF30080 		.text
 888      AFF30080 
 888      AFF30080 
 889              	.Letext0:
 890              		.file 3 "c:\\program files (x86)\\codesourcery\\sourcery_codebench_lite_for_arm_eabi\\bin\\../lib/
 891              		.file 4 "../../os/ports/GCC/ARMCMx/chtypes.h"
 892              		.file 5 "../../os/kernel/include/chlists.h"
 893              		.file 6 "../../os/kernel/include/chthreads.h"
 894              		.file 7 "../../os/ports/GCC/ARMCMx/chcore_v7m.h"
 895              		.file 8 "../../os/kernel/include/chschd.h"
 896              		.file 9 "../../os/kernel/include/chmtx.h"