ARM GAS  C:\Users\LAB_ME~1\AppData\Local\Temp\cc4OwA5n.s 			page 1


   1              		.syntax unified
   2              		.cpu cortex-m4
   3              		.fpu softvfp
   4              		.eabi_attribute 20, 1
   5              		.eabi_attribute 21, 1
   6              		.eabi_attribute 23, 3
   7              		.eabi_attribute 24, 1
   8              		.eabi_attribute 25, 1
   9              		.eabi_attribute 26, 1
  10              		.eabi_attribute 30, 2
  11              		.eabi_attribute 34, 1
  12              		.eabi_attribute 18, 4
  13              		.thumb
  14              		.file	"chprintf.c"
  15              		.text
  16              	.Ltext0:
  17              		.cfi_sections	.debug_frame
  18              		.section	.text.long_to_string_with_divisor,"ax",%progbits
  19              		.align	2
  20              		.p2align 4,,15
  21              		.thumb
  22              		.thumb_func
  23              		.type	long_to_string_with_divisor, %function
  24              	long_to_string_with_divisor:
  25              	.LFB7:
  26              		.file 1 "../../os/various/chprintf.c"
  27              		.loc 1 43 0
  28              		.cfi_startproc
  29              		@ args = 0, pretend = 0, frame = 0
  30              		@ frame_needed = 0, uses_anonymous_args = 0
  31              		@ link register save eliminated.
  32              	.LVL0:
  33 0000 F0B4     		push	{r4, r5, r6, r7}
  34              	.LCFI0:
  35              		.cfi_def_cfa_offset 16
  36              		.cfi_offset 4, -16
  37              		.cfi_offset 5, -12
  38              		.cfi_offset 6, -8
  39              		.cfi_offset 7, -4
  40              		.loc 1 50 0
  41 0002 002B     		cmp	r3, #0
  42 0004 08BF     		it	eq
  43 0006 0B46     		moveq	r3, r1
  44              	.LVL1:
  45              		.loc 1 55 0
  46 0008 00F10B0C 		add	ip, r0, #11
  47              	.LVL2:
  48              		.loc 1 40 0
  49 000c 00F10A05 		add	r5, r0, #10
  50              	.LVL3:
  51              	.L4:
  52              		.loc 1 57 0
  53 0010 B1FBF2F6 		udiv	r6, r1, r2
  54 0014 02FB1611 		mls	r1, r2, r6, r1
  55              	.LVL4:
  56              		.loc 1 58 0
  57 0018 01F13004 		add	r4, r1, #48
ARM GAS  C:\Users\LAB_ME~1\AppData\Local\Temp\cc4OwA5n.s 			page 2


  58              	.LVL5:
  59              		.loc 1 59 0
  60 001c 392C     		cmp	r4, #57
  61              		.loc 1 60 0
  62 001e C8BF     		it	gt
  63 0020 01F13704 		addgt	r4, r1, #55
  64              	.LVL6:
  65              		.loc 1 63 0
  66 0024 B3FBF2F3 		udiv	r3, r3, r2
  67              	.LVL7:
  68              		.loc 1 61 0
  69 0028 2F46     		mov	r7, r5
  70              	.LVL8:
  71              		.loc 1 62 0
  72 002a 3146     		mov	r1, r6
  73              		.loc 1 61 0
  74 002c 05F80149 		strb	r4, [r5], #-1
  75              	.LVL9:
  76              		.loc 1 63 0
  77 0030 002B     		cmp	r3, #0
  78 0032 EDD1     		bne	.L4
  79              	.LVL10:
  80              		.loc 1 65 0
  81 0034 C7EB0C02 		rsb	r2, r7, ip
  82              	.LVL11:
  83 0038 3B46     		mov	r3, r7
  84              	.LVL12:
  85              		.loc 1 40 0
  86 003a 8218     		adds	r2, r0, r2
  87              	.LVL13:
  88 003c 01E0     		b	.L6
  89              	.LVL14:
  90              	.L11:
  91 003e 13F8014F 		ldrb	r4, [r3, #1]!	@ zero_extendqisi2
  92              	.L6:
  93              		.loc 1 67 0 discriminator 1
  94 0042 00F8014B 		strb	r4, [r0], #1
  95              	.LVL15:
  96              		.loc 1 68 0 discriminator 1
  97 0046 9042     		cmp	r0, r2
  98 0048 F9D1     		bne	.L11
  99              		.loc 1 71 0
 100 004a F0BC     		pop	{r4, r5, r6, r7}
 101 004c 7047     		bx	lr
 102              		.cfi_endproc
 103              	.LFE7:
 104              		.size	long_to_string_with_divisor, .-long_to_string_with_divisor
 105              		.global	__aeabi_d2f
 106              		.global	__aeabi_fcmplt
 107              		.global	__aeabi_f2iz
 108              		.global	__aeabi_f2d
 109              		.global	__aeabi_i2d
 110              		.global	__aeabi_dsub
 111              		.global	__aeabi_dmul
 112              		.global	__aeabi_d2iz
 113 004e 00BF     		.section	.text.chprintf,"ax",%progbits
 114              		.align	2
ARM GAS  C:\Users\LAB_ME~1\AppData\Local\Temp\cc4OwA5n.s 			page 3


 115              		.p2align 4,,15
 116              		.global	chprintf
 117              		.thumb
 118              		.thumb_func
 119              		.type	chprintf, %function
 120              	chprintf:
 121              	.LFB10:
 122              		.loc 1 112 0
 123              		.cfi_startproc
 124              		@ args = 4, pretend = 12, frame = 56
 125              		@ frame_needed = 0, uses_anonymous_args = 1
 126              	.LVL16:
 127 0000 0EB4     		push	{r1, r2, r3}
 128              	.LCFI1:
 129              		.cfi_def_cfa_offset 12
 130              		.cfi_offset 1, -12
 131              		.cfi_offset 2, -8
 132              		.cfi_offset 3, -4
 133 0002 2DE9F04F 		push	{r4, r5, r6, r7, r8, r9, sl, fp, lr}
 134              	.LCFI2:
 135              		.cfi_def_cfa_offset 48
 136              		.cfi_offset 4, -48
 137              		.cfi_offset 5, -44
 138              		.cfi_offset 6, -40
 139              		.cfi_offset 7, -36
 140              		.cfi_offset 8, -32
 141              		.cfi_offset 9, -28
 142              		.cfi_offset 10, -24
 143              		.cfi_offset 11, -20
 144              		.cfi_offset 14, -16
 145 0006 8EB0     		sub	sp, sp, #56
 146              	.LCFI3:
 147              		.cfi_def_cfa_offset 104
 148              		.loc 1 112 0
 149 0008 17AB     		add	r3, sp, #92
 150              		.loc 1 238 0
 151 000a 0DF1210C 		add	ip, sp, #33
 152              		.loc 1 136 0
 153 000e 0DF12008 		add	r8, sp, #32
 154              		.loc 1 112 0
 155 0012 53F8044B 		ldr	r4, [r3], #4
 156              		.loc 1 238 0
 157 0016 CDF808C0 		str	ip, [sp, #8]
 158 001a C8EB0C0C 		rsb	ip, r8, ip
 159              		.loc 1 125 0
 160 001e 0793     		str	r3, [sp, #28]
 161              		.loc 1 112 0
 162 0020 0646     		mov	r6, r0
 163 0022 CDF80CC0 		str	ip, [sp, #12]
 164              	.LVL17:
 165              	.L82:
 166              		.loc 1 127 0
 167 0026 2546     		mov	r5, r4
 168 0028 15F8011B 		ldrb	r1, [r5], #1	@ zero_extendqisi2
 169              	.LVL18:
 170              		.loc 1 128 0
 171 002c 59B1     		cbz	r1, .L81
ARM GAS  C:\Users\LAB_ME~1\AppData\Local\Temp\cc4OwA5n.s 			page 4


 172              	.LVL19:
 173              	.L87:
 174              		.loc 1 132 0
 175 002e 2529     		cmp	r1, #37
 176 0030 0ED0     		beq	.L15
 177              		.loc 1 133 0
 178 0032 3368     		ldr	r3, [r6, #0]
 179              		.loc 1 127 0
 180 0034 2C46     		mov	r4, r5
 181 0036 2546     		mov	r5, r4
 182              	.LVL20:
 183              		.loc 1 133 0
 184 0038 3046     		mov	r0, r6
 185 003a 9B68     		ldr	r3, [r3, #8]
 186 003c 9847     		blx	r3
 187              	.LVL21:
 188              		.loc 1 127 0
 189 003e 15F8011B 		ldrb	r1, [r5], #1	@ zero_extendqisi2
 190              	.LVL22:
 191              		.loc 1 128 0
 192 0042 0029     		cmp	r1, #0
 193 0044 F3D1     		bne	.L87
 194              	.LVL23:
 195              	.L81:
 196              		.loc 1 263 0
 197 0046 0EB0     		add	sp, sp, #56
 198 0048 BDE8F04F 		pop	{r4, r5, r6, r7, r8, r9, sl, fp, lr}
 199 004c 03B0     		add	sp, sp, #12
 200 004e 7047     		bx	lr
 201              	.L15:
 202              	.LVL24:
 203              		.loc 1 139 0
 204 0050 6378     		ldrb	r3, [r4, #1]	@ zero_extendqisi2
 205 0052 2D2B     		cmp	r3, #45
 206 0054 00F05681 		beq	.L88
 207              		.loc 1 138 0
 208 0058 4FF00009 		mov	r9, #0
 209              	.LVL25:
 210              	.L17:
 211              		.loc 1 144 0
 212 005c 2E2B     		cmp	r3, #46
 213 005e 00F04D81 		beq	.L89
 214              		.loc 1 143 0
 215 0062 2027     		movs	r7, #32
 216              	.LVL26:
 217              	.L18:
 218              		.loc 1 146 0
 219 0064 2C46     		mov	r4, r5
 220 0066 0799     		ldr	r1, [sp, #28]
 221              		.loc 1 148 0
 222 0068 0025     		movs	r5, #0
 223              	.LVL27:
 224 006a 06E0     		b	.L21
 225              	.LVL28:
 226              	.L90:
 227              		.loc 1 154 0
 228 006c 0A78     		ldrb	r2, [r1, #0]	@ zero_extendqisi2
ARM GAS  C:\Users\LAB_ME~1\AppData\Local\Temp\cc4OwA5n.s 			page 5


 229              	.LVL29:
 230 006e 0431     		adds	r1, r1, #4
 231              	.LVL30:
 232              	.L19:
 233              		.loc 1 157 0
 234 0070 05EB8505 		add	r5, r5, r5, lsl #2
 235              	.LVL31:
 236 0074 2378     		ldrb	r3, [r4, #0]	@ zero_extendqisi2
 237 0076 02EB4505 		add	r5, r2, r5, lsl #1
 238              	.LVL32:
 239              	.L21:
 240              		.loc 1 151 0
 241 007a A3F13002 		sub	r2, r3, #48
 242 007e D2B2     		uxtb	r2, r2
 243              		.loc 1 150 0
 244 0080 0134     		adds	r4, r4, #1
 245              	.LVL33:
 246              		.loc 1 151 0
 247 0082 092A     		cmp	r2, #9
 248 0084 F4D9     		bls	.L19
 249              		.loc 1 153 0
 250 0086 2A2B     		cmp	r3, #42
 251 0088 F0D0     		beq	.L90
 252              		.loc 1 160 0
 253 008a 0020     		movs	r0, #0
 254 008c 2E2B     		cmp	r3, #46
 255 008e 0791     		str	r1, [sp, #28]
 256              	.LVL34:
 257 0090 4BD0     		beq	.L25
 258              	.LVL35:
 259              		.loc 1 174 0
 260 0092 6C2B     		cmp	r3, #108
 261 0094 55D0     		beq	.L26
 262              	.LVL36:
 263              	.L91:
 264              		.loc 1 174 0 is_stmt 0 discriminator 1
 265 0096 4C2B     		cmp	r3, #76
 266 0098 53D0     		beq	.L26
 267              		.loc 1 180 0 is_stmt 1
 268 009a A3F14101 		sub	r1, r3, #65
 269 009e 1929     		cmp	r1, #25
 270 00a0 8CBF     		ite	hi
 271 00a2 0021     		movhi	r1, #0
 272 00a4 0121     		movls	r1, #1
 273              	.LVL37:
 274              	.L28:
 275              		.loc 1 183 0
 276 00a6 A3F14402 		sub	r2, r3, #68
 277 00aa 342A     		cmp	r2, #52
 278 00ac 00F22081 		bhi	.L29
 279 00b0 DFE812F0 		tbh	[pc, r2, lsl #1]
 280              	.L37:
 281 00b4 0E01     		.2byte	(.L30-.L37)/2
 282 00b6 1E01     		.2byte	(.L29-.L37)/2
 283 00b8 1E01     		.2byte	(.L29-.L37)/2
 284 00ba 1E01     		.2byte	(.L29-.L37)/2
 285 00bc 1E01     		.2byte	(.L29-.L37)/2
ARM GAS  C:\Users\LAB_ME~1\AppData\Local\Temp\cc4OwA5n.s 			page 6


 286 00be 1E01     		.2byte	(.L29-.L37)/2
 287 00c0 1E01     		.2byte	(.L29-.L37)/2
 288 00c2 1E01     		.2byte	(.L29-.L37)/2
 289 00c4 1E01     		.2byte	(.L29-.L37)/2
 290 00c6 1E01     		.2byte	(.L29-.L37)/2
 291 00c8 1E01     		.2byte	(.L29-.L37)/2
 292 00ca 0C01     		.2byte	(.L31-.L37)/2
 293 00cc 1E01     		.2byte	(.L29-.L37)/2
 294 00ce 1E01     		.2byte	(.L29-.L37)/2
 295 00d0 1E01     		.2byte	(.L29-.L37)/2
 296 00d2 1E01     		.2byte	(.L29-.L37)/2
 297 00d4 1E01     		.2byte	(.L29-.L37)/2
 298 00d6 0401     		.2byte	(.L62-.L37)/2
 299 00d8 1E01     		.2byte	(.L29-.L37)/2
 300 00da 1E01     		.2byte	(.L29-.L37)/2
 301 00dc F600     		.2byte	(.L33-.L37)/2
 302 00de 1E01     		.2byte	(.L29-.L37)/2
 303 00e0 1E01     		.2byte	(.L29-.L37)/2
 304 00e2 1E01     		.2byte	(.L29-.L37)/2
 305 00e4 1E01     		.2byte	(.L29-.L37)/2
 306 00e6 1E01     		.2byte	(.L29-.L37)/2
 307 00e8 1E01     		.2byte	(.L29-.L37)/2
 308 00ea 1E01     		.2byte	(.L29-.L37)/2
 309 00ec 1E01     		.2byte	(.L29-.L37)/2
 310 00ee 1E01     		.2byte	(.L29-.L37)/2
 311 00f0 1E01     		.2byte	(.L29-.L37)/2
 312 00f2 D600     		.2byte	(.L34-.L37)/2
 313 00f4 0E01     		.2byte	(.L30-.L37)/2
 314 00f6 1E01     		.2byte	(.L29-.L37)/2
 315 00f8 9100     		.2byte	(.L35-.L37)/2
 316 00fa 1E01     		.2byte	(.L29-.L37)/2
 317 00fc 1E01     		.2byte	(.L29-.L37)/2
 318 00fe 1E01     		.2byte	(.L29-.L37)/2
 319 0100 1E01     		.2byte	(.L29-.L37)/2
 320 0102 1E01     		.2byte	(.L29-.L37)/2
 321 0104 1E01     		.2byte	(.L29-.L37)/2
 322 0106 1E01     		.2byte	(.L29-.L37)/2
 323 0108 1E01     		.2byte	(.L29-.L37)/2
 324 010a 0C01     		.2byte	(.L31-.L37)/2
 325 010c 1E01     		.2byte	(.L29-.L37)/2
 326 010e 1E01     		.2byte	(.L29-.L37)/2
 327 0110 1E01     		.2byte	(.L29-.L37)/2
 328 0112 4F00     		.2byte	(.L36-.L37)/2
 329 0114 1E01     		.2byte	(.L29-.L37)/2
 330 0116 0401     		.2byte	(.L62-.L37)/2
 331 0118 1E01     		.2byte	(.L29-.L37)/2
 332 011a 1E01     		.2byte	(.L29-.L37)/2
 333 011c F600     		.2byte	(.L33-.L37)/2
 334              	.LVL38:
 335              	.L24:
 336              		.loc 1 166 0
 337 011e 0A78     		ldrb	r2, [r1, #0]	@ zero_extendqisi2
 338              	.LVL39:
 339 0120 0431     		adds	r1, r1, #4
 340              	.LVL40:
 341              	.L23:
 342              		.loc 1 169 0
ARM GAS  C:\Users\LAB_ME~1\AppData\Local\Temp\cc4OwA5n.s 			page 7


 343 0122 00EB8000 		add	r0, r0, r0, lsl #2
 344              	.LVL41:
 345              		.loc 1 170 0
 346 0126 02EB4000 		add	r0, r2, r0, lsl #1
 347              	.LVL42:
 348              	.L25:
 349              		.loc 1 162 0
 350 012a 14F8013B 		ldrb	r3, [r4], #1	@ zero_extendqisi2
 351              	.LVL43:
 352              		.loc 1 163 0
 353 012e A3F13002 		sub	r2, r3, #48
 354 0132 D2B2     		uxtb	r2, r2
 355 0134 092A     		cmp	r2, #9
 356 0136 F4D9     		bls	.L23
 357              		.loc 1 165 0
 358 0138 2A2B     		cmp	r3, #42
 359 013a F0D0     		beq	.L24
 360              		.loc 1 174 0
 361 013c 6C2B     		cmp	r3, #108
 362 013e 0791     		str	r1, [sp, #28]
 363 0140 A9D1     		bne	.L91
 364              	.LVL44:
 365              	.L26:
 366              		.loc 1 176 0
 367 0142 2278     		ldrb	r2, [r4, #0]	@ zero_extendqisi2
 368 0144 002A     		cmp	r2, #0
 369 0146 00F0E280 		beq	.L61
 370              	.LVL45:
 371              		.loc 1 177 0
 372 014a 0134     		adds	r4, r4, #1
 373              	.LVL46:
 374 014c 1346     		mov	r3, r2
 375              		.loc 1 175 0
 376 014e 0121     		movs	r1, #1
 377 0150 A9E7     		b	.L28
 378              	.LVL47:
 379              	.L36:
 380              		.loc 1 190 0
 381 0152 079B     		ldr	r3, [sp, #28]
 382              	.LVL48:
 383              		.loc 1 191 0
 384 0154 844A     		ldr	r2, .L99+8
 385              	.LVL49:
 386              		.loc 1 190 0
 387 0156 D3F800A0 		ldr	sl, [r3, #0]
 388              	.LVL50:
 389              		.loc 1 191 0
 390 015a BAF1000F 		cmp	sl, #0
 391 015e 08BF     		it	eq
 392 0160 9246     		moveq	sl, r2
 393              	.LVL51:
 394              		.loc 1 190 0
 395 0162 0433     		adds	r3, r3, #4
 396              		.loc 1 194 0
 397 0164 9AF80020 		ldrb	r2, [sl, #0]	@ zero_extendqisi2
 398              		.loc 1 190 0
 399 0168 0793     		str	r3, [sp, #28]
ARM GAS  C:\Users\LAB_ME~1\AppData\Local\Temp\cc4OwA5n.s 			page 8


 400              		.loc 1 193 0
 401 016a 47F6FF73 		movw	r3, #32767
 402 016e 0028     		cmp	r0, #0
 403 0170 08BF     		it	eq
 404 0172 1846     		moveq	r0, r3
 405              	.LVL52:
 406              		.loc 1 194 0
 407 0174 002A     		cmp	r2, #0
 408 0176 00F0EE80 		beq	.L65
 409              	.LVL53:
 410 017a 5346     		mov	r3, sl
 411              		.loc 1 112 0
 412 017c 5044     		add	r0, sl, r0
 413              	.LVL54:
 414 017e 02E0     		b	.L42
 415              	.LVL55:
 416              	.L41:
 417              		.loc 1 194 0 discriminator 2
 418 0180 9042     		cmp	r0, r2
 419 0182 00F0DC80 		beq	.L92
 420              	.LVL56:
 421              	.L42:
 422              		.loc 1 194 0 is_stmt 0 discriminator 1
 423 0186 5978     		ldrb	r1, [r3, #1]	@ zero_extendqisi2
 424              		.loc 1 112 0 is_stmt 1 discriminator 1
 425 0188 5A1C     		adds	r2, r3, #1
 426              	.LVL57:
 427 018a 1346     		mov	r3, r2
 428              		.loc 1 194 0 discriminator 1
 429 018c 0029     		cmp	r1, #0
 430 018e F7D1     		bne	.L41
 431 0190 CAEB020B 		rsb	fp, sl, r2
 432              		.loc 1 242 0
 433 0194 CBEB0505 		rsb	r5, fp, r5
 434              	.LVL58:
 435              		.loc 1 189 0
 436 0198 2027     		movs	r7, #32
 437              	.LVL59:
 438 019a 25EAE575 		bic	r5, r5, r5, asr #31
 439              	.LVL60:
 440              		.loc 1 244 0
 441 019e B9F1000F 		cmp	r9, #0
 442 01a2 6ED0     		beq	.L93
 443              	.LVL61:
 444              	.L50:
 445              		.loc 1 255 0 discriminator 1
 446 01a4 BBF1000F 		cmp	fp, #0
 447              		.loc 1 112 0 discriminator 1
 448 01a8 C8BF     		it	gt
 449 01aa 0AEB0B09 		addgt	r9, sl, fp
 450              	.LVL62:
 451              		.loc 1 255 0 discriminator 1
 452 01ae 07DD     		ble	.L56
 453              	.LVL63:
 454              	.L55:
 455              		.loc 1 256 0
 456 01b0 3368     		ldr	r3, [r6, #0]
ARM GAS  C:\Users\LAB_ME~1\AppData\Local\Temp\cc4OwA5n.s 			page 9


 457 01b2 1AF8011B 		ldrb	r1, [sl], #1	@ zero_extendqisi2
 458              	.LVL64:
 459 01b6 9B68     		ldr	r3, [r3, #8]
 460 01b8 3046     		mov	r0, r6
 461 01ba 9847     		blx	r3
 462              	.LVL65:
 463              		.loc 1 255 0
 464 01bc CA45     		cmp	sl, r9
 465 01be F7D1     		bne	.L55
 466              	.L56:
 467              	.LVL66:
 468              		.loc 1 258 0
 469 01c0 002D     		cmp	r5, #0
 470 01c2 3FF430AF 		beq	.L82
 471              	.L73:
 472              		.loc 1 259 0
 473 01c6 3368     		ldr	r3, [r6, #0]
 474 01c8 3046     		mov	r0, r6
 475 01ca 9B68     		ldr	r3, [r3, #8]
 476 01cc 3946     		mov	r1, r7
 477 01ce 9847     		blx	r3
 478              	.LVL67:
 479              		.loc 1 258 0
 480 01d0 013D     		subs	r5, r5, #1
 481              	.LVL68:
 482 01d2 F8D1     		bne	.L73
 483 01d4 27E7     		b	.L82
 484              	.LVL69:
 485              	.L35:
 486              		.loc 1 211 0
 487 01d6 079B     		ldr	r3, [sp, #28]
 488              	.LVL70:
 489 01d8 0733     		adds	r3, r3, #7
 490 01da 23F00703 		bic	r3, r3, #7
 491 01de 03F10802 		add	r2, r3, #8
 492              	.LVL71:
 493 01e2 D3E90001 		ldrd	r0, [r3]
 494              	.LVL72:
 495 01e6 0792     		str	r2, [sp, #28]
 496 01e8 FFF7FEFF 		bl	__aeabi_d2f
 497              	.LVL73:
 498              		.loc 1 212 0
 499 01ec 0021     		movs	r1, #0
 500              		.loc 1 211 0
 501 01ee 8346     		mov	fp, r0
 502              	.LVL74:
 503              		.loc 1 212 0
 504 01f0 FFF7FEFF 		bl	__aeabi_fcmplt
 505              	.LVL75:
 506 01f4 0028     		cmp	r0, #0
 507 01f6 40F0A680 		bne	.L94
 508              		.loc 1 136 0
 509 01fa C246     		mov	sl, r8
 510              	.LVL76:
 511              	.L46:
 512              	.LBB8:
 513              	.LBB9:
ARM GAS  C:\Users\LAB_ME~1\AppData\Local\Temp\cc4OwA5n.s 			page 10


 514              		.loc 1 83 0
 515 01fc 5846     		mov	r0, fp
 516 01fe FFF7FEFF 		bl	__aeabi_f2iz
 517              	.LVL77:
 518 0202 8446     		mov	ip, r0
 519              	.LVL78:
 520              		.loc 1 84 0
 521 0204 0A22     		movs	r2, #10
 522 0206 6146     		mov	r1, ip
 523 0208 5046     		mov	r0, sl
 524              	.LVL79:
 525 020a 0023     		movs	r3, #0
 526 020c CDF804C0 		str	ip, [sp, #4]
 527 0210 FFF7FEFF 		bl	long_to_string_with_divisor
 528              	.LVL80:
 529              		.loc 1 85 0
 530 0214 8246     		mov	sl, r0
 531              	.LVL81:
 532 0216 2E23     		movs	r3, #46
 533 0218 0AF8013B 		strb	r3, [sl], #1
 534              	.LVL82:
 535              	.LBE9:
 536              	.LBE8:
 537              		.loc 1 216 0
 538 021c 5846     		mov	r0, fp
 539              	.LVL83:
 540 021e FFF7FEFF 		bl	__aeabi_f2d
 541              	.LVL84:
 542              	.LBB12:
 543              	.LBB10:
 544              		.loc 1 86 0
 545 0222 DDF804C0 		ldr	ip, [sp, #4]
 546              	.LBE10:
 547              	.LBE12:
 548              		.loc 1 216 0
 549 0226 CDE90401 		strd	r0, [sp, #16]
 550              	.LBB13:
 551              	.LBB11:
 552              		.loc 1 86 0
 553 022a 6046     		mov	r0, ip
 554 022c FFF7FEFF 		bl	__aeabi_i2d
 555              	.LVL85:
 556 0230 0246     		mov	r2, r0
 557 0232 0B46     		mov	r3, r1
 558 0234 DDE90401 		ldrd	r0, [sp, #16]
 559 0238 FFF7FEFF 		bl	__aeabi_dsub
 560              	.LVL86:
 561 023c 48A3     		adr	r3, .L99
 562 023e D3E90023 		ldrd	r2, [r3]
 563 0242 FFF7FEFF 		bl	__aeabi_dmul
 564              	.LVL87:
 565 0246 FFF7FEFF 		bl	__aeabi_d2iz
 566              	.LVL88:
 567              		.loc 1 87 0
 568 024a 0A22     		movs	r2, #10
 569              		.loc 1 86 0
 570 024c 0146     		mov	r1, r0
ARM GAS  C:\Users\LAB_ME~1\AppData\Local\Temp\cc4OwA5n.s 			page 11


 571              		.loc 1 87 0
 572 024e 42F21073 		movw	r3, #10000
 573 0252 5046     		mov	r0, sl
 574 0254 FFF7FEFF 		bl	long_to_string_with_divisor
 575              	.LVL89:
 576              	.LBE11:
 577              	.LBE13:
 578              		.loc 1 137 0
 579 0258 C246     		mov	sl, r8
 580              	.LVL90:
 581 025a C8EB000B 		rsb	fp, r8, r0
 582              	.LVL91:
 583              		.loc 1 217 0
 584 025e 09E0     		b	.L38
 585              	.LVL92:
 586              	.L34:
 587              		.loc 1 186 0
 588 0260 079B     		ldr	r3, [sp, #28]
 589              	.LVL93:
 590 0262 DDF80CB0 		ldr	fp, [sp, #12]
 591 0266 1A68     		ldr	r2, [r3, #0]
 592              	.LVL94:
 593 0268 0433     		adds	r3, r3, #4
 594 026a 0793     		str	r3, [sp, #28]
 595 026c 8DF82020 		strb	r2, [sp, #32]
 596              	.LVL95:
 597              		.loc 1 185 0
 598 0270 2027     		movs	r7, #32
 599              		.loc 1 137 0
 600 0272 C246     		mov	sl, r8
 601              	.LVL96:
 602              	.L38:
 603              		.loc 1 242 0
 604 0274 CBEB0505 		rsb	r5, fp, r5
 605              	.LVL97:
 606 0278 25EAE575 		bic	r5, r5, r5, asr #31
 607              	.LVL98:
 608              		.loc 1 244 0
 609 027c B9F1000F 		cmp	r9, #0
 610 0280 90D1     		bne	.L50
 611              	.LVL99:
 612              	.L93:
 613              		.loc 1 245 0
 614 0282 6D42     		negs	r5, r5
 615              	.LVL100:
 616              		.loc 1 246 0
 617 0284 002D     		cmp	r5, #0
 618 0286 8DD0     		beq	.L50
 619              		.loc 1 247 0
 620 0288 9AF80010 		ldrb	r1, [sl, #0]	@ zero_extendqisi2
 621 028c 2D29     		cmp	r1, #45
 622 028e 4BD0     		beq	.L95
 623              	.LVL101:
 624              	.L74:
 625              		.loc 1 252 0 discriminator 1
 626 0290 3368     		ldr	r3, [r6, #0]
 627 0292 3046     		mov	r0, r6
ARM GAS  C:\Users\LAB_ME~1\AppData\Local\Temp\cc4OwA5n.s 			page 12


 628 0294 9B68     		ldr	r3, [r3, #8]
 629 0296 3946     		mov	r1, r7
 630 0298 9847     		blx	r3
 631              	.LVL102:
 632              		.loc 1 253 0 discriminator 1
 633 029a 0135     		adds	r5, r5, #1
 634              	.LVL103:
 635 029c F8D1     		bne	.L74
 636 029e 81E7     		b	.L50
 637              	.LVL104:
 638              	.L33:
 639              		.loc 1 183 0
 640 02a0 1022     		movs	r2, #16
 641              	.LVL105:
 642              	.L32:
 643              		.loc 1 232 0
 644 02a2 079B     		ldr	r3, [sp, #28]
 645              		.loc 1 231 0
 646 02a4 71B1     		cbz	r1, .L48
 647              	.L96:
 648              		.loc 1 232 0
 649 02a6 191D     		adds	r1, r3, #4
 650              	.LVL106:
 651 02a8 0791     		str	r1, [sp, #28]
 652 02aa 1968     		ldr	r1, [r3, #0]
 653              	.LVL107:
 654              	.L49:
 655              	.LBB14:
 656              	.LBB15:
 657              		.loc 1 75 0
 658 02ac 4046     		mov	r0, r8
 659 02ae 0023     		movs	r3, #0
 660 02b0 FFF7FEFF 		bl	long_to_string_with_divisor
 661              	.LVL108:
 662              	.LBE15:
 663              	.LBE14:
 664              		.loc 1 137 0
 665 02b4 C246     		mov	sl, r8
 666 02b6 C8EB000B 		rsb	fp, r8, r0
 667              		.loc 1 236 0
 668 02ba DBE7     		b	.L38
 669              	.LVL109:
 670              	.L62:
 671              		.loc 1 183 0
 672 02bc 0A22     		movs	r2, #10
 673              	.LVL110:
 674              		.loc 1 232 0
 675 02be 079B     		ldr	r3, [sp, #28]
 676              		.loc 1 231 0
 677 02c0 0029     		cmp	r1, #0
 678 02c2 F0D1     		bne	.L96
 679              	.L48:
 680              		.loc 1 234 0
 681 02c4 181D     		adds	r0, r3, #4
 682              	.LVL111:
 683 02c6 1968     		ldr	r1, [r3, #0]
 684              	.LVL112:
ARM GAS  C:\Users\LAB_ME~1\AppData\Local\Temp\cc4OwA5n.s 			page 13


 685 02c8 0790     		str	r0, [sp, #28]
 686 02ca EFE7     		b	.L49
 687              	.LVL113:
 688              	.L31:
 689 02cc 0822     		movs	r2, #8
 690 02ce E8E7     		b	.L32
 691              	.LVL114:
 692              	.L30:
 693              		.loc 1 200 0
 694 02d0 079B     		ldr	r3, [sp, #28]
 695              	.LVL115:
 696 02d2 1A1D     		adds	r2, r3, #4
 697              	.LVL116:
 698              		.loc 1 199 0
 699 02d4 E9B9     		cbnz	r1, .L97
 700              		.loc 1 202 0
 701 02d6 1968     		ldr	r1, [r3, #0]
 702              	.LVL117:
 703 02d8 0792     		str	r2, [sp, #28]
 704              		.loc 1 203 0
 705 02da 0029     		cmp	r1, #0
 706 02dc 1DDB     		blt	.L98
 707              	.L66:
 708              		.loc 1 136 0
 709 02de 4046     		mov	r0, r8
 710              	.LVL118:
 711              	.L45:
 712              	.LBB16:
 713              	.LBB17:
 714              		.loc 1 75 0
 715 02e0 0A22     		movs	r2, #10
 716 02e2 0023     		movs	r3, #0
 717 02e4 FFF7FEFF 		bl	long_to_string_with_divisor
 718              	.LVL119:
 719              	.LBE17:
 720              	.LBE16:
 721              		.loc 1 137 0
 722 02e8 C246     		mov	sl, r8
 723 02ea C8EB000B 		rsb	fp, r8, r0
 724              		.loc 1 208 0
 725 02ee C1E7     		b	.L38
 726              	.LVL120:
 727              	.L29:
 728              		.loc 1 238 0
 729 02f0 8DF82030 		strb	r3, [sp, #32]
 730              	.LVL121:
 731 02f4 DDF80CB0 		ldr	fp, [sp, #12]
 732              		.loc 1 137 0
 733 02f8 C246     		mov	sl, r8
 734              		.loc 1 239 0
 735 02fa BBE7     		b	.L38
 736              	.LVL122:
 737              	.L89:
 738 02fc 6B78     		ldrb	r3, [r5, #1]	@ zero_extendqisi2
 739              		.loc 1 146 0
 740 02fe 3027     		movs	r7, #48
 741              		.loc 1 145 0
ARM GAS  C:\Users\LAB_ME~1\AppData\Local\Temp\cc4OwA5n.s 			page 14


 742 0300 0135     		adds	r5, r5, #1
 743              	.LVL123:
 744 0302 AFE6     		b	.L18
 745              	.LVL124:
 746              	.L88:
 747              		.loc 1 140 0
 748 0304 A51C     		adds	r5, r4, #2
 749              	.LVL125:
 750 0306 A378     		ldrb	r3, [r4, #2]	@ zero_extendqisi2
 751              		.loc 1 141 0
 752 0308 4FF00109 		mov	r9, #1
 753 030c A6E6     		b	.L17
 754              	.LVL126:
 755              	.L61:
 756              		.loc 1 175 0
 757 030e 0121     		movs	r1, #1
 758 0310 C9E6     		b	.L28
 759              	.LVL127:
 760              	.L97:
 761              		.loc 1 200 0
 762 0312 1968     		ldr	r1, [r3, #0]
 763              	.LVL128:
 764 0314 0792     		str	r2, [sp, #28]
 765              		.loc 1 203 0
 766 0316 0029     		cmp	r1, #0
 767 0318 E1DA     		bge	.L66
 768              	.L98:
 769              		.loc 1 204 0
 770 031a 2D23     		movs	r3, #45
 771 031c 8DF82030 		strb	r3, [sp, #32]
 772              	.LVL129:
 773              		.loc 1 205 0
 774 0320 4942     		negs	r1, r1
 775              	.LVL130:
 776              		.loc 1 204 0
 777 0322 0DF12100 		add	r0, sp, #33
 778              	.LVL131:
 779 0326 DBE7     		b	.L45
 780              	.LVL132:
 781              	.L95:
 782              		.loc 1 247 0 discriminator 1
 783 0328 302F     		cmp	r7, #48
 784 032a B1D1     		bne	.L74
 785              		.loc 1 248 0
 786 032c 3368     		ldr	r3, [r6, #0]
 787 032e 3046     		mov	r0, r6
 788 0330 9B68     		ldr	r3, [r3, #8]
 789 0332 9847     		blx	r3
 790              	.LVL133:
 791 0334 0AF1010A 		add	sl, sl, #1
 792              	.LVL134:
 793              		.loc 1 249 0
 794 0338 0BF1FF3B 		add	fp, fp, #-1
 795              	.LVL135:
 796 033c A8E7     		b	.L74
 797              	.LVL136:
 798              	.L92:
ARM GAS  C:\Users\LAB_ME~1\AppData\Local\Temp\cc4OwA5n.s 			page 15


 799 033e CAEB000B 		rsb	fp, sl, r0
 800              		.loc 1 189 0
 801 0342 2027     		movs	r7, #32
 802 0344 96E7     		b	.L38
 803              	.LVL137:
 804              	.L94:
 805              		.loc 1 213 0
 806 0346 2D23     		movs	r3, #45
 807              		.loc 1 214 0
 808 0348 0BF1004B 		add	fp, fp, #-2147483648
 809              	.LVL138:
 810              		.loc 1 213 0
 811 034c 8DF82030 		strb	r3, [sp, #32]
 812              	.LVL139:
 813 0350 0DF1210A 		add	sl, sp, #33
 814 0354 52E7     		b	.L46
 815              	.LVL140:
 816              	.L65:
 817              		.loc 1 194 0
 818 0356 9346     		mov	fp, r2
 819              		.loc 1 189 0
 820 0358 2027     		movs	r7, #32
 821 035a 8BE7     		b	.L38
 822              	.L100:
 823 035c AFF30080 		.align	3
 824              	.L99:
 825 0360 00000000 		.word	0
 826 0364 006AF840 		.word	1090021888
 827 0368 00000000 		.word	.LC0
 828              		.cfi_endproc
 829              	.LFE10:
 830              		.size	chprintf, .-chprintf
 831 036c AFF30080 		.section	.rodata.str1.4,"aMS",%progbits,1
 832              		.align	2
 833              	.LC0:
 834 0000 286E756C 		.ascii	"(null)\000"
 834      6C2900
 835 0007 00       		.text
 836              	.Letext0:
 837              		.file 2 "c:\\program files (x86)\\codesourcery\\sourcery_codebench_lite_for_arm_eabi\\bin\\../lib/
 838              		.file 3 "c:\\program files (x86)\\codesourcery\\sourcery_codebench_lite_for_arm_eabi\\bin\\../lib/
 839              		.file 4 "c:\\program files (x86)\\codesourcery\\sourcery_codebench_lite_for_arm_eabi\\bin\\../lib/
 840              		.file 5 "../../os/ports/GCC/ARMCMx/chtypes.h"
 841              		.file 6 "<built-in>"
 842              		.file 7 "../../os/kernel/include/chstreams.h"