ARM GAS  C:\Users\LAB_ME~1\AppData\Local\Temp\cciO7git.s 			page 1


   1              		.syntax unified
   2              		.cpu cortex-m4
   3              		.fpu softvfp
   4              		.eabi_attribute 20, 1
   5              		.eabi_attribute 21, 1
   6              		.eabi_attribute 23, 3
   7              		.eabi_attribute 24, 1
   8              		.eabi_attribute 25, 1
   9              		.eabi_attribute 26, 1
  10              		.eabi_attribute 30, 2
  11              		.eabi_attribute 34, 1
  12              		.eabi_attribute 18, 4
  13              		.thumb
  14              		.file	"chqueues.c"
  15              		.text
  16              	.Ltext0:
  17              		.cfi_sections	.debug_frame
  18              		.section	.text.qwait,"ax",%progbits
  19              		.align	2
  20              		.p2align 4,,15
  21              		.thumb
  22              		.thumb_func
  23              		.type	qwait, %function
  24              	qwait:
  25              	.LFB7:
  26              		.file 1 "../../os/kernel/src/chqueues.c"
  27              		.loc 1 63 0
  28              		.cfi_startproc
  29              		@ args = 0, pretend = 0, frame = 0
  30              		@ frame_needed = 0, uses_anonymous_args = 0
  31              		@ link register save eliminated.
  32              	.LVL0:
  33 0000 10B4     		push	{r4}
  34              	.LCFI0:
  35              		.cfi_def_cfa_offset 4
  36              		.cfi_offset 4, -4
  37              		.loc 1 63 0
  38 0002 0246     		mov	r2, r0
  39              		.loc 1 65 0
  40 0004 59B1     		cbz	r1, .L2
  41              		.loc 1 67 0
  42 0006 084B     		ldr	r3, .L4
  43 0008 9B69     		ldr	r3, [r3, #24]
  44 000a 5862     		str	r0, [r3, #36]
  45              	.LVL1:
  46              	.LBB12:
  47              	.LBB13:
  48              		.file 2 "../../os/kernel/include/chinline.h"
  49              		.loc 2 48 0
  50 000c 4468     		ldr	r4, [r0, #4]
  51              	.LBE13:
  52              	.LBE12:
  53              		.loc 1 69 0
  54 000e 0D20     		movs	r0, #13
  55              	.LVL2:
  56              	.LBB15:
  57              	.LBB14:
ARM GAS  C:\Users\LAB_ME~1\AppData\Local\Temp\cciO7git.s 			page 2


  58              		.loc 2 48 0
  59 0010 83E81400 		stmia	r3, {r2, r4}
  60              		.loc 2 49 0
  61 0014 5360     		str	r3, [r2, #4]
  62 0016 2360     		str	r3, [r4, #0]
  63              	.LBE14:
  64              	.LBE15:
  65              		.loc 1 70 0
  66 0018 10BC     		pop	{r4}
  67              		.loc 1 69 0
  68 001a FFF7FEBF 		b	chSchGoSleepTimeoutS
  69              	.LVL3:
  70              	.L2:
  71              		.loc 1 70 0
  72 001e 4FF0FF30 		mov	r0, #-1
  73              	.LVL4:
  74 0022 10BC     		pop	{r4}
  75 0024 7047     		bx	lr
  76              	.L5:
  77 0026 00BF     		.align	2
  78              	.L4:
  79 0028 00000000 		.word	rlist
  80              		.cfi_endproc
  81              	.LFE7:
  82              		.size	qwait, .-qwait
  83 002c AFF30080 		.section	.text.chIQInit,"ax",%progbits
  84              		.align	2
  85              		.p2align 4,,15
  86              		.global	chIQInit
  87              		.thumb
  88              		.thumb_func
  89              		.type	chIQInit, %function
  90              	chIQInit:
  91              	.LFB8:
  92              		.loc 1 89 0
  93              		.cfi_startproc
  94              		@ args = 4, pretend = 0, frame = 0
  95              		@ frame_needed = 0, uses_anonymous_args = 0
  96              		@ link register save eliminated.
  97              	.LVL5:
  98 0000 10B4     		push	{r4}
  99              	.LCFI1:
 100              		.cfi_def_cfa_offset 4
 101              		.cfi_offset 4, -4
 102              		.loc 1 95 0
 103 0002 C361     		str	r3, [r0, #28]
 104              		.loc 1 96 0
 105 0004 019B     		ldr	r3, [sp, #4]
 106              	.LVL6:
 107              		.loc 1 91 0
 108 0006 4060     		str	r0, [r0, #4]
 109              		.loc 1 94 0
 110 0008 8A18     		adds	r2, r1, r2
 111              	.LVL7:
 112              		.loc 1 92 0
 113 000a 0024     		movs	r4, #0
 114              		.loc 1 91 0
ARM GAS  C:\Users\LAB_ME~1\AppData\Local\Temp\cciO7git.s 			page 3


 115 000c 0060     		str	r0, [r0, #0]
 116              		.loc 1 92 0
 117 000e 8460     		str	r4, [r0, #8]
 118              		.loc 1 93 0
 119 0010 4161     		str	r1, [r0, #20]
 120 0012 8161     		str	r1, [r0, #24]
 121 0014 C160     		str	r1, [r0, #12]
 122              		.loc 1 94 0
 123 0016 0261     		str	r2, [r0, #16]
 124              		.loc 1 96 0
 125 0018 0362     		str	r3, [r0, #32]
 126              		.loc 1 97 0
 127 001a 10BC     		pop	{r4}
 128 001c 7047     		bx	lr
 129              		.cfi_endproc
 130              	.LFE8:
 131              		.size	chIQInit, .-chIQInit
 132 001e 00BF     		.section	.text.chIQResetI,"ax",%progbits
 133              		.align	2
 134              		.p2align 4,,15
 135              		.global	chIQResetI
 136              		.thumb
 137              		.thumb_func
 138              		.type	chIQResetI, %function
 139              	chIQResetI:
 140              	.LFB9:
 141              		.loc 1 110 0
 142              		.cfi_startproc
 143              		@ args = 0, pretend = 0, frame = 0
 144              		@ frame_needed = 0, uses_anonymous_args = 0
 145              	.LVL8:
 146 0000 38B5     		push	{r3, r4, r5, lr}
 147              	.LCFI2:
 148              		.cfi_def_cfa_offset 16
 149              		.cfi_offset 3, -16
 150              		.cfi_offset 4, -12
 151              		.cfi_offset 5, -8
 152              		.cfi_offset 14, -4
 153              		.loc 1 110 0
 154 0002 0446     		mov	r4, r0
 155              		.loc 1 114 0
 156 0004 C368     		ldr	r3, [r0, #12]
 157              		.loc 1 116 0
 158 0006 0068     		ldr	r0, [r0, #0]
 159              	.LVL9:
 160              		.loc 1 114 0
 161 0008 6361     		str	r3, [r4, #20]
 162 000a A361     		str	r3, [r4, #24]
 163              		.loc 1 115 0
 164 000c 0023     		movs	r3, #0
 165              		.loc 1 116 0
 166 000e A042     		cmp	r0, r4
 167              		.loc 1 115 0
 168 0010 A360     		str	r3, [r4, #8]
 169              		.loc 1 116 0
 170 0012 0AD0     		beq	.L7
 171              		.loc 1 117 0
ARM GAS  C:\Users\LAB_ME~1\AppData\Local\Temp\cciO7git.s 			page 4


 172 0014 6FF00105 		mvn	r5, #1
 173              	.L11:
 174              	.LVL10:
 175              	.LBB16:
 176              	.LBB17:
 177              		.loc 2 55 0
 178 0018 0368     		ldr	r3, [r0, #0]
 179 001a 2360     		str	r3, [r4, #0]
 180 001c 5C60     		str	r4, [r3, #4]
 181              	.LBE17:
 182              	.LBE16:
 183              		.loc 1 117 0
 184 001e FFF7FEFF 		bl	chSchReadyI
 185              	.LVL11:
 186 0022 4562     		str	r5, [r0, #36]
 187              		.loc 1 116 0
 188 0024 2068     		ldr	r0, [r4, #0]
 189 0026 A042     		cmp	r0, r4
 190 0028 F6D1     		bne	.L11
 191              	.LVL12:
 192              	.L7:
 193 002a 38BD     		pop	{r3, r4, r5, pc}
 194              		.cfi_endproc
 195              	.LFE9:
 196              		.size	chIQResetI, .-chIQResetI
 197 002c AFF30080 		.section	.text.chIQPutI,"ax",%progbits
 198              		.align	2
 199              		.p2align 4,,15
 200              		.global	chIQPutI
 201              		.thumb
 202              		.thumb_func
 203              		.type	chIQPutI, %function
 204              	chIQPutI:
 205              	.LFB10:
 206              		.loc 1 133 0
 207              		.cfi_startproc
 208              		@ args = 0, pretend = 0, frame = 0
 209              		@ frame_needed = 0, uses_anonymous_args = 0
 210              	.LVL13:
 211              		.loc 1 137 0
 212 0000 4269     		ldr	r2, [r0, #20]
 213              		.loc 1 133 0
 214 0002 08B5     		push	{r3, lr}
 215              	.LCFI3:
 216              		.cfi_def_cfa_offset 8
 217              		.cfi_offset 3, -8
 218              		.cfi_offset 14, -4
 219              		.loc 1 133 0
 220 0004 0346     		mov	r3, r0
 221              		.loc 1 137 0
 222 0006 8069     		ldr	r0, [r0, #24]
 223              	.LVL14:
 224 0008 8242     		cmp	r2, r0
 225 000a 9868     		ldr	r0, [r3, #8]
 226 000c 18D0     		beq	.L14
 227              	.L15:
 228              		.loc 1 140 0
ARM GAS  C:\Users\LAB_ME~1\AppData\Local\Temp\cciO7git.s 			page 5


 229 000e 0130     		adds	r0, r0, #1
 230 0010 9860     		str	r0, [r3, #8]
 231              		.loc 1 141 0
 232 0012 02F8011B 		strb	r1, [r2], #1
 233              		.loc 1 142 0
 234 0016 1969     		ldr	r1, [r3, #16]
 235              	.LVL15:
 236              		.loc 1 141 0
 237 0018 5A61     		str	r2, [r3, #20]
 238              		.loc 1 142 0
 239 001a 8A42     		cmp	r2, r1
 240              		.loc 1 143 0
 241 001c 28BF     		it	cs
 242 001e DA68     		ldrcs	r2, [r3, #12]
 243              		.loc 1 145 0
 244 0020 1868     		ldr	r0, [r3, #0]
 245              		.loc 1 143 0
 246 0022 28BF     		it	cs
 247 0024 5A61     		strcs	r2, [r3, #20]
 248              		.loc 1 145 0
 249 0026 9842     		cmp	r0, r3
 250 0028 08D0     		beq	.L19
 251              	.LVL16:
 252              	.LBB18:
 253              	.LBB19:
 254              		.loc 2 55 0
 255 002a 0268     		ldr	r2, [r0, #0]
 256 002c 1A60     		str	r2, [r3, #0]
 257 002e 5360     		str	r3, [r2, #4]
 258              	.LBE19:
 259              	.LBE18:
 260              		.loc 1 146 0
 261 0030 FFF7FEFF 		bl	chSchReadyI
 262              	.LVL17:
 263 0034 0023     		movs	r3, #0
 264 0036 4362     		str	r3, [r0, #36]
 265              		.loc 1 148 0
 266 0038 1846     		mov	r0, r3
 267 003a 08BD     		pop	{r3, pc}
 268              	.LVL18:
 269              	.L19:
 270 003c 0020     		movs	r0, #0
 271              		.loc 1 149 0
 272 003e 08BD     		pop	{r3, pc}
 273              	.LVL19:
 274              	.L14:
 275              		.loc 1 137 0 discriminator 1
 276 0040 0028     		cmp	r0, #0
 277 0042 E4D0     		beq	.L15
 278              		.loc 1 138 0
 279 0044 6FF00300 		mvn	r0, #3
 280 0048 08BD     		pop	{r3, pc}
 281              		.cfi_endproc
 282              	.LFE10:
 283              		.size	chIQPutI, .-chIQPutI
 284 004a 00BFAFF3 		.section	.text.chIQGetTimeout,"ax",%progbits
 284      0080
ARM GAS  C:\Users\LAB_ME~1\AppData\Local\Temp\cciO7git.s 			page 6


 285              		.align	2
 286              		.p2align 4,,15
 287              		.global	chIQGetTimeout
 288              		.thumb
 289              		.thumb_func
 290              		.type	chIQGetTimeout, %function
 291              	chIQGetTimeout:
 292              	.LFB11:
 293              		.loc 1 171 0
 294              		.cfi_startproc
 295              		@ args = 0, pretend = 0, frame = 0
 296              		@ frame_needed = 0, uses_anonymous_args = 0
 297              	.LVL20:
 298 0000 70B5     		push	{r4, r5, r6, lr}
 299              	.LCFI4:
 300              		.cfi_def_cfa_offset 16
 301              		.cfi_offset 4, -16
 302              		.cfi_offset 5, -12
 303              		.cfi_offset 6, -8
 304              		.cfi_offset 14, -4
 305              	.LBB20:
 306              		.loc 1 174 0
 307 0002 2023     		movs	r3, #32
 308              	.LVL21:
 309              	.LBE20:
 310              		.loc 1 171 0
 311 0004 0446     		mov	r4, r0
 312 0006 0E46     		mov	r6, r1
 313              	.LBB21:
 314              		.loc 1 174 0
 315              	@ 174 "../../os/kernel/src/chqueues.c" 1
 316 0008 83F31188 		msr     BASEPRI, r3
 317              	@ 0 "" 2
 318              	.LVL22:
 319              		.thumb
 320              	.LBE21:
 321              		.loc 1 175 0
 322 000c C369     		ldr	r3, [r0, #28]
 323              	.LVL23:
 324 000e 03B1     		cbz	r3, .L28
 325              		.loc 1 176 0
 326 0010 9847     		blx	r3
 327              	.LVL24:
 328              	.L28:
 329              		.loc 1 178 0 discriminator 1
 330 0012 A568     		ldr	r5, [r4, #8]
 331              	.LBB22:
 332              		.loc 1 180 0 discriminator 1
 333 0014 2046     		mov	r0, r4
 334 0016 3146     		mov	r1, r6
 335              	.LBE22:
 336              		.loc 1 178 0 discriminator 1
 337 0018 3DB9     		cbnz	r5, .L31
 338              	.LVL25:
 339              	.LBB24:
 340              		.loc 1 180 0
 341 001a FFF7FEFF 		bl	qwait
ARM GAS  C:\Users\LAB_ME~1\AppData\Local\Temp\cciO7git.s 			page 7


 342              	.LVL26:
 343 001e 0028     		cmp	r0, #0
 344 0020 F7DA     		bge	.L28
 345              	.LBB23:
 346              		.loc 1 181 0
 347 0022 2B46     		mov	r3, r5
 348              	.LVL27:
 349              	@ 181 "../../os/kernel/src/chqueues.c" 1
 350 0024 83F31188 		msr     BASEPRI, r3
 351              	@ 0 "" 2
 352              	.LVL28:
 353              		.thumb
 354              	.LBE23:
 355              		.loc 1 182 0
 356 0028 70BD     		pop	{r4, r5, r6, pc}
 357              	.LVL29:
 358              	.L31:
 359              	.LBE24:
 360              		.loc 1 187 0
 361 002a A369     		ldr	r3, [r4, #24]
 362              		.loc 1 188 0
 363 002c 2269     		ldr	r2, [r4, #16]
 364              		.loc 1 186 0
 365 002e 013D     		subs	r5, r5, #1
 366 0030 A560     		str	r5, [r4, #8]
 367              		.loc 1 187 0
 368 0032 13F8010B 		ldrb	r0, [r3], #1	@ zero_extendqisi2
 369              	.LVL30:
 370              		.loc 1 188 0
 371 0036 9342     		cmp	r3, r2
 372              		.loc 1 187 0
 373 0038 A361     		str	r3, [r4, #24]
 374              		.loc 1 189 0
 375 003a 24BF     		itt	cs
 376 003c E368     		ldrcs	r3, [r4, #12]
 377 003e A361     		strcs	r3, [r4, #24]
 378              	.LBB25:
 379              		.loc 1 191 0
 380 0040 0023     		movs	r3, #0
 381              	.LVL31:
 382              	@ 191 "../../os/kernel/src/chqueues.c" 1
 383 0042 83F31188 		msr     BASEPRI, r3
 384              	@ 0 "" 2
 385              	.LVL32:
 386              		.thumb
 387              	.LBE25:
 388              		.loc 1 193 0
 389 0046 70BD     		pop	{r4, r5, r6, pc}
 390              		.cfi_endproc
 391              	.LFE11:
 392              		.size	chIQGetTimeout, .-chIQGetTimeout
 393 0048 AFF30080 		.section	.text.chIQReadTimeout,"ax",%progbits
 393      AFF30080 
 394              		.align	2
 395              		.p2align 4,,15
 396              		.global	chIQReadTimeout
 397              		.thumb
ARM GAS  C:\Users\LAB_ME~1\AppData\Local\Temp\cciO7git.s 			page 8


 398              		.thumb_func
 399              		.type	chIQReadTimeout, %function
 400              	chIQReadTimeout:
 401              	.LFB12:
 402              		.loc 1 220 0
 403              		.cfi_startproc
 404              		@ args = 0, pretend = 0, frame = 0
 405              		@ frame_needed = 0, uses_anonymous_args = 0
 406              	.LVL33:
 407 0000 2DE9F047 		push	{r4, r5, r6, r7, r8, r9, sl, lr}
 408              	.LCFI5:
 409              		.cfi_def_cfa_offset 32
 410              		.cfi_offset 4, -32
 411              		.cfi_offset 5, -28
 412              		.cfi_offset 6, -24
 413              		.cfi_offset 7, -20
 414              		.cfi_offset 8, -16
 415              		.cfi_offset 9, -12
 416              		.cfi_offset 10, -8
 417              		.cfi_offset 14, -4
 418              		.loc 1 220 0
 419 0004 1E46     		mov	r6, r3
 420 0006 0446     		mov	r4, r0
 421              		.loc 1 221 0
 422 0008 C769     		ldr	r7, [r0, #28]
 423              	.LVL34:
 424              	.LBB26:
 425              		.loc 1 226 0
 426 000a 2023     		movs	r3, #32
 427              	.LVL35:
 428              	@ 226 "../../os/kernel/src/chqueues.c" 1
 429 000c 83F31188 		msr     BASEPRI, r3
 430              	@ 0 "" 2
 431              	.LVL36:
 432              		.thumb
 433              	.LBE26:
 434              		.loc 1 222 0
 435 0010 4FF00008 		mov	r8, #0
 436              	.LBB27:
 437              		.loc 1 219 0
 438 0014 01F10109 		add	r9, r1, #1
 439 0018 01EB020A 		add	sl, r1, r2
 440              	.LVL37:
 441              	.L38:
 442              	.LBE27:
 443              		.loc 1 228 0
 444 001c 0FB1     		cbz	r7, .L43
 445              		.loc 1 229 0
 446 001e 2046     		mov	r0, r4
 447              	.LVL38:
 448 0020 B847     		blx	r7
 449              	.LVL39:
 450              	.L43:
 451              		.loc 1 231 0 discriminator 1
 452 0022 A568     		ldr	r5, [r4, #8]
 453              		.loc 1 232 0 discriminator 1
 454 0024 2046     		mov	r0, r4
ARM GAS  C:\Users\LAB_ME~1\AppData\Local\Temp\cciO7git.s 			page 9


 455 0026 3146     		mov	r1, r6
 456              		.loc 1 231 0 discriminator 1
 457 0028 4DB9     		cbnz	r5, .L47
 458              	.LVL40:
 459              		.loc 1 232 0
 460 002a FFF7FEFF 		bl	qwait
 461              	.LVL41:
 462 002e 0028     		cmp	r0, #0
 463 0030 F7D0     		beq	.L43
 464              	.LBB28:
 465              		.loc 1 233 0
 466 0032 2B46     		mov	r3, r5
 467              	.LVL42:
 468              	@ 233 "../../os/kernel/src/chqueues.c" 1
 469 0034 83F31188 		msr     BASEPRI, r3
 470              	@ 0 "" 2
 471              	.LVL43:
 472              		.thumb
 473              	.L35:
 474              	.LBE28:
 475              		.loc 1 250 0
 476 0038 4046     		mov	r0, r8
 477 003a BDE8F087 		pop	{r4, r5, r6, r7, r8, r9, sl, pc}
 478              	.LVL44:
 479              	.L47:
 480              		.loc 1 239 0
 481 003e A369     		ldr	r3, [r4, #24]
 482              	.LVL45:
 483              		.loc 1 238 0
 484 0040 013D     		subs	r5, r5, #1
 485 0042 A560     		str	r5, [r4, #8]
 486              		.loc 1 239 0
 487 0044 13F8012B 		ldrb	r2, [r3], #1	@ zero_extendqisi2
 488 0048 09F8012C 		strb	r2, [r9, #-1]
 489              		.loc 1 240 0
 490 004c 2269     		ldr	r2, [r4, #16]
 491              		.loc 1 239 0
 492 004e A361     		str	r3, [r4, #24]
 493              		.loc 1 240 0
 494 0050 9342     		cmp	r3, r2
 495              		.loc 1 241 0
 496 0052 24BF     		itt	cs
 497 0054 E368     		ldrcs	r3, [r4, #12]
 498 0056 A361     		strcs	r3, [r4, #24]
 499              	.LBB29:
 500              		.loc 1 243 0
 501 0058 0023     		movs	r3, #0
 502              	@ 243 "../../os/kernel/src/chqueues.c" 1
 503 005a 83F31188 		msr     BASEPRI, r3
 504              	@ 0 "" 2
 505              	.LVL46:
 506              		.thumb
 507              	.LBE29:
 508              		.loc 1 245 0
 509 005e D145     		cmp	r9, sl
 510              		.loc 1 244 0
 511 0060 08F10108 		add	r8, r8, #1
ARM GAS  C:\Users\LAB_ME~1\AppData\Local\Temp\cciO7git.s 			page 10


 512              	.LVL47:
 513              		.loc 1 245 0
 514 0064 E8D0     		beq	.L35
 515              	.LBB30:
 516              		.loc 1 248 0
 517 0066 2023     		movs	r3, #32
 518              	.LVL48:
 519              	@ 248 "../../os/kernel/src/chqueues.c" 1
 520 0068 83F31188 		msr     BASEPRI, r3
 521              	@ 0 "" 2
 522              	.LVL49:
 523              		.thumb
 524 006c 09F10109 		add	r9, r9, #1
 525              	.LBE30:
 526              		.loc 1 249 0
 527 0070 D4E7     		b	.L38
 528              		.cfi_endproc
 529              	.LFE12:
 530              		.size	chIQReadTimeout, .-chIQReadTimeout
 531 0072 00BFAFF3 		.section	.text.chOQInit,"ax",%progbits
 531      0080AFF3 
 531      0080AFF3 
 531      0080
 532              		.align	2
 533              		.p2align 4,,15
 534              		.global	chOQInit
 535              		.thumb
 536              		.thumb_func
 537              		.type	chOQInit, %function
 538              	chOQInit:
 539              	.LFB13:
 540              		.loc 1 269 0
 541              		.cfi_startproc
 542              		@ args = 4, pretend = 0, frame = 0
 543              		@ frame_needed = 0, uses_anonymous_args = 0
 544              		@ link register save eliminated.
 545              	.LVL50:
 546 0000 10B4     		push	{r4}
 547              	.LCFI6:
 548              		.cfi_def_cfa_offset 4
 549              		.cfi_offset 4, -4
 550              		.loc 1 275 0
 551 0002 C361     		str	r3, [r0, #28]
 552              		.loc 1 276 0
 553 0004 019B     		ldr	r3, [sp, #4]
 554              	.LVL51:
 555              		.loc 1 271 0
 556 0006 4060     		str	r0, [r0, #4]
 557              		.loc 1 274 0
 558 0008 8C18     		adds	r4, r1, r2
 559              		.loc 1 271 0
 560 000a 0060     		str	r0, [r0, #0]
 561              		.loc 1 272 0
 562 000c 8260     		str	r2, [r0, #8]
 563              		.loc 1 273 0
 564 000e 4161     		str	r1, [r0, #20]
 565 0010 8161     		str	r1, [r0, #24]
ARM GAS  C:\Users\LAB_ME~1\AppData\Local\Temp\cciO7git.s 			page 11


 566 0012 C160     		str	r1, [r0, #12]
 567              		.loc 1 274 0
 568 0014 0461     		str	r4, [r0, #16]
 569              		.loc 1 276 0
 570 0016 0362     		str	r3, [r0, #32]
 571              		.loc 1 277 0
 572 0018 10BC     		pop	{r4}
 573 001a 7047     		bx	lr
 574              		.cfi_endproc
 575              	.LFE13:
 576              		.size	chOQInit, .-chOQInit
 577 001c AFF30080 		.section	.text.chOQResetI,"ax",%progbits
 578              		.align	2
 579              		.p2align 4,,15
 580              		.global	chOQResetI
 581              		.thumb
 582              		.thumb_func
 583              		.type	chOQResetI, %function
 584              	chOQResetI:
 585              	.LFB14:
 586              		.loc 1 290 0
 587              		.cfi_startproc
 588              		@ args = 0, pretend = 0, frame = 0
 589              		@ frame_needed = 0, uses_anonymous_args = 0
 590              	.LVL52:
 591 0000 38B5     		push	{r3, r4, r5, lr}
 592              	.LCFI7:
 593              		.cfi_def_cfa_offset 16
 594              		.cfi_offset 3, -16
 595              		.cfi_offset 4, -12
 596              		.cfi_offset 5, -8
 597              		.cfi_offset 14, -4
 598              		.loc 1 295 0
 599 0002 0269     		ldr	r2, [r0, #16]
 600              		.loc 1 294 0
 601 0004 C368     		ldr	r3, [r0, #12]
 602              		.loc 1 290 0
 603 0006 0446     		mov	r4, r0
 604              		.loc 1 296 0
 605 0008 0068     		ldr	r0, [r0, #0]
 606              	.LVL53:
 607              		.loc 1 294 0
 608 000a 6361     		str	r3, [r4, #20]
 609              		.loc 1 295 0
 610 000c D21A     		subs	r2, r2, r3
 611              		.loc 1 296 0
 612 000e A042     		cmp	r0, r4
 613              		.loc 1 294 0
 614 0010 A361     		str	r3, [r4, #24]
 615              		.loc 1 295 0
 616 0012 A260     		str	r2, [r4, #8]
 617              		.loc 1 296 0
 618 0014 0AD0     		beq	.L49
 619              		.loc 1 297 0
 620 0016 6FF00105 		mvn	r5, #1
 621              	.L53:
 622              	.LVL54:
ARM GAS  C:\Users\LAB_ME~1\AppData\Local\Temp\cciO7git.s 			page 12


 623              	.LBB31:
 624              	.LBB32:
 625              		.loc 2 55 0
 626 001a 0368     		ldr	r3, [r0, #0]
 627 001c 2360     		str	r3, [r4, #0]
 628 001e 5C60     		str	r4, [r3, #4]
 629              	.LBE32:
 630              	.LBE31:
 631              		.loc 1 297 0
 632 0020 FFF7FEFF 		bl	chSchReadyI
 633              	.LVL55:
 634 0024 4562     		str	r5, [r0, #36]
 635              		.loc 1 296 0
 636 0026 2068     		ldr	r0, [r4, #0]
 637 0028 A042     		cmp	r0, r4
 638 002a F6D1     		bne	.L53
 639              	.LVL56:
 640              	.L49:
 641 002c 38BD     		pop	{r3, r4, r5, pc}
 642              		.cfi_endproc
 643              	.LFE14:
 644              		.size	chOQResetI, .-chOQResetI
 645 002e 00BF     		.section	.text.chOQPutTimeout,"ax",%progbits
 646              		.align	2
 647              		.p2align 4,,15
 648              		.global	chOQPutTimeout
 649              		.thumb
 650              		.thumb_func
 651              		.type	chOQPutTimeout, %function
 652              	chOQPutTimeout:
 653              	.LFB15:
 654              		.loc 1 322 0
 655              		.cfi_startproc
 656              		@ args = 0, pretend = 0, frame = 0
 657              		@ frame_needed = 0, uses_anonymous_args = 0
 658              	.LVL57:
 659 0000 F8B5     		push	{r3, r4, r5, r6, r7, lr}
 660              	.LCFI8:
 661              		.cfi_def_cfa_offset 24
 662              		.cfi_offset 3, -24
 663              		.cfi_offset 4, -20
 664              		.cfi_offset 5, -16
 665              		.cfi_offset 6, -12
 666              		.cfi_offset 7, -8
 667              		.cfi_offset 14, -4
 668              		.loc 1 322 0
 669 0002 0446     		mov	r4, r0
 670 0004 0F46     		mov	r7, r1
 671 0006 1646     		mov	r6, r2
 672              	.LBB33:
 673              		.loc 1 324 0
 674 0008 2023     		movs	r3, #32
 675              	.LVL58:
 676              	@ 324 "../../os/kernel/src/chqueues.c" 1
 677 000a 83F31188 		msr     BASEPRI, r3
 678              	@ 0 "" 2
 679              	.LVL59:
ARM GAS  C:\Users\LAB_ME~1\AppData\Local\Temp\cciO7git.s 			page 13


 680              		.thumb
 681              	.L56:
 682              	.LBE33:
 683              		.loc 1 325 0 discriminator 1
 684 000e A568     		ldr	r5, [r4, #8]
 685              	.LBB34:
 686              		.loc 1 328 0 discriminator 1
 687 0010 2046     		mov	r0, r4
 688 0012 3146     		mov	r1, r6
 689              	.LBE34:
 690              		.loc 1 325 0 discriminator 1
 691 0014 3DB9     		cbnz	r5, .L65
 692              	.LVL60:
 693              	.LBB36:
 694              		.loc 1 328 0
 695 0016 FFF7FEFF 		bl	qwait
 696              	.LVL61:
 697 001a 0028     		cmp	r0, #0
 698 001c F7DA     		bge	.L56
 699              	.LBB35:
 700              		.loc 1 329 0
 701 001e 2B46     		mov	r3, r5
 702              	.LVL62:
 703              	@ 329 "../../os/kernel/src/chqueues.c" 1
 704 0020 83F31188 		msr     BASEPRI, r3
 705              	@ 0 "" 2
 706              	.LVL63:
 707              		.thumb
 708              	.LBE35:
 709              		.loc 1 330 0
 710 0024 F8BD     		pop	{r3, r4, r5, r6, r7, pc}
 711              	.LVL64:
 712              	.L65:
 713              	.LBE36:
 714              		.loc 1 335 0
 715 0026 6369     		ldr	r3, [r4, #20]
 716              	.LVL65:
 717              		.loc 1 334 0
 718 0028 013D     		subs	r5, r5, #1
 719 002a A560     		str	r5, [r4, #8]
 720              		.loc 1 335 0
 721 002c 03F8017B 		strb	r7, [r3], #1
 722              		.loc 1 336 0
 723 0030 2269     		ldr	r2, [r4, #16]
 724              		.loc 1 335 0
 725 0032 6361     		str	r3, [r4, #20]
 726              		.loc 1 336 0
 727 0034 9342     		cmp	r3, r2
 728              		.loc 1 337 0
 729 0036 24BF     		itt	cs
 730 0038 E368     		ldrcs	r3, [r4, #12]
 731 003a 6361     		strcs	r3, [r4, #20]
 732              		.loc 1 339 0
 733 003c E369     		ldr	r3, [r4, #28]
 734 003e 0BB1     		cbz	r3, .L60
 735              		.loc 1 340 0
 736 0040 2046     		mov	r0, r4
ARM GAS  C:\Users\LAB_ME~1\AppData\Local\Temp\cciO7git.s 			page 14


 737              	.LVL66:
 738 0042 9847     		blx	r3
 739              	.LVL67:
 740              	.L60:
 741              	.LBB37:
 742              		.loc 1 342 0
 743 0044 0023     		movs	r3, #0
 744              	.LVL68:
 745              	@ 342 "../../os/kernel/src/chqueues.c" 1
 746 0046 83F31188 		msr     BASEPRI, r3
 747              	@ 0 "" 2
 748              	.LVL69:
 749              		.thumb
 750              	.LBE37:
 751              		.loc 1 343 0
 752 004a 1846     		mov	r0, r3
 753              		.loc 1 344 0
 754 004c F8BD     		pop	{r3, r4, r5, r6, r7, pc}
 755              		.cfi_endproc
 756              	.LFE15:
 757              		.size	chOQPutTimeout, .-chOQPutTimeout
 758 004e 00BF     		.section	.text.chOQGetI,"ax",%progbits
 759              		.align	2
 760              		.p2align 4,,15
 761              		.global	chOQGetI
 762              		.thumb
 763              		.thumb_func
 764              		.type	chOQGetI, %function
 765              	chOQGetI:
 766              	.LFB16:
 767              		.loc 1 356 0
 768              		.cfi_startproc
 769              		@ args = 0, pretend = 0, frame = 0
 770              		@ frame_needed = 0, uses_anonymous_args = 0
 771              	.LVL70:
 772              		.loc 1 361 0
 773 0000 4169     		ldr	r1, [r0, #20]
 774 0002 8269     		ldr	r2, [r0, #24]
 775 0004 9142     		cmp	r1, r2
 776              		.loc 1 356 0
 777 0006 10B5     		push	{r4, lr}
 778              	.LCFI9:
 779              		.cfi_def_cfa_offset 8
 780              		.cfi_offset 4, -8
 781              		.cfi_offset 14, -4
 782              		.loc 1 356 0
 783 0008 0346     		mov	r3, r0
 784              		.loc 1 361 0
 785 000a 8168     		ldr	r1, [r0, #8]
 786 000c 16D0     		beq	.L67
 787              	.L68:
 788              		.loc 1 364 0
 789 000e 0131     		adds	r1, r1, #1
 790 0010 9960     		str	r1, [r3, #8]
 791              		.loc 1 365 0
 792 0012 12F8014B 		ldrb	r4, [r2], #1	@ zero_extendqisi2
 793              	.LVL71:
ARM GAS  C:\Users\LAB_ME~1\AppData\Local\Temp\cciO7git.s 			page 15


 794              		.loc 1 366 0
 795 0016 1969     		ldr	r1, [r3, #16]
 796              		.loc 1 365 0
 797 0018 9A61     		str	r2, [r3, #24]
 798              		.loc 1 366 0
 799 001a 8A42     		cmp	r2, r1
 800              		.loc 1 367 0
 801 001c 28BF     		it	cs
 802 001e DA68     		ldrcs	r2, [r3, #12]
 803              		.loc 1 369 0
 804 0020 1868     		ldr	r0, [r3, #0]
 805              	.LVL72:
 806              		.loc 1 367 0
 807 0022 28BF     		it	cs
 808 0024 9A61     		strcs	r2, [r3, #24]
 809              		.loc 1 369 0
 810 0026 9842     		cmp	r0, r3
 811 0028 06D0     		beq	.L71
 812              	.LVL73:
 813              	.LBB38:
 814              	.LBB39:
 815              		.loc 2 55 0
 816 002a 0268     		ldr	r2, [r0, #0]
 817 002c 1A60     		str	r2, [r3, #0]
 818 002e 5360     		str	r3, [r2, #4]
 819              	.LBE39:
 820              	.LBE38:
 821              		.loc 1 370 0
 822 0030 FFF7FEFF 		bl	chSchReadyI
 823              	.LVL74:
 824 0034 0023     		movs	r3, #0
 825 0036 4362     		str	r3, [r0, #36]
 826              	.LVL75:
 827              	.L71:
 828              		.loc 1 372 0
 829 0038 2046     		mov	r0, r4
 830 003a 10BD     		pop	{r4, pc}
 831              	.LVL76:
 832              	.L67:
 833              		.loc 1 361 0 discriminator 1
 834 003c 0029     		cmp	r1, #0
 835 003e E6D0     		beq	.L68
 836              		.loc 1 362 0
 837 0040 6FF00200 		mvn	r0, #2
 838              	.LVL77:
 839              		.loc 1 373 0
 840 0044 10BD     		pop	{r4, pc}
 841              		.cfi_endproc
 842              	.LFE16:
 843              		.size	chOQGetI, .-chOQGetI
 844              		.section	.text.chOQWriteTimeout,"ax",%progbits
 845              		.align	2
 846              		.p2align 4,,15
 847              		.global	chOQWriteTimeout
 848              		.thumb
 849              		.thumb_func
 850              		.type	chOQWriteTimeout, %function
ARM GAS  C:\Users\LAB_ME~1\AppData\Local\Temp\cciO7git.s 			page 16


 851              	chOQWriteTimeout:
 852              	.LFB17:
 853              		.loc 1 400 0
 854              		.cfi_startproc
 855              		@ args = 0, pretend = 0, frame = 0
 856              		@ frame_needed = 0, uses_anonymous_args = 0
 857              	.LVL78:
 858 0000 2DE9F047 		push	{r4, r5, r6, r7, r8, r9, sl, lr}
 859              	.LCFI10:
 860              		.cfi_def_cfa_offset 32
 861              		.cfi_offset 4, -32
 862              		.cfi_offset 5, -28
 863              		.cfi_offset 6, -24
 864              		.cfi_offset 7, -20
 865              		.cfi_offset 8, -16
 866              		.cfi_offset 9, -12
 867              		.cfi_offset 10, -8
 868              		.cfi_offset 14, -4
 869              		.loc 1 400 0
 870 0004 9A46     		mov	sl, r3
 871 0006 0446     		mov	r4, r0
 872 0008 8846     		mov	r8, r1
 873 000a 1646     		mov	r6, r2
 874              		.loc 1 401 0
 875 000c D0F81C90 		ldr	r9, [r0, #28]
 876              	.LVL79:
 877              	.LBB40:
 878              		.loc 1 406 0
 879 0010 2023     		movs	r3, #32
 880              	.LVL80:
 881              	@ 406 "../../os/kernel/src/chqueues.c" 1
 882 0012 83F31188 		msr     BASEPRI, r3
 883              	@ 0 "" 2
 884              	.LVL81:
 885              		.loc 1 402 0
 886              		.thumb
 887 0016 0027     		movs	r7, #0
 888              	.LVL82:
 889              	.L91:
 890              	.LBE40:
 891              		.loc 1 408 0 discriminator 1
 892 0018 A568     		ldr	r5, [r4, #8]
 893              		.loc 1 420 0 discriminator 1
 894 001a 2046     		mov	r0, r4
 895              		.loc 1 414 0 discriminator 1
 896 001c 6B1E     		subs	r3, r5, #1
 897              	.LVL83:
 898              		.loc 1 408 0 discriminator 1
 899 001e EDB1     		cbz	r5, .L77
 900              	.LVL84:
 901              	.L92:
 902              		.loc 1 414 0
 903 0020 A360     		str	r3, [r4, #8]
 904              		.loc 1 415 0
 905 0022 18F8013B 		ldrb	r3, [r8], #1	@ zero_extendqisi2
 906              	.LVL85:
 907 0026 6569     		ldr	r5, [r4, #20]
ARM GAS  C:\Users\LAB_ME~1\AppData\Local\Temp\cciO7git.s 			page 17


 908 0028 05F8013B 		strb	r3, [r5], #1
 909              		.loc 1 416 0
 910 002c 2369     		ldr	r3, [r4, #16]
 911              		.loc 1 415 0
 912 002e 6561     		str	r5, [r4, #20]
 913              	.LVL86:
 914              		.loc 1 416 0
 915 0030 9D42     		cmp	r5, r3
 916              		.loc 1 417 0
 917 0032 24BF     		itt	cs
 918 0034 E368     		ldrcs	r3, [r4, #12]
 919 0036 6361     		strcs	r3, [r4, #20]
 920              		.loc 1 419 0
 921 0038 B9F1000F 		cmp	r9, #0
 922 003c 00D0     		beq	.L79
 923              		.loc 1 420 0
 924 003e C847     		blx	r9
 925              	.LVL87:
 926              	.L79:
 927              	.LBB41:
 928              		.loc 1 422 0
 929 0040 0023     		movs	r3, #0
 930              	.LVL88:
 931              	@ 422 "../../os/kernel/src/chqueues.c" 1
 932 0042 83F31188 		msr     BASEPRI, r3
 933              	@ 0 "" 2
 934              	.LVL89:
 935              		.thumb
 936              	.LBE41:
 937              		.loc 1 423 0
 938 0046 0137     		adds	r7, r7, #1
 939              	.LVL90:
 940              		.loc 1 424 0
 941 0048 013E     		subs	r6, r6, #1
 942              	.LVL91:
 943 004a 10D0     		beq	.L76
 944              	.LBB42:
 945              		.loc 1 426 0
 946 004c 2023     		movs	r3, #32
 947              	.LVL92:
 948              	@ 426 "../../os/kernel/src/chqueues.c" 1
 949 004e 83F31188 		msr     BASEPRI, r3
 950              	@ 0 "" 2
 951              	.LVL93:
 952              		.thumb
 953              	.LBE42:
 954              		.loc 1 408 0
 955 0052 A568     		ldr	r5, [r4, #8]
 956              		.loc 1 420 0
 957 0054 2046     		mov	r0, r4
 958              		.loc 1 414 0
 959 0056 6B1E     		subs	r3, r5, #1
 960              	.LVL94:
 961              		.loc 1 408 0
 962 0058 002D     		cmp	r5, #0
 963 005a E1D1     		bne	.L92
 964              	.LVL95:
ARM GAS  C:\Users\LAB_ME~1\AppData\Local\Temp\cciO7git.s 			page 18


 965              	.L77:
 966              		.loc 1 409 0
 967 005c 2046     		mov	r0, r4
 968              	.LVL96:
 969 005e 5146     		mov	r1, sl
 970 0060 FFF7FEFF 		bl	qwait
 971              	.LVL97:
 972 0064 0028     		cmp	r0, #0
 973 0066 D7D0     		beq	.L91
 974              	.LBB43:
 975              		.loc 1 410 0
 976 0068 2B46     		mov	r3, r5
 977              	.LVL98:
 978              	@ 410 "../../os/kernel/src/chqueues.c" 1
 979 006a 83F31188 		msr     BASEPRI, r3
 980              	@ 0 "" 2
 981              	.LVL99:
 982              		.thumb
 983              	.L76:
 984              	.LBE43:
 985              		.loc 1 428 0
 986 006e 3846     		mov	r0, r7
 987 0070 BDE8F087 		pop	{r4, r5, r6, r7, r8, r9, sl, pc}
 988              		.cfi_endproc
 989              	.LFE17:
 990              		.size	chOQWriteTimeout, .-chOQWriteTimeout
 991 0074 AFF30080 		.text
 991      AFF30080 
 991      AFF30080 
 992              	.Letext0:
 993              		.file 3 "c:\\program files (x86)\\codesourcery\\sourcery_codebench_lite_for_arm_eabi\\bin\\../lib/
 994              		.file 4 "c:\\program files (x86)\\codesourcery\\sourcery_codebench_lite_for_arm_eabi\\bin\\../lib/
 995              		.file 5 "../../os/ports/GCC/ARMCMx/chtypes.h"
 996              		.file 6 "../../os/kernel/include/chlists.h"
 997              		.file 7 "../../os/kernel/include/chthreads.h"
 998              		.file 8 "../../os/ports/GCC/ARMCMx/chcore_v7m.h"
 999              		.file 9 "../../os/kernel/include/chschd.h"
 1000              		.file 10 "../../os/kernel/include/chmtx.h"
 1001              		.file 11 "../../os/kernel/include/chqueues.h"
 1002              		.section	.debug_info,"",%progbits
 1003              	.Ldebug_info0:
 1004 0000 720C0000 		.4byte	0xc72
 1005 0004 0200     		.2byte	0x2
 1006 0006 00000000 		.4byte	.Ldebug_abbrev0
 1007 000a 04       		.byte	0x4
 1008 000b 01       		.uleb128 0x1
 1009 000c 11020000 		.4byte	.LASF91
 1010 0010 01       		.byte	0x1
 1011 0011 78010000 		.4byte	.LASF92
 1012 0015 9E030000 		.4byte	.LASF93
 1013 0019 78000000 		.4byte	.Ldebug_ranges0+0x78
 1014 001d 00000000 		.4byte	0
 1015 0021 00000000 		.4byte	0
 1016 0025 00000000 		.4byte	.Ldebug_line0
 1017 0029 02       		.uleb128 0x2
 1018 002a 04       		.byte	0x4
 1019 002b 05       		.byte	0x5
ARM GAS  C:\Users\LAB_ME~1\AppData\Local\Temp\cciO7git.s 			page 19


 1020 002c 696E7400 		.ascii	"int\000"
 1021 0030 03       		.uleb128 0x3
 1022 0031 21000000 		.4byte	.LASF2
 1023 0035 03       		.byte	0x3
 1024 0036 D5       		.byte	0xd5
 1025 0037 3B000000 		.4byte	0x3b
 1026 003b 04       		.uleb128 0x4
 1027 003c 04       		.byte	0x4
 1028 003d 07       		.byte	0x7
 1029 003e 28010000 		.4byte	.LASF0
 1030 0042 04       		.uleb128 0x4
 1031 0043 01       		.byte	0x1
 1032 0044 06       		.byte	0x6
 1033 0045 93000000 		.4byte	.LASF1
 1034 0049 03       		.uleb128 0x3
 1035 004a 64030000 		.4byte	.LASF3
 1036 004e 04       		.byte	0x4
 1037 004f 2A       		.byte	0x2a
 1038 0050 54000000 		.4byte	0x54
 1039 0054 04       		.uleb128 0x4
 1040 0055 01       		.byte	0x1
 1041 0056 08       		.byte	0x8
 1042 0057 60020000 		.4byte	.LASF4
 1043 005b 04       		.uleb128 0x4
 1044 005c 02       		.byte	0x2
 1045 005d 05       		.byte	0x5
 1046 005e 78020000 		.4byte	.LASF5
 1047 0062 04       		.uleb128 0x4
 1048 0063 02       		.byte	0x2
 1049 0064 07       		.byte	0x7
 1050 0065 5F010000 		.4byte	.LASF6
 1051 0069 03       		.uleb128 0x3
 1052 006a 58020000 		.4byte	.LASF7
 1053 006e 04       		.byte	0x4
 1054 006f 4F       		.byte	0x4f
 1055 0070 74000000 		.4byte	0x74
 1056 0074 04       		.uleb128 0x4
 1057 0075 04       		.byte	0x4
 1058 0076 05       		.byte	0x5
 1059 0077 C6000000 		.4byte	.LASF8
 1060 007b 03       		.uleb128 0x3
 1061 007c CB020000 		.4byte	.LASF9
 1062 0080 04       		.byte	0x4
 1063 0081 50       		.byte	0x50
 1064 0082 86000000 		.4byte	0x86
 1065 0086 04       		.uleb128 0x4
 1066 0087 04       		.byte	0x4
 1067 0088 07       		.byte	0x7
 1068 0089 40010000 		.4byte	.LASF10
 1069 008d 04       		.uleb128 0x4
 1070 008e 08       		.byte	0x8
 1071 008f 05       		.byte	0x5
 1072 0090 85000000 		.4byte	.LASF11
 1073 0094 04       		.uleb128 0x4
 1074 0095 08       		.byte	0x8
 1075 0096 07       		.byte	0x7
 1076 0097 54000000 		.4byte	.LASF12
ARM GAS  C:\Users\LAB_ME~1\AppData\Local\Temp\cciO7git.s 			page 20


 1077 009b 03       		.uleb128 0x3
 1078 009c A7000000 		.4byte	.LASF13
 1079 00a0 05       		.byte	0x5
 1080 00a1 27       		.byte	0x27
 1081 00a2 69000000 		.4byte	0x69
 1082 00a6 03       		.uleb128 0x3
 1083 00a7 A9020000 		.4byte	.LASF14
 1084 00ab 05       		.byte	0x5
 1085 00ac 28       		.byte	0x28
 1086 00ad 49000000 		.4byte	0x49
 1087 00b1 03       		.uleb128 0x3
 1088 00b2 CF000000 		.4byte	.LASF15
 1089 00b6 05       		.byte	0x5
 1090 00b7 29       		.byte	0x29
 1091 00b8 49000000 		.4byte	0x49
 1092 00bc 03       		.uleb128 0x3
 1093 00bd 2F020000 		.4byte	.LASF16
 1094 00c1 05       		.byte	0x5
 1095 00c2 2A       		.byte	0x2a
 1096 00c3 49000000 		.4byte	0x49
 1097 00c7 03       		.uleb128 0x3
 1098 00c8 B6000000 		.4byte	.LASF17
 1099 00cc 05       		.byte	0x5
 1100 00cd 2B       		.byte	0x2b
 1101 00ce 49000000 		.4byte	0x49
 1102 00d2 03       		.uleb128 0x3
 1103 00d3 48020000 		.4byte	.LASF18
 1104 00d7 05       		.byte	0x5
 1105 00d8 2C       		.byte	0x2c
 1106 00d9 7B000000 		.4byte	0x7b
 1107 00dd 03       		.uleb128 0x3
 1108 00de 72010000 		.4byte	.LASF19
 1109 00e2 05       		.byte	0x5
 1110 00e3 2D       		.byte	0x2d
 1111 00e4 69000000 		.4byte	0x69
 1112 00e8 03       		.uleb128 0x3
 1113 00e9 A3010000 		.4byte	.LASF20
 1114 00ed 05       		.byte	0x5
 1115 00ee 2F       		.byte	0x2f
 1116 00ef 7B000000 		.4byte	0x7b
 1117 00f3 03       		.uleb128 0x3
 1118 00f4 00030000 		.4byte	.LASF21
 1119 00f8 05       		.byte	0x5
 1120 00f9 31       		.byte	0x31
 1121 00fa 7B000000 		.4byte	0x7b
 1122 00fe 03       		.uleb128 0x3
 1123 00ff B9020000 		.4byte	.LASF22
 1124 0103 06       		.byte	0x6
 1125 0104 23       		.byte	0x23
 1126 0105 09010000 		.4byte	0x109
 1127 0109 05       		.uleb128 0x5
 1128 010a B9020000 		.4byte	.LASF22
 1129 010e 48       		.byte	0x48
 1130 010f 07       		.byte	0x7
 1131 0110 57       		.byte	0x57
 1132 0111 2E020000 		.4byte	0x22e
 1133 0115 06       		.uleb128 0x6
ARM GAS  C:\Users\LAB_ME~1\AppData\Local\Temp\cciO7git.s 			page 21


 1134 0116 A2020000 		.4byte	.LASF23
 1135 011a 07       		.byte	0x7
 1136 011b 58       		.byte	0x58
 1137 011c 53020000 		.4byte	0x253
 1138 0120 02       		.byte	0x2
 1139 0121 23       		.byte	0x23
 1140 0122 00       		.uleb128 0
 1141 0123 06       		.uleb128 0x6
 1142 0124 41020000 		.4byte	.LASF24
 1143 0128 07       		.byte	0x7
 1144 0129 5A       		.byte	0x5a
 1145 012a 53020000 		.4byte	0x253
 1146 012e 02       		.byte	0x2
 1147 012f 23       		.byte	0x23
 1148 0130 04       		.uleb128 0x4
 1149 0131 06       		.uleb128 0x6
 1150 0132 74000000 		.4byte	.LASF25
 1151 0136 07       		.byte	0x7
 1152 0137 5C       		.byte	0x5c
 1153 0138 D2000000 		.4byte	0xd2
 1154 013c 02       		.byte	0x2
 1155 013d 23       		.byte	0x23
 1156 013e 08       		.uleb128 0x8
 1157 013f 06       		.uleb128 0x6
 1158 0140 BA030000 		.4byte	.LASF26
 1159 0144 07       		.byte	0x7
 1160 0145 5D       		.byte	0x5d
 1161 0146 21030000 		.4byte	0x321
 1162 014a 02       		.byte	0x2
 1163 014b 23       		.byte	0x23
 1164 014c 0C       		.uleb128 0xc
 1165 014d 06       		.uleb128 0x6
 1166 014e F2000000 		.4byte	.LASF27
 1167 0152 07       		.byte	0x7
 1168 0153 5F       		.byte	0x5f
 1169 0154 53020000 		.4byte	0x253
 1170 0158 02       		.byte	0x2
 1171 0159 23       		.byte	0x23
 1172 015a 10       		.uleb128 0x10
 1173 015b 06       		.uleb128 0x6
 1174 015c F1010000 		.4byte	.LASF28
 1175 0160 07       		.byte	0x7
 1176 0161 60       		.byte	0x60
 1177 0162 53020000 		.4byte	0x253
 1178 0166 02       		.byte	0x2
 1179 0167 23       		.byte	0x23
 1180 0168 14       		.uleb128 0x14
 1181 0169 06       		.uleb128 0x6
 1182 016a 73030000 		.4byte	.LASF29
 1183 016e 07       		.byte	0x7
 1184 016f 67       		.byte	0x67
 1185 0170 35040000 		.4byte	0x435
 1186 0174 02       		.byte	0x2
 1187 0175 23       		.byte	0x23
 1188 0176 18       		.uleb128 0x18
 1189 0177 06       		.uleb128 0x6
 1190 0178 82020000 		.4byte	.LASF30
ARM GAS  C:\Users\LAB_ME~1\AppData\Local\Temp\cciO7git.s 			page 22


 1191 017c 07       		.byte	0x7
 1192 017d 72       		.byte	0x72
 1193 017e B1000000 		.4byte	0xb1
 1194 0182 02       		.byte	0x2
 1195 0183 23       		.byte	0x23
 1196 0184 1C       		.uleb128 0x1c
 1197 0185 06       		.uleb128 0x6
 1198 0186 B1020000 		.4byte	.LASF31
 1199 018a 07       		.byte	0x7
 1200 018b 76       		.byte	0x76
 1201 018c A6000000 		.4byte	0xa6
 1202 0190 02       		.byte	0x2
 1203 0191 23       		.byte	0x23
 1204 0192 1D       		.uleb128 0x1d
 1205 0193 06       		.uleb128 0x6
 1206 0194 44030000 		.4byte	.LASF32
 1207 0198 07       		.byte	0x7
 1208 0199 7B       		.byte	0x7b
 1209 019a BC000000 		.4byte	0xbc
 1210 019e 02       		.byte	0x2
 1211 019f 23       		.byte	0x23
 1212 01a0 1E       		.uleb128 0x1e
 1213 01a1 06       		.uleb128 0x6
 1214 01a2 8A020000 		.4byte	.LASF33
 1215 01a6 07       		.byte	0x7
 1216 01a7 81       		.byte	0x81
 1217 01a8 C7000000 		.4byte	0xc7
 1218 01ac 02       		.byte	0x2
 1219 01ad 23       		.byte	0x23
 1220 01ae 1F       		.uleb128 0x1f
 1221 01af 06       		.uleb128 0x6
 1222 01b0 25030000 		.4byte	.LASF34
 1223 01b4 07       		.byte	0x7
 1224 01b5 88       		.byte	0x88
 1225 01b6 4B030000 		.4byte	0x34b
 1226 01ba 02       		.byte	0x2
 1227 01bb 23       		.byte	0x23
 1228 01bc 20       		.uleb128 0x20
 1229 01bd 07       		.uleb128 0x7
 1230 01be 705F7500 		.ascii	"p_u\000"
 1231 01c2 07       		.byte	0x7
 1232 01c3 AD       		.byte	0xad
 1233 01c4 00040000 		.4byte	0x400
 1234 01c8 02       		.byte	0x2
 1235 01c9 23       		.byte	0x23
 1236 01ca 24       		.uleb128 0x24
 1237 01cb 06       		.uleb128 0x6
 1238 01cc C0030000 		.4byte	.LASF35
 1239 01d0 07       		.byte	0x7
 1240 01d1 B2       		.byte	0xb2
 1241 01d2 7B020000 		.4byte	0x27b
 1242 01d6 02       		.byte	0x2
 1243 01d7 23       		.byte	0x23
 1244 01d8 28       		.uleb128 0x28
 1245 01d9 06       		.uleb128 0x6
 1246 01da 33030000 		.4byte	.LASF36
 1247 01de 07       		.byte	0x7
ARM GAS  C:\Users\LAB_ME~1\AppData\Local\Temp\cciO7git.s 			page 23


 1248 01df B8       		.byte	0xb8
 1249 01e0 59020000 		.4byte	0x259
 1250 01e4 02       		.byte	0x2
 1251 01e5 23       		.byte	0x23
 1252 01e6 2C       		.uleb128 0x2c
 1253 01e7 06       		.uleb128 0x6
 1254 01e8 09000000 		.4byte	.LASF37
 1255 01ec 07       		.byte	0x7
 1256 01ed BC       		.byte	0xbc
 1257 01ee DD000000 		.4byte	0xdd
 1258 01f2 02       		.byte	0x2
 1259 01f3 23       		.byte	0x23
 1260 01f4 34       		.uleb128 0x34
 1261 01f5 06       		.uleb128 0x6
 1262 01f6 C0020000 		.4byte	.LASF38
 1263 01fa 07       		.byte	0x7
 1264 01fb C2       		.byte	0xc2
 1265 01fc E8000000 		.4byte	0xe8
 1266 0200 02       		.byte	0x2
 1267 0201 23       		.byte	0x23
 1268 0202 38       		.uleb128 0x38
 1269 0203 06       		.uleb128 0x6
 1270 0204 6E020000 		.4byte	.LASF39
 1271 0208 07       		.byte	0x7
 1272 0209 C9       		.byte	0xc9
 1273 020a 47040000 		.4byte	0x447
 1274 020e 02       		.byte	0x2
 1275 020f 23       		.byte	0x23
 1276 0210 3C       		.uleb128 0x3c
 1277 0211 06       		.uleb128 0x6
 1278 0212 0A030000 		.4byte	.LASF40
 1279 0216 07       		.byte	0x7
 1280 0217 CD       		.byte	0xcd
 1281 0218 D2000000 		.4byte	0xd2
 1282 021c 02       		.byte	0x2
 1283 021d 23       		.byte	0x23
 1284 021e 40       		.uleb128 0x40
 1285 021f 06       		.uleb128 0x6
 1286 0220 9F000000 		.4byte	.LASF41
 1287 0224 07       		.byte	0x7
 1288 0225 D3       		.byte	0xd3
 1289 0226 91020000 		.4byte	0x291
 1290 022a 02       		.byte	0x2
 1291 022b 23       		.byte	0x23
 1292 022c 44       		.uleb128 0x44
 1293 022d 00       		.byte	0
 1294 022e 08       		.uleb128 0x8
 1295 022f 08       		.byte	0x8
 1296 0230 06       		.byte	0x6
 1297 0231 5A       		.byte	0x5a
 1298 0232 53020000 		.4byte	0x253
 1299 0236 06       		.uleb128 0x6
 1300 0237 A2020000 		.4byte	.LASF23
 1301 023b 06       		.byte	0x6
 1302 023c 5B       		.byte	0x5b
 1303 023d 53020000 		.4byte	0x253
 1304 0241 02       		.byte	0x2
ARM GAS  C:\Users\LAB_ME~1\AppData\Local\Temp\cciO7git.s 			page 24


 1305 0242 23       		.byte	0x23
 1306 0243 00       		.uleb128 0
 1307 0244 06       		.uleb128 0x6
 1308 0245 41020000 		.4byte	.LASF24
 1309 0249 06       		.byte	0x6
 1310 024a 5D       		.byte	0x5d
 1311 024b 53020000 		.4byte	0x253
 1312 024f 02       		.byte	0x2
 1313 0250 23       		.byte	0x23
 1314 0251 04       		.uleb128 0x4
 1315 0252 00       		.byte	0
 1316 0253 09       		.uleb128 0x9
 1317 0254 04       		.byte	0x4
 1318 0255 FE000000 		.4byte	0xfe
 1319 0259 03       		.uleb128 0x3
 1320 025a FF010000 		.4byte	.LASF42
 1321 025e 06       		.byte	0x6
 1322 025f 5F       		.byte	0x5f
 1323 0260 2E020000 		.4byte	0x22e
 1324 0264 08       		.uleb128 0x8
 1325 0265 04       		.byte	0x4
 1326 0266 06       		.byte	0x6
 1327 0267 64       		.byte	0x64
 1328 0268 7B020000 		.4byte	0x27b
 1329 026c 06       		.uleb128 0x6
 1330 026d A2020000 		.4byte	.LASF23
 1331 0271 06       		.byte	0x6
 1332 0272 66       		.byte	0x66
 1333 0273 53020000 		.4byte	0x253
 1334 0277 02       		.byte	0x2
 1335 0278 23       		.byte	0x23
 1336 0279 00       		.uleb128 0
 1337 027a 00       		.byte	0
 1338 027b 03       		.uleb128 0x3
 1339 027c 97010000 		.4byte	.LASF43
 1340 0280 06       		.byte	0x6
 1341 0281 69       		.byte	0x69
 1342 0282 64020000 		.4byte	0x264
 1343 0286 03       		.uleb128 0x3
 1344 0287 02010000 		.4byte	.LASF44
 1345 028b 08       		.byte	0x8
 1346 028c DE       		.byte	0xde
 1347 028d 91020000 		.4byte	0x291
 1348 0291 0A       		.uleb128 0xa
 1349 0292 04       		.byte	0x4
 1350 0293 0B       		.uleb128 0xb
 1351 0294 2C030000 		.4byte	.LASF45
 1352 0298 24       		.byte	0x24
 1353 0299 08       		.byte	0x8
 1354 029a 0501     		.2byte	0x105
 1355 029c 21030000 		.4byte	0x321
 1356 02a0 0C       		.uleb128 0xc
 1357 02a1 723400   		.ascii	"r4\000"
 1358 02a4 08       		.byte	0x8
 1359 02a5 1801     		.2byte	0x118
 1360 02a7 86020000 		.4byte	0x286
 1361 02ab 02       		.byte	0x2
ARM GAS  C:\Users\LAB_ME~1\AppData\Local\Temp\cciO7git.s 			page 25


 1362 02ac 23       		.byte	0x23
 1363 02ad 00       		.uleb128 0
 1364 02ae 0C       		.uleb128 0xc
 1365 02af 723500   		.ascii	"r5\000"
 1366 02b2 08       		.byte	0x8
 1367 02b3 1901     		.2byte	0x119
 1368 02b5 86020000 		.4byte	0x286
 1369 02b9 02       		.byte	0x2
 1370 02ba 23       		.byte	0x23
 1371 02bb 04       		.uleb128 0x4
 1372 02bc 0C       		.uleb128 0xc
 1373 02bd 723600   		.ascii	"r6\000"
 1374 02c0 08       		.byte	0x8
 1375 02c1 1A01     		.2byte	0x11a
 1376 02c3 86020000 		.4byte	0x286
 1377 02c7 02       		.byte	0x2
 1378 02c8 23       		.byte	0x23
 1379 02c9 08       		.uleb128 0x8
 1380 02ca 0C       		.uleb128 0xc
 1381 02cb 723700   		.ascii	"r7\000"
 1382 02ce 08       		.byte	0x8
 1383 02cf 1B01     		.2byte	0x11b
 1384 02d1 86020000 		.4byte	0x286
 1385 02d5 02       		.byte	0x2
 1386 02d6 23       		.byte	0x23
 1387 02d7 0C       		.uleb128 0xc
 1388 02d8 0C       		.uleb128 0xc
 1389 02d9 723800   		.ascii	"r8\000"
 1390 02dc 08       		.byte	0x8
 1391 02dd 1C01     		.2byte	0x11c
 1392 02df 86020000 		.4byte	0x286
 1393 02e3 02       		.byte	0x2
 1394 02e4 23       		.byte	0x23
 1395 02e5 10       		.uleb128 0x10
 1396 02e6 0C       		.uleb128 0xc
 1397 02e7 723900   		.ascii	"r9\000"
 1398 02ea 08       		.byte	0x8
 1399 02eb 1D01     		.2byte	0x11d
 1400 02ed 86020000 		.4byte	0x286
 1401 02f1 02       		.byte	0x2
 1402 02f2 23       		.byte	0x23
 1403 02f3 14       		.uleb128 0x14
 1404 02f4 0C       		.uleb128 0xc
 1405 02f5 72313000 		.ascii	"r10\000"
 1406 02f9 08       		.byte	0x8
 1407 02fa 1E01     		.2byte	0x11e
 1408 02fc 86020000 		.4byte	0x286
 1409 0300 02       		.byte	0x2
 1410 0301 23       		.byte	0x23
 1411 0302 18       		.uleb128 0x18
 1412 0303 0C       		.uleb128 0xc
 1413 0304 72313100 		.ascii	"r11\000"
 1414 0308 08       		.byte	0x8
 1415 0309 1F01     		.2byte	0x11f
 1416 030b 86020000 		.4byte	0x286
 1417 030f 02       		.byte	0x2
 1418 0310 23       		.byte	0x23
ARM GAS  C:\Users\LAB_ME~1\AppData\Local\Temp\cciO7git.s 			page 26


 1419 0311 1C       		.uleb128 0x1c
 1420 0312 0C       		.uleb128 0xc
 1421 0313 6C7200   		.ascii	"lr\000"
 1422 0316 08       		.byte	0x8
 1423 0317 2001     		.2byte	0x120
 1424 0319 86020000 		.4byte	0x286
 1425 031d 02       		.byte	0x2
 1426 031e 23       		.byte	0x23
 1427 031f 20       		.uleb128 0x20
 1428 0320 00       		.byte	0
 1429 0321 0B       		.uleb128 0xb
 1430 0322 52010000 		.4byte	.LASF46
 1431 0326 04       		.byte	0x4
 1432 0327 08       		.byte	0x8
 1433 0328 2A01     		.2byte	0x12a
 1434 032a 3E030000 		.4byte	0x33e
 1435 032e 0C       		.uleb128 0xc
 1436 032f 72313300 		.ascii	"r13\000"
 1437 0333 08       		.byte	0x8
 1438 0334 2B01     		.2byte	0x12b
 1439 0336 3E030000 		.4byte	0x33e
 1440 033a 02       		.byte	0x2
 1441 033b 23       		.byte	0x23
 1442 033c 00       		.uleb128 0
 1443 033d 00       		.byte	0
 1444 033e 09       		.uleb128 0x9
 1445 033f 04       		.byte	0x4
 1446 0340 93020000 		.4byte	0x293
 1447 0344 04       		.uleb128 0x4
 1448 0345 04       		.byte	0x4
 1449 0346 07       		.byte	0x7
 1450 0347 DE010000 		.4byte	.LASF47
 1451 034b 0D       		.uleb128 0xd
 1452 034c F3000000 		.4byte	0xf3
 1453 0350 08       		.uleb128 0x8
 1454 0351 1C       		.byte	0x1c
 1455 0352 09       		.byte	0x9
 1456 0353 57       		.byte	0x57
 1457 0354 AD030000 		.4byte	0x3ad
 1458 0358 06       		.uleb128 0x6
 1459 0359 D4020000 		.4byte	.LASF48
 1460 035d 09       		.byte	0x9
 1461 035e 58       		.byte	0x58
 1462 035f 59020000 		.4byte	0x259
 1463 0363 02       		.byte	0x2
 1464 0364 23       		.byte	0x23
 1465 0365 00       		.uleb128 0
 1466 0366 06       		.uleb128 0x6
 1467 0367 94020000 		.4byte	.LASF49
 1468 036b 09       		.byte	0x9
 1469 036c 59       		.byte	0x59
 1470 036d D2000000 		.4byte	0xd2
 1471 0371 02       		.byte	0x2
 1472 0372 23       		.byte	0x23
 1473 0373 08       		.uleb128 0x8
 1474 0374 06       		.uleb128 0x6
 1475 0375 F9010000 		.4byte	.LASF50
ARM GAS  C:\Users\LAB_ME~1\AppData\Local\Temp\cciO7git.s 			page 27


 1476 0379 09       		.byte	0x9
 1477 037a 5B       		.byte	0x5b
 1478 037b 21030000 		.4byte	0x321
 1479 037f 02       		.byte	0x2
 1480 0380 23       		.byte	0x23
 1481 0381 0C       		.uleb128 0xc
 1482 0382 06       		.uleb128 0x6
 1483 0383 FA000000 		.4byte	.LASF51
 1484 0387 09       		.byte	0x9
 1485 0388 5E       		.byte	0x5e
 1486 0389 53020000 		.4byte	0x253
 1487 038d 02       		.byte	0x2
 1488 038e 23       		.byte	0x23
 1489 038f 10       		.uleb128 0x10
 1490 0390 06       		.uleb128 0x6
 1491 0391 27020000 		.4byte	.LASF52
 1492 0395 09       		.byte	0x9
 1493 0396 5F       		.byte	0x5f
 1494 0397 53020000 		.4byte	0x253
 1495 039b 02       		.byte	0x2
 1496 039c 23       		.byte	0x23
 1497 039d 14       		.uleb128 0x14
 1498 039e 06       		.uleb128 0x6
 1499 039f 1D020000 		.4byte	.LASF53
 1500 03a3 09       		.byte	0x9
 1501 03a4 62       		.byte	0x62
 1502 03a5 53020000 		.4byte	0x253
 1503 03a9 02       		.byte	0x2
 1504 03aa 23       		.byte	0x23
 1505 03ab 18       		.uleb128 0x18
 1506 03ac 00       		.byte	0
 1507 03ad 03       		.uleb128 0x3
 1508 03ae 4B030000 		.4byte	.LASF54
 1509 03b2 09       		.byte	0x9
 1510 03b3 64       		.byte	0x64
 1511 03b4 50030000 		.4byte	0x350
 1512 03b8 05       		.uleb128 0x5
 1513 03b9 BA010000 		.4byte	.LASF55
 1514 03bd 10       		.byte	0x10
 1515 03be 0A       		.byte	0xa
 1516 03bf 25       		.byte	0x25
 1517 03c0 EF030000 		.4byte	0x3ef
 1518 03c4 06       		.uleb128 0x6
 1519 03c5 AE000000 		.4byte	.LASF56
 1520 03c9 0A       		.byte	0xa
 1521 03ca 26       		.byte	0x26
 1522 03cb 59020000 		.4byte	0x259
 1523 03cf 02       		.byte	0x2
 1524 03d0 23       		.byte	0x23
 1525 03d1 00       		.uleb128 0
 1526 03d2 06       		.uleb128 0x6
 1527 03d3 96030000 		.4byte	.LASF57
 1528 03d7 0A       		.byte	0xa
 1529 03d8 28       		.byte	0x28
 1530 03d9 53020000 		.4byte	0x253
 1531 03dd 02       		.byte	0x2
 1532 03de 23       		.byte	0x23
ARM GAS  C:\Users\LAB_ME~1\AppData\Local\Temp\cciO7git.s 			page 28


 1533 03df 08       		.uleb128 0x8
 1534 03e0 06       		.uleb128 0x6
 1535 03e1 F9020000 		.4byte	.LASF58
 1536 03e5 0A       		.byte	0xa
 1537 03e6 2A       		.byte	0x2a
 1538 03e7 EF030000 		.4byte	0x3ef
 1539 03eb 02       		.byte	0x2
 1540 03ec 23       		.byte	0x23
 1541 03ed 0C       		.uleb128 0xc
 1542 03ee 00       		.byte	0
 1543 03ef 09       		.uleb128 0x9
 1544 03f0 04       		.byte	0x4
 1545 03f1 B8030000 		.4byte	0x3b8
 1546 03f5 03       		.uleb128 0x3
 1547 03f6 BA010000 		.4byte	.LASF55
 1548 03fa 0A       		.byte	0xa
 1549 03fb 2C       		.byte	0x2c
 1550 03fc B8030000 		.4byte	0x3b8
 1551 0400 0E       		.uleb128 0xe
 1552 0401 04       		.byte	0x4
 1553 0402 07       		.byte	0x7
 1554 0403 8F       		.byte	0x8f
 1555 0404 35040000 		.4byte	0x435
 1556 0408 0F       		.uleb128 0xf
 1557 0409 28000000 		.4byte	.LASF59
 1558 040d 07       		.byte	0x7
 1559 040e 96       		.byte	0x96
 1560 040f DD000000 		.4byte	0xdd
 1561 0413 0F       		.uleb128 0xf
 1562 0414 6B000000 		.4byte	.LASF60
 1563 0418 07       		.byte	0x7
 1564 0419 9D       		.byte	0x9d
 1565 041a DD000000 		.4byte	0xdd
 1566 041e 0F       		.uleb128 0xf
 1567 041f 6C030000 		.4byte	.LASF61
 1568 0423 07       		.byte	0x7
 1569 0424 A4       		.byte	0xa4
 1570 0425 91020000 		.4byte	0x291
 1571 0429 0F       		.uleb128 0xf
 1572 042a 9B020000 		.4byte	.LASF62
 1573 042e 07       		.byte	0x7
 1574 042f AB       		.byte	0xab
 1575 0430 E8000000 		.4byte	0xe8
 1576 0434 00       		.byte	0
 1577 0435 09       		.uleb128 0x9
 1578 0436 04       		.byte	0x4
 1579 0437 3B040000 		.4byte	0x43b
 1580 043b 10       		.uleb128 0x10
 1581 043c 40040000 		.4byte	0x440
 1582 0440 04       		.uleb128 0x4
 1583 0441 01       		.byte	0x1
 1584 0442 08       		.byte	0x8
 1585 0443 E8020000 		.4byte	.LASF63
 1586 0447 09       		.uleb128 0x9
 1587 0448 04       		.byte	0x4
 1588 0449 F5030000 		.4byte	0x3f5
 1589 044d 03       		.uleb128 0x3
ARM GAS  C:\Users\LAB_ME~1\AppData\Local\Temp\cciO7git.s 			page 29


 1590 044e C0010000 		.4byte	.LASF64
 1591 0452 0B       		.byte	0xb
 1592 0453 30       		.byte	0x30
 1593 0454 58040000 		.4byte	0x458
 1594 0458 05       		.uleb128 0x5
 1595 0459 C0010000 		.4byte	.LASF64
 1596 045d 24       		.byte	0x24
 1597 045e 0B       		.byte	0xb
 1598 045f 3E       		.byte	0x3e
 1599 0460 D5040000 		.4byte	0x4d5
 1600 0464 06       		.uleb128 0x6
 1601 0465 7B000000 		.4byte	.LASF65
 1602 0469 0B       		.byte	0xb
 1603 046a 3F       		.byte	0x3f
 1604 046b 59020000 		.4byte	0x259
 1605 046f 02       		.byte	0x2
 1606 0470 23       		.byte	0x23
 1607 0471 00       		.uleb128 0
 1608 0472 06       		.uleb128 0x6
 1609 0473 E7010000 		.4byte	.LASF66
 1610 0477 0B       		.byte	0xb
 1611 0478 40       		.byte	0x40
 1612 0479 30000000 		.4byte	0x30
 1613 047d 02       		.byte	0x2
 1614 047e 23       		.byte	0x23
 1615 047f 08       		.uleb128 0x8
 1616 0480 06       		.uleb128 0x6
 1617 0481 E1000000 		.4byte	.LASF67
 1618 0485 0B       		.byte	0xb
 1619 0486 41       		.byte	0x41
 1620 0487 F8040000 		.4byte	0x4f8
 1621 048b 02       		.byte	0x2
 1622 048c 23       		.byte	0x23
 1623 048d 0C       		.uleb128 0xc
 1624 048e 06       		.uleb128 0x6
 1625 048f 3E030000 		.4byte	.LASF68
 1626 0493 0B       		.byte	0xb
 1627 0494 42       		.byte	0x42
 1628 0495 F8040000 		.4byte	0x4f8
 1629 0499 02       		.byte	0x2
 1630 049a 23       		.byte	0x23
 1631 049b 10       		.uleb128 0x10
 1632 049c 06       		.uleb128 0x6
 1633 049d EA000000 		.4byte	.LASF69
 1634 04a1 0B       		.byte	0xb
 1635 04a2 44       		.byte	0x44
 1636 04a3 F8040000 		.4byte	0x4f8
 1637 04a7 02       		.byte	0x2
 1638 04a8 23       		.byte	0x23
 1639 04a9 14       		.uleb128 0x14
 1640 04aa 06       		.uleb128 0x6
 1641 04ab 50020000 		.4byte	.LASF70
 1642 04af 0B       		.byte	0xb
 1643 04b0 45       		.byte	0x45
 1644 04b1 F8040000 		.4byte	0x4f8
 1645 04b5 02       		.byte	0x2
 1646 04b6 23       		.byte	0x23
ARM GAS  C:\Users\LAB_ME~1\AppData\Local\Temp\cciO7git.s 			page 30


 1647 04b7 18       		.uleb128 0x18
 1648 04b8 06       		.uleb128 0x6
 1649 04b9 55030000 		.4byte	.LASF71
 1650 04bd 0B       		.byte	0xb
 1651 04be 46       		.byte	0x46
 1652 04bf D5040000 		.4byte	0x4d5
 1653 04c3 02       		.byte	0x2
 1654 04c4 23       		.byte	0x23
 1655 04c5 1C       		.uleb128 0x1c
 1656 04c6 06       		.uleb128 0x6
 1657 04c7 8F030000 		.4byte	.LASF72
 1658 04cb 0B       		.byte	0xb
 1659 04cc 47       		.byte	0x47
 1660 04cd 91020000 		.4byte	0x291
 1661 04d1 02       		.byte	0x2
 1662 04d2 23       		.byte	0x23
 1663 04d3 20       		.uleb128 0x20
 1664 04d4 00       		.byte	0
 1665 04d5 03       		.uleb128 0x3
 1666 04d6 37020000 		.4byte	.LASF73
 1667 04da 0B       		.byte	0xb
 1668 04db 33       		.byte	0x33
 1669 04dc E0040000 		.4byte	0x4e0
 1670 04e0 09       		.uleb128 0x9
 1671 04e1 04       		.byte	0x4
 1672 04e2 E6040000 		.4byte	0x4e6
 1673 04e6 11       		.uleb128 0x11
 1674 04e7 01       		.byte	0x1
 1675 04e8 F2040000 		.4byte	0x4f2
 1676 04ec 12       		.uleb128 0x12
 1677 04ed F2040000 		.4byte	0x4f2
 1678 04f1 00       		.byte	0
 1679 04f2 09       		.uleb128 0x9
 1680 04f3 04       		.byte	0x4
 1681 04f4 4D040000 		.4byte	0x44d
 1682 04f8 09       		.uleb128 0x9
 1683 04f9 04       		.byte	0x4
 1684 04fa 49000000 		.4byte	0x49
 1685 04fe 03       		.uleb128 0x3
 1686 04ff AF010000 		.4byte	.LASF74
 1687 0503 0B       		.byte	0xb
 1688 0504 7B       		.byte	0x7b
 1689 0505 4D040000 		.4byte	0x44d
 1690 0509 03       		.uleb128 0x3
 1691 050a 38000000 		.4byte	.LASF75
 1692 050e 0B       		.byte	0xb
 1693 050f EE       		.byte	0xee
 1694 0510 4D040000 		.4byte	0x44d
 1695 0514 09       		.uleb128 0x9
 1696 0515 04       		.byte	0x4
 1697 0516 1A050000 		.4byte	0x51a
 1698 051a 10       		.uleb128 0x10
 1699 051b 49000000 		.4byte	0x49
 1700 051f 13       		.uleb128 0x13
 1701 0520 0F000000 		.4byte	.LASF94
 1702 0524 02       		.byte	0x2
 1703 0525 2D       		.byte	0x2d
ARM GAS  C:\Users\LAB_ME~1\AppData\Local\Temp\cciO7git.s 			page 31


 1704 0526 01       		.byte	0x1
 1705 0527 03       		.byte	0x3
 1706 0528 42050000 		.4byte	0x542
 1707 052c 14       		.uleb128 0x14
 1708 052d 747000   		.ascii	"tp\000"
 1709 0530 02       		.byte	0x2
 1710 0531 2D       		.byte	0x2d
 1711 0532 53020000 		.4byte	0x253
 1712 0536 14       		.uleb128 0x14
 1713 0537 74717000 		.ascii	"tqp\000"
 1714 053b 02       		.byte	0x2
 1715 053c 2D       		.byte	0x2d
 1716 053d 42050000 		.4byte	0x542
 1717 0541 00       		.byte	0
 1718 0542 09       		.uleb128 0x9
 1719 0543 04       		.byte	0x4
 1720 0544 59020000 		.4byte	0x259
 1721 0548 15       		.uleb128 0x15
 1722 0549 ED020000 		.4byte	.LASF95
 1723 054d 02       		.byte	0x2
 1724 054e 34       		.byte	0x34
 1725 054f 01       		.byte	0x1
 1726 0550 53020000 		.4byte	0x253
 1727 0554 03       		.byte	0x3
 1728 0555 6F050000 		.4byte	0x56f
 1729 0559 14       		.uleb128 0x14
 1730 055a 74717000 		.ascii	"tqp\000"
 1731 055e 02       		.byte	0x2
 1732 055f 34       		.byte	0x34
 1733 0560 42050000 		.4byte	0x542
 1734 0564 16       		.uleb128 0x16
 1735 0565 747000   		.ascii	"tp\000"
 1736 0568 02       		.byte	0x2
 1737 0569 35       		.byte	0x35
 1738 056a 53020000 		.4byte	0x253
 1739 056e 00       		.byte	0
 1740 056f 17       		.uleb128 0x17
 1741 0570 C0000000 		.4byte	.LASF96
 1742 0574 01       		.byte	0x1
 1743 0575 3F       		.byte	0x3f
 1744 0576 01       		.byte	0x1
 1745 0577 DD000000 		.4byte	0xdd
 1746 057b 00000000 		.4byte	.LFB7
 1747 057f 2C000000 		.4byte	.LFE7
 1748 0583 00000000 		.4byte	.LLST0
 1749 0587 01       		.byte	0x1
 1750 0588 E7050000 		.4byte	0x5e7
 1751 058c 18       		.uleb128 0x18
 1752 058d 717000   		.ascii	"qp\000"
 1753 0590 01       		.byte	0x1
 1754 0591 3F       		.byte	0x3f
 1755 0592 F2040000 		.4byte	0x4f2
 1756 0596 20000000 		.4byte	.LLST1
 1757 059a 19       		.uleb128 0x19
 1758 059b 0C020000 		.4byte	.LASF76
 1759 059f 01       		.byte	0x1
 1760 05a0 3F       		.byte	0x3f
ARM GAS  C:\Users\LAB_ME~1\AppData\Local\Temp\cciO7git.s 			page 32


 1761 05a1 F3000000 		.4byte	0xf3
 1762 05a5 62000000 		.4byte	.LLST2
 1763 05a9 1A       		.uleb128 0x1a
 1764 05aa 1F050000 		.4byte	0x51f
 1765 05ae 0C000000 		.4byte	.LBB12
 1766 05b2 00000000 		.4byte	.Ldebug_ranges0+0
 1767 05b6 01       		.byte	0x1
 1768 05b7 44       		.byte	0x44
 1769 05b8 CF050000 		.4byte	0x5cf
 1770 05bc 1B       		.uleb128 0x1b
 1771 05bd 36050000 		.4byte	0x536
 1772 05c1 8E000000 		.4byte	.LLST3
 1773 05c5 1B       		.uleb128 0x1b
 1774 05c6 2C050000 		.4byte	0x52c
 1775 05ca BA000000 		.4byte	.LLST4
 1776 05ce 00       		.byte	0
 1777 05cf 1C       		.uleb128 0x1c
 1778 05d0 1E000000 		.4byte	.LVL3
 1779 05d4 01       		.byte	0x1
 1780 05d5 440C0000 		.4byte	0xc44
 1781 05d9 1D       		.uleb128 0x1d
 1782 05da 01       		.byte	0x1
 1783 05db 51       		.byte	0x51
 1784 05dc 03       		.byte	0x3
 1785 05dd F3       		.byte	0xf3
 1786 05de 01       		.uleb128 0x1
 1787 05df 51       		.byte	0x51
 1788 05e0 1D       		.uleb128 0x1d
 1789 05e1 01       		.byte	0x1
 1790 05e2 50       		.byte	0x50
 1791 05e3 01       		.byte	0x1
 1792 05e4 3D       		.byte	0x3d
 1793 05e5 00       		.byte	0
 1794 05e6 00       		.byte	0
 1795 05e7 1E       		.uleb128 0x1e
 1796 05e8 01       		.byte	0x1
 1797 05e9 2F000000 		.4byte	.LASF80
 1798 05ed 01       		.byte	0x1
 1799 05ee 58       		.byte	0x58
 1800 05ef 01       		.byte	0x1
 1801 05f0 00000000 		.4byte	.LFB8
 1802 05f4 1E000000 		.4byte	.LFE8
 1803 05f8 CD000000 		.4byte	.LLST5
 1804 05fc 01       		.byte	0x1
 1805 05fd 47060000 		.4byte	0x647
 1806 0601 1F       		.uleb128 0x1f
 1807 0602 69717000 		.ascii	"iqp\000"
 1808 0606 01       		.byte	0x1
 1809 0607 58       		.byte	0x58
 1810 0608 47060000 		.4byte	0x647
 1811 060c 01       		.byte	0x1
 1812 060d 50       		.byte	0x50
 1813 060e 1F       		.uleb128 0x1f
 1814 060f 627000   		.ascii	"bp\000"
 1815 0612 01       		.byte	0x1
 1816 0613 58       		.byte	0x58
 1817 0614 F8040000 		.4byte	0x4f8
ARM GAS  C:\Users\LAB_ME~1\AppData\Local\Temp\cciO7git.s 			page 33


 1818 0618 01       		.byte	0x1
 1819 0619 51       		.byte	0x51
 1820 061a 19       		.uleb128 0x19
 1821 061b 5A010000 		.4byte	.LASF77
 1822 061f 01       		.byte	0x1
 1823 0620 58       		.byte	0x58
 1824 0621 30000000 		.4byte	0x30
 1825 0625 ED000000 		.4byte	.LLST6
 1826 0629 19       		.uleb128 0x19
 1827 062a 15030000 		.4byte	.LASF78
 1828 062e 01       		.byte	0x1
 1829 062f 58       		.byte	0x58
 1830 0630 D5040000 		.4byte	0x4d5
 1831 0634 0E010000 		.4byte	.LLST7
 1832 0638 20       		.uleb128 0x20
 1833 0639 0B010000 		.4byte	.LASF79
 1834 063d 01       		.byte	0x1
 1835 063e 59       		.byte	0x59
 1836 063f 91020000 		.4byte	0x291
 1837 0643 02       		.byte	0x2
 1838 0644 91       		.byte	0x91
 1839 0645 00       		.sleb128 0
 1840 0646 00       		.byte	0
 1841 0647 09       		.uleb128 0x9
 1842 0648 04       		.byte	0x4
 1843 0649 FE040000 		.4byte	0x4fe
 1844 064d 1E       		.uleb128 0x1e
 1845 064e 01       		.byte	0x1
 1846 064f 35010000 		.4byte	.LASF81
 1847 0653 01       		.byte	0x1
 1848 0654 6E       		.byte	0x6e
 1849 0655 01       		.byte	0x1
 1850 0656 00000000 		.4byte	.LFB9
 1851 065a 2C000000 		.4byte	.LFE9
 1852 065e 2D010000 		.4byte	.LLST8
 1853 0662 01       		.byte	0x1
 1854 0663 B0060000 		.4byte	0x6b0
 1855 0667 18       		.uleb128 0x18
 1856 0668 69717000 		.ascii	"iqp\000"
 1857 066c 01       		.byte	0x1
 1858 066d 6E       		.byte	0x6e
 1859 066e 47060000 		.4byte	0x647
 1860 0672 4D010000 		.4byte	.LLST9
 1861 0676 21       		.uleb128 0x21
 1862 0677 48050000 		.4byte	0x548
 1863 067b 18000000 		.4byte	.LBB16
 1864 067f 1E000000 		.4byte	.LBE16
 1865 0683 01       		.byte	0x1
 1866 0684 75       		.byte	0x75
 1867 0685 A6060000 		.4byte	0x6a6
 1868 0689 1B       		.uleb128 0x1b
 1869 068a 59050000 		.4byte	0x559
 1870 068e 6B010000 		.4byte	.LLST10
 1871 0692 22       		.uleb128 0x22
 1872 0693 18000000 		.4byte	.LBB17
 1873 0697 1E000000 		.4byte	.LBE17
 1874 069b 23       		.uleb128 0x23
ARM GAS  C:\Users\LAB_ME~1\AppData\Local\Temp\cciO7git.s 			page 34


 1875 069c 64050000 		.4byte	0x564
 1876 06a0 7E010000 		.4byte	.LLST11
 1877 06a4 00       		.byte	0
 1878 06a5 00       		.byte	0
 1879 06a6 24       		.uleb128 0x24
 1880 06a7 22000000 		.4byte	.LVL11
 1881 06ab 610C0000 		.4byte	0xc61
 1882 06af 00       		.byte	0
 1883 06b0 25       		.uleb128 0x25
 1884 06b1 01       		.byte	0x1
 1885 06b2 1F010000 		.4byte	.LASF82
 1886 06b6 01       		.byte	0x1
 1887 06b7 85       		.byte	0x85
 1888 06b8 01       		.byte	0x1
 1889 06b9 DD000000 		.4byte	0xdd
 1890 06bd 00000000 		.4byte	.LFB10
 1891 06c1 4A000000 		.4byte	.LFE10
 1892 06c5 91010000 		.4byte	.LLST12
 1893 06c9 01       		.byte	0x1
 1894 06ca 24070000 		.4byte	0x724
 1895 06ce 18       		.uleb128 0x18
 1896 06cf 69717000 		.ascii	"iqp\000"
 1897 06d3 01       		.byte	0x1
 1898 06d4 85       		.byte	0x85
 1899 06d5 47060000 		.4byte	0x647
 1900 06d9 B1010000 		.4byte	.LLST13
 1901 06dd 18       		.uleb128 0x18
 1902 06de 6200     		.ascii	"b\000"
 1903 06e0 01       		.byte	0x1
 1904 06e1 85       		.byte	0x85
 1905 06e2 49000000 		.4byte	0x49
 1906 06e6 E8010000 		.4byte	.LLST14
 1907 06ea 21       		.uleb128 0x21
 1908 06eb 48050000 		.4byte	0x548
 1909 06ef 2A000000 		.4byte	.LBB18
 1910 06f3 30000000 		.4byte	.LBE18
 1911 06f7 01       		.byte	0x1
 1912 06f8 92       		.byte	0x92
 1913 06f9 1A070000 		.4byte	0x71a
 1914 06fd 1B       		.uleb128 0x1b
 1915 06fe 59050000 		.4byte	0x559
 1916 0702 2E020000 		.4byte	.LLST15
 1917 0706 22       		.uleb128 0x22
 1918 0707 2A000000 		.4byte	.LBB19
 1919 070b 30000000 		.4byte	.LBE19
 1920 070f 23       		.uleb128 0x23
 1921 0710 64050000 		.4byte	0x564
 1922 0714 4F020000 		.4byte	.LLST16
 1923 0718 00       		.byte	0
 1924 0719 00       		.byte	0
 1925 071a 24       		.uleb128 0x24
 1926 071b 34000000 		.4byte	.LVL17
 1927 071f 610C0000 		.4byte	0xc61
 1928 0723 00       		.byte	0
 1929 0724 25       		.uleb128 0x25
 1930 0725 01       		.byte	0x1
 1931 0726 CA030000 		.4byte	.LASF83
ARM GAS  C:\Users\LAB_ME~1\AppData\Local\Temp\cciO7git.s 			page 35


 1932 072a 01       		.byte	0x1
 1933 072b AB       		.byte	0xab
 1934 072c 01       		.byte	0x1
 1935 072d DD000000 		.4byte	0xdd
 1936 0731 00000000 		.4byte	.LFB11
 1937 0735 48000000 		.4byte	.LFE11
 1938 0739 62020000 		.4byte	.LLST17
 1939 073d 01       		.byte	0x1
 1940 073e FC070000 		.4byte	0x7fc
 1941 0742 18       		.uleb128 0x18
 1942 0743 69717000 		.ascii	"iqp\000"
 1943 0747 01       		.byte	0x1
 1944 0748 AB       		.byte	0xab
 1945 0749 47060000 		.4byte	0x647
 1946 074d 82020000 		.4byte	.LLST18
 1947 0751 19       		.uleb128 0x19
 1948 0752 0C020000 		.4byte	.LASF76
 1949 0756 01       		.byte	0x1
 1950 0757 AB       		.byte	0xab
 1951 0758 F3000000 		.4byte	0xf3
 1952 075c CC020000 		.4byte	.LLST19
 1953 0760 26       		.uleb128 0x26
 1954 0761 6200     		.ascii	"b\000"
 1955 0763 01       		.byte	0x1
 1956 0764 AC       		.byte	0xac
 1957 0765 49000000 		.4byte	0x49
 1958 0769 03       		.byte	0x3
 1959 076a 74       		.byte	0x74
 1960 076b 18       		.sleb128 24
 1961 076c 06       		.byte	0x6
 1962 076d 27       		.uleb128 0x27
 1963 076e 18000000 		.4byte	.Ldebug_ranges0+0x18
 1964 0772 86070000 		.4byte	0x786
 1965 0776 28       		.uleb128 0x28
 1966 0777 746D7000 		.ascii	"tmp\000"
 1967 077b 01       		.byte	0x1
 1968 077c AE       		.byte	0xae
 1969 077d 7B000000 		.4byte	0x7b
 1970 0781 0B030000 		.4byte	.LLST20
 1971 0785 00       		.byte	0
 1972 0786 27       		.uleb128 0x27
 1973 0787 30000000 		.4byte	.Ldebug_ranges0+0x30
 1974 078b D2070000 		.4byte	0x7d2
 1975 078f 28       		.uleb128 0x28
 1976 0790 6D736700 		.ascii	"msg\000"
 1977 0794 01       		.byte	0x1
 1978 0795 B3       		.byte	0xb3
 1979 0796 DD000000 		.4byte	0xdd
 1980 079a 1E030000 		.4byte	.LLST21
 1981 079e 29       		.uleb128 0x29
 1982 079f 22000000 		.4byte	.LBB23
 1983 07a3 28000000 		.4byte	.LBE23
 1984 07a7 BB070000 		.4byte	0x7bb
 1985 07ab 28       		.uleb128 0x28
 1986 07ac 746D7000 		.ascii	"tmp\000"
 1987 07b0 01       		.byte	0x1
 1988 07b1 B5       		.byte	0xb5
ARM GAS  C:\Users\LAB_ME~1\AppData\Local\Temp\cciO7git.s 			page 36


 1989 07b2 7B000000 		.4byte	0x7b
 1990 07b6 31030000 		.4byte	.LLST22
 1991 07ba 00       		.byte	0
 1992 07bb 2A       		.uleb128 0x2a
 1993 07bc 1E000000 		.4byte	.LVL26
 1994 07c0 6F050000 		.4byte	0x56f
 1995 07c4 1D       		.uleb128 0x1d
 1996 07c5 01       		.byte	0x1
 1997 07c6 51       		.byte	0x51
 1998 07c7 02       		.byte	0x2
 1999 07c8 76       		.byte	0x76
 2000 07c9 00       		.sleb128 0
 2001 07ca 1D       		.uleb128 0x1d
 2002 07cb 01       		.byte	0x1
 2003 07cc 50       		.byte	0x50
 2004 07cd 02       		.byte	0x2
 2005 07ce 74       		.byte	0x74
 2006 07cf 00       		.sleb128 0
 2007 07d0 00       		.byte	0
 2008 07d1 00       		.byte	0
 2009 07d2 29       		.uleb128 0x29
 2010 07d3 40000000 		.4byte	.LBB25
 2011 07d7 46000000 		.4byte	.LBE25
 2012 07db EF070000 		.4byte	0x7ef
 2013 07df 28       		.uleb128 0x28
 2014 07e0 746D7000 		.ascii	"tmp\000"
 2015 07e4 01       		.byte	0x1
 2016 07e5 BF       		.byte	0xbf
 2017 07e6 7B000000 		.4byte	0x7b
 2018 07ea 44030000 		.4byte	.LLST23
 2019 07ee 00       		.byte	0
 2020 07ef 2B       		.uleb128 0x2b
 2021 07f0 12000000 		.4byte	.LVL24
 2022 07f4 1D       		.uleb128 0x1d
 2023 07f5 01       		.byte	0x1
 2024 07f6 50       		.byte	0x50
 2025 07f7 02       		.byte	0x2
 2026 07f8 74       		.byte	0x74
 2027 07f9 00       		.sleb128 0
 2028 07fa 00       		.byte	0
 2029 07fb 00       		.byte	0
 2030 07fc 25       		.uleb128 0x25
 2031 07fd 01       		.byte	0x1
 2032 07fe 44000000 		.4byte	.LASF84
 2033 0802 01       		.byte	0x1
 2034 0803 DB       		.byte	0xdb
 2035 0804 01       		.byte	0x1
 2036 0805 30000000 		.4byte	0x30
 2037 0809 00000000 		.4byte	.LFB12
 2038 080d 72000000 		.4byte	.LFE12
 2039 0811 57030000 		.4byte	.LLST24
 2040 0815 01       		.byte	0x1
 2041 0816 04090000 		.4byte	0x904
 2042 081a 18       		.uleb128 0x18
 2043 081b 69717000 		.ascii	"iqp\000"
 2044 081f 01       		.byte	0x1
 2045 0820 DB       		.byte	0xdb
ARM GAS  C:\Users\LAB_ME~1\AppData\Local\Temp\cciO7git.s 			page 37


 2046 0821 47060000 		.4byte	0x647
 2047 0825 77030000 		.4byte	.LLST25
 2048 0829 18       		.uleb128 0x18
 2049 082a 627000   		.ascii	"bp\000"
 2050 082d 01       		.byte	0x1
 2051 082e DB       		.byte	0xdb
 2052 082f F8040000 		.4byte	0x4f8
 2053 0833 B6030000 		.4byte	.LLST26
 2054 0837 18       		.uleb128 0x18
 2055 0838 6E00     		.ascii	"n\000"
 2056 083a 01       		.byte	0x1
 2057 083b DC       		.byte	0xdc
 2058 083c 30000000 		.4byte	0x30
 2059 0840 C9030000 		.4byte	.LLST27
 2060 0844 19       		.uleb128 0x19
 2061 0845 0C020000 		.4byte	.LASF76
 2062 0849 01       		.byte	0x1
 2063 084a DC       		.byte	0xdc
 2064 084b F3000000 		.4byte	0xf3
 2065 084f DC030000 		.4byte	.LLST28
 2066 0853 26       		.uleb128 0x26
 2067 0854 6E667900 		.ascii	"nfy\000"
 2068 0858 01       		.byte	0x1
 2069 0859 DD       		.byte	0xdd
 2070 085a D5040000 		.4byte	0x4d5
 2071 085e 01       		.byte	0x1
 2072 085f 57       		.byte	0x57
 2073 0860 28       		.uleb128 0x28
 2074 0861 7200     		.ascii	"r\000"
 2075 0863 01       		.byte	0x1
 2076 0864 DE       		.byte	0xde
 2077 0865 30000000 		.4byte	0x30
 2078 0869 1B040000 		.4byte	.LLST29
 2079 086d 27       		.uleb128 0x27
 2080 086e 48000000 		.4byte	.Ldebug_ranges0+0x48
 2081 0872 86080000 		.4byte	0x886
 2082 0876 28       		.uleb128 0x28
 2083 0877 746D7000 		.ascii	"tmp\000"
 2084 087b 01       		.byte	0x1
 2085 087c E2       		.byte	0xe2
 2086 087d 7B000000 		.4byte	0x7b
 2087 0881 3A040000 		.4byte	.LLST30
 2088 0885 00       		.byte	0
 2089 0886 29       		.uleb128 0x29
 2090 0887 32000000 		.4byte	.LBB28
 2091 088b 38000000 		.4byte	.LBE28
 2092 088f A3080000 		.4byte	0x8a3
 2093 0893 28       		.uleb128 0x28
 2094 0894 746D7000 		.ascii	"tmp\000"
 2095 0898 01       		.byte	0x1
 2096 0899 E9       		.byte	0xe9
 2097 089a 7B000000 		.4byte	0x7b
 2098 089e 63040000 		.4byte	.LLST31
 2099 08a2 00       		.byte	0
 2100 08a3 29       		.uleb128 0x29
 2101 08a4 58000000 		.4byte	.LBB29
 2102 08a8 5E000000 		.4byte	.LBE29
ARM GAS  C:\Users\LAB_ME~1\AppData\Local\Temp\cciO7git.s 			page 38


 2103 08ac C0080000 		.4byte	0x8c0
 2104 08b0 28       		.uleb128 0x28
 2105 08b1 746D7000 		.ascii	"tmp\000"
 2106 08b5 01       		.byte	0x1
 2107 08b6 F3       		.byte	0xf3
 2108 08b7 7B000000 		.4byte	0x7b
 2109 08bb 76040000 		.4byte	.LLST32
 2110 08bf 00       		.byte	0
 2111 08c0 29       		.uleb128 0x29
 2112 08c1 66000000 		.4byte	.LBB30
 2113 08c5 70000000 		.4byte	.LBE30
 2114 08c9 DD080000 		.4byte	0x8dd
 2115 08cd 28       		.uleb128 0x28
 2116 08ce 746D7000 		.ascii	"tmp\000"
 2117 08d2 01       		.byte	0x1
 2118 08d3 F8       		.byte	0xf8
 2119 08d4 7B000000 		.4byte	0x7b
 2120 08d8 94040000 		.4byte	.LLST33
 2121 08dc 00       		.byte	0
 2122 08dd 2C       		.uleb128 0x2c
 2123 08de 22000000 		.4byte	.LVL39
 2124 08e2 ED080000 		.4byte	0x8ed
 2125 08e6 1D       		.uleb128 0x1d
 2126 08e7 01       		.byte	0x1
 2127 08e8 50       		.byte	0x50
 2128 08e9 02       		.byte	0x2
 2129 08ea 74       		.byte	0x74
 2130 08eb 00       		.sleb128 0
 2131 08ec 00       		.byte	0
 2132 08ed 2A       		.uleb128 0x2a
 2133 08ee 2E000000 		.4byte	.LVL41
 2134 08f2 6F050000 		.4byte	0x56f
 2135 08f6 1D       		.uleb128 0x1d
 2136 08f7 01       		.byte	0x1
 2137 08f8 51       		.byte	0x51
 2138 08f9 02       		.byte	0x2
 2139 08fa 76       		.byte	0x76
 2140 08fb 00       		.sleb128 0
 2141 08fc 1D       		.uleb128 0x1d
 2142 08fd 01       		.byte	0x1
 2143 08fe 50       		.byte	0x50
 2144 08ff 02       		.byte	0x2
 2145 0900 74       		.byte	0x74
 2146 0901 00       		.sleb128 0
 2147 0902 00       		.byte	0
 2148 0903 00       		.byte	0
 2149 0904 2D       		.uleb128 0x2d
 2150 0905 01       		.byte	0x1
 2151 0906 00000000 		.4byte	.LASF85
 2152 090a 01       		.byte	0x1
 2153 090b 0C01     		.2byte	0x10c
 2154 090d 01       		.byte	0x1
 2155 090e 00000000 		.4byte	.LFB13
 2156 0912 1C000000 		.4byte	.LFE13
 2157 0916 C8040000 		.4byte	.LLST34
 2158 091a 01       		.byte	0x1
 2159 091b 68090000 		.4byte	0x968
ARM GAS  C:\Users\LAB_ME~1\AppData\Local\Temp\cciO7git.s 			page 39


 2160 091f 2E       		.uleb128 0x2e
 2161 0920 6F717000 		.ascii	"oqp\000"
 2162 0924 01       		.byte	0x1
 2163 0925 0C01     		.2byte	0x10c
 2164 0927 68090000 		.4byte	0x968
 2165 092b 01       		.byte	0x1
 2166 092c 50       		.byte	0x50
 2167 092d 2E       		.uleb128 0x2e
 2168 092e 627000   		.ascii	"bp\000"
 2169 0931 01       		.byte	0x1
 2170 0932 0C01     		.2byte	0x10c
 2171 0934 F8040000 		.4byte	0x4f8
 2172 0938 01       		.byte	0x1
 2173 0939 51       		.byte	0x51
 2174 093a 2F       		.uleb128 0x2f
 2175 093b 5A010000 		.4byte	.LASF77
 2176 093f 01       		.byte	0x1
 2177 0940 0C01     		.2byte	0x10c
 2178 0942 30000000 		.4byte	0x30
 2179 0946 01       		.byte	0x1
 2180 0947 52       		.byte	0x52
 2181 0948 30       		.uleb128 0x30
 2182 0949 1C000000 		.4byte	.LASF86
 2183 094d 01       		.byte	0x1
 2184 094e 0C01     		.2byte	0x10c
 2185 0950 D5040000 		.4byte	0x4d5
 2186 0954 E8040000 		.4byte	.LLST35
 2187 0958 2F       		.uleb128 0x2f
 2188 0959 0B010000 		.4byte	.LASF79
 2189 095d 01       		.byte	0x1
 2190 095e 0D01     		.2byte	0x10d
 2191 0960 91020000 		.4byte	0x291
 2192 0964 02       		.byte	0x2
 2193 0965 91       		.byte	0x91
 2194 0966 00       		.sleb128 0
 2195 0967 00       		.byte	0
 2196 0968 09       		.uleb128 0x9
 2197 0969 04       		.byte	0x4
 2198 096a 09050000 		.4byte	0x509
 2199 096e 2D       		.uleb128 0x2d
 2200 096f 01       		.byte	0x1
 2201 0970 1A030000 		.4byte	.LASF87
 2202 0974 01       		.byte	0x1
 2203 0975 2201     		.2byte	0x122
 2204 0977 01       		.byte	0x1
 2205 0978 00000000 		.4byte	.LFB14
 2206 097c 2E000000 		.4byte	.LFE14
 2207 0980 07050000 		.4byte	.LLST36
 2208 0984 01       		.byte	0x1
 2209 0985 D4090000 		.4byte	0x9d4
 2210 0989 31       		.uleb128 0x31
 2211 098a 6F717000 		.ascii	"oqp\000"
 2212 098e 01       		.byte	0x1
 2213 098f 2201     		.2byte	0x122
 2214 0991 68090000 		.4byte	0x968
 2215 0995 27050000 		.4byte	.LLST37
 2216 0999 32       		.uleb128 0x32
ARM GAS  C:\Users\LAB_ME~1\AppData\Local\Temp\cciO7git.s 			page 40


 2217 099a 48050000 		.4byte	0x548
 2218 099e 1A000000 		.4byte	.LBB31
 2219 09a2 20000000 		.4byte	.LBE31
 2220 09a6 01       		.byte	0x1
 2221 09a7 2901     		.2byte	0x129
 2222 09a9 CA090000 		.4byte	0x9ca
 2223 09ad 1B       		.uleb128 0x1b
 2224 09ae 59050000 		.4byte	0x559
 2225 09b2 45050000 		.4byte	.LLST38
 2226 09b6 22       		.uleb128 0x22
 2227 09b7 1A000000 		.4byte	.LBB32
 2228 09bb 20000000 		.4byte	.LBE32
 2229 09bf 23       		.uleb128 0x23
 2230 09c0 64050000 		.4byte	0x564
 2231 09c4 58050000 		.4byte	.LLST39
 2232 09c8 00       		.byte	0
 2233 09c9 00       		.byte	0
 2234 09ca 24       		.uleb128 0x24
 2235 09cb 24000000 		.4byte	.LVL55
 2236 09cf 610C0000 		.4byte	0xc61
 2237 09d3 00       		.byte	0
 2238 09d4 33       		.uleb128 0x33
 2239 09d5 01       		.byte	0x1
 2240 09d6 10010000 		.4byte	.LASF88
 2241 09da 01       		.byte	0x1
 2242 09db 4201     		.2byte	0x142
 2243 09dd 01       		.byte	0x1
 2244 09de DD000000 		.4byte	0xdd
 2245 09e2 00000000 		.4byte	.LFB15
 2246 09e6 4E000000 		.4byte	.LFE15
 2247 09ea 6B050000 		.4byte	.LLST40
 2248 09ee 01       		.byte	0x1
 2249 09ef B80A0000 		.4byte	0xab8
 2250 09f3 31       		.uleb128 0x31
 2251 09f4 6F717000 		.ascii	"oqp\000"
 2252 09f8 01       		.byte	0x1
 2253 09f9 4201     		.2byte	0x142
 2254 09fb 68090000 		.4byte	0x968
 2255 09ff 8B050000 		.4byte	.LLST41
 2256 0a03 31       		.uleb128 0x31
 2257 0a04 6200     		.ascii	"b\000"
 2258 0a06 01       		.byte	0x1
 2259 0a07 4201     		.2byte	0x142
 2260 0a09 49000000 		.4byte	0x49
 2261 0a0d D5050000 		.4byte	.LLST42
 2262 0a11 30       		.uleb128 0x30
 2263 0a12 0C020000 		.4byte	.LASF76
 2264 0a16 01       		.byte	0x1
 2265 0a17 4201     		.2byte	0x142
 2266 0a19 F3000000 		.4byte	0xf3
 2267 0a1d F6050000 		.4byte	.LLST43
 2268 0a21 29       		.uleb128 0x29
 2269 0a22 08000000 		.4byte	.LBB33
 2270 0a26 0E000000 		.4byte	.LBE33
 2271 0a2a 3F0A0000 		.4byte	0xa3f
 2272 0a2e 34       		.uleb128 0x34
 2273 0a2f 746D7000 		.ascii	"tmp\000"
ARM GAS  C:\Users\LAB_ME~1\AppData\Local\Temp\cciO7git.s 			page 41


 2274 0a33 01       		.byte	0x1
 2275 0a34 4401     		.2byte	0x144
 2276 0a36 7B000000 		.4byte	0x7b
 2277 0a3a 40060000 		.4byte	.LLST44
 2278 0a3e 00       		.byte	0
 2279 0a3f 27       		.uleb128 0x27
 2280 0a40 60000000 		.4byte	.Ldebug_ranges0+0x60
 2281 0a44 8D0A0000 		.4byte	0xa8d
 2282 0a48 34       		.uleb128 0x34
 2283 0a49 6D736700 		.ascii	"msg\000"
 2284 0a4d 01       		.byte	0x1
 2285 0a4e 4601     		.2byte	0x146
 2286 0a50 DD000000 		.4byte	0xdd
 2287 0a54 5E060000 		.4byte	.LLST45
 2288 0a58 29       		.uleb128 0x29
 2289 0a59 1E000000 		.4byte	.LBB35
 2290 0a5d 24000000 		.4byte	.LBE35
 2291 0a61 760A0000 		.4byte	0xa76
 2292 0a65 34       		.uleb128 0x34
 2293 0a66 746D7000 		.ascii	"tmp\000"
 2294 0a6a 01       		.byte	0x1
 2295 0a6b 4901     		.2byte	0x149
 2296 0a6d 7B000000 		.4byte	0x7b
 2297 0a71 71060000 		.4byte	.LLST46
 2298 0a75 00       		.byte	0
 2299 0a76 2A       		.uleb128 0x2a
 2300 0a77 1A000000 		.4byte	.LVL61
 2301 0a7b 6F050000 		.4byte	0x56f
 2302 0a7f 1D       		.uleb128 0x1d
 2303 0a80 01       		.byte	0x1
 2304 0a81 51       		.byte	0x51
 2305 0a82 02       		.byte	0x2
 2306 0a83 76       		.byte	0x76
 2307 0a84 00       		.sleb128 0
 2308 0a85 1D       		.uleb128 0x1d
 2309 0a86 01       		.byte	0x1
 2310 0a87 50       		.byte	0x50
 2311 0a88 02       		.byte	0x2
 2312 0a89 74       		.byte	0x74
 2313 0a8a 00       		.sleb128 0
 2314 0a8b 00       		.byte	0
 2315 0a8c 00       		.byte	0
 2316 0a8d 29       		.uleb128 0x29
 2317 0a8e 44000000 		.4byte	.LBB37
 2318 0a92 4A000000 		.4byte	.LBE37
 2319 0a96 AB0A0000 		.4byte	0xaab
 2320 0a9a 34       		.uleb128 0x34
 2321 0a9b 746D7000 		.ascii	"tmp\000"
 2322 0a9f 01       		.byte	0x1
 2323 0aa0 5601     		.2byte	0x156
 2324 0aa2 7B000000 		.4byte	0x7b
 2325 0aa6 84060000 		.4byte	.LLST47
 2326 0aaa 00       		.byte	0
 2327 0aab 2B       		.uleb128 0x2b
 2328 0aac 44000000 		.4byte	.LVL67
 2329 0ab0 1D       		.uleb128 0x1d
 2330 0ab1 01       		.byte	0x1
ARM GAS  C:\Users\LAB_ME~1\AppData\Local\Temp\cciO7git.s 			page 42


 2331 0ab2 50       		.byte	0x50
 2332 0ab3 02       		.byte	0x2
 2333 0ab4 74       		.byte	0x74
 2334 0ab5 00       		.sleb128 0
 2335 0ab6 00       		.byte	0
 2336 0ab7 00       		.byte	0
 2337 0ab8 33       		.uleb128 0x33
 2338 0ab9 01       		.byte	0x1
 2339 0aba D8000000 		.4byte	.LASF89
 2340 0abe 01       		.byte	0x1
 2341 0abf 6401     		.2byte	0x164
 2342 0ac1 01       		.byte	0x1
 2343 0ac2 DD000000 		.4byte	0xdd
 2344 0ac6 00000000 		.4byte	.LFB16
 2345 0aca 46000000 		.4byte	.LFE16
 2346 0ace 97060000 		.4byte	.LLST48
 2347 0ad2 01       		.byte	0x1
 2348 0ad3 300B0000 		.4byte	0xb30
 2349 0ad7 31       		.uleb128 0x31
 2350 0ad8 6F717000 		.ascii	"oqp\000"
 2351 0adc 01       		.byte	0x1
 2352 0add 6401     		.2byte	0x164
 2353 0adf 68090000 		.4byte	0x968
 2354 0ae3 B7060000 		.4byte	.LLST49
 2355 0ae7 34       		.uleb128 0x34
 2356 0ae8 6200     		.ascii	"b\000"
 2357 0aea 01       		.byte	0x1
 2358 0aeb 6501     		.2byte	0x165
 2359 0aed 49000000 		.4byte	0x49
 2360 0af1 F9060000 		.4byte	.LLST50
 2361 0af5 32       		.uleb128 0x32
 2362 0af6 48050000 		.4byte	0x548
 2363 0afa 2A000000 		.4byte	.LBB38
 2364 0afe 30000000 		.4byte	.LBE38
 2365 0b02 01       		.byte	0x1
 2366 0b03 7201     		.2byte	0x172
 2367 0b05 260B0000 		.4byte	0xb26
 2368 0b09 1B       		.uleb128 0x1b
 2369 0b0a 59050000 		.4byte	0x559
 2370 0b0e 26070000 		.4byte	.LLST51
 2371 0b12 22       		.uleb128 0x22
 2372 0b13 2A000000 		.4byte	.LBB39
 2373 0b17 30000000 		.4byte	.LBE39
 2374 0b1b 23       		.uleb128 0x23
 2375 0b1c 64050000 		.4byte	0x564
 2376 0b20 47070000 		.4byte	.LLST52
 2377 0b24 00       		.byte	0
 2378 0b25 00       		.byte	0
 2379 0b26 24       		.uleb128 0x24
 2380 0b27 34000000 		.4byte	.LVL74
 2381 0b2b 610C0000 		.4byte	0xc61
 2382 0b2f 00       		.byte	0
 2383 0b30 35       		.uleb128 0x35
 2384 0b31 01       		.byte	0x1
 2385 0b32 CD010000 		.4byte	.LASF90
 2386 0b36 01       		.byte	0x1
 2387 0b37 8F01     		.2byte	0x18f
ARM GAS  C:\Users\LAB_ME~1\AppData\Local\Temp\cciO7git.s 			page 43


 2388 0b39 01       		.byte	0x1
 2389 0b3a 30000000 		.4byte	0x30
 2390 0b3e 00000000 		.4byte	.LFB17
 2391 0b42 74000000 		.4byte	.LFE17
 2392 0b46 5A070000 		.4byte	.LLST53
 2393 0b4a 01       		.byte	0x1
 2394 0b4b 370C0000 		.4byte	0xc37
 2395 0b4f 31       		.uleb128 0x31
 2396 0b50 6F717000 		.ascii	"oqp\000"
 2397 0b54 01       		.byte	0x1
 2398 0b55 8F01     		.2byte	0x18f
 2399 0b57 68090000 		.4byte	0x968
 2400 0b5b 7A070000 		.4byte	.LLST54
 2401 0b5f 31       		.uleb128 0x31
 2402 0b60 627000   		.ascii	"bp\000"
 2403 0b63 01       		.byte	0x1
 2404 0b64 8F01     		.2byte	0x18f
 2405 0b66 14050000 		.4byte	0x514
 2406 0b6a C4070000 		.4byte	.LLST55
 2407 0b6e 31       		.uleb128 0x31
 2408 0b6f 6E00     		.ascii	"n\000"
 2409 0b71 01       		.byte	0x1
 2410 0b72 9001     		.2byte	0x190
 2411 0b74 30000000 		.4byte	0x30
 2412 0b78 FA070000 		.4byte	.LLST56
 2413 0b7c 30       		.uleb128 0x30
 2414 0b7d 0C020000 		.4byte	.LASF76
 2415 0b81 01       		.byte	0x1
 2416 0b82 9001     		.2byte	0x190
 2417 0b84 F3000000 		.4byte	0xf3
 2418 0b88 30080000 		.4byte	.LLST57
 2419 0b8c 36       		.uleb128 0x36
 2420 0b8d 6E667900 		.ascii	"nfy\000"
 2421 0b91 01       		.byte	0x1
 2422 0b92 9101     		.2byte	0x191
 2423 0b94 D5040000 		.4byte	0x4d5
 2424 0b98 01       		.byte	0x1
 2425 0b99 59       		.byte	0x59
 2426 0b9a 34       		.uleb128 0x34
 2427 0b9b 7700     		.ascii	"w\000"
 2428 0b9d 01       		.byte	0x1
 2429 0b9e 9201     		.2byte	0x192
 2430 0ba0 30000000 		.4byte	0x30
 2431 0ba4 4E080000 		.4byte	.LLST58
 2432 0ba8 29       		.uleb128 0x29
 2433 0ba9 10000000 		.4byte	.LBB40
 2434 0bad 18000000 		.4byte	.LBE40
 2435 0bb1 C60B0000 		.4byte	0xbc6
 2436 0bb5 34       		.uleb128 0x34
 2437 0bb6 746D7000 		.ascii	"tmp\000"
 2438 0bba 01       		.byte	0x1
 2439 0bbb 9601     		.2byte	0x196
 2440 0bbd 7B000000 		.4byte	0x7b
 2441 0bc1 6D080000 		.4byte	.LLST59
 2442 0bc5 00       		.byte	0
 2443 0bc6 29       		.uleb128 0x29
 2444 0bc7 40000000 		.4byte	.LBB41
ARM GAS  C:\Users\LAB_ME~1\AppData\Local\Temp\cciO7git.s 			page 44


 2445 0bcb 46000000 		.4byte	.LBE41
 2446 0bcf E40B0000 		.4byte	0xbe4
 2447 0bd3 34       		.uleb128 0x34
 2448 0bd4 746D7000 		.ascii	"tmp\000"
 2449 0bd8 01       		.byte	0x1
 2450 0bd9 A601     		.2byte	0x1a6
 2451 0bdb 7B000000 		.4byte	0x7b
 2452 0bdf 80080000 		.4byte	.LLST60
 2453 0be3 00       		.byte	0
 2454 0be4 29       		.uleb128 0x29
 2455 0be5 4C000000 		.4byte	.LBB42
 2456 0be9 52000000 		.4byte	.LBE42
 2457 0bed 020C0000 		.4byte	0xc02
 2458 0bf1 34       		.uleb128 0x34
 2459 0bf2 746D7000 		.ascii	"tmp\000"
 2460 0bf6 01       		.byte	0x1
 2461 0bf7 AA01     		.2byte	0x1aa
 2462 0bf9 7B000000 		.4byte	0x7b
 2463 0bfd 9E080000 		.4byte	.LLST61
 2464 0c01 00       		.byte	0
 2465 0c02 29       		.uleb128 0x29
 2466 0c03 68000000 		.4byte	.LBB43
 2467 0c07 6E000000 		.4byte	.LBE43
 2468 0c0b 200C0000 		.4byte	0xc20
 2469 0c0f 34       		.uleb128 0x34
 2470 0c10 746D7000 		.ascii	"tmp\000"
 2471 0c14 01       		.byte	0x1
 2472 0c15 9A01     		.2byte	0x19a
 2473 0c17 7B000000 		.4byte	0x7b
 2474 0c1b B1080000 		.4byte	.LLST62
 2475 0c1f 00       		.byte	0
 2476 0c20 2A       		.uleb128 0x2a
 2477 0c21 64000000 		.4byte	.LVL97
 2478 0c25 6F050000 		.4byte	0x56f
 2479 0c29 1D       		.uleb128 0x1d
 2480 0c2a 01       		.byte	0x1
 2481 0c2b 51       		.byte	0x51
 2482 0c2c 02       		.byte	0x2
 2483 0c2d 7A       		.byte	0x7a
 2484 0c2e 00       		.sleb128 0
 2485 0c2f 1D       		.uleb128 0x1d
 2486 0c30 01       		.byte	0x1
 2487 0c31 50       		.byte	0x50
 2488 0c32 02       		.byte	0x2
 2489 0c33 74       		.byte	0x74
 2490 0c34 00       		.sleb128 0
 2491 0c35 00       		.byte	0
 2492 0c36 00       		.byte	0
 2493 0c37 37       		.uleb128 0x37
 2494 0c38 5E030000 		.4byte	.LASF97
 2495 0c3c 09       		.byte	0x9
 2496 0c3d 68       		.byte	0x68
 2497 0c3e AD030000 		.4byte	0x3ad
 2498 0c42 01       		.byte	0x1
 2499 0c43 01       		.byte	0x1
 2500 0c44 38       		.uleb128 0x38
 2501 0c45 01       		.byte	0x1
ARM GAS  C:\Users\LAB_ME~1\AppData\Local\Temp\cciO7git.s 			page 45


 2502 0c46 7A030000 		.4byte	.LASF98
 2503 0c4a 09       		.byte	0x9
 2504 0c4b 8F       		.byte	0x8f
 2505 0c4c 01       		.byte	0x1
 2506 0c4d DD000000 		.4byte	0xdd
 2507 0c51 01       		.byte	0x1
 2508 0c52 610C0000 		.4byte	0xc61
 2509 0c56 12       		.uleb128 0x12
 2510 0c57 B1000000 		.4byte	0xb1
 2511 0c5b 12       		.uleb128 0x12
 2512 0c5c F3000000 		.4byte	0xf3
 2513 0c60 00       		.byte	0
 2514 0c61 39       		.uleb128 0x39
 2515 0c62 01       		.byte	0x1
 2516 0c63 DC020000 		.4byte	.LASF99
 2517 0c67 09       		.byte	0x9
 2518 0c68 89       		.byte	0x89
 2519 0c69 01       		.byte	0x1
 2520 0c6a 53020000 		.4byte	0x253
 2521 0c6e 01       		.byte	0x1
 2522 0c6f 12       		.uleb128 0x12
 2523 0c70 53020000 		.4byte	0x253
 2524 0c74 00       		.byte	0
 2525 0c75 00       		.byte	0
 2526              		.section	.debug_abbrev,"",%progbits
 2527              	.Ldebug_abbrev0:
 2528 0000 01       		.uleb128 0x1
 2529 0001 11       		.uleb128 0x11
 2530 0002 01       		.byte	0x1
 2531 0003 25       		.uleb128 0x25
 2532 0004 0E       		.uleb128 0xe
 2533 0005 13       		.uleb128 0x13
 2534 0006 0B       		.uleb128 0xb
 2535 0007 03       		.uleb128 0x3
 2536 0008 0E       		.uleb128 0xe
 2537 0009 1B       		.uleb128 0x1b
 2538 000a 0E       		.uleb128 0xe
 2539 000b 55       		.uleb128 0x55
 2540 000c 06       		.uleb128 0x6
 2541 000d 11       		.uleb128 0x11
 2542 000e 01       		.uleb128 0x1
 2543 000f 52       		.uleb128 0x52
 2544 0010 01       		.uleb128 0x1
 2545 0011 10       		.uleb128 0x10
 2546 0012 06       		.uleb128 0x6
 2547 0013 00       		.byte	0
 2548 0014 00       		.byte	0
 2549 0015 02       		.uleb128 0x2
 2550 0016 24       		.uleb128 0x24
 2551 0017 00       		.byte	0
 2552 0018 0B       		.uleb128 0xb
 2553 0019 0B       		.uleb128 0xb
 2554 001a 3E       		.uleb128 0x3e
 2555 001b 0B       		.uleb128 0xb
 2556 001c 03       		.uleb128 0x3
 2557 001d 08       		.uleb128 0x8
 2558 001e 00       		.byte	0
ARM GAS  C:\Users\LAB_ME~1\AppData\Local\Temp\cciO7git.s 			page 46


 2559 001f 00       		.byte	0
 2560 0020 03       		.uleb128 0x3
 2561 0021 16       		.uleb128 0x16
 2562 0022 00       		.byte	0
 2563 0023 03       		.uleb128 0x3
 2564 0024 0E       		.uleb128 0xe
 2565 0025 3A       		.uleb128 0x3a
 2566 0026 0B       		.uleb128 0xb
 2567 0027 3B       		.uleb128 0x3b
 2568 0028 0B       		.uleb128 0xb
 2569 0029 49       		.uleb128 0x49
 2570 002a 13       		.uleb128 0x13
 2571 002b 00       		.byte	0
 2572 002c 00       		.byte	0
 2573 002d 04       		.uleb128 0x4
 2574 002e 24       		.uleb128 0x24
 2575 002f 00       		.byte	0
 2576 0030 0B       		.uleb128 0xb
 2577 0031 0B       		.uleb128 0xb
 2578 0032 3E       		.uleb128 0x3e
 2579 0033 0B       		.uleb128 0xb
 2580 0034 03       		.uleb128 0x3
 2581 0035 0E       		.uleb128 0xe
 2582 0036 00       		.byte	0
 2583 0037 00       		.byte	0
 2584 0038 05       		.uleb128 0x5
 2585 0039 13       		.uleb128 0x13
 2586 003a 01       		.byte	0x1
 2587 003b 03       		.uleb128 0x3
 2588 003c 0E       		.uleb128 0xe
 2589 003d 0B       		.uleb128 0xb
 2590 003e 0B       		.uleb128 0xb
 2591 003f 3A       		.uleb128 0x3a
 2592 0040 0B       		.uleb128 0xb
 2593 0041 3B       		.uleb128 0x3b
 2594 0042 0B       		.uleb128 0xb
 2595 0043 01       		.uleb128 0x1
 2596 0044 13       		.uleb128 0x13
 2597 0045 00       		.byte	0
 2598 0046 00       		.byte	0
 2599 0047 06       		.uleb128 0x6
 2600 0048 0D       		.uleb128 0xd
 2601 0049 00       		.byte	0
 2602 004a 03       		.uleb128 0x3
 2603 004b 0E       		.uleb128 0xe
 2604 004c 3A       		.uleb128 0x3a
 2605 004d 0B       		.uleb128 0xb
 2606 004e 3B       		.uleb128 0x3b
 2607 004f 0B       		.uleb128 0xb
 2608 0050 49       		.uleb128 0x49
 2609 0051 13       		.uleb128 0x13
 2610 0052 38       		.uleb128 0x38
 2611 0053 0A       		.uleb128 0xa
 2612 0054 00       		.byte	0
 2613 0055 00       		.byte	0
 2614 0056 07       		.uleb128 0x7
 2615 0057 0D       		.uleb128 0xd
ARM GAS  C:\Users\LAB_ME~1\AppData\Local\Temp\cciO7git.s 			page 47


 2616 0058 00       		.byte	0
 2617 0059 03       		.uleb128 0x3
 2618 005a 08       		.uleb128 0x8
 2619 005b 3A       		.uleb128 0x3a
 2620 005c 0B       		.uleb128 0xb
 2621 005d 3B       		.uleb128 0x3b
 2622 005e 0B       		.uleb128 0xb
 2623 005f 49       		.uleb128 0x49
 2624 0060 13       		.uleb128 0x13
 2625 0061 38       		.uleb128 0x38
 2626 0062 0A       		.uleb128 0xa
 2627 0063 00       		.byte	0
 2628 0064 00       		.byte	0
 2629 0065 08       		.uleb128 0x8
 2630 0066 13       		.uleb128 0x13
 2631 0067 01       		.byte	0x1
 2632 0068 0B       		.uleb128 0xb
 2633 0069 0B       		.uleb128 0xb
 2634 006a 3A       		.uleb128 0x3a
 2635 006b 0B       		.uleb128 0xb
 2636 006c 3B       		.uleb128 0x3b
 2637 006d 0B       		.uleb128 0xb
 2638 006e 01       		.uleb128 0x1
 2639 006f 13       		.uleb128 0x13
 2640 0070 00       		.byte	0
 2641 0071 00       		.byte	0
 2642 0072 09       		.uleb128 0x9
 2643 0073 0F       		.uleb128 0xf
 2644 0074 00       		.byte	0
 2645 0075 0B       		.uleb128 0xb
 2646 0076 0B       		.uleb128 0xb
 2647 0077 49       		.uleb128 0x49
 2648 0078 13       		.uleb128 0x13
 2649 0079 00       		.byte	0
 2650 007a 00       		.byte	0
 2651 007b 0A       		.uleb128 0xa
 2652 007c 0F       		.uleb128 0xf
 2653 007d 00       		.byte	0
 2654 007e 0B       		.uleb128 0xb
 2655 007f 0B       		.uleb128 0xb
 2656 0080 00       		.byte	0
 2657 0081 00       		.byte	0
 2658 0082 0B       		.uleb128 0xb
 2659 0083 13       		.uleb128 0x13
 2660 0084 01       		.byte	0x1
 2661 0085 03       		.uleb128 0x3
 2662 0086 0E       		.uleb128 0xe
 2663 0087 0B       		.uleb128 0xb
 2664 0088 0B       		.uleb128 0xb
 2665 0089 3A       		.uleb128 0x3a
 2666 008a 0B       		.uleb128 0xb
 2667 008b 3B       		.uleb128 0x3b
 2668 008c 05       		.uleb128 0x5
 2669 008d 01       		.uleb128 0x1
 2670 008e 13       		.uleb128 0x13
 2671 008f 00       		.byte	0
 2672 0090 00       		.byte	0
ARM GAS  C:\Users\LAB_ME~1\AppData\Local\Temp\cciO7git.s 			page 48


 2673 0091 0C       		.uleb128 0xc
 2674 0092 0D       		.uleb128 0xd
 2675 0093 00       		.byte	0
 2676 0094 03       		.uleb128 0x3
 2677 0095 08       		.uleb128 0x8
 2678 0096 3A       		.uleb128 0x3a
 2679 0097 0B       		.uleb128 0xb
 2680 0098 3B       		.uleb128 0x3b
 2681 0099 05       		.uleb128 0x5
 2682 009a 49       		.uleb128 0x49
 2683 009b 13       		.uleb128 0x13
 2684 009c 38       		.uleb128 0x38
 2685 009d 0A       		.uleb128 0xa
 2686 009e 00       		.byte	0
 2687 009f 00       		.byte	0
 2688 00a0 0D       		.uleb128 0xd
 2689 00a1 35       		.uleb128 0x35
 2690 00a2 00       		.byte	0
 2691 00a3 49       		.uleb128 0x49
 2692 00a4 13       		.uleb128 0x13
 2693 00a5 00       		.byte	0
 2694 00a6 00       		.byte	0
 2695 00a7 0E       		.uleb128 0xe
 2696 00a8 17       		.uleb128 0x17
 2697 00a9 01       		.byte	0x1
 2698 00aa 0B       		.uleb128 0xb
 2699 00ab 0B       		.uleb128 0xb
 2700 00ac 3A       		.uleb128 0x3a
 2701 00ad 0B       		.uleb128 0xb
 2702 00ae 3B       		.uleb128 0x3b
 2703 00af 0B       		.uleb128 0xb
 2704 00b0 01       		.uleb128 0x1
 2705 00b1 13       		.uleb128 0x13
 2706 00b2 00       		.byte	0
 2707 00b3 00       		.byte	0
 2708 00b4 0F       		.uleb128 0xf
 2709 00b5 0D       		.uleb128 0xd
 2710 00b6 00       		.byte	0
 2711 00b7 03       		.uleb128 0x3
 2712 00b8 0E       		.uleb128 0xe
 2713 00b9 3A       		.uleb128 0x3a
 2714 00ba 0B       		.uleb128 0xb
 2715 00bb 3B       		.uleb128 0x3b
 2716 00bc 0B       		.uleb128 0xb
 2717 00bd 49       		.uleb128 0x49
 2718 00be 13       		.uleb128 0x13
 2719 00bf 00       		.byte	0
 2720 00c0 00       		.byte	0
 2721 00c1 10       		.uleb128 0x10
 2722 00c2 26       		.uleb128 0x26
 2723 00c3 00       		.byte	0
 2724 00c4 49       		.uleb128 0x49
 2725 00c5 13       		.uleb128 0x13
 2726 00c6 00       		.byte	0
 2727 00c7 00       		.byte	0
 2728 00c8 11       		.uleb128 0x11
 2729 00c9 15       		.uleb128 0x15
ARM GAS  C:\Users\LAB_ME~1\AppData\Local\Temp\cciO7git.s 			page 49


 2730 00ca 01       		.byte	0x1
 2731 00cb 27       		.uleb128 0x27
 2732 00cc 0C       		.uleb128 0xc
 2733 00cd 01       		.uleb128 0x1
 2734 00ce 13       		.uleb128 0x13
 2735 00cf 00       		.byte	0
 2736 00d0 00       		.byte	0
 2737 00d1 12       		.uleb128 0x12
 2738 00d2 05       		.uleb128 0x5
 2739 00d3 00       		.byte	0
 2740 00d4 49       		.uleb128 0x49
 2741 00d5 13       		.uleb128 0x13
 2742 00d6 00       		.byte	0
 2743 00d7 00       		.byte	0
 2744 00d8 13       		.uleb128 0x13
 2745 00d9 2E       		.uleb128 0x2e
 2746 00da 01       		.byte	0x1
 2747 00db 03       		.uleb128 0x3
 2748 00dc 0E       		.uleb128 0xe
 2749 00dd 3A       		.uleb128 0x3a
 2750 00de 0B       		.uleb128 0xb
 2751 00df 3B       		.uleb128 0x3b
 2752 00e0 0B       		.uleb128 0xb
 2753 00e1 27       		.uleb128 0x27
 2754 00e2 0C       		.uleb128 0xc
 2755 00e3 20       		.uleb128 0x20
 2756 00e4 0B       		.uleb128 0xb
 2757 00e5 01       		.uleb128 0x1
 2758 00e6 13       		.uleb128 0x13
 2759 00e7 00       		.byte	0
 2760 00e8 00       		.byte	0
 2761 00e9 14       		.uleb128 0x14
 2762 00ea 05       		.uleb128 0x5
 2763 00eb 00       		.byte	0
 2764 00ec 03       		.uleb128 0x3
 2765 00ed 08       		.uleb128 0x8
 2766 00ee 3A       		.uleb128 0x3a
 2767 00ef 0B       		.uleb128 0xb
 2768 00f0 3B       		.uleb128 0x3b
 2769 00f1 0B       		.uleb128 0xb
 2770 00f2 49       		.uleb128 0x49
 2771 00f3 13       		.uleb128 0x13
 2772 00f4 00       		.byte	0
 2773 00f5 00       		.byte	0
 2774 00f6 15       		.uleb128 0x15
 2775 00f7 2E       		.uleb128 0x2e
 2776 00f8 01       		.byte	0x1
 2777 00f9 03       		.uleb128 0x3
 2778 00fa 0E       		.uleb128 0xe
 2779 00fb 3A       		.uleb128 0x3a
 2780 00fc 0B       		.uleb128 0xb
 2781 00fd 3B       		.uleb128 0x3b
 2782 00fe 0B       		.uleb128 0xb
 2783 00ff 27       		.uleb128 0x27
 2784 0100 0C       		.uleb128 0xc
 2785 0101 49       		.uleb128 0x49
 2786 0102 13       		.uleb128 0x13
ARM GAS  C:\Users\LAB_ME~1\AppData\Local\Temp\cciO7git.s 			page 50


 2787 0103 20       		.uleb128 0x20
 2788 0104 0B       		.uleb128 0xb
 2789 0105 01       		.uleb128 0x1
 2790 0106 13       		.uleb128 0x13
 2791 0107 00       		.byte	0
 2792 0108 00       		.byte	0
 2793 0109 16       		.uleb128 0x16
 2794 010a 34       		.uleb128 0x34
 2795 010b 00       		.byte	0
 2796 010c 03       		.uleb128 0x3
 2797 010d 08       		.uleb128 0x8
 2798 010e 3A       		.uleb128 0x3a
 2799 010f 0B       		.uleb128 0xb
 2800 0110 3B       		.uleb128 0x3b
 2801 0111 0B       		.uleb128 0xb
 2802 0112 49       		.uleb128 0x49
 2803 0113 13       		.uleb128 0x13
 2804 0114 00       		.byte	0
 2805 0115 00       		.byte	0
 2806 0116 17       		.uleb128 0x17
 2807 0117 2E       		.uleb128 0x2e
 2808 0118 01       		.byte	0x1
 2809 0119 03       		.uleb128 0x3
 2810 011a 0E       		.uleb128 0xe
 2811 011b 3A       		.uleb128 0x3a
 2812 011c 0B       		.uleb128 0xb
 2813 011d 3B       		.uleb128 0x3b
 2814 011e 0B       		.uleb128 0xb
 2815 011f 27       		.uleb128 0x27
 2816 0120 0C       		.uleb128 0xc
 2817 0121 49       		.uleb128 0x49
 2818 0122 13       		.uleb128 0x13
 2819 0123 11       		.uleb128 0x11
 2820 0124 01       		.uleb128 0x1
 2821 0125 12       		.uleb128 0x12
 2822 0126 01       		.uleb128 0x1
 2823 0127 40       		.uleb128 0x40
 2824 0128 06       		.uleb128 0x6
 2825 0129 9742     		.uleb128 0x2117
 2826 012b 0C       		.uleb128 0xc
 2827 012c 01       		.uleb128 0x1
 2828 012d 13       		.uleb128 0x13
 2829 012e 00       		.byte	0
 2830 012f 00       		.byte	0
 2831 0130 18       		.uleb128 0x18
 2832 0131 05       		.uleb128 0x5
 2833 0132 00       		.byte	0
 2834 0133 03       		.uleb128 0x3
 2835 0134 08       		.uleb128 0x8
 2836 0135 3A       		.uleb128 0x3a
 2837 0136 0B       		.uleb128 0xb
 2838 0137 3B       		.uleb128 0x3b
 2839 0138 0B       		.uleb128 0xb
 2840 0139 49       		.uleb128 0x49
 2841 013a 13       		.uleb128 0x13
 2842 013b 02       		.uleb128 0x2
 2843 013c 06       		.uleb128 0x6
ARM GAS  C:\Users\LAB_ME~1\AppData\Local\Temp\cciO7git.s 			page 51


 2844 013d 00       		.byte	0
 2845 013e 00       		.byte	0
 2846 013f 19       		.uleb128 0x19
 2847 0140 05       		.uleb128 0x5
 2848 0141 00       		.byte	0
 2849 0142 03       		.uleb128 0x3
 2850 0143 0E       		.uleb128 0xe
 2851 0144 3A       		.uleb128 0x3a
 2852 0145 0B       		.uleb128 0xb
 2853 0146 3B       		.uleb128 0x3b
 2854 0147 0B       		.uleb128 0xb
 2855 0148 49       		.uleb128 0x49
 2856 0149 13       		.uleb128 0x13
 2857 014a 02       		.uleb128 0x2
 2858 014b 06       		.uleb128 0x6
 2859 014c 00       		.byte	0
 2860 014d 00       		.byte	0
 2861 014e 1A       		.uleb128 0x1a
 2862 014f 1D       		.uleb128 0x1d
 2863 0150 01       		.byte	0x1
 2864 0151 31       		.uleb128 0x31
 2865 0152 13       		.uleb128 0x13
 2866 0153 52       		.uleb128 0x52
 2867 0154 01       		.uleb128 0x1
 2868 0155 55       		.uleb128 0x55
 2869 0156 06       		.uleb128 0x6
 2870 0157 58       		.uleb128 0x58
 2871 0158 0B       		.uleb128 0xb
 2872 0159 59       		.uleb128 0x59
 2873 015a 0B       		.uleb128 0xb
 2874 015b 01       		.uleb128 0x1
 2875 015c 13       		.uleb128 0x13
 2876 015d 00       		.byte	0
 2877 015e 00       		.byte	0
 2878 015f 1B       		.uleb128 0x1b
 2879 0160 05       		.uleb128 0x5
 2880 0161 00       		.byte	0
 2881 0162 31       		.uleb128 0x31
 2882 0163 13       		.uleb128 0x13
 2883 0164 02       		.uleb128 0x2
 2884 0165 06       		.uleb128 0x6
 2885 0166 00       		.byte	0
 2886 0167 00       		.byte	0
 2887 0168 1C       		.uleb128 0x1c
 2888 0169 898201   		.uleb128 0x4109
 2889 016c 01       		.byte	0x1
 2890 016d 11       		.uleb128 0x11
 2891 016e 01       		.uleb128 0x1
 2892 016f 9542     		.uleb128 0x2115
 2893 0171 0C       		.uleb128 0xc
 2894 0172 31       		.uleb128 0x31
 2895 0173 13       		.uleb128 0x13
 2896 0174 00       		.byte	0
 2897 0175 00       		.byte	0
 2898 0176 1D       		.uleb128 0x1d
 2899 0177 8A8201   		.uleb128 0x410a
 2900 017a 00       		.byte	0
ARM GAS  C:\Users\LAB_ME~1\AppData\Local\Temp\cciO7git.s 			page 52


 2901 017b 02       		.uleb128 0x2
 2902 017c 0A       		.uleb128 0xa
 2903 017d 9142     		.uleb128 0x2111
 2904 017f 0A       		.uleb128 0xa
 2905 0180 00       		.byte	0
 2906 0181 00       		.byte	0
 2907 0182 1E       		.uleb128 0x1e
 2908 0183 2E       		.uleb128 0x2e
 2909 0184 01       		.byte	0x1
 2910 0185 3F       		.uleb128 0x3f
 2911 0186 0C       		.uleb128 0xc
 2912 0187 03       		.uleb128 0x3
 2913 0188 0E       		.uleb128 0xe
 2914 0189 3A       		.uleb128 0x3a
 2915 018a 0B       		.uleb128 0xb
 2916 018b 3B       		.uleb128 0x3b
 2917 018c 0B       		.uleb128 0xb
 2918 018d 27       		.uleb128 0x27
 2919 018e 0C       		.uleb128 0xc
 2920 018f 11       		.uleb128 0x11
 2921 0190 01       		.uleb128 0x1
 2922 0191 12       		.uleb128 0x12
 2923 0192 01       		.uleb128 0x1
 2924 0193 40       		.uleb128 0x40
 2925 0194 06       		.uleb128 0x6
 2926 0195 9742     		.uleb128 0x2117
 2927 0197 0C       		.uleb128 0xc
 2928 0198 01       		.uleb128 0x1
 2929 0199 13       		.uleb128 0x13
 2930 019a 00       		.byte	0
 2931 019b 00       		.byte	0
 2932 019c 1F       		.uleb128 0x1f
 2933 019d 05       		.uleb128 0x5
 2934 019e 00       		.byte	0
 2935 019f 03       		.uleb128 0x3
 2936 01a0 08       		.uleb128 0x8
 2937 01a1 3A       		.uleb128 0x3a
 2938 01a2 0B       		.uleb128 0xb
 2939 01a3 3B       		.uleb128 0x3b
 2940 01a4 0B       		.uleb128 0xb
 2941 01a5 49       		.uleb128 0x49
 2942 01a6 13       		.uleb128 0x13
 2943 01a7 02       		.uleb128 0x2
 2944 01a8 0A       		.uleb128 0xa
 2945 01a9 00       		.byte	0
 2946 01aa 00       		.byte	0
 2947 01ab 20       		.uleb128 0x20
 2948 01ac 05       		.uleb128 0x5
 2949 01ad 00       		.byte	0
 2950 01ae 03       		.uleb128 0x3
 2951 01af 0E       		.uleb128 0xe
 2952 01b0 3A       		.uleb128 0x3a
 2953 01b1 0B       		.uleb128 0xb
 2954 01b2 3B       		.uleb128 0x3b
 2955 01b3 0B       		.uleb128 0xb
 2956 01b4 49       		.uleb128 0x49
 2957 01b5 13       		.uleb128 0x13
ARM GAS  C:\Users\LAB_ME~1\AppData\Local\Temp\cciO7git.s 			page 53


 2958 01b6 02       		.uleb128 0x2
 2959 01b7 0A       		.uleb128 0xa
 2960 01b8 00       		.byte	0
 2961 01b9 00       		.byte	0
 2962 01ba 21       		.uleb128 0x21
 2963 01bb 1D       		.uleb128 0x1d
 2964 01bc 01       		.byte	0x1
 2965 01bd 31       		.uleb128 0x31
 2966 01be 13       		.uleb128 0x13
 2967 01bf 11       		.uleb128 0x11
 2968 01c0 01       		.uleb128 0x1
 2969 01c1 12       		.uleb128 0x12
 2970 01c2 01       		.uleb128 0x1
 2971 01c3 58       		.uleb128 0x58
 2972 01c4 0B       		.uleb128 0xb
 2973 01c5 59       		.uleb128 0x59
 2974 01c6 0B       		.uleb128 0xb
 2975 01c7 01       		.uleb128 0x1
 2976 01c8 13       		.uleb128 0x13
 2977 01c9 00       		.byte	0
 2978 01ca 00       		.byte	0
 2979 01cb 22       		.uleb128 0x22
 2980 01cc 0B       		.uleb128 0xb
 2981 01cd 01       		.byte	0x1
 2982 01ce 11       		.uleb128 0x11
 2983 01cf 01       		.uleb128 0x1
 2984 01d0 12       		.uleb128 0x12
 2985 01d1 01       		.uleb128 0x1
 2986 01d2 00       		.byte	0
 2987 01d3 00       		.byte	0
 2988 01d4 23       		.uleb128 0x23
 2989 01d5 34       		.uleb128 0x34
 2990 01d6 00       		.byte	0
 2991 01d7 31       		.uleb128 0x31
 2992 01d8 13       		.uleb128 0x13
 2993 01d9 02       		.uleb128 0x2
 2994 01da 06       		.uleb128 0x6
 2995 01db 00       		.byte	0
 2996 01dc 00       		.byte	0
 2997 01dd 24       		.uleb128 0x24
 2998 01de 898201   		.uleb128 0x4109
 2999 01e1 00       		.byte	0
 3000 01e2 11       		.uleb128 0x11
 3001 01e3 01       		.uleb128 0x1
 3002 01e4 31       		.uleb128 0x31
 3003 01e5 13       		.uleb128 0x13
 3004 01e6 00       		.byte	0
 3005 01e7 00       		.byte	0
 3006 01e8 25       		.uleb128 0x25
 3007 01e9 2E       		.uleb128 0x2e
 3008 01ea 01       		.byte	0x1
 3009 01eb 3F       		.uleb128 0x3f
 3010 01ec 0C       		.uleb128 0xc
 3011 01ed 03       		.uleb128 0x3
 3012 01ee 0E       		.uleb128 0xe
 3013 01ef 3A       		.uleb128 0x3a
 3014 01f0 0B       		.uleb128 0xb
ARM GAS  C:\Users\LAB_ME~1\AppData\Local\Temp\cciO7git.s 			page 54


 3015 01f1 3B       		.uleb128 0x3b
 3016 01f2 0B       		.uleb128 0xb
 3017 01f3 27       		.uleb128 0x27
 3018 01f4 0C       		.uleb128 0xc
 3019 01f5 49       		.uleb128 0x49
 3020 01f6 13       		.uleb128 0x13
 3021 01f7 11       		.uleb128 0x11
 3022 01f8 01       		.uleb128 0x1
 3023 01f9 12       		.uleb128 0x12
 3024 01fa 01       		.uleb128 0x1
 3025 01fb 40       		.uleb128 0x40
 3026 01fc 06       		.uleb128 0x6
 3027 01fd 9742     		.uleb128 0x2117
 3028 01ff 0C       		.uleb128 0xc
 3029 0200 01       		.uleb128 0x1
 3030 0201 13       		.uleb128 0x13
 3031 0202 00       		.byte	0
 3032 0203 00       		.byte	0
 3033 0204 26       		.uleb128 0x26
 3034 0205 34       		.uleb128 0x34
 3035 0206 00       		.byte	0
 3036 0207 03       		.uleb128 0x3
 3037 0208 08       		.uleb128 0x8
 3038 0209 3A       		.uleb128 0x3a
 3039 020a 0B       		.uleb128 0xb
 3040 020b 3B       		.uleb128 0x3b
 3041 020c 0B       		.uleb128 0xb
 3042 020d 49       		.uleb128 0x49
 3043 020e 13       		.uleb128 0x13
 3044 020f 02       		.uleb128 0x2
 3045 0210 0A       		.uleb128 0xa
 3046 0211 00       		.byte	0
 3047 0212 00       		.byte	0
 3048 0213 27       		.uleb128 0x27
 3049 0214 0B       		.uleb128 0xb
 3050 0215 01       		.byte	0x1
 3051 0216 55       		.uleb128 0x55
 3052 0217 06       		.uleb128 0x6
 3053 0218 01       		.uleb128 0x1
 3054 0219 13       		.uleb128 0x13
 3055 021a 00       		.byte	0
 3056 021b 00       		.byte	0
 3057 021c 28       		.uleb128 0x28
 3058 021d 34       		.uleb128 0x34
 3059 021e 00       		.byte	0
 3060 021f 03       		.uleb128 0x3
 3061 0220 08       		.uleb128 0x8
 3062 0221 3A       		.uleb128 0x3a
 3063 0222 0B       		.uleb128 0xb
 3064 0223 3B       		.uleb128 0x3b
 3065 0224 0B       		.uleb128 0xb
 3066 0225 49       		.uleb128 0x49
 3067 0226 13       		.uleb128 0x13
 3068 0227 02       		.uleb128 0x2
 3069 0228 06       		.uleb128 0x6
 3070 0229 00       		.byte	0
 3071 022a 00       		.byte	0
ARM GAS  C:\Users\LAB_ME~1\AppData\Local\Temp\cciO7git.s 			page 55


 3072 022b 29       		.uleb128 0x29
 3073 022c 0B       		.uleb128 0xb
 3074 022d 01       		.byte	0x1
 3075 022e 11       		.uleb128 0x11
 3076 022f 01       		.uleb128 0x1
 3077 0230 12       		.uleb128 0x12
 3078 0231 01       		.uleb128 0x1
 3079 0232 01       		.uleb128 0x1
 3080 0233 13       		.uleb128 0x13
 3081 0234 00       		.byte	0
 3082 0235 00       		.byte	0
 3083 0236 2A       		.uleb128 0x2a
 3084 0237 898201   		.uleb128 0x4109
 3085 023a 01       		.byte	0x1
 3086 023b 11       		.uleb128 0x11
 3087 023c 01       		.uleb128 0x1
 3088 023d 31       		.uleb128 0x31
 3089 023e 13       		.uleb128 0x13
 3090 023f 00       		.byte	0
 3091 0240 00       		.byte	0
 3092 0241 2B       		.uleb128 0x2b
 3093 0242 898201   		.uleb128 0x4109
 3094 0245 01       		.byte	0x1
 3095 0246 11       		.uleb128 0x11
 3096 0247 01       		.uleb128 0x1
 3097 0248 00       		.byte	0
 3098 0249 00       		.byte	0
 3099 024a 2C       		.uleb128 0x2c
 3100 024b 898201   		.uleb128 0x4109
 3101 024e 01       		.byte	0x1
 3102 024f 11       		.uleb128 0x11
 3103 0250 01       		.uleb128 0x1
 3104 0251 01       		.uleb128 0x1
 3105 0252 13       		.uleb128 0x13
 3106 0253 00       		.byte	0
 3107 0254 00       		.byte	0
 3108 0255 2D       		.uleb128 0x2d
 3109 0256 2E       		.uleb128 0x2e
 3110 0257 01       		.byte	0x1
 3111 0258 3F       		.uleb128 0x3f
 3112 0259 0C       		.uleb128 0xc
 3113 025a 03       		.uleb128 0x3
 3114 025b 0E       		.uleb128 0xe
 3115 025c 3A       		.uleb128 0x3a
 3116 025d 0B       		.uleb128 0xb
 3117 025e 3B       		.uleb128 0x3b
 3118 025f 05       		.uleb128 0x5
 3119 0260 27       		.uleb128 0x27
 3120 0261 0C       		.uleb128 0xc
 3121 0262 11       		.uleb128 0x11
 3122 0263 01       		.uleb128 0x1
 3123 0264 12       		.uleb128 0x12
 3124 0265 01       		.uleb128 0x1
 3125 0266 40       		.uleb128 0x40
 3126 0267 06       		.uleb128 0x6
 3127 0268 9742     		.uleb128 0x2117
 3128 026a 0C       		.uleb128 0xc
ARM GAS  C:\Users\LAB_ME~1\AppData\Local\Temp\cciO7git.s 			page 56


 3129 026b 01       		.uleb128 0x1
 3130 026c 13       		.uleb128 0x13
 3131 026d 00       		.byte	0
 3132 026e 00       		.byte	0
 3133 026f 2E       		.uleb128 0x2e
 3134 0270 05       		.uleb128 0x5
 3135 0271 00       		.byte	0
 3136 0272 03       		.uleb128 0x3
 3137 0273 08       		.uleb128 0x8
 3138 0274 3A       		.uleb128 0x3a
 3139 0275 0B       		.uleb128 0xb
 3140 0276 3B       		.uleb128 0x3b
 3141 0277 05       		.uleb128 0x5
 3142 0278 49       		.uleb128 0x49
 3143 0279 13       		.uleb128 0x13
 3144 027a 02       		.uleb128 0x2
 3145 027b 0A       		.uleb128 0xa
 3146 027c 00       		.byte	0
 3147 027d 00       		.byte	0
 3148 027e 2F       		.uleb128 0x2f
 3149 027f 05       		.uleb128 0x5
 3150 0280 00       		.byte	0
 3151 0281 03       		.uleb128 0x3
 3152 0282 0E       		.uleb128 0xe
 3153 0283 3A       		.uleb128 0x3a
 3154 0284 0B       		.uleb128 0xb
 3155 0285 3B       		.uleb128 0x3b
 3156 0286 05       		.uleb128 0x5
 3157 0287 49       		.uleb128 0x49
 3158 0288 13       		.uleb128 0x13
 3159 0289 02       		.uleb128 0x2
 3160 028a 0A       		.uleb128 0xa
 3161 028b 00       		.byte	0
 3162 028c 00       		.byte	0
 3163 028d 30       		.uleb128 0x30
 3164 028e 05       		.uleb128 0x5
 3165 028f 00       		.byte	0
 3166 0290 03       		.uleb128 0x3
 3167 0291 0E       		.uleb128 0xe
 3168 0292 3A       		.uleb128 0x3a
 3169 0293 0B       		.uleb128 0xb
 3170 0294 3B       		.uleb128 0x3b
 3171 0295 05       		.uleb128 0x5
 3172 0296 49       		.uleb128 0x49
 3173 0297 13       		.uleb128 0x13
 3174 0298 02       		.uleb128 0x2
 3175 0299 06       		.uleb128 0x6
 3176 029a 00       		.byte	0
 3177 029b 00       		.byte	0
 3178 029c 31       		.uleb128 0x31
 3179 029d 05       		.uleb128 0x5
 3180 029e 00       		.byte	0
 3181 029f 03       		.uleb128 0x3
 3182 02a0 08       		.uleb128 0x8
 3183 02a1 3A       		.uleb128 0x3a
 3184 02a2 0B       		.uleb128 0xb
 3185 02a3 3B       		.uleb128 0x3b
ARM GAS  C:\Users\LAB_ME~1\AppData\Local\Temp\cciO7git.s 			page 57


 3186 02a4 05       		.uleb128 0x5
 3187 02a5 49       		.uleb128 0x49
 3188 02a6 13       		.uleb128 0x13
 3189 02a7 02       		.uleb128 0x2
 3190 02a8 06       		.uleb128 0x6
 3191 02a9 00       		.byte	0
 3192 02aa 00       		.byte	0
 3193 02ab 32       		.uleb128 0x32
 3194 02ac 1D       		.uleb128 0x1d
 3195 02ad 01       		.byte	0x1
 3196 02ae 31       		.uleb128 0x31
 3197 02af 13       		.uleb128 0x13
 3198 02b0 11       		.uleb128 0x11
 3199 02b1 01       		.uleb128 0x1
 3200 02b2 12       		.uleb128 0x12
 3201 02b3 01       		.uleb128 0x1
 3202 02b4 58       		.uleb128 0x58
 3203 02b5 0B       		.uleb128 0xb
 3204 02b6 59       		.uleb128 0x59
 3205 02b7 05       		.uleb128 0x5
 3206 02b8 01       		.uleb128 0x1
 3207 02b9 13       		.uleb128 0x13
 3208 02ba 00       		.byte	0
 3209 02bb 00       		.byte	0
 3210 02bc 33       		.uleb128 0x33
 3211 02bd 2E       		.uleb128 0x2e
 3212 02be 01       		.byte	0x1
 3213 02bf 3F       		.uleb128 0x3f
 3214 02c0 0C       		.uleb128 0xc
 3215 02c1 03       		.uleb128 0x3
 3216 02c2 0E       		.uleb128 0xe
 3217 02c3 3A       		.uleb128 0x3a
 3218 02c4 0B       		.uleb128 0xb
 3219 02c5 3B       		.uleb128 0x3b
 3220 02c6 05       		.uleb128 0x5
 3221 02c7 27       		.uleb128 0x27
 3222 02c8 0C       		.uleb128 0xc
 3223 02c9 49       		.uleb128 0x49
 3224 02ca 13       		.uleb128 0x13
 3225 02cb 11       		.uleb128 0x11
 3226 02cc 01       		.uleb128 0x1
 3227 02cd 12       		.uleb128 0x12
 3228 02ce 01       		.uleb128 0x1
 3229 02cf 40       		.uleb128 0x40
 3230 02d0 06       		.uleb128 0x6
 3231 02d1 9742     		.uleb128 0x2117
 3232 02d3 0C       		.uleb128 0xc
 3233 02d4 01       		.uleb128 0x1
 3234 02d5 13       		.uleb128 0x13
 3235 02d6 00       		.byte	0
 3236 02d7 00       		.byte	0
 3237 02d8 34       		.uleb128 0x34
 3238 02d9 34       		.uleb128 0x34
 3239 02da 00       		.byte	0
 3240 02db 03       		.uleb128 0x3
 3241 02dc 08       		.uleb128 0x8
 3242 02dd 3A       		.uleb128 0x3a
ARM GAS  C:\Users\LAB_ME~1\AppData\Local\Temp\cciO7git.s 			page 58


 3243 02de 0B       		.uleb128 0xb
 3244 02df 3B       		.uleb128 0x3b
 3245 02e0 05       		.uleb128 0x5
 3246 02e1 49       		.uleb128 0x49
 3247 02e2 13       		.uleb128 0x13
 3248 02e3 02       		.uleb128 0x2
 3249 02e4 06       		.uleb128 0x6
 3250 02e5 00       		.byte	0
 3251 02e6 00       		.byte	0
 3252 02e7 35       		.uleb128 0x35
 3253 02e8 2E       		.uleb128 0x2e
 3254 02e9 01       		.byte	0x1
 3255 02ea 3F       		.uleb128 0x3f
 3256 02eb 0C       		.uleb128 0xc
 3257 02ec 03       		.uleb128 0x3
 3258 02ed 0E       		.uleb128 0xe
 3259 02ee 3A       		.uleb128 0x3a
 3260 02ef 0B       		.uleb128 0xb
 3261 02f0 3B       		.uleb128 0x3b
 3262 02f1 05       		.uleb128 0x5
 3263 02f2 27       		.uleb128 0x27
 3264 02f3 0C       		.uleb128 0xc
 3265 02f4 49       		.uleb128 0x49
 3266 02f5 13       		.uleb128 0x13
 3267 02f6 11       		.uleb128 0x11
 3268 02f7 01       		.uleb128 0x1
 3269 02f8 12       		.uleb128 0x12
 3270 02f9 01       		.uleb128 0x1
 3271 02fa 40       		.uleb128 0x40
 3272 02fb 06       		.uleb128 0x6
 3273 02fc 9642     		.uleb128 0x2116
 3274 02fe 0C       		.uleb128 0xc
 3275 02ff 01       		.uleb128 0x1
 3276 0300 13       		.uleb128 0x13
 3277 0301 00       		.byte	0
 3278 0302 00       		.byte	0
 3279 0303 36       		.uleb128 0x36
 3280 0304 34       		.uleb128 0x34
 3281 0305 00       		.byte	0
 3282 0306 03       		.uleb128 0x3
 3283 0307 08       		.uleb128 0x8
 3284 0308 3A       		.uleb128 0x3a
 3285 0309 0B       		.uleb128 0xb
 3286 030a 3B       		.uleb128 0x3b
 3287 030b 05       		.uleb128 0x5
 3288 030c 49       		.uleb128 0x49
 3289 030d 13       		.uleb128 0x13
 3290 030e 02       		.uleb128 0x2
 3291 030f 0A       		.uleb128 0xa
 3292 0310 00       		.byte	0
 3293 0311 00       		.byte	0
 3294 0312 37       		.uleb128 0x37
 3295 0313 34       		.uleb128 0x34
 3296 0314 00       		.byte	0
 3297 0315 03       		.uleb128 0x3
 3298 0316 0E       		.uleb128 0xe
 3299 0317 3A       		.uleb128 0x3a
ARM GAS  C:\Users\LAB_ME~1\AppData\Local\Temp\cciO7git.s 			page 59


 3300 0318 0B       		.uleb128 0xb
 3301 0319 3B       		.uleb128 0x3b
 3302 031a 0B       		.uleb128 0xb
 3303 031b 49       		.uleb128 0x49
 3304 031c 13       		.uleb128 0x13
 3305 031d 3F       		.uleb128 0x3f
 3306 031e 0C       		.uleb128 0xc
 3307 031f 3C       		.uleb128 0x3c
 3308 0320 0C       		.uleb128 0xc
 3309 0321 00       		.byte	0
 3310 0322 00       		.byte	0
 3311 0323 38       		.uleb128 0x38
 3312 0324 2E       		.uleb128 0x2e
 3313 0325 01       		.byte	0x1
 3314 0326 3F       		.uleb128 0x3f
 3315 0327 0C       		.uleb128 0xc
 3316 0328 03       		.uleb128 0x3
 3317 0329 0E       		.uleb128 0xe
 3318 032a 3A       		.uleb128 0x3a
 3319 032b 0B       		.uleb128 0xb
 3320 032c 3B       		.uleb128 0x3b
 3321 032d 0B       		.uleb128 0xb
 3322 032e 27       		.uleb128 0x27
 3323 032f 0C       		.uleb128 0xc
 3324 0330 49       		.uleb128 0x49
 3325 0331 13       		.uleb128 0x13
 3326 0332 3C       		.uleb128 0x3c
 3327 0333 0C       		.uleb128 0xc
 3328 0334 01       		.uleb128 0x1
 3329 0335 13       		.uleb128 0x13
 3330 0336 00       		.byte	0
 3331 0337 00       		.byte	0
 3332 0338 39       		.uleb128 0x39
 3333 0339 2E       		.uleb128 0x2e
 3334 033a 01       		.byte	0x1
 3335 033b 3F       		.uleb128 0x3f
 3336 033c 0C       		.uleb128 0xc
 3337 033d 03       		.uleb128 0x3
 3338 033e 0E       		.uleb128 0xe
 3339 033f 3A       		.uleb128 0x3a
 3340 0340 0B       		.uleb128 0xb
 3341 0341 3B       		.uleb128 0x3b
 3342 0342 0B       		.uleb128 0xb
 3343 0343 27       		.uleb128 0x27
 3344 0344 0C       		.uleb128 0xc
 3345 0345 49       		.uleb128 0x49
 3346 0346 13       		.uleb128 0x13
 3347 0347 3C       		.uleb128 0x3c
 3348 0348 0C       		.uleb128 0xc
 3349 0349 00       		.byte	0
 3350 034a 00       		.byte	0
 3351 034b 00       		.byte	0
 3352              		.section	.debug_loc,"",%progbits
 3353              	.Ldebug_loc0:
 3354              	.LLST0:
 3355 0000 00000000 		.4byte	.LFB7
 3356 0004 02000000 		.4byte	.LCFI0
ARM GAS  C:\Users\LAB_ME~1\AppData\Local\Temp\cciO7git.s 			page 60


 3357 0008 0200     		.2byte	0x2
 3358 000a 7D       		.byte	0x7d
 3359 000b 00       		.sleb128 0
 3360 000c 02000000 		.4byte	.LCFI0
 3361 0010 2C000000 		.4byte	.LFE7
 3362 0014 0200     		.2byte	0x2
 3363 0016 7D       		.byte	0x7d
 3364 0017 04       		.sleb128 4
 3365 0018 00000000 		.4byte	0
 3366 001c 00000000 		.4byte	0
 3367              	.LLST1:
 3368 0020 00000000 		.4byte	.LVL0
 3369 0024 10000000 		.4byte	.LVL2
 3370 0028 0100     		.2byte	0x1
 3371 002a 50       		.byte	0x50
 3372 002b 10000000 		.4byte	.LVL2
 3373 002f 1D000000 		.4byte	.LVL3-1
 3374 0033 0100     		.2byte	0x1
 3375 0035 52       		.byte	0x52
 3376 0036 1D000000 		.4byte	.LVL3-1
 3377 003a 1E000000 		.4byte	.LVL3
 3378 003e 0400     		.2byte	0x4
 3379 0040 F3       		.byte	0xf3
 3380 0041 01       		.uleb128 0x1
 3381 0042 50       		.byte	0x50
 3382 0043 9F       		.byte	0x9f
 3383 0044 1E000000 		.4byte	.LVL3
 3384 0048 22000000 		.4byte	.LVL4
 3385 004c 0100     		.2byte	0x1
 3386 004e 50       		.byte	0x50
 3387 004f 22000000 		.4byte	.LVL4
 3388 0053 2C000000 		.4byte	.LFE7
 3389 0057 0100     		.2byte	0x1
 3390 0059 52       		.byte	0x52
 3391 005a 00000000 		.4byte	0
 3392 005e 00000000 		.4byte	0
 3393              	.LLST2:
 3394 0062 00000000 		.4byte	.LVL0
 3395 0066 1D000000 		.4byte	.LVL3-1
 3396 006a 0100     		.2byte	0x1
 3397 006c 51       		.byte	0x51
 3398 006d 1D000000 		.4byte	.LVL3-1
 3399 0071 1E000000 		.4byte	.LVL3
 3400 0075 0400     		.2byte	0x4
 3401 0077 F3       		.byte	0xf3
 3402 0078 01       		.uleb128 0x1
 3403 0079 51       		.byte	0x51
 3404 007a 9F       		.byte	0x9f
 3405 007b 1E000000 		.4byte	.LVL3
 3406 007f 2C000000 		.4byte	.LFE7
 3407 0083 0100     		.2byte	0x1
 3408 0085 51       		.byte	0x51
 3409 0086 00000000 		.4byte	0
 3410 008a 00000000 		.4byte	0
 3411              	.LLST3:
 3412 008e 0C000000 		.4byte	.LVL1
 3413 0092 10000000 		.4byte	.LVL2
ARM GAS  C:\Users\LAB_ME~1\AppData\Local\Temp\cciO7git.s 			page 61


 3414 0096 0100     		.2byte	0x1
 3415 0098 50       		.byte	0x50
 3416 0099 10000000 		.4byte	.LVL2
 3417 009d 1D000000 		.4byte	.LVL3-1
 3418 00a1 0100     		.2byte	0x1
 3419 00a3 52       		.byte	0x52
 3420 00a4 1D000000 		.4byte	.LVL3-1
 3421 00a8 1E000000 		.4byte	.LVL3
 3422 00ac 0400     		.2byte	0x4
 3423 00ae F3       		.byte	0xf3
 3424 00af 01       		.uleb128 0x1
 3425 00b0 50       		.byte	0x50
 3426 00b1 9F       		.byte	0x9f
 3427 00b2 00000000 		.4byte	0
 3428 00b6 00000000 		.4byte	0
 3429              	.LLST4:
 3430 00ba 0C000000 		.4byte	.LVL1
 3431 00be 1D000000 		.4byte	.LVL3-1
 3432 00c2 0100     		.2byte	0x1
 3433 00c4 53       		.byte	0x53
 3434 00c5 00000000 		.4byte	0
 3435 00c9 00000000 		.4byte	0
 3436              	.LLST5:
 3437 00cd 00000000 		.4byte	.LFB8
 3438 00d1 02000000 		.4byte	.LCFI1
 3439 00d5 0200     		.2byte	0x2
 3440 00d7 7D       		.byte	0x7d
 3441 00d8 00       		.sleb128 0
 3442 00d9 02000000 		.4byte	.LCFI1
 3443 00dd 1E000000 		.4byte	.LFE8
 3444 00e1 0200     		.2byte	0x2
 3445 00e3 7D       		.byte	0x7d
 3446 00e4 04       		.sleb128 4
 3447 00e5 00000000 		.4byte	0
 3448 00e9 00000000 		.4byte	0
 3449              	.LLST6:
 3450 00ed 00000000 		.4byte	.LVL5
 3451 00f1 0A000000 		.4byte	.LVL7
 3452 00f5 0100     		.2byte	0x1
 3453 00f7 52       		.byte	0x52
 3454 00f8 0A000000 		.4byte	.LVL7
 3455 00fc 1E000000 		.4byte	.LFE8
 3456 0100 0400     		.2byte	0x4
 3457 0102 F3       		.byte	0xf3
 3458 0103 01       		.uleb128 0x1
 3459 0104 52       		.byte	0x52
 3460 0105 9F       		.byte	0x9f
 3461 0106 00000000 		.4byte	0
 3462 010a 00000000 		.4byte	0
 3463              	.LLST7:
 3464 010e 00000000 		.4byte	.LVL5
 3465 0112 06000000 		.4byte	.LVL6
 3466 0116 0100     		.2byte	0x1
 3467 0118 53       		.byte	0x53
 3468 0119 06000000 		.4byte	.LVL6
 3469 011d 1E000000 		.4byte	.LFE8
 3470 0121 0200     		.2byte	0x2
ARM GAS  C:\Users\LAB_ME~1\AppData\Local\Temp\cciO7git.s 			page 62


 3471 0123 70       		.byte	0x70
 3472 0124 1C       		.sleb128 28
 3473 0125 00000000 		.4byte	0
 3474 0129 00000000 		.4byte	0
 3475              	.LLST8:
 3476 012d 00000000 		.4byte	.LFB9
 3477 0131 02000000 		.4byte	.LCFI2
 3478 0135 0200     		.2byte	0x2
 3479 0137 7D       		.byte	0x7d
 3480 0138 00       		.sleb128 0
 3481 0139 02000000 		.4byte	.LCFI2
 3482 013d 2C000000 		.4byte	.LFE9
 3483 0141 0200     		.2byte	0x2
 3484 0143 7D       		.byte	0x7d
 3485 0144 10       		.sleb128 16
 3486 0145 00000000 		.4byte	0
 3487 0149 00000000 		.4byte	0
 3488              	.LLST9:
 3489 014d 00000000 		.4byte	.LVL8
 3490 0151 08000000 		.4byte	.LVL9
 3491 0155 0100     		.2byte	0x1
 3492 0157 50       		.byte	0x50
 3493 0158 08000000 		.4byte	.LVL9
 3494 015c 2C000000 		.4byte	.LFE9
 3495 0160 0100     		.2byte	0x1
 3496 0162 54       		.byte	0x54
 3497 0163 00000000 		.4byte	0
 3498 0167 00000000 		.4byte	0
 3499              	.LLST10:
 3500 016b 18000000 		.4byte	.LVL10
 3501 016f 2A000000 		.4byte	.LVL12
 3502 0173 0100     		.2byte	0x1
 3503 0175 54       		.byte	0x54
 3504 0176 00000000 		.4byte	0
 3505 017a 00000000 		.4byte	0
 3506              	.LLST11:
 3507 017e 18000000 		.4byte	.LVL10
 3508 0182 21000000 		.4byte	.LVL11-1
 3509 0186 0100     		.2byte	0x1
 3510 0188 50       		.byte	0x50
 3511 0189 00000000 		.4byte	0
 3512 018d 00000000 		.4byte	0
 3513              	.LLST12:
 3514 0191 00000000 		.4byte	.LFB10
 3515 0195 04000000 		.4byte	.LCFI3
 3516 0199 0200     		.2byte	0x2
 3517 019b 7D       		.byte	0x7d
 3518 019c 00       		.sleb128 0
 3519 019d 04000000 		.4byte	.LCFI3
 3520 01a1 4A000000 		.4byte	.LFE10
 3521 01a5 0200     		.2byte	0x2
 3522 01a7 7D       		.byte	0x7d
 3523 01a8 08       		.sleb128 8
 3524 01a9 00000000 		.4byte	0
 3525 01ad 00000000 		.4byte	0
 3526              	.LLST13:
 3527 01b1 00000000 		.4byte	.LVL13
ARM GAS  C:\Users\LAB_ME~1\AppData\Local\Temp\cciO7git.s 			page 63


 3528 01b5 08000000 		.4byte	.LVL14
 3529 01b9 0100     		.2byte	0x1
 3530 01bb 50       		.byte	0x50
 3531 01bc 08000000 		.4byte	.LVL14
 3532 01c0 33000000 		.4byte	.LVL17-1
 3533 01c4 0100     		.2byte	0x1
 3534 01c6 53       		.byte	0x53
 3535 01c7 33000000 		.4byte	.LVL17-1
 3536 01cb 3C000000 		.4byte	.LVL18
 3537 01cf 0400     		.2byte	0x4
 3538 01d1 F3       		.byte	0xf3
 3539 01d2 01       		.uleb128 0x1
 3540 01d3 50       		.byte	0x50
 3541 01d4 9F       		.byte	0x9f
 3542 01d5 3C000000 		.4byte	.LVL18
 3543 01d9 4A000000 		.4byte	.LFE10
 3544 01dd 0100     		.2byte	0x1
 3545 01df 53       		.byte	0x53
 3546 01e0 00000000 		.4byte	0
 3547 01e4 00000000 		.4byte	0
 3548              	.LLST14:
 3549 01e8 00000000 		.4byte	.LVL13
 3550 01ec 18000000 		.4byte	.LVL15
 3551 01f0 0100     		.2byte	0x1
 3552 01f2 51       		.byte	0x51
 3553 01f3 18000000 		.4byte	.LVL15
 3554 01f7 33000000 		.4byte	.LVL17-1
 3555 01fb 0300     		.2byte	0x3
 3556 01fd 73       		.byte	0x73
 3557 01fe 14       		.sleb128 20
 3558 01ff 06       		.byte	0x6
 3559 0200 33000000 		.4byte	.LVL17-1
 3560 0204 3C000000 		.4byte	.LVL18
 3561 0208 0400     		.2byte	0x4
 3562 020a F3       		.byte	0xf3
 3563 020b 01       		.uleb128 0x1
 3564 020c 51       		.byte	0x51
 3565 020d 9F       		.byte	0x9f
 3566 020e 3C000000 		.4byte	.LVL18
 3567 0212 40000000 		.4byte	.LVL19
 3568 0216 0300     		.2byte	0x3
 3569 0218 73       		.byte	0x73
 3570 0219 14       		.sleb128 20
 3571 021a 06       		.byte	0x6
 3572 021b 40000000 		.4byte	.LVL19
 3573 021f 4A000000 		.4byte	.LFE10
 3574 0223 0100     		.2byte	0x1
 3575 0225 51       		.byte	0x51
 3576 0226 00000000 		.4byte	0
 3577 022a 00000000 		.4byte	0
 3578              	.LLST15:
 3579 022e 2A000000 		.4byte	.LVL16
 3580 0232 33000000 		.4byte	.LVL17-1
 3581 0236 0100     		.2byte	0x1
 3582 0238 53       		.byte	0x53
 3583 0239 33000000 		.4byte	.LVL17-1
 3584 023d 3C000000 		.4byte	.LVL18
ARM GAS  C:\Users\LAB_ME~1\AppData\Local\Temp\cciO7git.s 			page 64


 3585 0241 0400     		.2byte	0x4
 3586 0243 F3       		.byte	0xf3
 3587 0244 01       		.uleb128 0x1
 3588 0245 50       		.byte	0x50
 3589 0246 9F       		.byte	0x9f
 3590 0247 00000000 		.4byte	0
 3591 024b 00000000 		.4byte	0
 3592              	.LLST16:
 3593 024f 2A000000 		.4byte	.LVL16
 3594 0253 33000000 		.4byte	.LVL17-1
 3595 0257 0100     		.2byte	0x1
 3596 0259 50       		.byte	0x50
 3597 025a 00000000 		.4byte	0
 3598 025e 00000000 		.4byte	0
 3599              	.LLST17:
 3600 0262 00000000 		.4byte	.LFB11
 3601 0266 02000000 		.4byte	.LCFI4
 3602 026a 0200     		.2byte	0x2
 3603 026c 7D       		.byte	0x7d
 3604 026d 00       		.sleb128 0
 3605 026e 02000000 		.4byte	.LCFI4
 3606 0272 48000000 		.4byte	.LFE11
 3607 0276 0200     		.2byte	0x2
 3608 0278 7D       		.byte	0x7d
 3609 0279 10       		.sleb128 16
 3610 027a 00000000 		.4byte	0
 3611 027e 00000000 		.4byte	0
 3612              	.LLST18:
 3613 0282 00000000 		.4byte	.LVL20
 3614 0286 11000000 		.4byte	.LVL24-1
 3615 028a 0100     		.2byte	0x1
 3616 028c 50       		.byte	0x50
 3617 028d 11000000 		.4byte	.LVL24-1
 3618 0291 1A000000 		.4byte	.LVL25
 3619 0295 0100     		.2byte	0x1
 3620 0297 54       		.byte	0x54
 3621 0298 1A000000 		.4byte	.LVL25
 3622 029c 1D000000 		.4byte	.LVL26-1
 3623 02a0 0100     		.2byte	0x1
 3624 02a2 50       		.byte	0x50
 3625 02a3 1D000000 		.4byte	.LVL26-1
 3626 02a7 2A000000 		.4byte	.LVL29
 3627 02ab 0100     		.2byte	0x1
 3628 02ad 54       		.byte	0x54
 3629 02ae 2A000000 		.4byte	.LVL29
 3630 02b2 36000000 		.4byte	.LVL30
 3631 02b6 0100     		.2byte	0x1
 3632 02b8 50       		.byte	0x50
 3633 02b9 36000000 		.4byte	.LVL30
 3634 02bd 48000000 		.4byte	.LFE11
 3635 02c1 0100     		.2byte	0x1
 3636 02c3 54       		.byte	0x54
 3637 02c4 00000000 		.4byte	0
 3638 02c8 00000000 		.4byte	0
 3639              	.LLST19:
 3640 02cc 00000000 		.4byte	.LVL20
 3641 02d0 11000000 		.4byte	.LVL24-1
ARM GAS  C:\Users\LAB_ME~1\AppData\Local\Temp\cciO7git.s 			page 65


 3642 02d4 0100     		.2byte	0x1
 3643 02d6 51       		.byte	0x51
 3644 02d7 11000000 		.4byte	.LVL24-1
 3645 02db 1A000000 		.4byte	.LVL25
 3646 02df 0100     		.2byte	0x1
 3647 02e1 56       		.byte	0x56
 3648 02e2 1A000000 		.4byte	.LVL25
 3649 02e6 1D000000 		.4byte	.LVL26-1
 3650 02ea 0100     		.2byte	0x1
 3651 02ec 51       		.byte	0x51
 3652 02ed 1D000000 		.4byte	.LVL26-1
 3653 02f1 2A000000 		.4byte	.LVL29
 3654 02f5 0100     		.2byte	0x1
 3655 02f7 56       		.byte	0x56
 3656 02f8 2A000000 		.4byte	.LVL29
 3657 02fc 48000000 		.4byte	.LFE11
 3658 0300 0100     		.2byte	0x1
 3659 0302 51       		.byte	0x51
 3660 0303 00000000 		.4byte	0
 3661 0307 00000000 		.4byte	0
 3662              	.LLST20:
 3663 030b 0C000000 		.4byte	.LVL22
 3664 030f 0E000000 		.4byte	.LVL23
 3665 0313 0100     		.2byte	0x1
 3666 0315 53       		.byte	0x53
 3667 0316 00000000 		.4byte	0
 3668 031a 00000000 		.4byte	0
 3669              	.LLST21:
 3670 031e 1E000000 		.4byte	.LVL26
 3671 0322 2A000000 		.4byte	.LVL29
 3672 0326 0100     		.2byte	0x1
 3673 0328 50       		.byte	0x50
 3674 0329 00000000 		.4byte	0
 3675 032d 00000000 		.4byte	0
 3676              	.LLST22:
 3677 0331 28000000 		.4byte	.LVL28
 3678 0335 2A000000 		.4byte	.LVL29
 3679 0339 0100     		.2byte	0x1
 3680 033b 53       		.byte	0x53
 3681 033c 00000000 		.4byte	0
 3682 0340 00000000 		.4byte	0
 3683              	.LLST23:
 3684 0344 46000000 		.4byte	.LVL32
 3685 0348 48000000 		.4byte	.LFE11
 3686 034c 0100     		.2byte	0x1
 3687 034e 53       		.byte	0x53
 3688 034f 00000000 		.4byte	0
 3689 0353 00000000 		.4byte	0
 3690              	.LLST24:
 3691 0357 00000000 		.4byte	.LFB12
 3692 035b 04000000 		.4byte	.LCFI5
 3693 035f 0200     		.2byte	0x2
 3694 0361 7D       		.byte	0x7d
 3695 0362 00       		.sleb128 0
 3696 0363 04000000 		.4byte	.LCFI5
 3697 0367 72000000 		.4byte	.LFE12
 3698 036b 0200     		.2byte	0x2
ARM GAS  C:\Users\LAB_ME~1\AppData\Local\Temp\cciO7git.s 			page 66


 3699 036d 7D       		.byte	0x7d
 3700 036e 20       		.sleb128 32
 3701 036f 00000000 		.4byte	0
 3702 0373 00000000 		.4byte	0
 3703              	.LLST25:
 3704 0377 00000000 		.4byte	.LVL33
 3705 037b 20000000 		.4byte	.LVL38
 3706 037f 0100     		.2byte	0x1
 3707 0381 50       		.byte	0x50
 3708 0382 20000000 		.4byte	.LVL38
 3709 0386 2A000000 		.4byte	.LVL40
 3710 038a 0100     		.2byte	0x1
 3711 038c 54       		.byte	0x54
 3712 038d 2A000000 		.4byte	.LVL40
 3713 0391 2D000000 		.4byte	.LVL41-1
 3714 0395 0100     		.2byte	0x1
 3715 0397 50       		.byte	0x50
 3716 0398 2D000000 		.4byte	.LVL41-1
 3717 039c 3E000000 		.4byte	.LVL44
 3718 03a0 0100     		.2byte	0x1
 3719 03a2 54       		.byte	0x54
 3720 03a3 3E000000 		.4byte	.LVL44
 3721 03a7 72000000 		.4byte	.LFE12
 3722 03ab 0100     		.2byte	0x1
 3723 03ad 50       		.byte	0x50
 3724 03ae 00000000 		.4byte	0
 3725 03b2 00000000 		.4byte	0
 3726              	.LLST26:
 3727 03b6 00000000 		.4byte	.LVL33
 3728 03ba 1C000000 		.4byte	.LVL37
 3729 03be 0100     		.2byte	0x1
 3730 03c0 51       		.byte	0x51
 3731 03c1 00000000 		.4byte	0
 3732 03c5 00000000 		.4byte	0
 3733              	.LLST27:
 3734 03c9 00000000 		.4byte	.LVL33
 3735 03cd 1C000000 		.4byte	.LVL37
 3736 03d1 0100     		.2byte	0x1
 3737 03d3 52       		.byte	0x52
 3738 03d4 00000000 		.4byte	0
 3739 03d8 00000000 		.4byte	0
 3740              	.LLST28:
 3741 03dc 00000000 		.4byte	.LVL33
 3742 03e0 0C000000 		.4byte	.LVL35
 3743 03e4 0100     		.2byte	0x1
 3744 03e6 53       		.byte	0x53
 3745 03e7 0C000000 		.4byte	.LVL35
 3746 03eb 2A000000 		.4byte	.LVL40
 3747 03ef 0100     		.2byte	0x1
 3748 03f1 56       		.byte	0x56
 3749 03f2 2A000000 		.4byte	.LVL40
 3750 03f6 2D000000 		.4byte	.LVL41-1
 3751 03fa 0100     		.2byte	0x1
 3752 03fc 51       		.byte	0x51
 3753 03fd 2D000000 		.4byte	.LVL41-1
 3754 0401 3E000000 		.4byte	.LVL44
 3755 0405 0100     		.2byte	0x1
ARM GAS  C:\Users\LAB_ME~1\AppData\Local\Temp\cciO7git.s 			page 67


 3756 0407 56       		.byte	0x56
 3757 0408 3E000000 		.4byte	.LVL44
 3758 040c 72000000 		.4byte	.LFE12
 3759 0410 0100     		.2byte	0x1
 3760 0412 51       		.byte	0x51
 3761 0413 00000000 		.4byte	0
 3762 0417 00000000 		.4byte	0
 3763              	.LLST29:
 3764 041b 0A000000 		.4byte	.LVL34
 3765 041f 1C000000 		.4byte	.LVL37
 3766 0423 0200     		.2byte	0x2
 3767 0425 30       		.byte	0x30
 3768 0426 9F       		.byte	0x9f
 3769 0427 1C000000 		.4byte	.LVL37
 3770 042b 72000000 		.4byte	.LFE12
 3771 042f 0100     		.2byte	0x1
 3772 0431 58       		.byte	0x58
 3773 0432 00000000 		.4byte	0
 3774 0436 00000000 		.4byte	0
 3775              	.LLST30:
 3776 043a 10000000 		.4byte	.LVL36
 3777 043e 21000000 		.4byte	.LVL39-1
 3778 0442 0100     		.2byte	0x1
 3779 0444 53       		.byte	0x53
 3780 0445 22000000 		.4byte	.LVL39
 3781 0449 2D000000 		.4byte	.LVL41-1
 3782 044d 0100     		.2byte	0x1
 3783 044f 53       		.byte	0x53
 3784 0450 3E000000 		.4byte	.LVL44
 3785 0454 40000000 		.4byte	.LVL45
 3786 0458 0100     		.2byte	0x1
 3787 045a 53       		.byte	0x53
 3788 045b 00000000 		.4byte	0
 3789 045f 00000000 		.4byte	0
 3790              	.LLST31:
 3791 0463 38000000 		.4byte	.LVL43
 3792 0467 3E000000 		.4byte	.LVL44
 3793 046b 0100     		.2byte	0x1
 3794 046d 53       		.byte	0x53
 3795 046e 00000000 		.4byte	0
 3796 0472 00000000 		.4byte	0
 3797              	.LLST32:
 3798 0476 38000000 		.4byte	.LVL43
 3799 047a 3E000000 		.4byte	.LVL44
 3800 047e 0100     		.2byte	0x1
 3801 0480 53       		.byte	0x53
 3802 0481 5E000000 		.4byte	.LVL46
 3803 0485 68000000 		.4byte	.LVL48
 3804 0489 0100     		.2byte	0x1
 3805 048b 53       		.byte	0x53
 3806 048c 00000000 		.4byte	0
 3807 0490 00000000 		.4byte	0
 3808              	.LLST33:
 3809 0494 1C000000 		.4byte	.LVL37
 3810 0498 21000000 		.4byte	.LVL39-1
 3811 049c 0100     		.2byte	0x1
 3812 049e 53       		.byte	0x53
ARM GAS  C:\Users\LAB_ME~1\AppData\Local\Temp\cciO7git.s 			page 68


 3813 049f 22000000 		.4byte	.LVL39
 3814 04a3 2D000000 		.4byte	.LVL41-1
 3815 04a7 0100     		.2byte	0x1
 3816 04a9 53       		.byte	0x53
 3817 04aa 3E000000 		.4byte	.LVL44
 3818 04ae 40000000 		.4byte	.LVL45
 3819 04b2 0100     		.2byte	0x1
 3820 04b4 53       		.byte	0x53
 3821 04b5 6C000000 		.4byte	.LVL49
 3822 04b9 72000000 		.4byte	.LFE12
 3823 04bd 0100     		.2byte	0x1
 3824 04bf 53       		.byte	0x53
 3825 04c0 00000000 		.4byte	0
 3826 04c4 00000000 		.4byte	0
 3827              	.LLST34:
 3828 04c8 00000000 		.4byte	.LFB13
 3829 04cc 02000000 		.4byte	.LCFI6
 3830 04d0 0200     		.2byte	0x2
 3831 04d2 7D       		.byte	0x7d
 3832 04d3 00       		.sleb128 0
 3833 04d4 02000000 		.4byte	.LCFI6
 3834 04d8 1C000000 		.4byte	.LFE13
 3835 04dc 0200     		.2byte	0x2
 3836 04de 7D       		.byte	0x7d
 3837 04df 04       		.sleb128 4
 3838 04e0 00000000 		.4byte	0
 3839 04e4 00000000 		.4byte	0
 3840              	.LLST35:
 3841 04e8 00000000 		.4byte	.LVL50
 3842 04ec 06000000 		.4byte	.LVL51
 3843 04f0 0100     		.2byte	0x1
 3844 04f2 53       		.byte	0x53
 3845 04f3 06000000 		.4byte	.LVL51
 3846 04f7 1C000000 		.4byte	.LFE13
 3847 04fb 0200     		.2byte	0x2
 3848 04fd 70       		.byte	0x70
 3849 04fe 1C       		.sleb128 28
 3850 04ff 00000000 		.4byte	0
 3851 0503 00000000 		.4byte	0
 3852              	.LLST36:
 3853 0507 00000000 		.4byte	.LFB14
 3854 050b 02000000 		.4byte	.LCFI7
 3855 050f 0200     		.2byte	0x2
 3856 0511 7D       		.byte	0x7d
 3857 0512 00       		.sleb128 0
 3858 0513 02000000 		.4byte	.LCFI7
 3859 0517 2E000000 		.4byte	.LFE14
 3860 051b 0200     		.2byte	0x2
 3861 051d 7D       		.byte	0x7d
 3862 051e 10       		.sleb128 16
 3863 051f 00000000 		.4byte	0
 3864 0523 00000000 		.4byte	0
 3865              	.LLST37:
 3866 0527 00000000 		.4byte	.LVL52
 3867 052b 0A000000 		.4byte	.LVL53
 3868 052f 0100     		.2byte	0x1
 3869 0531 50       		.byte	0x50
ARM GAS  C:\Users\LAB_ME~1\AppData\Local\Temp\cciO7git.s 			page 69


 3870 0532 0A000000 		.4byte	.LVL53
 3871 0536 2E000000 		.4byte	.LFE14
 3872 053a 0100     		.2byte	0x1
 3873 053c 54       		.byte	0x54
 3874 053d 00000000 		.4byte	0
 3875 0541 00000000 		.4byte	0
 3876              	.LLST38:
 3877 0545 1A000000 		.4byte	.LVL54
 3878 0549 2C000000 		.4byte	.LVL56
 3879 054d 0100     		.2byte	0x1
 3880 054f 54       		.byte	0x54
 3881 0550 00000000 		.4byte	0
 3882 0554 00000000 		.4byte	0
 3883              	.LLST39:
 3884 0558 1A000000 		.4byte	.LVL54
 3885 055c 23000000 		.4byte	.LVL55-1
 3886 0560 0100     		.2byte	0x1
 3887 0562 50       		.byte	0x50
 3888 0563 00000000 		.4byte	0
 3889 0567 00000000 		.4byte	0
 3890              	.LLST40:
 3891 056b 00000000 		.4byte	.LFB15
 3892 056f 02000000 		.4byte	.LCFI8
 3893 0573 0200     		.2byte	0x2
 3894 0575 7D       		.byte	0x7d
 3895 0576 00       		.sleb128 0
 3896 0577 02000000 		.4byte	.LCFI8
 3897 057b 4E000000 		.4byte	.LFE15
 3898 057f 0200     		.2byte	0x2
 3899 0581 7D       		.byte	0x7d
 3900 0582 18       		.sleb128 24
 3901 0583 00000000 		.4byte	0
 3902 0587 00000000 		.4byte	0
 3903              	.LLST41:
 3904 058b 00000000 		.4byte	.LVL57
 3905 058f 0E000000 		.4byte	.LVL59
 3906 0593 0100     		.2byte	0x1
 3907 0595 50       		.byte	0x50
 3908 0596 0E000000 		.4byte	.LVL59
 3909 059a 16000000 		.4byte	.LVL60
 3910 059e 0100     		.2byte	0x1
 3911 05a0 54       		.byte	0x54
 3912 05a1 16000000 		.4byte	.LVL60
 3913 05a5 19000000 		.4byte	.LVL61-1
 3914 05a9 0100     		.2byte	0x1
 3915 05ab 50       		.byte	0x50
 3916 05ac 19000000 		.4byte	.LVL61-1
 3917 05b0 26000000 		.4byte	.LVL64
 3918 05b4 0100     		.2byte	0x1
 3919 05b6 54       		.byte	0x54
 3920 05b7 26000000 		.4byte	.LVL64
 3921 05bb 42000000 		.4byte	.LVL66
 3922 05bf 0100     		.2byte	0x1
 3923 05c1 50       		.byte	0x50
 3924 05c2 42000000 		.4byte	.LVL66
 3925 05c6 4E000000 		.4byte	.LFE15
 3926 05ca 0100     		.2byte	0x1
ARM GAS  C:\Users\LAB_ME~1\AppData\Local\Temp\cciO7git.s 			page 70


 3927 05cc 54       		.byte	0x54
 3928 05cd 00000000 		.4byte	0
 3929 05d1 00000000 		.4byte	0
 3930              	.LLST42:
 3931 05d5 00000000 		.4byte	.LVL57
 3932 05d9 0E000000 		.4byte	.LVL59
 3933 05dd 0100     		.2byte	0x1
 3934 05df 51       		.byte	0x51
 3935 05e0 0E000000 		.4byte	.LVL59
 3936 05e4 4E000000 		.4byte	.LFE15
 3937 05e8 0400     		.2byte	0x4
 3938 05ea F3       		.byte	0xf3
 3939 05eb 01       		.uleb128 0x1
 3940 05ec 51       		.byte	0x51
 3941 05ed 9F       		.byte	0x9f
 3942 05ee 00000000 		.4byte	0
 3943 05f2 00000000 		.4byte	0
 3944              	.LLST43:
 3945 05f6 00000000 		.4byte	.LVL57
 3946 05fa 0E000000 		.4byte	.LVL59
 3947 05fe 0100     		.2byte	0x1
 3948 0600 52       		.byte	0x52
 3949 0601 0E000000 		.4byte	.LVL59
 3950 0605 16000000 		.4byte	.LVL60
 3951 0609 0100     		.2byte	0x1
 3952 060b 56       		.byte	0x56
 3953 060c 16000000 		.4byte	.LVL60
 3954 0610 19000000 		.4byte	.LVL61-1
 3955 0614 0100     		.2byte	0x1
 3956 0616 51       		.byte	0x51
 3957 0617 19000000 		.4byte	.LVL61-1
 3958 061b 26000000 		.4byte	.LVL64
 3959 061f 0100     		.2byte	0x1
 3960 0621 56       		.byte	0x56
 3961 0622 26000000 		.4byte	.LVL64
 3962 0626 43000000 		.4byte	.LVL67-1
 3963 062a 0100     		.2byte	0x1
 3964 062c 51       		.byte	0x51
 3965 062d 43000000 		.4byte	.LVL67-1
 3966 0631 4E000000 		.4byte	.LFE15
 3967 0635 0100     		.2byte	0x1
 3968 0637 56       		.byte	0x56
 3969 0638 00000000 		.4byte	0
 3970 063c 00000000 		.4byte	0
 3971              	.LLST44:
 3972 0640 0E000000 		.4byte	.LVL59
 3973 0644 19000000 		.4byte	.LVL61-1
 3974 0648 0100     		.2byte	0x1
 3975 064a 53       		.byte	0x53
 3976 064b 26000000 		.4byte	.LVL64
 3977 064f 28000000 		.4byte	.LVL65
 3978 0653 0100     		.2byte	0x1
 3979 0655 53       		.byte	0x53
 3980 0656 00000000 		.4byte	0
 3981 065a 00000000 		.4byte	0
 3982              	.LLST45:
 3983 065e 1A000000 		.4byte	.LVL61
ARM GAS  C:\Users\LAB_ME~1\AppData\Local\Temp\cciO7git.s 			page 71


 3984 0662 26000000 		.4byte	.LVL64
 3985 0666 0100     		.2byte	0x1
 3986 0668 50       		.byte	0x50
 3987 0669 00000000 		.4byte	0
 3988 066d 00000000 		.4byte	0
 3989              	.LLST46:
 3990 0671 24000000 		.4byte	.LVL63
 3991 0675 26000000 		.4byte	.LVL64
 3992 0679 0100     		.2byte	0x1
 3993 067b 53       		.byte	0x53
 3994 067c 00000000 		.4byte	0
 3995 0680 00000000 		.4byte	0
 3996              	.LLST47:
 3997 0684 4A000000 		.4byte	.LVL69
 3998 0688 4E000000 		.4byte	.LFE15
 3999 068c 0100     		.2byte	0x1
 4000 068e 53       		.byte	0x53
 4001 068f 00000000 		.4byte	0
 4002 0693 00000000 		.4byte	0
 4003              	.LLST48:
 4004 0697 00000000 		.4byte	.LFB16
 4005 069b 08000000 		.4byte	.LCFI9
 4006 069f 0200     		.2byte	0x2
 4007 06a1 7D       		.byte	0x7d
 4008 06a2 00       		.sleb128 0
 4009 06a3 08000000 		.4byte	.LCFI9
 4010 06a7 46000000 		.4byte	.LFE16
 4011 06ab 0200     		.2byte	0x2
 4012 06ad 7D       		.byte	0x7d
 4013 06ae 08       		.sleb128 8
 4014 06af 00000000 		.4byte	0
 4015 06b3 00000000 		.4byte	0
 4016              	.LLST49:
 4017 06b7 00000000 		.4byte	.LVL70
 4018 06bb 22000000 		.4byte	.LVL72
 4019 06bf 0100     		.2byte	0x1
 4020 06c1 50       		.byte	0x50
 4021 06c2 22000000 		.4byte	.LVL72
 4022 06c6 33000000 		.4byte	.LVL74-1
 4023 06ca 0100     		.2byte	0x1
 4024 06cc 53       		.byte	0x53
 4025 06cd 33000000 		.4byte	.LVL74-1
 4026 06d1 3C000000 		.4byte	.LVL76
 4027 06d5 0400     		.2byte	0x4
 4028 06d7 F3       		.byte	0xf3
 4029 06d8 01       		.uleb128 0x1
 4030 06d9 50       		.byte	0x50
 4031 06da 9F       		.byte	0x9f
 4032 06db 3C000000 		.4byte	.LVL76
 4033 06df 44000000 		.4byte	.LVL77
 4034 06e3 0100     		.2byte	0x1
 4035 06e5 50       		.byte	0x50
 4036 06e6 44000000 		.4byte	.LVL77
 4037 06ea 46000000 		.4byte	.LFE16
 4038 06ee 0100     		.2byte	0x1
 4039 06f0 53       		.byte	0x53
 4040 06f1 00000000 		.4byte	0
ARM GAS  C:\Users\LAB_ME~1\AppData\Local\Temp\cciO7git.s 			page 72


 4041 06f5 00000000 		.4byte	0
 4042              	.LLST50:
 4043 06f9 16000000 		.4byte	.LVL71
 4044 06fd 22000000 		.4byte	.LVL72
 4045 0701 0300     		.2byte	0x3
 4046 0703 70       		.byte	0x70
 4047 0704 18       		.sleb128 24
 4048 0705 06       		.byte	0x6
 4049 0706 22000000 		.4byte	.LVL72
 4050 070a 33000000 		.4byte	.LVL74-1
 4051 070e 0300     		.2byte	0x3
 4052 0710 73       		.byte	0x73
 4053 0711 18       		.sleb128 24
 4054 0712 06       		.byte	0x6
 4055 0713 33000000 		.4byte	.LVL74-1
 4056 0717 3C000000 		.4byte	.LVL76
 4057 071b 0100     		.2byte	0x1
 4058 071d 54       		.byte	0x54
 4059 071e 00000000 		.4byte	0
 4060 0722 00000000 		.4byte	0
 4061              	.LLST51:
 4062 0726 2A000000 		.4byte	.LVL73
 4063 072a 33000000 		.4byte	.LVL74-1
 4064 072e 0100     		.2byte	0x1
 4065 0730 53       		.byte	0x53
 4066 0731 33000000 		.4byte	.LVL74-1
 4067 0735 38000000 		.4byte	.LVL75
 4068 0739 0400     		.2byte	0x4
 4069 073b F3       		.byte	0xf3
 4070 073c 01       		.uleb128 0x1
 4071 073d 50       		.byte	0x50
 4072 073e 9F       		.byte	0x9f
 4073 073f 00000000 		.4byte	0
 4074 0743 00000000 		.4byte	0
 4075              	.LLST52:
 4076 0747 2A000000 		.4byte	.LVL73
 4077 074b 33000000 		.4byte	.LVL74-1
 4078 074f 0100     		.2byte	0x1
 4079 0751 50       		.byte	0x50
 4080 0752 00000000 		.4byte	0
 4081 0756 00000000 		.4byte	0
 4082              	.LLST53:
 4083 075a 00000000 		.4byte	.LFB17
 4084 075e 04000000 		.4byte	.LCFI10
 4085 0762 0200     		.2byte	0x2
 4086 0764 7D       		.byte	0x7d
 4087 0765 00       		.sleb128 0
 4088 0766 04000000 		.4byte	.LCFI10
 4089 076a 74000000 		.4byte	.LFE17
 4090 076e 0200     		.2byte	0x2
 4091 0770 7D       		.byte	0x7d
 4092 0771 20       		.sleb128 32
 4093 0772 00000000 		.4byte	0
 4094 0776 00000000 		.4byte	0
 4095              	.LLST54:
 4096 077a 00000000 		.4byte	.LVL78
 4097 077e 18000000 		.4byte	.LVL82
ARM GAS  C:\Users\LAB_ME~1\AppData\Local\Temp\cciO7git.s 			page 73


 4098 0782 0100     		.2byte	0x1
 4099 0784 50       		.byte	0x50
 4100 0785 18000000 		.4byte	.LVL82
 4101 0789 20000000 		.4byte	.LVL84
 4102 078d 0100     		.2byte	0x1
 4103 078f 54       		.byte	0x54
 4104 0790 20000000 		.4byte	.LVL84
 4105 0794 3F000000 		.4byte	.LVL87-1
 4106 0798 0100     		.2byte	0x1
 4107 079a 50       		.byte	0x50
 4108 079b 3F000000 		.4byte	.LVL87-1
 4109 079f 5C000000 		.4byte	.LVL95
 4110 07a3 0100     		.2byte	0x1
 4111 07a5 54       		.byte	0x54
 4112 07a6 5C000000 		.4byte	.LVL95
 4113 07aa 5E000000 		.4byte	.LVL96
 4114 07ae 0100     		.2byte	0x1
 4115 07b0 50       		.byte	0x50
 4116 07b1 5E000000 		.4byte	.LVL96
 4117 07b5 74000000 		.4byte	.LFE17
 4118 07b9 0100     		.2byte	0x1
 4119 07bb 54       		.byte	0x54
 4120 07bc 00000000 		.4byte	0
 4121 07c0 00000000 		.4byte	0
 4122              	.LLST55:
 4123 07c4 00000000 		.4byte	.LVL78
 4124 07c8 18000000 		.4byte	.LVL82
 4125 07cc 0100     		.2byte	0x1
 4126 07ce 51       		.byte	0x51
 4127 07cf 18000000 		.4byte	.LVL82
 4128 07d3 26000000 		.4byte	.LVL85
 4129 07d7 0100     		.2byte	0x1
 4130 07d9 58       		.byte	0x58
 4131 07da 26000000 		.4byte	.LVL85
 4132 07de 30000000 		.4byte	.LVL86
 4133 07e2 0300     		.2byte	0x3
 4134 07e4 78       		.byte	0x78
 4135 07e5 7F       		.sleb128 -1
 4136 07e6 9F       		.byte	0x9f
 4137 07e7 30000000 		.4byte	.LVL86
 4138 07eb 74000000 		.4byte	.LFE17
 4139 07ef 0100     		.2byte	0x1
 4140 07f1 58       		.byte	0x58
 4141 07f2 00000000 		.4byte	0
 4142 07f6 00000000 		.4byte	0
 4143              	.LLST56:
 4144 07fa 00000000 		.4byte	.LVL78
 4145 07fe 18000000 		.4byte	.LVL82
 4146 0802 0100     		.2byte	0x1
 4147 0804 52       		.byte	0x52
 4148 0805 18000000 		.4byte	.LVL82
 4149 0809 48000000 		.4byte	.LVL90
 4150 080d 0100     		.2byte	0x1
 4151 080f 56       		.byte	0x56
 4152 0810 48000000 		.4byte	.LVL90
 4153 0814 4A000000 		.4byte	.LVL91
 4154 0818 0300     		.2byte	0x3
ARM GAS  C:\Users\LAB_ME~1\AppData\Local\Temp\cciO7git.s 			page 74


 4155 081a 76       		.byte	0x76
 4156 081b 7F       		.sleb128 -1
 4157 081c 9F       		.byte	0x9f
 4158 081d 4A000000 		.4byte	.LVL91
 4159 0821 74000000 		.4byte	.LFE17
 4160 0825 0100     		.2byte	0x1
 4161 0827 56       		.byte	0x56
 4162 0828 00000000 		.4byte	0
 4163 082c 00000000 		.4byte	0
 4164              	.LLST57:
 4165 0830 00000000 		.4byte	.LVL78
 4166 0834 12000000 		.4byte	.LVL80
 4167 0838 0100     		.2byte	0x1
 4168 083a 53       		.byte	0x53
 4169 083b 12000000 		.4byte	.LVL80
 4170 083f 74000000 		.4byte	.LFE17
 4171 0843 0100     		.2byte	0x1
 4172 0845 5A       		.byte	0x5a
 4173 0846 00000000 		.4byte	0
 4174 084a 00000000 		.4byte	0
 4175              	.LLST58:
 4176 084e 10000000 		.4byte	.LVL79
 4177 0852 18000000 		.4byte	.LVL82
 4178 0856 0200     		.2byte	0x2
 4179 0858 30       		.byte	0x30
 4180 0859 9F       		.byte	0x9f
 4181 085a 18000000 		.4byte	.LVL82
 4182 085e 74000000 		.4byte	.LFE17
 4183 0862 0100     		.2byte	0x1
 4184 0864 57       		.byte	0x57
 4185 0865 00000000 		.4byte	0
 4186 0869 00000000 		.4byte	0
 4187              	.LLST59:
 4188 086d 16000000 		.4byte	.LVL81
 4189 0871 1E000000 		.4byte	.LVL83
 4190 0875 0100     		.2byte	0x1
 4191 0877 53       		.byte	0x53
 4192 0878 00000000 		.4byte	0
 4193 087c 00000000 		.4byte	0
 4194              	.LLST60:
 4195 0880 46000000 		.4byte	.LVL89
 4196 0884 4E000000 		.4byte	.LVL92
 4197 0888 0100     		.2byte	0x1
 4198 088a 53       		.byte	0x53
 4199 088b 6E000000 		.4byte	.LVL99
 4200 088f 74000000 		.4byte	.LFE17
 4201 0893 0100     		.2byte	0x1
 4202 0895 53       		.byte	0x53
 4203 0896 00000000 		.4byte	0
 4204 089a 00000000 		.4byte	0
 4205              	.LLST61:
 4206 089e 52000000 		.4byte	.LVL93
 4207 08a2 58000000 		.4byte	.LVL94
 4208 08a6 0100     		.2byte	0x1
 4209 08a8 53       		.byte	0x53
 4210 08a9 00000000 		.4byte	0
 4211 08ad 00000000 		.4byte	0
ARM GAS  C:\Users\LAB_ME~1\AppData\Local\Temp\cciO7git.s 			page 75


 4212              	.LLST62:
 4213 08b1 6E000000 		.4byte	.LVL99
 4214 08b5 74000000 		.4byte	.LFE17
 4215 08b9 0100     		.2byte	0x1
 4216 08bb 53       		.byte	0x53
 4217 08bc 00000000 		.4byte	0
 4218 08c0 00000000 		.4byte	0
 4219              		.section	.debug_aranges,"",%progbits
 4220 0000 6C000000 		.4byte	0x6c
 4221 0004 0200     		.2byte	0x2
 4222 0006 00000000 		.4byte	.Ldebug_info0
 4223 000a 04       		.byte	0x4
 4224 000b 00       		.byte	0
 4225 000c 0000     		.2byte	0
 4226 000e 0000     		.2byte	0
 4227 0010 00000000 		.4byte	.LFB7
 4228 0014 2C000000 		.4byte	.LFE7-.LFB7
 4229 0018 00000000 		.4byte	.LFB8
 4230 001c 1E000000 		.4byte	.LFE8-.LFB8
 4231 0020 00000000 		.4byte	.LFB9
 4232 0024 2C000000 		.4byte	.LFE9-.LFB9
 4233 0028 00000000 		.4byte	.LFB10
 4234 002c 4A000000 		.4byte	.LFE10-.LFB10
 4235 0030 00000000 		.4byte	.LFB11
 4236 0034 48000000 		.4byte	.LFE11-.LFB11
 4237 0038 00000000 		.4byte	.LFB12
 4238 003c 72000000 		.4byte	.LFE12-.LFB12
 4239 0040 00000000 		.4byte	.LFB13
 4240 0044 1C000000 		.4byte	.LFE13-.LFB13
 4241 0048 00000000 		.4byte	.LFB14
 4242 004c 2E000000 		.4byte	.LFE14-.LFB14
 4243 0050 00000000 		.4byte	.LFB15
 4244 0054 4E000000 		.4byte	.LFE15-.LFB15
 4245 0058 00000000 		.4byte	.LFB16
 4246 005c 46000000 		.4byte	.LFE16-.LFB16
 4247 0060 00000000 		.4byte	.LFB17
 4248 0064 74000000 		.4byte	.LFE17-.LFB17
 4249 0068 00000000 		.4byte	0
 4250 006c 00000000 		.4byte	0
 4251              		.section	.debug_ranges,"",%progbits
 4252              	.Ldebug_ranges0:
 4253 0000 0C000000 		.4byte	.LBB12
 4254 0004 0E000000 		.4byte	.LBE12
 4255 0008 10000000 		.4byte	.LBB15
 4256 000c 18000000 		.4byte	.LBE15
 4257 0010 00000000 		.4byte	0
 4258 0014 00000000 		.4byte	0
 4259 0018 02000000 		.4byte	.LBB20
 4260 001c 04000000 		.4byte	.LBE20
 4261 0020 08000000 		.4byte	.LBB21
 4262 0024 0C000000 		.4byte	.LBE21
 4263 0028 00000000 		.4byte	0
 4264 002c 00000000 		.4byte	0
 4265 0030 14000000 		.4byte	.LBB22
 4266 0034 18000000 		.4byte	.LBE22
 4267 0038 1A000000 		.4byte	.LBB24
 4268 003c 2A000000 		.4byte	.LBE24
ARM GAS  C:\Users\LAB_ME~1\AppData\Local\Temp\cciO7git.s 			page 76


 4269 0040 00000000 		.4byte	0
 4270 0044 00000000 		.4byte	0
 4271 0048 0A000000 		.4byte	.LBB26
 4272 004c 10000000 		.4byte	.LBE26
 4273 0050 14000000 		.4byte	.LBB27
 4274 0054 1C000000 		.4byte	.LBE27
 4275 0058 00000000 		.4byte	0
 4276 005c 00000000 		.4byte	0
 4277 0060 10000000 		.4byte	.LBB34
 4278 0064 14000000 		.4byte	.LBE34
 4279 0068 16000000 		.4byte	.LBB36
 4280 006c 26000000 		.4byte	.LBE36
 4281 0070 00000000 		.4byte	0
 4282 0074 00000000 		.4byte	0
 4283 0078 00000000 		.4byte	.LFB7
 4284 007c 2C000000 		.4byte	.LFE7
 4285 0080 00000000 		.4byte	.LFB8
 4286 0084 1E000000 		.4byte	.LFE8
 4287 0088 00000000 		.4byte	.LFB9
 4288 008c 2C000000 		.4byte	.LFE9
 4289 0090 00000000 		.4byte	.LFB10
 4290 0094 4A000000 		.4byte	.LFE10
 4291 0098 00000000 		.4byte	.LFB11
 4292 009c 48000000 		.4byte	.LFE11
 4293 00a0 00000000 		.4byte	.LFB12
 4294 00a4 72000000 		.4byte	.LFE12
 4295 00a8 00000000 		.4byte	.LFB13
 4296 00ac 1C000000 		.4byte	.LFE13
 4297 00b0 00000000 		.4byte	.LFB14
 4298 00b4 2E000000 		.4byte	.LFE14
 4299 00b8 00000000 		.4byte	.LFB15
 4300 00bc 4E000000 		.4byte	.LFE15
 4301 00c0 00000000 		.4byte	.LFB16
 4302 00c4 46000000 		.4byte	.LFE16
 4303 00c8 00000000 		.4byte	.LFB17
 4304 00cc 74000000 		.4byte	.LFE17
 4305 00d0 00000000 		.4byte	0
 4306 00d4 00000000 		.4byte	0
 4307              		.section	.debug_line,"",%progbits
 4308              	.Ldebug_line0:
 4309 0000 EC030000 		.section	.debug_str,"MS",%progbits,1
 4309      0200ED01 
 4309      00000201 
 4309      FB0E0D00 
 4309      01010101 
 4310              	.LASF85:
 4311 0000 63684F51 		.ascii	"chOQInit\000"
 4311      496E6974 
 4311      00
 4312              	.LASF37:
 4313 0009 705F6D73 		.ascii	"p_msg\000"
 4313      6700
 4314              	.LASF94:
 4315 000f 71756575 		.ascii	"queue_insert\000"
 4315      655F696E 
 4315      73657274 
 4315      00
ARM GAS  C:\Users\LAB_ME~1\AppData\Local\Temp\cciO7git.s 			page 77


 4316              	.LASF86:
 4317 001c 6F6E6679 		.ascii	"onfy\000"
 4317      00
 4318              	.LASF2:
 4319 0021 73697A65 		.ascii	"size_t\000"
 4319      5F7400
 4320              	.LASF59:
 4321 0028 7264796D 		.ascii	"rdymsg\000"
 4321      736700
 4322              	.LASF80:
 4323 002f 63684951 		.ascii	"chIQInit\000"
 4323      496E6974 
 4323      00
 4324              	.LASF75:
 4325 0038 4F757470 		.ascii	"OutputQueue\000"
 4325      75745175 
 4325      65756500 
 4326              	.LASF84:
 4327 0044 63684951 		.ascii	"chIQReadTimeout\000"
 4327      52656164 
 4327      54696D65 
 4327      6F757400 
 4328              	.LASF12:
 4329 0054 6C6F6E67 		.ascii	"long long unsigned int\000"
 4329      206C6F6E 
 4329      6720756E 
 4329      7369676E 
 4329      65642069 
 4330              	.LASF60:
 4331 006b 65786974 		.ascii	"exitcode\000"
 4331      636F6465 
 4331      00
 4332              	.LASF25:
 4333 0074 705F7072 		.ascii	"p_prio\000"
 4333      696F00
 4334              	.LASF65:
 4335 007b 715F7761 		.ascii	"q_waiting\000"
 4335      6974696E 
 4335      6700
 4336              	.LASF11:
 4337 0085 6C6F6E67 		.ascii	"long long int\000"
 4337      206C6F6E 
 4337      6720696E 
 4337      7400
 4338              	.LASF1:
 4339 0093 7369676E 		.ascii	"signed char\000"
 4339      65642063 
 4339      68617200 
 4340              	.LASF41:
 4341 009f 705F6D70 		.ascii	"p_mpool\000"
 4341      6F6F6C00 
 4342              	.LASF13:
 4343 00a7 626F6F6C 		.ascii	"bool_t\000"
 4343      5F7400
 4344              	.LASF56:
 4345 00ae 6D5F7175 		.ascii	"m_queue\000"
 4345      65756500 
ARM GAS  C:\Users\LAB_ME~1\AppData\Local\Temp\cciO7git.s 			page 78


 4346              	.LASF17:
 4347 00b6 74736C69 		.ascii	"tslices_t\000"
 4347      6365735F 
 4347      7400
 4348              	.LASF96:
 4349 00c0 71776169 		.ascii	"qwait\000"
 4349      7400
 4350              	.LASF8:
 4351 00c6 6C6F6E67 		.ascii	"long int\000"
 4351      20696E74 
 4351      00
 4352              	.LASF15:
 4353 00cf 74737461 		.ascii	"tstate_t\000"
 4353      74655F74 
 4353      00
 4354              	.LASF89:
 4355 00d8 63684F51 		.ascii	"chOQGetI\000"
 4355      47657449 
 4355      00
 4356              	.LASF67:
 4357 00e1 715F6275 		.ascii	"q_buffer\000"
 4357      66666572 
 4357      00
 4358              	.LASF69:
 4359 00ea 715F7772 		.ascii	"q_wrptr\000"
 4359      70747200 
 4360              	.LASF27:
 4361 00f2 705F6E65 		.ascii	"p_newer\000"
 4361      77657200 
 4362              	.LASF51:
 4363 00fa 725F6E65 		.ascii	"r_newer\000"
 4363      77657200 
 4364              	.LASF44:
 4365 0102 72656761 		.ascii	"regarm_t\000"
 4365      726D5F74 
 4365      00
 4366              	.LASF79:
 4367 010b 6C696E6B 		.ascii	"link\000"
 4367      00
 4368              	.LASF88:
 4369 0110 63684F51 		.ascii	"chOQPutTimeout\000"
 4369      50757454 
 4369      696D656F 
 4369      757400
 4370              	.LASF82:
 4371 011f 63684951 		.ascii	"chIQPutI\000"
 4371      50757449 
 4371      00
 4372              	.LASF0:
 4373 0128 756E7369 		.ascii	"unsigned int\000"
 4373      676E6564 
 4373      20696E74 
 4373      00
 4374              	.LASF81:
 4375 0135 63684951 		.ascii	"chIQResetI\000"
 4375      52657365 
 4375      744900
ARM GAS  C:\Users\LAB_ME~1\AppData\Local\Temp\cciO7git.s 			page 79


 4376              	.LASF10:
 4377 0140 6C6F6E67 		.ascii	"long unsigned int\000"
 4377      20756E73 
 4377      69676E65 
 4377      6420696E 
 4377      7400
 4378              	.LASF46:
 4379 0152 636F6E74 		.ascii	"context\000"
 4379      65787400 
 4380              	.LASF77:
 4381 015a 73697A65 		.ascii	"size\000"
 4381      00
 4382              	.LASF6:
 4383 015f 73686F72 		.ascii	"short unsigned int\000"
 4383      7420756E 
 4383      7369676E 
 4383      65642069 
 4383      6E7400
 4384              	.LASF19:
 4385 0172 6D73675F 		.ascii	"msg_t\000"
 4385      7400
 4386              	.LASF92:
 4387 0178 2E2E2F2E 		.ascii	"../../os/kernel/src/chqueues.c\000"
 4387      2E2F6F73 
 4387      2F6B6572 
 4387      6E656C2F 
 4387      7372632F 
 4388              	.LASF43:
 4389 0197 54687265 		.ascii	"ThreadsList\000"
 4389      6164734C 
 4389      69737400 
 4390              	.LASF20:
 4391 01a3 6576656E 		.ascii	"eventmask_t\000"
 4391      746D6173 
 4391      6B5F7400 
 4392              	.LASF74:
 4393 01af 496E7075 		.ascii	"InputQueue\000"
 4393      74517565 
 4393      756500
 4394              	.LASF55:
 4395 01ba 4D757465 		.ascii	"Mutex\000"
 4395      7800
 4396              	.LASF64:
 4397 01c0 47656E65 		.ascii	"GenericQueue\000"
 4397      72696351 
 4397      75657565 
 4397      00
 4398              	.LASF90:
 4399 01cd 63684F51 		.ascii	"chOQWriteTimeout\000"
 4399      57726974 
 4399      6554696D 
 4399      656F7574 
 4399      00
 4400              	.LASF47:
 4401 01de 73697A65 		.ascii	"sizetype\000"
 4401      74797065 
 4401      00
ARM GAS  C:\Users\LAB_ME~1\AppData\Local\Temp\cciO7git.s 			page 80


 4402              	.LASF66:
 4403 01e7 715F636F 		.ascii	"q_counter\000"
 4403      756E7465 
 4403      7200
 4404              	.LASF28:
 4405 01f1 705F6F6C 		.ascii	"p_older\000"
 4405      64657200 
 4406              	.LASF50:
 4407 01f9 725F6374 		.ascii	"r_ctx\000"
 4407      7800
 4408              	.LASF42:
 4409 01ff 54687265 		.ascii	"ThreadsQueue\000"
 4409      61647351 
 4409      75657565 
 4409      00
 4410              	.LASF76:
 4411 020c 74696D65 		.ascii	"time\000"
 4411      00
 4412              	.LASF91:
 4413 0211 474E5520 		.ascii	"GNU C 4.7.2\000"
 4413      4320342E 
 4413      372E3200 
 4414              	.LASF53:
 4415 021d 725F6375 		.ascii	"r_current\000"
 4415      7272656E 
 4415      7400
 4416              	.LASF52:
 4417 0227 725F6F6C 		.ascii	"r_older\000"
 4417      64657200 
 4418              	.LASF16:
 4419 022f 74726566 		.ascii	"trefs_t\000"
 4419      735F7400 
 4420              	.LASF73:
 4421 0237 716E6F74 		.ascii	"qnotify_t\000"
 4421      6966795F 
 4421      7400
 4422              	.LASF24:
 4423 0241 705F7072 		.ascii	"p_prev\000"
 4423      657600
 4424              	.LASF18:
 4425 0248 74707269 		.ascii	"tprio_t\000"
 4425      6F5F7400 
 4426              	.LASF70:
 4427 0250 715F7264 		.ascii	"q_rdptr\000"
 4427      70747200 
 4428              	.LASF7:
 4429 0258 696E7433 		.ascii	"int32_t\000"
 4429      325F7400 
 4430              	.LASF4:
 4431 0260 756E7369 		.ascii	"unsigned char\000"
 4431      676E6564 
 4431      20636861 
 4431      7200
 4432              	.LASF39:
 4433 026e 705F6D74 		.ascii	"p_mtxlist\000"
 4433      786C6973 
 4433      7400
ARM GAS  C:\Users\LAB_ME~1\AppData\Local\Temp\cciO7git.s 			page 81


 4434              	.LASF5:
 4435 0278 73686F72 		.ascii	"short int\000"
 4435      7420696E 
 4435      7400
 4436              	.LASF30:
 4437 0282 705F7374 		.ascii	"p_state\000"
 4437      61746500 
 4438              	.LASF33:
 4439 028a 705F7072 		.ascii	"p_preempt\000"
 4439      65656D70 
 4439      7400
 4440              	.LASF49:
 4441 0294 725F7072 		.ascii	"r_prio\000"
 4441      696F00
 4442              	.LASF62:
 4443 029b 65776D61 		.ascii	"ewmask\000"
 4443      736B00
 4444              	.LASF23:
 4445 02a2 705F6E65 		.ascii	"p_next\000"
 4445      787400
 4446              	.LASF14:
 4447 02a9 746D6F64 		.ascii	"tmode_t\000"
 4447      655F7400 
 4448              	.LASF31:
 4449 02b1 705F666C 		.ascii	"p_flags\000"
 4449      61677300 
 4450              	.LASF22:
 4451 02b9 54687265 		.ascii	"Thread\000"
 4451      616400
 4452              	.LASF38:
 4453 02c0 705F6570 		.ascii	"p_epending\000"
 4453      656E6469 
 4453      6E6700
 4454              	.LASF9:
 4455 02cb 75696E74 		.ascii	"uint32_t\000"
 4455      33325F74 
 4455      00
 4456              	.LASF48:
 4457 02d4 725F7175 		.ascii	"r_queue\000"
 4457      65756500 
 4458              	.LASF99:
 4459 02dc 63685363 		.ascii	"chSchReadyI\000"
 4459      68526561 
 4459      64794900 
 4460              	.LASF63:
 4461 02e8 63686172 		.ascii	"char\000"
 4461      00
 4462              	.LASF95:
 4463 02ed 6669666F 		.ascii	"fifo_remove\000"
 4463      5F72656D 
 4463      6F766500 
 4464              	.LASF58:
 4465 02f9 6D5F6E65 		.ascii	"m_next\000"
 4465      787400
 4466              	.LASF21:
 4467 0300 73797374 		.ascii	"systime_t\000"
 4467      696D655F 
ARM GAS  C:\Users\LAB_ME~1\AppData\Local\Temp\cciO7git.s 			page 82


 4467      7400
 4468              	.LASF40:
 4469 030a 705F7265 		.ascii	"p_realprio\000"
 4469      616C7072 
 4469      696F00
 4470              	.LASF78:
 4471 0315 696E6679 		.ascii	"infy\000"
 4471      00
 4472              	.LASF87:
 4473 031a 63684F51 		.ascii	"chOQResetI\000"
 4473      52657365 
 4473      744900
 4474              	.LASF34:
 4475 0325 705F7469 		.ascii	"p_time\000"
 4475      6D6500
 4476              	.LASF45:
 4477 032c 696E7463 		.ascii	"intctx\000"
 4477      747800
 4478              	.LASF36:
 4479 0333 705F6D73 		.ascii	"p_msgqueue\000"
 4479      67717565 
 4479      756500
 4480              	.LASF68:
 4481 033e 715F746F 		.ascii	"q_top\000"
 4481      7000
 4482              	.LASF32:
 4483 0344 705F7265 		.ascii	"p_refs\000"
 4483      667300
 4484              	.LASF54:
 4485 034b 52656164 		.ascii	"ReadyList\000"
 4485      794C6973 
 4485      7400
 4486              	.LASF71:
 4487 0355 715F6E6F 		.ascii	"q_notify\000"
 4487      74696679 
 4487      00
 4488              	.LASF97:
 4489 035e 726C6973 		.ascii	"rlist\000"
 4489      7400
 4490              	.LASF3:
 4491 0364 75696E74 		.ascii	"uint8_t\000"
 4491      385F7400 
 4492              	.LASF61:
 4493 036c 77746F62 		.ascii	"wtobjp\000"
 4493      6A7000
 4494              	.LASF29:
 4495 0373 705F6E61 		.ascii	"p_name\000"
 4495      6D6500
 4496              	.LASF98:
 4497 037a 63685363 		.ascii	"chSchGoSleepTimeoutS\000"
 4497      68476F53 
 4497      6C656570 
 4497      54696D65 
 4497      6F757453 
 4498              	.LASF72:
 4499 038f 715F6C69 		.ascii	"q_link\000"
 4499      6E6B00
ARM GAS  C:\Users\LAB_ME~1\AppData\Local\Temp\cciO7git.s 			page 83


 4500              	.LASF57:
 4501 0396 6D5F6F77 		.ascii	"m_owner\000"
 4501      6E657200 
 4502              	.LASF93:
 4503 039e 433A5C43 		.ascii	"C:\\Chibios\\demos\\FirmwareV2\000"
 4503      68696269 
 4503      6F735C64 
 4503      656D6F73 
 4503      5C466972 
 4504              	.LASF26:
 4505 03ba 705F6374 		.ascii	"p_ctx\000"
 4505      7800
 4506              	.LASF35:
 4507 03c0 705F7761 		.ascii	"p_waiting\000"
 4507      6974696E 
 4507      6700
 4508              	.LASF83:
 4509 03ca 63684951 		.ascii	"chIQGetTimeout\000"
 4509      47657454 
 4509      696D656F 
 4509      757400
 4510              		.ident	"GCC: (Sourcery CodeBench Lite 2012.09-63) 4.7.2"
ARM GAS  C:\Users\LAB_ME~1\AppData\Local\Temp\cciO7git.s 			page 84


DEFINED SYMBOLS
                            *ABS*:00000000 chqueues.c
C:\Users\LAB_ME~1\AppData\Local\Temp\cciO7git.s:19     .text.qwait:00000000 $t
C:\Users\LAB_ME~1\AppData\Local\Temp\cciO7git.s:24     .text.qwait:00000000 qwait
C:\Users\LAB_ME~1\AppData\Local\Temp\cciO7git.s:79     .text.qwait:00000028 $d
C:\Users\LAB_ME~1\AppData\Local\Temp\cciO7git.s:84     .text.chIQInit:00000000 $t
C:\Users\LAB_ME~1\AppData\Local\Temp\cciO7git.s:90     .text.chIQInit:00000000 chIQInit
C:\Users\LAB_ME~1\AppData\Local\Temp\cciO7git.s:133    .text.chIQResetI:00000000 $t
C:\Users\LAB_ME~1\AppData\Local\Temp\cciO7git.s:139    .text.chIQResetI:00000000 chIQResetI
C:\Users\LAB_ME~1\AppData\Local\Temp\cciO7git.s:198    .text.chIQPutI:00000000 $t
C:\Users\LAB_ME~1\AppData\Local\Temp\cciO7git.s:204    .text.chIQPutI:00000000 chIQPutI
C:\Users\LAB_ME~1\AppData\Local\Temp\cciO7git.s:285    .text.chIQGetTimeout:00000000 $t
C:\Users\LAB_ME~1\AppData\Local\Temp\cciO7git.s:291    .text.chIQGetTimeout:00000000 chIQGetTimeout
C:\Users\LAB_ME~1\AppData\Local\Temp\cciO7git.s:394    .text.chIQReadTimeout:00000000 $t
C:\Users\LAB_ME~1\AppData\Local\Temp\cciO7git.s:400    .text.chIQReadTimeout:00000000 chIQReadTimeout
C:\Users\LAB_ME~1\AppData\Local\Temp\cciO7git.s:532    .text.chOQInit:00000000 $t
C:\Users\LAB_ME~1\AppData\Local\Temp\cciO7git.s:538    .text.chOQInit:00000000 chOQInit
C:\Users\LAB_ME~1\AppData\Local\Temp\cciO7git.s:578    .text.chOQResetI:00000000 $t
C:\Users\LAB_ME~1\AppData\Local\Temp\cciO7git.s:584    .text.chOQResetI:00000000 chOQResetI
C:\Users\LAB_ME~1\AppData\Local\Temp\cciO7git.s:646    .text.chOQPutTimeout:00000000 $t
C:\Users\LAB_ME~1\AppData\Local\Temp\cciO7git.s:652    .text.chOQPutTimeout:00000000 chOQPutTimeout
C:\Users\LAB_ME~1\AppData\Local\Temp\cciO7git.s:759    .text.chOQGetI:00000000 $t
C:\Users\LAB_ME~1\AppData\Local\Temp\cciO7git.s:765    .text.chOQGetI:00000000 chOQGetI
C:\Users\LAB_ME~1\AppData\Local\Temp\cciO7git.s:845    .text.chOQWriteTimeout:00000000 $t
C:\Users\LAB_ME~1\AppData\Local\Temp\cciO7git.s:851    .text.chOQWriteTimeout:00000000 chOQWriteTimeout
                     .debug_frame:00000010 $d
C:\Users\LAB_ME~1\AppData\Local\Temp\cciO7git.s:83     .text.qwait:0000002c $t

UNDEFINED SYMBOLS
chSchGoSleepTimeoutS
rlist
chSchReadyI
