ARM GAS  C:\Users\LAB_ME~1\AppData\Local\Temp\cciO7git.s 			page 1


   1              		.syntax unified
   2              		.cpu cortex-m4
   3              		.fpu softvfp
   4              		.eabi_attribute 20, 1
   5              		.eabi_attribute 21, 1
   6              		.eabi_attribute 23, 3
   7              		.eabi_attribute 24, 1
   8              		.eabi_attribute 25, 1
   9              		.eabi_attribute 26, 1
  10              		.eabi_attribute 30, 2
  11              		.eabi_attribute 34, 1
  12              		.eabi_attribute 18, 4
  13              		.thumb
  14              		.file	"chqueues.c"
  15              		.text
  16              	.Ltext0:
  17              		.cfi_sections	.debug_frame
  18              		.section	.text.qwait,"ax",%progbits
  19              		.align	2
  20              		.p2align 4,,15
  21              		.thumb
  22              		.thumb_func
  23              		.type	qwait, %function
  24              	qwait:
  25              	.LFB7:
  26              		.file 1 "../../os/kernel/src/chqueues.c"
  27              		.loc 1 63 0
  28              		.cfi_startproc
  29              		@ args = 0, pretend = 0, frame = 0
  30              		@ frame_needed = 0, uses_anonymous_args = 0
  31              		@ link register save eliminated.
  32              	.LVL0:
  33 0000 10B4     		push	{r4}
  34              	.LCFI0:
  35              		.cfi_def_cfa_offset 4
  36              		.cfi_offset 4, -4
  37              		.loc 1 63 0
  38 0002 0246     		mov	r2, r0
  39              		.loc 1 65 0
  40 0004 59B1     		cbz	r1, .L2
  41              		.loc 1 67 0
  42 0006 084B     		ldr	r3, .L4
  43 0008 9B69     		ldr	r3, [r3, #24]
  44 000a 5862     		str	r0, [r3, #36]
  45              	.LVL1:
  46              	.LBB12:
  47              	.LBB13:
  48              		.file 2 "../../os/kernel/include/chinline.h"
  49              		.loc 2 48 0
  50 000c 4468     		ldr	r4, [r0, #4]
  51              	.LBE13:
  52              	.LBE12:
  53              		.loc 1 69 0
  54 000e 0D20     		movs	r0, #13
  55              	.LVL2:
  56              	.LBB15:
  57              	.LBB14:
ARM GAS  C:\Users\LAB_ME~1\AppData\Local\Temp\cciO7git.s 			page 2


  58              		.loc 2 48 0
  59 0010 83E81400 		stmia	r3, {r2, r4}
  60              		.loc 2 49 0
  61 0014 5360     		str	r3, [r2, #4]
  62 0016 2360     		str	r3, [r4, #0]
  63              	.LBE14:
  64              	.LBE15:
  65              		.loc 1 70 0
  66 0018 10BC     		pop	{r4}
  67              		.loc 1 69 0
  68 001a FFF7FEBF 		b	chSchGoSleepTimeoutS
  69              	.LVL3:
  70              	.L2:
  71              		.loc 1 70 0
  72 001e 4FF0FF30 		mov	r0, #-1
  73              	.LVL4:
  74 0022 10BC     		pop	{r4}
  75 0024 7047     		bx	lr
  76              	.L5:
  77 0026 00BF     		.align	2
  78              	.L4:
  79 0028 00000000 		.word	rlist
  80              		.cfi_endproc
  81              	.LFE7:
  82              		.size	qwait, .-qwait
  83 002c AFF30080 		.section	.text.chIQInit,"ax",%progbits
  84              		.align	2
  85              		.p2align 4,,15
  86              		.global	chIQInit
  87              		.thumb
  88              		.thumb_func
  89              		.type	chIQInit, %function
  90              	chIQInit:
  91              	.LFB8:
  92              		.loc 1 89 0
  93              		.cfi_startproc
  94              		@ args = 4, pretend = 0, frame = 0
  95              		@ frame_needed = 0, uses_anonymous_args = 0
  96              		@ link register save eliminated.
  97              	.LVL5:
  98 0000 10B4     		push	{r4}
  99              	.LCFI1:
 100              		.cfi_def_cfa_offset 4
 101              		.cfi_offset 4, -4
 102              		.loc 1 95 0
 103 0002 C361     		str	r3, [r0, #28]
 104              		.loc 1 96 0
 105 0004 019B     		ldr	r3, [sp, #4]
 106              	.LVL6:
 107              		.loc 1 91 0
 108 0006 4060     		str	r0, [r0, #4]
 109              		.loc 1 94 0
 110 0008 8A18     		adds	r2, r1, r2
 111              	.LVL7:
 112              		.loc 1 92 0
 113 000a 0024     		movs	r4, #0
 114              		.loc 1 91 0
ARM GAS  C:\Users\LAB_ME~1\AppData\Local\Temp\cciO7git.s 			page 3


 115 000c 0060     		str	r0, [r0, #0]
 116              		.loc 1 92 0
 117 000e 8460     		str	r4, [r0, #8]
 118              		.loc 1 93 0
 119 0010 4161     		str	r1, [r0, #20]
 120 0012 8161     		str	r1, [r0, #24]
 121 0014 C160     		str	r1, [r0, #12]
 122              		.loc 1 94 0
 123 0016 0261     		str	r2, [r0, #16]
 124              		.loc 1 96 0
 125 0018 0362     		str	r3, [r0, #32]
 126              		.loc 1 97 0
 127 001a 10BC     		pop	{r4}
 128 001c 7047     		bx	lr
 129              		.cfi_endproc
 130              	.LFE8:
 131              		.size	chIQInit, .-chIQInit
 132 001e 00BF     		.section	.text.chIQResetI,"ax",%progbits
 133              		.align	2
 134              		.p2align 4,,15
 135              		.global	chIQResetI
 136              		.thumb
 137              		.thumb_func
 138              		.type	chIQResetI, %function
 139              	chIQResetI:
 140              	.LFB9:
 141              		.loc 1 110 0
 142              		.cfi_startproc
 143              		@ args = 0, pretend = 0, frame = 0
 144              		@ frame_needed = 0, uses_anonymous_args = 0
 145              	.LVL8:
 146 0000 38B5     		push	{r3, r4, r5, lr}
 147              	.LCFI2:
 148              		.cfi_def_cfa_offset 16
 149              		.cfi_offset 3, -16
 150              		.cfi_offset 4, -12
 151              		.cfi_offset 5, -8
 152              		.cfi_offset 14, -4
 153              		.loc 1 110 0
 154 0002 0446     		mov	r4, r0
 155              		.loc 1 114 0
 156 0004 C368     		ldr	r3, [r0, #12]
 157              		.loc 1 116 0
 158 0006 0068     		ldr	r0, [r0, #0]
 159              	.LVL9:
 160              		.loc 1 114 0
 161 0008 6361     		str	r3, [r4, #20]
 162 000a A361     		str	r3, [r4, #24]
 163              		.loc 1 115 0
 164 000c 0023     		movs	r3, #0
 165              		.loc 1 116 0
 166 000e A042     		cmp	r0, r4
 167              		.loc 1 115 0
 168 0010 A360     		str	r3, [r4, #8]
 169              		.loc 1 116 0
 170 0012 0AD0     		beq	.L7
 171              		.loc 1 117 0
ARM GAS  C:\Users\LAB_ME~1\AppData\Local\Temp\cciO7git.s 			page 4


 172 0014 6FF00105 		mvn	r5, #1
 173              	.L11:
 174              	.LVL10:
 175              	.LBB16:
 176              	.LBB17:
 177              		.loc 2 55 0
 178 0018 0368     		ldr	r3, [r0, #0]
 179 001a 2360     		str	r3, [r4, #0]
 180 001c 5C60     		str	r4, [r3, #4]
 181              	.LBE17:
 182              	.LBE16:
 183              		.loc 1 117 0
 184 001e FFF7FEFF 		bl	chSchReadyI
 185              	.LVL11:
 186 0022 4562     		str	r5, [r0, #36]
 187              		.loc 1 116 0
 188 0024 2068     		ldr	r0, [r4, #0]
 189 0026 A042     		cmp	r0, r4
 190 0028 F6D1     		bne	.L11
 191              	.LVL12:
 192              	.L7:
 193 002a 38BD     		pop	{r3, r4, r5, pc}
 194              		.cfi_endproc
 195              	.LFE9:
 196              		.size	chIQResetI, .-chIQResetI
 197 002c AFF30080 		.section	.text.chIQPutI,"ax",%progbits
 198              		.align	2
 199              		.p2align 4,,15
 200              		.global	chIQPutI
 201              		.thumb
 202              		.thumb_func
 203              		.type	chIQPutI, %function
 204              	chIQPutI:
 205              	.LFB10:
 206              		.loc 1 133 0
 207              		.cfi_startproc
 208              		@ args = 0, pretend = 0, frame = 0
 209              		@ frame_needed = 0, uses_anonymous_args = 0
 210              	.LVL13:
 211              		.loc 1 137 0
 212 0000 4269     		ldr	r2, [r0, #20]
 213              		.loc 1 133 0
 214 0002 08B5     		push	{r3, lr}
 215              	.LCFI3:
 216              		.cfi_def_cfa_offset 8
 217              		.cfi_offset 3, -8
 218              		.cfi_offset 14, -4
 219              		.loc 1 133 0
 220 0004 0346     		mov	r3, r0
 221              		.loc 1 137 0
 222 0006 8069     		ldr	r0, [r0, #24]
 223              	.LVL14:
 224 0008 8242     		cmp	r2, r0
 225 000a 9868     		ldr	r0, [r3, #8]
 226 000c 18D0     		beq	.L14
 227              	.L15:
 228              		.loc 1 140 0
ARM GAS  C:\Users\LAB_ME~1\AppData\Local\Temp\cciO7git.s 			page 5


 229 000e 0130     		adds	r0, r0, #1
 230 0010 9860     		str	r0, [r3, #8]
 231              		.loc 1 141 0
 232 0012 02F8011B 		strb	r1, [r2], #1
 233              		.loc 1 142 0
 234 0016 1969     		ldr	r1, [r3, #16]
 235              	.LVL15:
 236              		.loc 1 141 0
 237 0018 5A61     		str	r2, [r3, #20]
 238              		.loc 1 142 0
 239 001a 8A42     		cmp	r2, r1
 240              		.loc 1 143 0
 241 001c 28BF     		it	cs
 242 001e DA68     		ldrcs	r2, [r3, #12]
 243              		.loc 1 145 0
 244 0020 1868     		ldr	r0, [r3, #0]
 245              		.loc 1 143 0
 246 0022 28BF     		it	cs
 247 0024 5A61     		strcs	r2, [r3, #20]
 248              		.loc 1 145 0
 249 0026 9842     		cmp	r0, r3
 250 0028 08D0     		beq	.L19
 251              	.LVL16:
 252              	.LBB18:
 253              	.LBB19:
 254              		.loc 2 55 0
 255 002a 0268     		ldr	r2, [r0, #0]
 256 002c 1A60     		str	r2, [r3, #0]
 257 002e 5360     		str	r3, [r2, #4]
 258              	.LBE19:
 259              	.LBE18:
 260              		.loc 1 146 0
 261 0030 FFF7FEFF 		bl	chSchReadyI
 262              	.LVL17:
 263 0034 0023     		movs	r3, #0
 264 0036 4362     		str	r3, [r0, #36]
 265              		.loc 1 148 0
 266 0038 1846     		mov	r0, r3
 267 003a 08BD     		pop	{r3, pc}
 268              	.LVL18:
 269              	.L19:
 270 003c 0020     		movs	r0, #0
 271              		.loc 1 149 0
 272 003e 08BD     		pop	{r3, pc}
 273              	.LVL19:
 274              	.L14:
 275              		.loc 1 137 0 discriminator 1
 276 0040 0028     		cmp	r0, #0
 277 0042 E4D0     		beq	.L15
 278              		.loc 1 138 0
 279 0044 6FF00300 		mvn	r0, #3
 280 0048 08BD     		pop	{r3, pc}
 281              		.cfi_endproc
 282              	.LFE10:
 283              		.size	chIQPutI, .-chIQPutI
 284 004a 00BFAFF3 		.section	.text.chIQGetTimeout,"ax",%progbits
 284      0080
ARM GAS  C:\Users\LAB_ME~1\AppData\Local\Temp\cciO7git.s 			page 6


 285              		.align	2
 286              		.p2align 4,,15
 287              		.global	chIQGetTimeout
 288              		.thumb
 289              		.thumb_func
 290              		.type	chIQGetTimeout, %function
 291              	chIQGetTimeout:
 292              	.LFB11:
 293              		.loc 1 171 0
 294              		.cfi_startproc
 295              		@ args = 0, pretend = 0, frame = 0
 296              		@ frame_needed = 0, uses_anonymous_args = 0
 297              	.LVL20:
 298 0000 70B5     		push	{r4, r5, r6, lr}
 299              	.LCFI4:
 300              		.cfi_def_cfa_offset 16
 301              		.cfi_offset 4, -16
 302              		.cfi_offset 5, -12
 303              		.cfi_offset 6, -8
 304              		.cfi_offset 14, -4
 305              	.LBB20:
 306              		.loc 1 174 0
 307 0002 2023     		movs	r3, #32
 308              	.LVL21:
 309              	.LBE20:
 310              		.loc 1 171 0
 311 0004 0446     		mov	r4, r0
 312 0006 0E46     		mov	r6, r1
 313              	.LBB21:
 314              		.loc 1 174 0
 315              	@ 174 "../../os/kernel/src/chqueues.c" 1
 316 0008 83F31188 		msr     BASEPRI, r3
 317              	@ 0 "" 2
 318              	.LVL22:
 319              		.thumb
 320              	.LBE21:
 321              		.loc 1 175 0
 322 000c C369     		ldr	r3, [r0, #28]
 323              	.LVL23:
 324 000e 03B1     		cbz	r3, .L28
 325              		.loc 1 176 0
 326 0010 9847     		blx	r3
 327              	.LVL24:
 328              	.L28:
 329              		.loc 1 178 0 discriminator 1
 330 0012 A568     		ldr	r5, [r4, #8]
 331              	.LBB22:
 332              		.loc 1 180 0 discriminator 1
 333 0014 2046     		mov	r0, r4
 334 0016 3146     		mov	r1, r6
 335              	.LBE22:
 336              		.loc 1 178 0 discriminator 1
 337 0018 3DB9     		cbnz	r5, .L31
 338              	.LVL25:
 339              	.LBB24:
 340              		.loc 1 180 0
 341 001a FFF7FEFF 		bl	qwait
ARM GAS  C:\Users\LAB_ME~1\AppData\Local\Temp\cciO7git.s 			page 7


 342              	.LVL26:
 343 001e 0028     		cmp	r0, #0
 344 0020 F7DA     		bge	.L28
 345              	.LBB23:
 346              		.loc 1 181 0
 347 0022 2B46     		mov	r3, r5
 348              	.LVL27:
 349              	@ 181 "../../os/kernel/src/chqueues.c" 1
 350 0024 83F31188 		msr     BASEPRI, r3
 351              	@ 0 "" 2
 352              	.LVL28:
 353              		.thumb
 354              	.LBE23:
 355              		.loc 1 182 0
 356 0028 70BD     		pop	{r4, r5, r6, pc}
 357              	.LVL29:
 358              	.L31:
 359              	.LBE24:
 360              		.loc 1 187 0
 361 002a A369     		ldr	r3, [r4, #24]
 362              		.loc 1 188 0
 363 002c 2269     		ldr	r2, [r4, #16]
 364              		.loc 1 186 0
 365 002e 013D     		subs	r5, r5, #1
 366 0030 A560     		str	r5, [r4, #8]
 367              		.loc 1 187 0
 368 0032 13F8010B 		ldrb	r0, [r3], #1	@ zero_extendqisi2
 369              	.LVL30:
 370              		.loc 1 188 0
 371 0036 9342     		cmp	r3, r2
 372              		.loc 1 187 0
 373 0038 A361     		str	r3, [r4, #24]
 374              		.loc 1 189 0
 375 003a 24BF     		itt	cs
 376 003c E368     		ldrcs	r3, [r4, #12]
 377 003e A361     		strcs	r3, [r4, #24]
 378              	.LBB25:
 379              		.loc 1 191 0
 380 0040 0023     		movs	r3, #0
 381              	.LVL31:
 382              	@ 191 "../../os/kernel/src/chqueues.c" 1
 383 0042 83F31188 		msr     BASEPRI, r3
 384              	@ 0 "" 2
 385              	.LVL32:
 386              		.thumb
 387              	.LBE25:
 388              		.loc 1 193 0
 389 0046 70BD     		pop	{r4, r5, r6, pc}
 390              		.cfi_endproc
 391              	.LFE11:
 392              		.size	chIQGetTimeout, .-chIQGetTimeout
 393 0048 AFF30080 		.section	.text.chIQReadTimeout,"ax",%progbits
 393      AFF30080 
 394              		.align	2
 395              		.p2align 4,,15
 396              		.global	chIQReadTimeout
 397              		.thumb
ARM GAS  C:\Users\LAB_ME~1\AppData\Local\Temp\cciO7git.s 			page 8


 398              		.thumb_func
 399              		.type	chIQReadTimeout, %function
 400              	chIQReadTimeout:
 401              	.LFB12:
 402              		.loc 1 220 0
 403              		.cfi_startproc
 404              		@ args = 0, pretend = 0, frame = 0
 405              		@ frame_needed = 0, uses_anonymous_args = 0
 406              	.LVL33:
 407 0000 2DE9F047 		push	{r4, r5, r6, r7, r8, r9, sl, lr}
 408              	.LCFI5:
 409              		.cfi_def_cfa_offset 32
 410              		.cfi_offset 4, -32
 411              		.cfi_offset 5, -28
 412              		.cfi_offset 6, -24
 413              		.cfi_offset 7, -20
 414              		.cfi_offset 8, -16
 415              		.cfi_offset 9, -12
 416              		.cfi_offset 10, -8
 417              		.cfi_offset 14, -4
 418              		.loc 1 220 0
 419 0004 1E46     		mov	r6, r3
 420 0006 0446     		mov	r4, r0
 421              		.loc 1 221 0
 422 0008 C769     		ldr	r7, [r0, #28]
 423              	.LVL34:
 424              	.LBB26:
 425              		.loc 1 226 0
 426 000a 2023     		movs	r3, #32
 427              	.LVL35:
 428              	@ 226 "../../os/kernel/src/chqueues.c" 1
 429 000c 83F31188 		msr     BASEPRI, r3
 430              	@ 0 "" 2
 431              	.LVL36:
 432              		.thumb
 433              	.LBE26:
 434              		.loc 1 222 0
 435 0010 4FF00008 		mov	r8, #0
 436              	.LBB27:
 437              		.loc 1 219 0
 438 0014 01F10109 		add	r9, r1, #1
 439 0018 01EB020A 		add	sl, r1, r2
 440              	.LVL37:
 441              	.L38:
 442              	.LBE27:
 443              		.loc 1 228 0
 444 001c 0FB1     		cbz	r7, .L43
 445              		.loc 1 229 0
 446 001e 2046     		mov	r0, r4
 447              	.LVL38:
 448 0020 B847     		blx	r7
 449              	.LVL39:
 450              	.L43:
 451              		.loc 1 231 0 discriminator 1
 452 0022 A568     		ldr	r5, [r4, #8]
 453              		.loc 1 232 0 discriminator 1
 454 0024 2046     		mov	r0, r4
ARM GAS  C:\Users\LAB_ME~1\AppData\Local\Temp\cciO7git.s 			page 9


 455 0026 3146     		mov	r1, r6
 456              		.loc 1 231 0 discriminator 1
 457 0028 4DB9     		cbnz	r5, .L47
 458              	.LVL40:
 459              		.loc 1 232 0
 460 002a FFF7FEFF 		bl	qwait
 461              	.LVL41:
 462 002e 0028     		cmp	r0, #0
 463 0030 F7D0     		beq	.L43
 464              	.LBB28:
 465              		.loc 1 233 0
 466 0032 2B46     		mov	r3, r5
 467              	.LVL42:
 468              	@ 233 "../../os/kernel/src/chqueues.c" 1
 469 0034 83F31188 		msr     BASEPRI, r3
 470              	@ 0 "" 2
 471              	.LVL43:
 472              		.thumb
 473              	.L35:
 474              	.LBE28:
 475              		.loc 1 250 0
 476 0038 4046     		mov	r0, r8
 477 003a BDE8F087 		pop	{r4, r5, r6, r7, r8, r9, sl, pc}
 478              	.LVL44:
 479              	.L47:
 480              		.loc 1 239 0
 481 003e A369     		ldr	r3, [r4, #24]
 482              	.LVL45:
 483              		.loc 1 238 0
 484 0040 013D     		subs	r5, r5, #1
 485 0042 A560     		str	r5, [r4, #8]
 486              		.loc 1 239 0
 487 0044 13F8012B 		ldrb	r2, [r3], #1	@ zero_extendqisi2
 488 0048 09F8012C 		strb	r2, [r9, #-1]
 489              		.loc 1 240 0
 490 004c 2269     		ldr	r2, [r4, #16]
 491              		.loc 1 239 0
 492 004e A361     		str	r3, [r4, #24]
 493              		.loc 1 240 0
 494 0050 9342     		cmp	r3, r2
 495              		.loc 1 241 0
 496 0052 24BF     		itt	cs
 497 0054 E368     		ldrcs	r3, [r4, #12]
 498 0056 A361     		strcs	r3, [r4, #24]
 499              	.LBB29:
 500              		.loc 1 243 0
 501 0058 0023     		movs	r3, #0
 502              	@ 243 "../../os/kernel/src/chqueues.c" 1
 503 005a 83F31188 		msr     BASEPRI, r3
 504              	@ 0 "" 2
 505              	.LVL46:
 506              		.thumb
 507              	.LBE29:
 508              		.loc 1 245 0
 509 005e D145     		cmp	r9, sl
 510              		.loc 1 244 0
 511 0060 08F10108 		add	r8, r8, #1
ARM GAS  C:\Users\LAB_ME~1\AppData\Local\Temp\cciO7git.s 			page 10


 512              	.LVL47:
 513              		.loc 1 245 0
 514 0064 E8D0     		beq	.L35
 515              	.LBB30:
 516              		.loc 1 248 0
 517 0066 2023     		movs	r3, #32
 518              	.LVL48:
 519              	@ 248 "../../os/kernel/src/chqueues.c" 1
 520 0068 83F31188 		msr     BASEPRI, r3
 521              	@ 0 "" 2
 522              	.LVL49:
 523              		.thumb
 524 006c 09F10109 		add	r9, r9, #1
 525              	.LBE30:
 526              		.loc 1 249 0
 527 0070 D4E7     		b	.L38
 528              		.cfi_endproc
 529              	.LFE12:
 530              		.size	chIQReadTimeout, .-chIQReadTimeout
 531 0072 00BFAFF3 		.section	.text.chOQInit,"ax",%progbits
 531      0080AFF3 
 531      0080AFF3 
 531      0080
 532              		.align	2
 533              		.p2align 4,,15
 534              		.global	chOQInit
 535              		.thumb
 536              		.thumb_func
 537              		.type	chOQInit, %function
 538              	chOQInit:
 539              	.LFB13:
 540              		.loc 1 269 0
 541              		.cfi_startproc
 542              		@ args = 4, pretend = 0, frame = 0
 543              		@ frame_needed = 0, uses_anonymous_args = 0
 544              		@ link register save eliminated.
 545              	.LVL50:
 546 0000 10B4     		push	{r4}
 547              	.LCFI6:
 548              		.cfi_def_cfa_offset 4
 549              		.cfi_offset 4, -4
 550              		.loc 1 275 0
 551 0002 C361     		str	r3, [r0, #28]
 552              		.loc 1 276 0
 553 0004 019B     		ldr	r3, [sp, #4]
 554              	.LVL51:
 555              		.loc 1 271 0
 556 0006 4060     		str	r0, [r0, #4]
 557              		.loc 1 274 0
 558 0008 8C18     		adds	r4, r1, r2
 559              		.loc 1 271 0
 560 000a 0060     		str	r0, [r0, #0]
 561              		.loc 1 272 0
 562 000c 8260     		str	r2, [r0, #8]
 563              		.loc 1 273 0
 564 000e 4161     		str	r1, [r0, #20]
 565 0010 8161     		str	r1, [r0, #24]
ARM GAS  C:\Users\LAB_ME~1\AppData\Local\Temp\cciO7git.s 			page 11


 566 0012 C160     		str	r1, [r0, #12]
 567              		.loc 1 274 0
 568 0014 0461     		str	r4, [r0, #16]
 569              		.loc 1 276 0
 570 0016 0362     		str	r3, [r0, #32]
 571              		.loc 1 277 0
 572 0018 10BC     		pop	{r4}
 573 001a 7047     		bx	lr
 574              		.cfi_endproc
 575              	.LFE13:
 576              		.size	chOQInit, .-chOQInit
 577 001c AFF30080 		.section	.text.chOQResetI,"ax",%progbits
 578              		.align	2
 579              		.p2align 4,,15
 580              		.global	chOQResetI
 581              		.thumb
 582              		.thumb_func
 583              		.type	chOQResetI, %function
 584              	chOQResetI:
 585              	.LFB14:
 586              		.loc 1 290 0
 587              		.cfi_startproc
 588              		@ args = 0, pretend = 0, frame = 0
 589              		@ frame_needed = 0, uses_anonymous_args = 0
 590              	.LVL52:
 591 0000 38B5     		push	{r3, r4, r5, lr}
 592              	.LCFI7:
 593              		.cfi_def_cfa_offset 16
 594              		.cfi_offset 3, -16
 595              		.cfi_offset 4, -12
 596              		.cfi_offset 5, -8
 597              		.cfi_offset 14, -4
 598              		.loc 1 295 0
 599 0002 0269     		ldr	r2, [r0, #16]
 600              		.loc 1 294 0
 601 0004 C368     		ldr	r3, [r0, #12]
 602              		.loc 1 290 0
 603 0006 0446     		mov	r4, r0
 604              		.loc 1 296 0
 605 0008 0068     		ldr	r0, [r0, #0]
 606              	.LVL53:
 607              		.loc 1 294 0
 608 000a 6361     		str	r3, [r4, #20]
 609              		.loc 1 295 0
 610 000c D21A     		subs	r2, r2, r3
 611              		.loc 1 296 0
 612 000e A042     		cmp	r0, r4
 613              		.loc 1 294 0
 614 0010 A361     		str	r3, [r4, #24]
 615              		.loc 1 295 0
 616 0012 A260     		str	r2, [r4, #8]
 617              		.loc 1 296 0
 618 0014 0AD0     		beq	.L49
 619              		.loc 1 297 0
 620 0016 6FF00105 		mvn	r5, #1
 621              	.L53:
 622              	.LVL54:
ARM GAS  C:\Users\LAB_ME~1\AppData\Local\Temp\cciO7git.s 			page 12


 623              	.LBB31:
 624              	.LBB32:
 625              		.loc 2 55 0
 626 001a 0368     		ldr	r3, [r0, #0]
 627 001c 2360     		str	r3, [r4, #0]
 628 001e 5C60     		str	r4, [r3, #4]
 629              	.LBE32:
 630              	.LBE31:
 631              		.loc 1 297 0
 632 0020 FFF7FEFF 		bl	chSchReadyI
 633              	.LVL55:
 634 0024 4562     		str	r5, [r0, #36]
 635              		.loc 1 296 0
 636 0026 2068     		ldr	r0, [r4, #0]
 637 0028 A042     		cmp	r0, r4
 638 002a F6D1     		bne	.L53
 639              	.LVL56:
 640              	.L49:
 641 002c 38BD     		pop	{r3, r4, r5, pc}
 642              		.cfi_endproc
 643              	.LFE14:
 644              		.size	chOQResetI, .-chOQResetI
 645 002e 00BF     		.section	.text.chOQPutTimeout,"ax",%progbits
 646              		.align	2
 647              		.p2align 4,,15
 648              		.global	chOQPutTimeout
 649              		.thumb
 650              		.thumb_func
 651              		.type	chOQPutTimeout, %function
 652              	chOQPutTimeout:
 653              	.LFB15:
 654              		.loc 1 322 0
 655              		.cfi_startproc
 656              		@ args = 0, pretend = 0, frame = 0
 657              		@ frame_needed = 0, uses_anonymous_args = 0
 658              	.LVL57:
 659 0000 F8B5     		push	{r3, r4, r5, r6, r7, lr}
 660              	.LCFI8:
 661              		.cfi_def_cfa_offset 24
 662              		.cfi_offset 3, -24
 663              		.cfi_offset 4, -20
 664              		.cfi_offset 5, -16
 665              		.cfi_offset 6, -12
 666              		.cfi_offset 7, -8
 667              		.cfi_offset 14, -4
 668              		.loc 1 322 0
 669 0002 0446     		mov	r4, r0
 670 0004 0F46     		mov	r7, r1
 671 0006 1646     		mov	r6, r2
 672              	.LBB33:
 673              		.loc 1 324 0
 674 0008 2023     		movs	r3, #32
 675              	.LVL58:
 676              	@ 324 "../../os/kernel/src/chqueues.c" 1
 677 000a 83F31188 		msr     BASEPRI, r3
 678              	@ 0 "" 2
 679              	.LVL59:
ARM GAS  C:\Users\LAB_ME~1\AppData\Local\Temp\cciO7git.s 			page 13


 680              		.thumb
 681              	.L56:
 682              	.LBE33:
 683              		.loc 1 325 0 discriminator 1
 684 000e A568     		ldr	r5, [r4, #8]
 685              	.LBB34:
 686              		.loc 1 328 0 discriminator 1
 687 0010 2046     		mov	r0, r4
 688 0012 3146     		mov	r1, r6
 689              	.LBE34:
 690              		.loc 1 325 0 discriminator 1
 691 0014 3DB9     		cbnz	r5, .L65
 692              	.LVL60:
 693              	.LBB36:
 694              		.loc 1 328 0
 695 0016 FFF7FEFF 		bl	qwait
 696              	.LVL61:
 697 001a 0028     		cmp	r0, #0
 698 001c F7DA     		bge	.L56
 699              	.LBB35:
 700              		.loc 1 329 0
 701 001e 2B46     		mov	r3, r5
 702              	.LVL62:
 703              	@ 329 "../../os/kernel/src/chqueues.c" 1
 704 0020 83F31188 		msr     BASEPRI, r3
 705              	@ 0 "" 2
 706              	.LVL63:
 707              		.thumb
 708              	.LBE35:
 709              		.loc 1 330 0
 710 0024 F8BD     		pop	{r3, r4, r5, r6, r7, pc}
 711              	.LVL64:
 712              	.L65:
 713              	.LBE36:
 714              		.loc 1 335 0
 715 0026 6369     		ldr	r3, [r4, #20]
 716              	.LVL65:
 717              		.loc 1 334 0
 718 0028 013D     		subs	r5, r5, #1
 719 002a A560     		str	r5, [r4, #8]
 720              		.loc 1 335 0
 721 002c 03F8017B 		strb	r7, [r3], #1
 722              		.loc 1 336 0
 723 0030 2269     		ldr	r2, [r4, #16]
 724              		.loc 1 335 0
 725 0032 6361     		str	r3, [r4, #20]
 726              		.loc 1 336 0
 727 0034 9342     		cmp	r3, r2
 728              		.loc 1 337 0
 729 0036 24BF     		itt	cs
 730 0038 E368     		ldrcs	r3, [r4, #12]
 731 003a 6361     		strcs	r3, [r4, #20]
 732              		.loc 1 339 0
 733 003c E369     		ldr	r3, [r4, #28]
 734 003e 0BB1     		cbz	r3, .L60
 735              		.loc 1 340 0
 736 0040 2046     		mov	r0, r4
ARM GAS  C:\Users\LAB_ME~1\AppData\Local\Temp\cciO7git.s 			page 14


 737              	.LVL66:
 738 0042 9847     		blx	r3
 739              	.LVL67:
 740              	.L60:
 741              	.LBB37:
 742              		.loc 1 342 0
 743 0044 0023     		movs	r3, #0
 744              	.LVL68:
 745              	@ 342 "../../os/kernel/src/chqueues.c" 1
 746 0046 83F31188 		msr     BASEPRI, r3
 747              	@ 0 "" 2
 748              	.LVL69:
 749              		.thumb
 750              	.LBE37:
 751              		.loc 1 343 0
 752 004a 1846     		mov	r0, r3
 753              		.loc 1 344 0
 754 004c F8BD     		pop	{r3, r4, r5, r6, r7, pc}
 755              		.cfi_endproc
 756              	.LFE15:
 757              		.size	chOQPutTimeout, .-chOQPutTimeout
 758 004e 00BF     		.section	.text.chOQGetI,"ax",%progbits
 759              		.align	2
 760              		.p2align 4,,15
 761              		.global	chOQGetI
 762              		.thumb
 763              		.thumb_func
 764              		.type	chOQGetI, %function
 765              	chOQGetI:
 766              	.LFB16:
 767              		.loc 1 356 0
 768              		.cfi_startproc
 769              		@ args = 0, pretend = 0, frame = 0
 770              		@ frame_needed = 0, uses_anonymous_args = 0
 771              	.LVL70:
 772              		.loc 1 361 0
 773 0000 4169     		ldr	r1, [r0, #20]
 774 0002 8269     		ldr	r2, [r0, #24]
 775 0004 9142     		cmp	r1, r2
 776              		.loc 1 356 0
 777 0006 10B5     		push	{r4, lr}
 778              	.LCFI9:
 779              		.cfi_def_cfa_offset 8
 780              		.cfi_offset 4, -8
 781              		.cfi_offset 14, -4
 782              		.loc 1 356 0
 783 0008 0346     		mov	r3, r0
 784              		.loc 1 361 0
 785 000a 8168     		ldr	r1, [r0, #8]
 786 000c 16D0     		beq	.L67
 787              	.L68:
 788              		.loc 1 364 0
 789 000e 0131     		adds	r1, r1, #1
 790 0010 9960     		str	r1, [r3, #8]
 791              		.loc 1 365 0
 792 0012 12F8014B 		ldrb	r4, [r2], #1	@ zero_extendqisi2
 793              	.LVL71:
ARM GAS  C:\Users\LAB_ME~1\AppData\Local\Temp\cciO7git.s 			page 15


 794              		.loc 1 366 0
 795 0016 1969     		ldr	r1, [r3, #16]
 796              		.loc 1 365 0
 797 0018 9A61     		str	r2, [r3, #24]
 798              		.loc 1 366 0
 799 001a 8A42     		cmp	r2, r1
 800              		.loc 1 367 0
 801 001c 28BF     		it	cs
 802 001e DA68     		ldrcs	r2, [r3, #12]
 803              		.loc 1 369 0
 804 0020 1868     		ldr	r0, [r3, #0]
 805              	.LVL72:
 806              		.loc 1 367 0
 807 0022 28BF     		it	cs
 808 0024 9A61     		strcs	r2, [r3, #24]
 809              		.loc 1 369 0
 810 0026 9842     		cmp	r0, r3
 811 0028 06D0     		beq	.L71
 812              	.LVL73:
 813              	.LBB38:
 814              	.LBB39:
 815              		.loc 2 55 0
 816 002a 0268     		ldr	r2, [r0, #0]
 817 002c 1A60     		str	r2, [r3, #0]
 818 002e 5360     		str	r3, [r2, #4]
 819              	.LBE39:
 820              	.LBE38:
 821              		.loc 1 370 0
 822 0030 FFF7FEFF 		bl	chSchReadyI
 823              	.LVL74:
 824 0034 0023     		movs	r3, #0
 825 0036 4362     		str	r3, [r0, #36]
 826              	.LVL75:
 827              	.L71:
 828              		.loc 1 372 0
 829 0038 2046     		mov	r0, r4
 830 003a 10BD     		pop	{r4, pc}
 831              	.LVL76:
 832              	.L67:
 833              		.loc 1 361 0 discriminator 1
 834 003c 0029     		cmp	r1, #0
 835 003e E6D0     		beq	.L68
 836              		.loc 1 362 0
 837 0040 6FF00200 		mvn	r0, #2
 838              	.LVL77:
 839              		.loc 1 373 0
 840 0044 10BD     		pop	{r4, pc}
 841              		.cfi_endproc
 842              	.LFE16:
 843              		.size	chOQGetI, .-chOQGetI
 844              		.section	.text.chOQWriteTimeout,"ax",%progbits
 845              		.align	2
 846              		.p2align 4,,15
 847              		.global	chOQWriteTimeout
 848              		.thumb
 849              		.thumb_func
 850              		.type	chOQWriteTimeout, %function
ARM GAS  C:\Users\LAB_ME~1\AppData\Local\Temp\cciO7git.s 			page 16


 851              	chOQWriteTimeout:
 852              	.LFB17:
 853              		.loc 1 400 0
 854              		.cfi_startproc
 855              		@ args = 0, pretend = 0, frame = 0
 856              		@ frame_needed = 0, uses_anonymous_args = 0
 857              	.LVL78:
 858 0000 2DE9F047 		push	{r4, r5, r6, r7, r8, r9, sl, lr}
 859              	.LCFI10:
 860              		.cfi_def_cfa_offset 32
 861              		.cfi_offset 4, -32
 862              		.cfi_offset 5, -28
 863              		.cfi_offset 6, -24
 864              		.cfi_offset 7, -20
 865              		.cfi_offset 8, -16
 866              		.cfi_offset 9, -12
 867              		.cfi_offset 10, -8
 868              		.cfi_offset 14, -4
 869              		.loc 1 400 0
 870 0004 9A46     		mov	sl, r3
 871 0006 0446     		mov	r4, r0
 872 0008 8846     		mov	r8, r1
 873 000a 1646     		mov	r6, r2
 874              		.loc 1 401 0
 875 000c D0F81C90 		ldr	r9, [r0, #28]
 876              	.LVL79:
 877              	.LBB40:
 878              		.loc 1 406 0
 879 0010 2023     		movs	r3, #32
 880              	.LVL80:
 881              	@ 406 "../../os/kernel/src/chqueues.c" 1
 882 0012 83F31188 		msr     BASEPRI, r3
 883              	@ 0 "" 2
 884              	.LVL81:
 885              		.loc 1 402 0
 886              		.thumb
 887 0016 0027     		movs	r7, #0
 888              	.LVL82:
 889              	.L91:
 890              	.LBE40:
 891              		.loc 1 408 0 discriminator 1
 892 0018 A568     		ldr	r5, [r4, #8]
 893              		.loc 1 420 0 discriminator 1
 894 001a 2046     		mov	r0, r4
 895              		.loc 1 414 0 discriminator 1
 896 001c 6B1E     		subs	r3, r5, #1
 897              	.LVL83:
 898              		.loc 1 408 0 discriminator 1
 899 001e EDB1     		cbz	r5, .L77
 900              	.LVL84:
 901              	.L92:
 902              		.loc 1 414 0
 903 0020 A360     		str	r3, [r4, #8]
 904              		.loc 1 415 0
 905 0022 18F8013B 		ldrb	r3, [r8], #1	@ zero_extendqisi2
 906              	.LVL85:
 907 0026 6569     		ldr	r5, [r4, #20]
ARM GAS  C:\Users\LAB_ME~1\AppData\Local\Temp\cciO7git.s 			page 17


 908 0028 05F8013B 		strb	r3, [r5], #1
 909              		.loc 1 416 0
 910 002c 2369     		ldr	r3, [r4, #16]
 911              		.loc 1 415 0
 912 002e 6561     		str	r5, [r4, #20]
 913              	.LVL86:
 914              		.loc 1 416 0
 915 0030 9D42     		cmp	r5, r3
 916              		.loc 1 417 0
 917 0032 24BF     		itt	cs
 918 0034 E368     		ldrcs	r3, [r4, #12]
 919 0036 6361     		strcs	r3, [r4, #20]
 920              		.loc 1 419 0
 921 0038 B9F1000F 		cmp	r9, #0
 922 003c 00D0     		beq	.L79
 923              		.loc 1 420 0
 924 003e C847     		blx	r9
 925              	.LVL87:
 926              	.L79:
 927              	.LBB41:
 928              		.loc 1 422 0
 929 0040 0023     		movs	r3, #0
 930              	.LVL88:
 931              	@ 422 "../../os/kernel/src/chqueues.c" 1
 932 0042 83F31188 		msr     BASEPRI, r3
 933              	@ 0 "" 2
 934              	.LVL89:
 935              		.thumb
 936              	.LBE41:
 937              		.loc 1 423 0
 938 0046 0137     		adds	r7, r7, #1
 939              	.LVL90:
 940              		.loc 1 424 0
 941 0048 013E     		subs	r6, r6, #1
 942              	.LVL91:
 943 004a 10D0     		beq	.L76
 944              	.LBB42:
 945              		.loc 1 426 0
 946 004c 2023     		movs	r3, #32
 947              	.LVL92:
 948              	@ 426 "../../os/kernel/src/chqueues.c" 1
 949 004e 83F31188 		msr     BASEPRI, r3
 950              	@ 0 "" 2
 951              	.LVL93:
 952              		.thumb
 953              	.LBE42:
 954              		.loc 1 408 0
 955 0052 A568     		ldr	r5, [r4, #8]
 956              		.loc 1 420 0
 957 0054 2046     		mov	r0, r4
 958              		.loc 1 414 0
 959 0056 6B1E     		subs	r3, r5, #1
 960              	.LVL94:
 961              		.loc 1 408 0
 962 0058 002D     		cmp	r5, #0
 963 005a E1D1     		bne	.L92
 964              	.LVL95:
ARM GAS  C:\Users\LAB_ME~1\AppData\Local\Temp\cciO7git.s 			page 18


 965              	.L77:
 966              		.loc 1 409 0
 967 005c 2046     		mov	r0, r4
 968              	.LVL96:
 969 005e 5146     		mov	r1, sl
 970 0060 FFF7FEFF 		bl	qwait
 971              	.LVL97:
 972 0064 0028     		cmp	r0, #0
 973 0066 D7D0     		beq	.L91
 974              	.LBB43:
 975              		.loc 1 410 0
 976 0068 2B46     		mov	r3, r5
 977              	.LVL98:
 978              	@ 410 "../../os/kernel/src/chqueues.c" 1
 979 006a 83F31188 		msr     BASEPRI, r3
 980              	@ 0 "" 2
 981              	.LVL99:
 982              		.thumb
 983              	.L76:
 984              	.LBE43:
 985              		.loc 1 428 0
 986 006e 3846     		mov	r0, r7
 987 0070 BDE8F087 		pop	{r4, r5, r6, r7, r8, r9, sl, pc}
 988              		.cfi_endproc
 989              	.LFE17:
 990              		.size	chOQWriteTimeout, .-chOQWriteTimeout
 991 0074 AFF30080 		.text
 991      AFF30080 
 991      AFF30080 
 992              	.Letext0:
 993              		.file 3 "c:\\program files (x86)\\codesourcery\\sourcery_codebench_lite_for_arm_eabi\\bin\\../lib/
 994              		.file 4 "c:\\program files (x86)\\codesourcery\\sourcery_codebench_lite_for_arm_eabi\\bin\\../lib/
 995              		.file 5 "../../os/ports/GCC/ARMCMx/chtypes.h"
 996              		.file 6 "../../os/kernel/include/chlists.h"
 997              		.file 7 "../../os/kernel/include/chthreads.h"
 998              		.file 8 "../../os/ports/GCC/ARMCMx/chcore_v7m.h"
 999              		.file 9 "../../os/kernel/include/chschd.h"
 1000              		.file 10 "../../os/kernel/include/chmtx.h"
 1001              		.file 11 "../../os/kernel/include/chqueues.h"