ARM GAS  C:\Users\LAB_ME~1\AppData\Local\Temp\ccpqSPBc.s 			page 1


   1              		.syntax unified
   2              		.cpu cortex-m4
   3              		.fpu softvfp
   4              		.eabi_attribute 20, 1
   5              		.eabi_attribute 21, 1
   6              		.eabi_attribute 23, 3
   7              		.eabi_attribute 24, 1
   8              		.eabi_attribute 25, 1
   9              		.eabi_attribute 26, 1
  10              		.eabi_attribute 30, 2
  11              		.eabi_attribute 34, 1
  12              		.eabi_attribute 18, 4
  13              		.thumb
  14              		.file	"chthreads.c"
  15              		.text
  16              	.Ltext0:
  17              		.cfi_sections	.debug_frame
  18              		.section	.text._thread_init,"ax",%progbits
  19              		.align	2
  20              		.p2align 4,,15
  21              		.global	_thread_init
  22              		.thumb
  23              		.thumb_func
  24              		.type	_thread_init, %function
  25              	_thread_init:
  26              	.LFB7:
  27              		.file 1 "../../os/kernel/src/chthreads.c"
  28              		.loc 1 69 0
  29              		.cfi_startproc
  30              		@ args = 0, pretend = 0, frame = 0
  31              		@ frame_needed = 0, uses_anonymous_args = 0
  32              		@ link register save eliminated.
  33              	.LVL0:
  34 0000 F0B4     		push	{r4, r5, r6, r7}
  35              	.LCFI0:
  36              		.cfi_def_cfa_offset 16
  37              		.cfi_offset 4, -16
  38              		.cfi_offset 5, -12
  39              		.cfi_offset 6, -8
  40              		.cfi_offset 7, -4
  41              		.loc 1 92 0
  42 0002 0F4C     		ldr	r4, .L2
  43              		.loc 1 78 0
  44 0004 0164     		str	r1, [r0, #64]
  45              		.loc 1 92 0
  46 0006 6569     		ldr	r5, [r4, #20]
  47 0008 0461     		str	r4, [r0, #16]
  48              		.loc 1 73 0
  49 000a 0022     		movs	r2, #0
  50              		.loc 1 98 0
  51 000c 00F12C06 		add	r6, r0, #44
  52              		.loc 1 71 0
  53 0010 8160     		str	r1, [r0, #8]
  54              		.loc 1 95 0
  55 0012 00F12807 		add	r7, r0, #40
  56              		.loc 1 92 0
  57 0016 4561     		str	r5, [r0, #20]
ARM GAS  C:\Users\LAB_ME~1\AppData\Local\Temp\ccpqSPBc.s 			page 2


  58              		.loc 1 72 0
  59 0018 4FF0020C 		mov	ip, #2
  60              		.loc 1 92 0
  61 001c 6061     		str	r0, [r4, #20]
  62              		.loc 1 88 0
  63 001e 0121     		movs	r1, #1
  64              	.LVL1:
  65              		.loc 1 75 0
  66 0020 1424     		movs	r4, #20
  67              		.loc 1 72 0
  68 0022 80F81CC0 		strb	ip, [r0, #28]
  69              		.loc 1 73 0
  70 0026 4277     		strb	r2, [r0, #29]
  71              		.loc 1 75 0
  72 0028 C477     		strb	r4, [r0, #31]
  73              		.loc 1 79 0
  74 002a C263     		str	r2, [r0, #60]
  75              		.loc 1 82 0
  76 002c 8263     		str	r2, [r0, #56]
  77              		.loc 1 85 0
  78 002e 0262     		str	r2, [r0, #32]
  79              		.loc 1 88 0
  80 0030 8177     		strb	r1, [r0, #30]
  81              		.loc 1 91 0
  82 0032 8261     		str	r2, [r0, #24]
  83              		.loc 1 92 0
  84 0034 2861     		str	r0, [r5, #16]
  85              		.loc 1 95 0
  86 0036 8762     		str	r7, [r0, #40]
  87              		.loc 1 98 0
  88 0038 0663     		str	r6, [r0, #48]
  89 003a C662     		str	r6, [r0, #44]
  90              		.loc 1 107 0
  91 003c F0BC     		pop	{r4, r5, r6, r7}
  92 003e 7047     		bx	lr
  93              	.L3:
  94              		.align	2
  95              	.L2:
  96 0040 00000000 		.word	rlist
  97              		.cfi_endproc
  98              	.LFE7:
  99              		.size	_thread_init, .-_thread_init
 100 0044 AFF30080 		.section	.text.chThdCreateI,"ax",%progbits
 100      AFF30080 
 100      AFF30080 
 101              		.align	2
 102              		.p2align 4,,15
 103              		.global	chThdCreateI
 104              		.thumb
 105              		.thumb_func
 106              		.type	chThdCreateI, %function
 107              	chThdCreateI:
 108              	.LFB8:
 109              		.loc 1 151 0
 110              		.cfi_startproc
 111              		@ args = 4, pretend = 0, frame = 0
 112              		@ frame_needed = 0, uses_anonymous_args = 0
ARM GAS  C:\Users\LAB_ME~1\AppData\Local\Temp\ccpqSPBc.s 			page 3


 113              		@ link register save eliminated.
 114              	.LVL2:
 115 0000 2DE9F003 		push	{r4, r5, r6, r7, r8, r9}
 116              	.LCFI1:
 117              		.cfi_def_cfa_offset 24
 118              		.cfi_offset 4, -24
 119              		.cfi_offset 5, -20
 120              		.cfi_offset 6, -16
 121              		.cfi_offset 7, -12
 122              		.cfi_offset 8, -8
 123              		.cfi_offset 9, -4
 124              		.loc 1 160 0
 125 0004 2439     		subs	r1, r1, #36
 126              	.LVL3:
 127              	.LBB10:
 128              	.LBB11:
 129              		.loc 1 92 0
 130 0006 164E     		ldr	r6, .L5
 131              	.LBE11:
 132              	.LBE10:
 133              		.loc 1 160 0
 134 0008 4718     		adds	r7, r0, r1
 135              	.LBB16:
 136              	.LBB12:
 137              		.loc 1 92 0
 138 000a D6F814C0 		ldr	ip, [r6, #20]
 139              	.LBE12:
 140              	.LBE16:
 141              		.loc 1 160 0
 142 000e C760     		str	r7, [r0, #12]
 143 0010 4350     		str	r3, [r0, r1]
 144 0012 069B     		ldr	r3, [sp, #24]
 145              	.LVL4:
 146 0014 7B60     		str	r3, [r7, #4]
 147 0016 134B     		ldr	r3, .L5+4
 148 0018 3B62     		str	r3, [r7, #32]
 149              	.LBB17:
 150              	.LBB13:
 151              		.loc 1 72 0
 152 001a 0223     		movs	r3, #2
 153 001c 0377     		strb	r3, [r0, #28]
 154              		.loc 1 75 0
 155 001e 1423     		movs	r3, #20
 156              		.loc 1 73 0
 157 0020 0025     		movs	r5, #0
 158              	.LBE13:
 159              	.LBE17:
 160              		.loc 1 151 0
 161 0022 9046     		mov	r8, r2
 162              	.LBB18:
 163              	.LBB14:
 164              		.loc 1 95 0
 165 0024 00F12809 		add	r9, r0, #40
 166              		.loc 1 98 0
 167 0028 00F12C02 		add	r2, r0, #44
 168              	.LVL5:
 169              		.loc 1 75 0
ARM GAS  C:\Users\LAB_ME~1\AppData\Local\Temp\ccpqSPBc.s 			page 4


 170 002c C377     		strb	r3, [r0, #31]
 171              		.loc 1 88 0
 172 002e 0123     		movs	r3, #1
 173              		.loc 1 92 0
 174 0030 0661     		str	r6, [r0, #16]
 175              		.loc 1 71 0
 176 0032 C0F80880 		str	r8, [r0, #8]
 177              		.loc 1 92 0
 178 0036 C0F814C0 		str	ip, [r0, #20]
 179              	.LBE14:
 180              	.LBE18:
 181              		.loc 1 151 0
 182 003a 0446     		mov	r4, r0
 183              	.LVL6:
 184              	.LBB19:
 185              	.LBB15:
 186              		.loc 1 92 0
 187 003c 7061     		str	r0, [r6, #20]
 188              		.loc 1 73 0
 189 003e 4577     		strb	r5, [r0, #29]
 190              		.loc 1 78 0
 191 0040 C0F84080 		str	r8, [r0, #64]
 192              		.loc 1 79 0
 193 0044 C563     		str	r5, [r0, #60]
 194              		.loc 1 82 0
 195 0046 8563     		str	r5, [r0, #56]
 196              		.loc 1 85 0
 197 0048 0562     		str	r5, [r0, #32]
 198              		.loc 1 88 0
 199 004a 8377     		strb	r3, [r0, #30]
 200              		.loc 1 91 0
 201 004c 8561     		str	r5, [r0, #24]
 202              		.loc 1 92 0
 203 004e CCF81000 		str	r0, [ip, #16]
 204              		.loc 1 95 0
 205 0052 C0F82890 		str	r9, [r0, #40]
 206              		.loc 1 98 0
 207 0056 0263     		str	r2, [r0, #48]
 208 0058 C262     		str	r2, [r0, #44]
 209              	.LBE15:
 210              	.LBE19:
 211              		.loc 1 162 0
 212 005a BDE8F003 		pop	{r4, r5, r6, r7, r8, r9}
 213 005e 7047     		bx	lr
 214              	.L6:
 215              		.align	2
 216              	.L5:
 217 0060 00000000 		.word	rlist
 218 0064 00000000 		.word	_port_thread_start
 219              		.cfi_endproc
 220              	.LFE8:
 221              		.size	chThdCreateI, .-chThdCreateI
 222 0068 AFF30080 		.section	.text.chThdCreateStatic,"ax",%progbits
 222      AFF30080 
 223              		.align	2
 224              		.p2align 4,,15
 225              		.global	chThdCreateStatic
ARM GAS  C:\Users\LAB_ME~1\AppData\Local\Temp\ccpqSPBc.s 			page 5


 226              		.thumb
 227              		.thumb_func
 228              		.type	chThdCreateStatic, %function
 229              	chThdCreateStatic:
 230              	.LFB9:
 231              		.loc 1 181 0
 232              		.cfi_startproc
 233              		@ args = 4, pretend = 0, frame = 0
 234              		@ frame_needed = 0, uses_anonymous_args = 0
 235              	.LVL7:
 236 0000 10B5     		push	{r4, lr}
 237              	.LCFI2:
 238              		.cfi_def_cfa_offset 8
 239              		.cfi_offset 4, -8
 240              		.cfi_offset 14, -4
 241 0002 1C46     		mov	r4, r3
 242 0004 82B0     		sub	sp, sp, #8
 243              	.LCFI3:
 244              		.cfi_def_cfa_offset 16
 245              	.LBB20:
 246              		.loc 1 192 0
 247 0006 2023     		movs	r3, #32
 248              	.LVL8:
 249              	@ 192 "../../os/kernel/src/chthreads.c" 1
 250 0008 83F31188 		msr     BASEPRI, r3
 251              	@ 0 "" 2
 252              	.LVL9:
 253              		.thumb
 254              	.LBE20:
 255              		.loc 1 193 0
 256 000c 2346     		mov	r3, r4
 257              	.LVL10:
 258 000e 049C     		ldr	r4, [sp, #16]
 259              	.LVL11:
 260 0010 0094     		str	r4, [sp, #0]
 261 0012 FFF7FEFF 		bl	chThdCreateI
 262              	.LVL12:
 263 0016 0021     		movs	r1, #0
 264 0018 0446     		mov	r4, r0
 265              	.LVL13:
 266 001a FFF7FEFF 		bl	chSchWakeupS
 267              	.LVL14:
 268              	.LBB21:
 269              		.loc 1 194 0
 270 001e 0023     		movs	r3, #0
 271              	.LVL15:
 272              	@ 194 "../../os/kernel/src/chthreads.c" 1
 273 0020 83F31188 		msr     BASEPRI, r3
 274              	@ 0 "" 2
 275              	.LVL16:
 276              		.thumb
 277              	.LBE21:
 278              		.loc 1 196 0
 279 0024 2046     		mov	r0, r4
 280 0026 02B0     		add	sp, sp, #8
 281 0028 10BD     		pop	{r4, pc}
 282              		.cfi_endproc
ARM GAS  C:\Users\LAB_ME~1\AppData\Local\Temp\ccpqSPBc.s 			page 6


 283              	.LFE9:
 284              		.size	chThdCreateStatic, .-chThdCreateStatic
 285 002a 00BFAFF3 		.section	.text.chThdSetPriority,"ax",%progbits
 285      0080
 286              		.align	2
 287              		.p2align 4,,15
 288              		.global	chThdSetPriority
 289              		.thumb
 290              		.thumb_func
 291              		.type	chThdSetPriority, %function
 292              	chThdSetPriority:
 293              	.LFB10:
 294              		.loc 1 210 0
 295              		.cfi_startproc
 296              		@ args = 0, pretend = 0, frame = 0
 297              		@ frame_needed = 0, uses_anonymous_args = 0
 298              	.LVL17:
 299 0000 10B5     		push	{r4, lr}
 300              	.LCFI4:
 301              		.cfi_def_cfa_offset 8
 302              		.cfi_offset 4, -8
 303              		.cfi_offset 14, -4
 304              	.LBB22:
 305              		.loc 1 215 0
 306 0002 2023     		movs	r3, #32
 307              	.LVL18:
 308              	@ 215 "../../os/kernel/src/chthreads.c" 1
 309 0004 83F31188 		msr     BASEPRI, r3
 310              	@ 0 "" 2
 311              	.LVL19:
 312              		.thumb
 313              	.LBE22:
 314              		.loc 1 217 0
 315 0008 084B     		ldr	r3, .L12
 316              	.LVL20:
 317 000a 9B69     		ldr	r3, [r3, #24]
 318 000c 1C6C     		ldr	r4, [r3, #64]
 319              	.LVL21:
 320              		.loc 1 218 0
 321 000e 9968     		ldr	r1, [r3, #8]
 322 0010 8C42     		cmp	r4, r1
 323 0012 01D0     		beq	.L9
 324              		.loc 1 218 0 is_stmt 0 discriminator 1
 325 0014 8142     		cmp	r1, r0
 326 0016 00D2     		bcs	.L10
 327              	.L9:
 328              		.loc 1 219 0 is_stmt 1
 329 0018 9860     		str	r0, [r3, #8]
 330              	.L10:
 331              		.loc 1 220 0
 332 001a 1864     		str	r0, [r3, #64]
 333              		.loc 1 225 0
 334 001c FFF7FEFF 		bl	chSchRescheduleS
 335              	.LVL22:
 336              	.LBB23:
 337              		.loc 1 226 0
 338 0020 0023     		movs	r3, #0
ARM GAS  C:\Users\LAB_ME~1\AppData\Local\Temp\ccpqSPBc.s 			page 7


 339              	.LVL23:
 340              	@ 226 "../../os/kernel/src/chthreads.c" 1
 341 0022 83F31188 		msr     BASEPRI, r3
 342              	@ 0 "" 2
 343              	.LVL24:
 344              		.thumb
 345              	.LBE23:
 346              		.loc 1 228 0
 347 0026 2046     		mov	r0, r4
 348 0028 10BD     		pop	{r4, pc}
 349              	.L13:
 350 002a 00BF     		.align	2
 351              	.L12:
 352 002c 00000000 		.word	rlist
 353              		.cfi_endproc
 354              	.LFE10:
 355              		.size	chThdSetPriority, .-chThdSetPriority
 356              		.section	.text.chThdResume,"ax",%progbits
 357              		.align	2
 358              		.p2align 4,,15
 359              		.global	chThdResume
 360              		.thumb
 361              		.thumb_func
 362              		.type	chThdResume, %function
 363              	chThdResume:
 364              	.LFB11:
 365              		.loc 1 243 0
 366              		.cfi_startproc
 367              		@ args = 0, pretend = 0, frame = 0
 368              		@ frame_needed = 0, uses_anonymous_args = 0
 369              	.LVL25:
 370 0000 10B5     		push	{r4, lr}
 371              	.LCFI5:
 372              		.cfi_def_cfa_offset 8
 373              		.cfi_offset 4, -8
 374              		.cfi_offset 14, -4
 375              	.LBB24:
 376              		.loc 1 245 0
 377 0002 2023     		movs	r3, #32
 378              	.LVL26:
 379              	.LBE24:
 380              		.loc 1 243 0
 381 0004 0446     		mov	r4, r0
 382              	.LBB25:
 383              		.loc 1 245 0
 384              	@ 245 "../../os/kernel/src/chthreads.c" 1
 385 0006 83F31188 		msr     BASEPRI, r3
 386              	@ 0 "" 2
 387              	.LVL27:
 388              		.thumb
 389              	.LBE25:
 390              		.loc 1 249 0
 391 000a 0021     		movs	r1, #0
 392 000c FFF7FEFF 		bl	chSchWakeupS
 393              	.LVL28:
 394              	.LBB26:
 395              		.loc 1 250 0
ARM GAS  C:\Users\LAB_ME~1\AppData\Local\Temp\ccpqSPBc.s 			page 8


 396 0010 0023     		movs	r3, #0
 397              	.LVL29:
 398              	@ 250 "../../os/kernel/src/chthreads.c" 1
 399 0012 83F31188 		msr     BASEPRI, r3
 400              	@ 0 "" 2
 401              	.LVL30:
 402              		.thumb
 403              	.LBE26:
 404              		.loc 1 252 0
 405 0016 2046     		mov	r0, r4
 406 0018 10BD     		pop	{r4, pc}
 407              		.cfi_endproc
 408              	.LFE11:
 409              		.size	chThdResume, .-chThdResume
 410 001a 00BFAFF3 		.section	.text.chThdTerminate,"ax",%progbits
 410      0080
 411              		.align	2
 412              		.p2align 4,,15
 413              		.global	chThdTerminate
 414              		.thumb
 415              		.thumb_func
 416              		.type	chThdTerminate, %function
 417              	chThdTerminate:
 418              	.LFB12:
 419              		.loc 1 266 0
 420              		.cfi_startproc
 421              		@ args = 0, pretend = 0, frame = 0
 422              		@ frame_needed = 0, uses_anonymous_args = 0
 423              		@ link register save eliminated.
 424              	.LVL31:
 425              	.LBB27:
 426              		.loc 1 268 0
 427 0000 2023     		movs	r3, #32
 428              	.LVL32:
 429              	@ 268 "../../os/kernel/src/chthreads.c" 1
 430 0002 83F31188 		msr     BASEPRI, r3
 431              	@ 0 "" 2
 432              	.LVL33:
 433              		.thumb
 434              	.LBE27:
 435              		.loc 1 269 0
 436 0006 437F     		ldrb	r3, [r0, #29]	@ zero_extendqisi2
 437              	.LVL34:
 438 0008 43F00403 		orr	r3, r3, #4
 439 000c 4377     		strb	r3, [r0, #29]
 440              	.LBB28:
 441              		.loc 1 270 0
 442 000e 0023     		movs	r3, #0
 443              	.LVL35:
 444              	@ 270 "../../os/kernel/src/chthreads.c" 1
 445 0010 83F31188 		msr     BASEPRI, r3
 446              	@ 0 "" 2
 447              	.LVL36:
 448              		.thumb
 449 0014 7047     		bx	lr
 450              	.LBE28:
 451              		.cfi_endproc
ARM GAS  C:\Users\LAB_ME~1\AppData\Local\Temp\ccpqSPBc.s 			page 9


 452              	.LFE12:
 453              		.size	chThdTerminate, .-chThdTerminate
 454 0016 00BFAFF3 		.section	.text.chThdSleep,"ax",%progbits
 454      0080AFF3 
 454      0080
 455              		.align	2
 456              		.p2align 4,,15
 457              		.global	chThdSleep
 458              		.thumb
 459              		.thumb_func
 460              		.type	chThdSleep, %function
 461              	chThdSleep:
 462              	.LFB13:
 463              		.loc 1 285 0
 464              		.cfi_startproc
 465              		@ args = 0, pretend = 0, frame = 0
 466              		@ frame_needed = 0, uses_anonymous_args = 0
 467              	.LVL37:
 468 0000 08B5     		push	{r3, lr}
 469              	.LCFI6:
 470              		.cfi_def_cfa_offset 8
 471              		.cfi_offset 3, -8
 472              		.cfi_offset 14, -4
 473              		.loc 1 285 0
 474 0002 0146     		mov	r1, r0
 475              	.LBB29:
 476              		.loc 1 289 0
 477 0004 2023     		movs	r3, #32
 478              	.LVL38:
 479              	@ 289 "../../os/kernel/src/chthreads.c" 1
 480 0006 83F31188 		msr     BASEPRI, r3
 481              	@ 0 "" 2
 482              	.LVL39:
 483              		.thumb
 484              	.LBE29:
 485              		.loc 1 290 0
 486 000a 0620     		movs	r0, #6
 487              	.LVL40:
 488 000c FFF7FEFF 		bl	chSchGoSleepTimeoutS
 489              	.LVL41:
 490              	.LBB30:
 491              		.loc 1 291 0
 492 0010 0023     		movs	r3, #0
 493              	.LVL42:
 494              	@ 291 "../../os/kernel/src/chthreads.c" 1
 495 0012 83F31188 		msr     BASEPRI, r3
 496              	@ 0 "" 2
 497              	.LVL43:
 498              		.thumb
 499 0016 08BD     		pop	{r3, pc}
 500              	.LBE30:
 501              		.cfi_endproc
 502              	.LFE13:
 503              		.size	chThdSleep, .-chThdSleep
 504              		.section	.text.chThdSleepUntil,"ax",%progbits
 505              		.align	2
 506              		.p2align 4,,15
ARM GAS  C:\Users\LAB_ME~1\AppData\Local\Temp\ccpqSPBc.s 			page 10


 507              		.global	chThdSleepUntil
 508              		.thumb
 509              		.thumb_func
 510              		.type	chThdSleepUntil, %function
 511              	chThdSleepUntil:
 512              	.LFB14:
 513              		.loc 1 302 0
 514              		.cfi_startproc
 515              		@ args = 0, pretend = 0, frame = 0
 516              		@ frame_needed = 0, uses_anonymous_args = 0
 517              	.LVL44:
 518 0000 08B5     		push	{r3, lr}
 519              	.LCFI7:
 520              		.cfi_def_cfa_offset 8
 521              		.cfi_offset 3, -8
 522              		.cfi_offset 14, -4
 523              	.LBB31:
 524              		.loc 1 304 0
 525 0002 2023     		movs	r3, #32
 526              	.LVL45:
 527              	@ 304 "../../os/kernel/src/chthreads.c" 1
 528 0004 83F31188 		msr     BASEPRI, r3
 529              	@ 0 "" 2
 530              	.LVL46:
 531              		.thumb
 532              	.LBE31:
 533              		.loc 1 305 0
 534 0008 054B     		ldr	r3, .L22
 535              	.LVL47:
 536 000a D968     		ldr	r1, [r3, #12]
 537              	.LVL48:
 538 000c 411A     		subs	r1, r0, r1
 539              	.LVL49:
 540 000e 02D0     		beq	.L18
 541              		.loc 1 306 0
 542 0010 0620     		movs	r0, #6
 543 0012 FFF7FEFF 		bl	chSchGoSleepTimeoutS
 544              	.LVL50:
 545              	.L18:
 546              	.LBB32:
 547              		.loc 1 307 0
 548 0016 0023     		movs	r3, #0
 549              	.LVL51:
 550              	@ 307 "../../os/kernel/src/chthreads.c" 1
 551 0018 83F31188 		msr     BASEPRI, r3
 552              	@ 0 "" 2
 553              	.LVL52:
 554              		.thumb
 555 001c 08BD     		pop	{r3, pc}
 556              	.L23:
 557 001e 00BF     		.align	2
 558              	.L22:
 559 0020 00000000 		.word	vtlist
 560              	.LBE32:
 561              		.cfi_endproc
 562              	.LFE14:
 563              		.size	chThdSleepUntil, .-chThdSleepUntil
ARM GAS  C:\Users\LAB_ME~1\AppData\Local\Temp\ccpqSPBc.s 			page 11


 564 0024 AFF30080 		.section	.text.chThdYield,"ax",%progbits
 564      AFF30080 
 564      AFF30080 
 565              		.align	2
 566              		.p2align 4,,15
 567              		.global	chThdYield
 568              		.thumb
 569              		.thumb_func
 570              		.type	chThdYield, %function
 571              	chThdYield:
 572              	.LFB15:
 573              		.loc 1 317 0
 574              		.cfi_startproc
 575              		@ args = 0, pretend = 0, frame = 0
 576              		@ frame_needed = 0, uses_anonymous_args = 0
 577 0000 08B5     		push	{r3, lr}
 578              	.LCFI8:
 579              		.cfi_def_cfa_offset 8
 580              		.cfi_offset 3, -8
 581              		.cfi_offset 14, -4
 582              	.LBB33:
 583              		.loc 1 319 0
 584 0002 2023     		movs	r3, #32
 585              	.LVL53:
 586              	@ 319 "../../os/kernel/src/chthreads.c" 1
 587 0004 83F31188 		msr     BASEPRI, r3
 588              	@ 0 "" 2
 589              	.LVL54:
 590              		.thumb
 591              	.LBE33:
 592              		.loc 1 320 0
 593 0008 064B     		ldr	r3, .L26
 594              	.LVL55:
 595 000a 1A68     		ldr	r2, [r3, #0]
 596 000c 9B69     		ldr	r3, [r3, #24]
 597 000e 9268     		ldr	r2, [r2, #8]
 598 0010 9B68     		ldr	r3, [r3, #8]
 599 0012 9A42     		cmp	r2, r3
 600 0014 01D3     		bcc	.L25
 601              		.loc 1 320 0 is_stmt 0 discriminator 1
 602 0016 FFF7FEFF 		bl	chSchDoRescheduleBehind
 603              	.LVL56:
 604              	.L25:
 605              	.LBB34:
 606              		.loc 1 321 0 is_stmt 1
 607 001a 0023     		movs	r3, #0
 608              	.LVL57:
 609              	@ 321 "../../os/kernel/src/chthreads.c" 1
 610 001c 83F31188 		msr     BASEPRI, r3
 611              	@ 0 "" 2
 612              	.LVL58:
 613              		.thumb
 614 0020 08BD     		pop	{r3, pc}
 615              	.L27:
 616 0022 00BF     		.align	2
 617              	.L26:
 618 0024 00000000 		.word	rlist
ARM GAS  C:\Users\LAB_ME~1\AppData\Local\Temp\ccpqSPBc.s 			page 12


 619              	.LBE34:
 620              		.cfi_endproc
 621              	.LFE15:
 622              		.size	chThdYield, .-chThdYield
 623 0028 AFF30080 		.section	.text.chThdExitS,"ax",%progbits
 623      AFF30080 
 624              		.align	2
 625              		.p2align 4,,15
 626              		.global	chThdExitS
 627              		.thumb
 628              		.thumb_func
 629              		.type	chThdExitS, %function
 630              	chThdExitS:
 631              	.LFB17:
 632              		.loc 1 359 0
 633              		.cfi_startproc
 634              		@ args = 0, pretend = 0, frame = 0
 635              		@ frame_needed = 0, uses_anonymous_args = 0
 636              	.LVL59:
 637 0000 38B5     		push	{r3, r4, r5, lr}
 638              	.LCFI9:
 639              		.cfi_def_cfa_offset 16
 640              		.cfi_offset 3, -16
 641              		.cfi_offset 4, -12
 642              		.cfi_offset 5, -8
 643              		.cfi_offset 14, -4
 644              		.loc 1 360 0
 645 0002 0E4B     		ldr	r3, .L36
 646 0004 9C69     		ldr	r4, [r3, #24]
 647              	.LVL60:
 648              		.loc 1 367 0
 649 0006 2546     		mov	r5, r4
 650              		.loc 1 362 0
 651 0008 6062     		str	r0, [r4, #36]
 652              		.loc 1 367 0
 653 000a 55F8280F 		ldr	r0, [r5, #40]!
 654              	.LVL61:
 655 000e A842     		cmp	r0, r5
 656 0010 06D0     		beq	.L33
 657              	.LVL62:
 658              	.L34:
 659              	.LBB35:
 660              	.LBB36:
 661              		.file 2 "../../os/kernel/include/chinline.h"
 662              		.loc 2 82 0
 663 0012 0368     		ldr	r3, [r0, #0]
 664 0014 A362     		str	r3, [r4, #40]
 665              	.LBE36:
 666              	.LBE35:
 667              		.loc 1 368 0
 668 0016 FFF7FEFF 		bl	chSchReadyI
 669              	.LVL63:
 670              		.loc 1 367 0
 671 001a A06A     		ldr	r0, [r4, #40]
 672 001c A842     		cmp	r0, r5
 673 001e F8D1     		bne	.L34
 674              	.LVL64:
ARM GAS  C:\Users\LAB_ME~1\AppData\Local\Temp\ccpqSPBc.s 			page 13


 675              	.L33:
 676              		.loc 1 373 0
 677 0020 637F     		ldrb	r3, [r4, #29]	@ zero_extendqisi2
 678 0022 9B07     		lsls	r3, r3, #30
 679 0024 04D1     		bne	.L31
 680              		.loc 1 374 0
 681 0026 6369     		ldr	r3, [r4, #20]
 682 0028 2269     		ldr	r2, [r4, #16]
 683 002a 1A61     		str	r2, [r3, #16]
 684 002c 2269     		ldr	r2, [r4, #16]
 685 002e 5361     		str	r3, [r2, #20]
 686              	.L31:
 687              		.loc 1 376 0
 688 0030 0E20     		movs	r0, #14
 689              		.loc 1 379 0
 690 0032 BDE83840 		pop	{r3, r4, r5, lr}
 691              		.loc 1 376 0
 692 0036 FFF7FEBF 		b	chSchGoSleepS
 693              	.LVL65:
 694              	.L37:
 695 003a 00BF     		.align	2
 696              	.L36:
 697 003c 00000000 		.word	rlist
 698              		.cfi_endproc
 699              	.LFE17:
 700              		.size	chThdExitS, .-chThdExitS
 701              		.section	.text.chThdExit,"ax",%progbits
 702              		.align	2
 703              		.p2align 4,,15
 704              		.global	chThdExit
 705              		.thumb
 706              		.thumb_func
 707              		.type	chThdExit, %function
 708              	chThdExit:
 709              	.LFB16:
 710              		.loc 1 338 0
 711              		.cfi_startproc
 712              		@ args = 0, pretend = 0, frame = 0
 713              		@ frame_needed = 0, uses_anonymous_args = 0
 714              		@ link register save eliminated.
 715              	.LVL66:
 716              	.LBB37:
 717              		.loc 1 340 0
 718 0000 2023     		movs	r3, #32
 719              	.LVL67:
 720              	@ 340 "../../os/kernel/src/chthreads.c" 1
 721 0002 83F31188 		msr     BASEPRI, r3
 722              	@ 0 "" 2
 723              	.LVL68:
 724              		.thumb
 725              	.LBE37:
 726              		.loc 1 343 0
 727              		.loc 1 341 0
 728 0006 FFF7FEBF 		b	chThdExitS
 729              	.LVL69:
 730              		.cfi_endproc
 731              	.LFE16:
ARM GAS  C:\Users\LAB_ME~1\AppData\Local\Temp\ccpqSPBc.s 			page 14


 732              		.size	chThdExit, .-chThdExit
 733 000a 00BFAFF3 		.section	.text.chThdWait,"ax",%progbits
 733      0080
 734              		.align	2
 735              		.p2align 4,,15
 736              		.global	chThdWait
 737              		.thumb
 738              		.thumb_func
 739              		.type	chThdWait, %function
 740              	chThdWait:
 741              	.LFB18:
 742              		.loc 1 413 0
 743              		.cfi_startproc
 744              		@ args = 0, pretend = 0, frame = 0
 745              		@ frame_needed = 0, uses_anonymous_args = 0
 746              	.LVL70:
 747 0000 38B5     		push	{r3, r4, r5, lr}
 748              	.LCFI10:
 749              		.cfi_def_cfa_offset 16
 750              		.cfi_offset 3, -16
 751              		.cfi_offset 4, -12
 752              		.cfi_offset 5, -8
 753              		.cfi_offset 14, -4
 754              		.loc 1 413 0
 755 0002 0446     		mov	r4, r0
 756              	.LBB38:
 757              		.loc 1 418 0
 758 0004 2023     		movs	r3, #32
 759              	.LVL71:
 760              	@ 418 "../../os/kernel/src/chthreads.c" 1
 761 0006 83F31188 		msr     BASEPRI, r3
 762              	@ 0 "" 2
 763              	.LVL72:
 764              		.thumb
 765              	.LBE38:
 766              		.loc 1 423 0
 767 000a 037F     		ldrb	r3, [r0, #28]	@ zero_extendqisi2
 768              	.LVL73:
 769 000c 0E2B     		cmp	r3, #14
 770 000e 07D0     		beq	.L40
 771              		.loc 1 424 0
 772 0010 084B     		ldr	r3, .L44
 773              	.LBB39:
 774              	.LBB40:
 775              		.loc 2 75 0
 776 0012 826A     		ldr	r2, [r0, #40]
 777              	.LBE40:
 778              	.LBE39:
 779              		.loc 1 424 0
 780 0014 9B69     		ldr	r3, [r3, #24]
 781              	.LVL74:
 782              		.loc 1 425 0
 783 0016 0720     		movs	r0, #7
 784              	.LVL75:
 785              	.LBB42:
 786              	.LBB41:
 787              		.loc 2 75 0
ARM GAS  C:\Users\LAB_ME~1\AppData\Local\Temp\ccpqSPBc.s 			page 15


 788 0018 1A60     		str	r2, [r3, #0]
 789              		.loc 2 76 0
 790 001a A362     		str	r3, [r4, #40]
 791              	.LBE41:
 792              	.LBE42:
 793              		.loc 1 425 0
 794 001c FFF7FEFF 		bl	chSchGoSleepS
 795              	.LVL76:
 796              	.L40:
 797              		.loc 1 427 0
 798 0020 656A     		ldr	r5, [r4, #36]
 799              	.LVL77:
 800              	.LBB43:
 801              		.loc 1 428 0
 802 0022 0023     		movs	r3, #0
 803              	.LVL78:
 804              	@ 428 "../../os/kernel/src/chthreads.c" 1
 805 0024 83F31188 		msr     BASEPRI, r3
 806              	@ 0 "" 2
 807              	.LVL79:
 808              		.thumb
 809              	.LBE43:
 810              		.loc 1 430 0
 811 0028 2046     		mov	r0, r4
 812 002a FFF7FEFF 		bl	chThdRelease
 813              	.LVL80:
 814              		.loc 1 433 0
 815 002e 2846     		mov	r0, r5
 816 0030 38BD     		pop	{r3, r4, r5, pc}
 817              	.L45:
 818 0032 00BF     		.align	2
 819              	.L44:
 820 0034 00000000 		.word	rlist
 821              		.cfi_endproc
 822              	.LFE18:
 823              		.size	chThdWait, .-chThdWait
 824 0038 AFF30080 		.text
 824      AFF30080 
 825              	.Letext0:
 826              		.file 3 "c:\\program files (x86)\\codesourcery\\sourcery_codebench_lite_for_arm_eabi\\bin\\../lib/
 827              		.file 4 "c:\\program files (x86)\\codesourcery\\sourcery_codebench_lite_for_arm_eabi\\bin\\../lib/
 828              		.file 5 "../../os/ports/GCC/ARMCMx/chtypes.h"
 829              		.file 6 "../../os/kernel/include/chlists.h"
 830              		.file 7 "../../os/kernel/include/chthreads.h"
 831              		.file 8 "../../os/ports/GCC/ARMCMx/chcore_v7m.h"
 832              		.file 9 "../../os/kernel/include/chvt.h"
 833              		.file 10 "../../os/kernel/include/chschd.h"
 834              		.file 11 "../../os/kernel/include/chmtx.h"
 835              		.file 12 "../../os/kernel/include/chdynamic.h"