ARM GAS  C:\Users\LAB_ME~1\AppData\Local\Temp\ccpqSPBc.s 			page 1


   1              		.syntax unified
   2              		.cpu cortex-m4
   3              		.fpu softvfp
   4              		.eabi_attribute 20, 1
   5              		.eabi_attribute 21, 1
   6              		.eabi_attribute 23, 3
   7              		.eabi_attribute 24, 1
   8              		.eabi_attribute 25, 1
   9              		.eabi_attribute 26, 1
  10              		.eabi_attribute 30, 2
  11              		.eabi_attribute 34, 1
  12              		.eabi_attribute 18, 4
  13              		.thumb
  14              		.file	"chthreads.c"
  15              		.text
  16              	.Ltext0:
  17              		.cfi_sections	.debug_frame
  18              		.section	.text._thread_init,"ax",%progbits
  19              		.align	2
  20              		.p2align 4,,15
  21              		.global	_thread_init
  22              		.thumb
  23              		.thumb_func
  24              		.type	_thread_init, %function
  25              	_thread_init:
  26              	.LFB7:
  27              		.file 1 "../../os/kernel/src/chthreads.c"
  28              		.loc 1 69 0
  29              		.cfi_startproc
  30              		@ args = 0, pretend = 0, frame = 0
  31              		@ frame_needed = 0, uses_anonymous_args = 0
  32              		@ link register save eliminated.
  33              	.LVL0:
  34 0000 F0B4     		push	{r4, r5, r6, r7}
  35              	.LCFI0:
  36              		.cfi_def_cfa_offset 16
  37              		.cfi_offset 4, -16
  38              		.cfi_offset 5, -12
  39              		.cfi_offset 6, -8
  40              		.cfi_offset 7, -4
  41              		.loc 1 92 0
  42 0002 0F4C     		ldr	r4, .L2
  43              		.loc 1 78 0
  44 0004 0164     		str	r1, [r0, #64]
  45              		.loc 1 92 0
  46 0006 6569     		ldr	r5, [r4, #20]
  47 0008 0461     		str	r4, [r0, #16]
  48              		.loc 1 73 0
  49 000a 0022     		movs	r2, #0
  50              		.loc 1 98 0
  51 000c 00F12C06 		add	r6, r0, #44
  52              		.loc 1 71 0
  53 0010 8160     		str	r1, [r0, #8]
  54              		.loc 1 95 0
  55 0012 00F12807 		add	r7, r0, #40
  56              		.loc 1 92 0
  57 0016 4561     		str	r5, [r0, #20]
ARM GAS  C:\Users\LAB_ME~1\AppData\Local\Temp\ccpqSPBc.s 			page 2


  58              		.loc 1 72 0
  59 0018 4FF0020C 		mov	ip, #2
  60              		.loc 1 92 0
  61 001c 6061     		str	r0, [r4, #20]
  62              		.loc 1 88 0
  63 001e 0121     		movs	r1, #1
  64              	.LVL1:
  65              		.loc 1 75 0
  66 0020 1424     		movs	r4, #20
  67              		.loc 1 72 0
  68 0022 80F81CC0 		strb	ip, [r0, #28]
  69              		.loc 1 73 0
  70 0026 4277     		strb	r2, [r0, #29]
  71              		.loc 1 75 0
  72 0028 C477     		strb	r4, [r0, #31]
  73              		.loc 1 79 0
  74 002a C263     		str	r2, [r0, #60]
  75              		.loc 1 82 0
  76 002c 8263     		str	r2, [r0, #56]
  77              		.loc 1 85 0
  78 002e 0262     		str	r2, [r0, #32]
  79              		.loc 1 88 0
  80 0030 8177     		strb	r1, [r0, #30]
  81              		.loc 1 91 0
  82 0032 8261     		str	r2, [r0, #24]
  83              		.loc 1 92 0
  84 0034 2861     		str	r0, [r5, #16]
  85              		.loc 1 95 0
  86 0036 8762     		str	r7, [r0, #40]
  87              		.loc 1 98 0
  88 0038 0663     		str	r6, [r0, #48]
  89 003a C662     		str	r6, [r0, #44]
  90              		.loc 1 107 0
  91 003c F0BC     		pop	{r4, r5, r6, r7}
  92 003e 7047     		bx	lr
  93              	.L3:
  94              		.align	2
  95              	.L2:
  96 0040 00000000 		.word	rlist
  97              		.cfi_endproc
  98              	.LFE7:
  99              		.size	_thread_init, .-_thread_init
 100 0044 AFF30080 		.section	.text.chThdCreateI,"ax",%progbits
 100      AFF30080 
 100      AFF30080 
 101              		.align	2
 102              		.p2align 4,,15
 103              		.global	chThdCreateI
 104              		.thumb
 105              		.thumb_func
 106              		.type	chThdCreateI, %function
 107              	chThdCreateI:
 108              	.LFB8:
 109              		.loc 1 151 0
 110              		.cfi_startproc
 111              		@ args = 4, pretend = 0, frame = 0
 112              		@ frame_needed = 0, uses_anonymous_args = 0
ARM GAS  C:\Users\LAB_ME~1\AppData\Local\Temp\ccpqSPBc.s 			page 3


 113              		@ link register save eliminated.
 114              	.LVL2:
 115 0000 2DE9F003 		push	{r4, r5, r6, r7, r8, r9}
 116              	.LCFI1:
 117              		.cfi_def_cfa_offset 24
 118              		.cfi_offset 4, -24
 119              		.cfi_offset 5, -20
 120              		.cfi_offset 6, -16
 121              		.cfi_offset 7, -12
 122              		.cfi_offset 8, -8
 123              		.cfi_offset 9, -4
 124              		.loc 1 160 0
 125 0004 2439     		subs	r1, r1, #36
 126              	.LVL3:
 127              	.LBB10:
 128              	.LBB11:
 129              		.loc 1 92 0
 130 0006 164E     		ldr	r6, .L5
 131              	.LBE11:
 132              	.LBE10:
 133              		.loc 1 160 0
 134 0008 4718     		adds	r7, r0, r1
 135              	.LBB16:
 136              	.LBB12:
 137              		.loc 1 92 0
 138 000a D6F814C0 		ldr	ip, [r6, #20]
 139              	.LBE12:
 140              	.LBE16:
 141              		.loc 1 160 0
 142 000e C760     		str	r7, [r0, #12]
 143 0010 4350     		str	r3, [r0, r1]
 144 0012 069B     		ldr	r3, [sp, #24]
 145              	.LVL4:
 146 0014 7B60     		str	r3, [r7, #4]
 147 0016 134B     		ldr	r3, .L5+4
 148 0018 3B62     		str	r3, [r7, #32]
 149              	.LBB17:
 150              	.LBB13:
 151              		.loc 1 72 0
 152 001a 0223     		movs	r3, #2
 153 001c 0377     		strb	r3, [r0, #28]
 154              		.loc 1 75 0
 155 001e 1423     		movs	r3, #20
 156              		.loc 1 73 0
 157 0020 0025     		movs	r5, #0
 158              	.LBE13:
 159              	.LBE17:
 160              		.loc 1 151 0
 161 0022 9046     		mov	r8, r2
 162              	.LBB18:
 163              	.LBB14:
 164              		.loc 1 95 0
 165 0024 00F12809 		add	r9, r0, #40
 166              		.loc 1 98 0
 167 0028 00F12C02 		add	r2, r0, #44
 168              	.LVL5:
 169              		.loc 1 75 0
ARM GAS  C:\Users\LAB_ME~1\AppData\Local\Temp\ccpqSPBc.s 			page 4


 170 002c C377     		strb	r3, [r0, #31]
 171              		.loc 1 88 0
 172 002e 0123     		movs	r3, #1
 173              		.loc 1 92 0
 174 0030 0661     		str	r6, [r0, #16]
 175              		.loc 1 71 0
 176 0032 C0F80880 		str	r8, [r0, #8]
 177              		.loc 1 92 0
 178 0036 C0F814C0 		str	ip, [r0, #20]
 179              	.LBE14:
 180              	.LBE18:
 181              		.loc 1 151 0
 182 003a 0446     		mov	r4, r0
 183              	.LVL6:
 184              	.LBB19:
 185              	.LBB15:
 186              		.loc 1 92 0
 187 003c 7061     		str	r0, [r6, #20]
 188              		.loc 1 73 0
 189 003e 4577     		strb	r5, [r0, #29]
 190              		.loc 1 78 0
 191 0040 C0F84080 		str	r8, [r0, #64]
 192              		.loc 1 79 0
 193 0044 C563     		str	r5, [r0, #60]
 194              		.loc 1 82 0
 195 0046 8563     		str	r5, [r0, #56]
 196              		.loc 1 85 0
 197 0048 0562     		str	r5, [r0, #32]
 198              		.loc 1 88 0
 199 004a 8377     		strb	r3, [r0, #30]
 200              		.loc 1 91 0
 201 004c 8561     		str	r5, [r0, #24]
 202              		.loc 1 92 0
 203 004e CCF81000 		str	r0, [ip, #16]
 204              		.loc 1 95 0
 205 0052 C0F82890 		str	r9, [r0, #40]
 206              		.loc 1 98 0
 207 0056 0263     		str	r2, [r0, #48]
 208 0058 C262     		str	r2, [r0, #44]
 209              	.LBE15:
 210              	.LBE19:
 211              		.loc 1 162 0
 212 005a BDE8F003 		pop	{r4, r5, r6, r7, r8, r9}
 213 005e 7047     		bx	lr
 214              	.L6:
 215              		.align	2
 216              	.L5:
 217 0060 00000000 		.word	rlist
 218 0064 00000000 		.word	_port_thread_start
 219              		.cfi_endproc
 220              	.LFE8:
 221              		.size	chThdCreateI, .-chThdCreateI
 222 0068 AFF30080 		.section	.text.chThdCreateStatic,"ax",%progbits
 222      AFF30080 
 223              		.align	2
 224              		.p2align 4,,15
 225              		.global	chThdCreateStatic
ARM GAS  C:\Users\LAB_ME~1\AppData\Local\Temp\ccpqSPBc.s 			page 5


 226              		.thumb
 227              		.thumb_func
 228              		.type	chThdCreateStatic, %function
 229              	chThdCreateStatic:
 230              	.LFB9:
 231              		.loc 1 181 0
 232              		.cfi_startproc
 233              		@ args = 4, pretend = 0, frame = 0
 234              		@ frame_needed = 0, uses_anonymous_args = 0
 235              	.LVL7:
 236 0000 10B5     		push	{r4, lr}
 237              	.LCFI2:
 238              		.cfi_def_cfa_offset 8
 239              		.cfi_offset 4, -8
 240              		.cfi_offset 14, -4
 241 0002 1C46     		mov	r4, r3
 242 0004 82B0     		sub	sp, sp, #8
 243              	.LCFI3:
 244              		.cfi_def_cfa_offset 16
 245              	.LBB20:
 246              		.loc 1 192 0
 247 0006 2023     		movs	r3, #32
 248              	.LVL8:
 249              	@ 192 "../../os/kernel/src/chthreads.c" 1
 250 0008 83F31188 		msr     BASEPRI, r3
 251              	@ 0 "" 2
 252              	.LVL9:
 253              		.thumb
 254              	.LBE20:
 255              		.loc 1 193 0
 256 000c 2346     		mov	r3, r4
 257              	.LVL10:
 258 000e 049C     		ldr	r4, [sp, #16]
 259              	.LVL11:
 260 0010 0094     		str	r4, [sp, #0]
 261 0012 FFF7FEFF 		bl	chThdCreateI
 262              	.LVL12:
 263 0016 0021     		movs	r1, #0
 264 0018 0446     		mov	r4, r0
 265              	.LVL13:
 266 001a FFF7FEFF 		bl	chSchWakeupS
 267              	.LVL14:
 268              	.LBB21:
 269              		.loc 1 194 0
 270 001e 0023     		movs	r3, #0
 271              	.LVL15:
 272              	@ 194 "../../os/kernel/src/chthreads.c" 1
 273 0020 83F31188 		msr     BASEPRI, r3
 274              	@ 0 "" 2
 275              	.LVL16:
 276              		.thumb
 277              	.LBE21:
 278              		.loc 1 196 0
 279 0024 2046     		mov	r0, r4
 280 0026 02B0     		add	sp, sp, #8
 281 0028 10BD     		pop	{r4, pc}
 282              		.cfi_endproc
ARM GAS  C:\Users\LAB_ME~1\AppData\Local\Temp\ccpqSPBc.s 			page 6


 283              	.LFE9:
 284              		.size	chThdCreateStatic, .-chThdCreateStatic
 285 002a 00BFAFF3 		.section	.text.chThdSetPriority,"ax",%progbits
 285      0080
 286              		.align	2
 287              		.p2align 4,,15
 288              		.global	chThdSetPriority
 289              		.thumb
 290              		.thumb_func
 291              		.type	chThdSetPriority, %function
 292              	chThdSetPriority:
 293              	.LFB10:
 294              		.loc 1 210 0
 295              		.cfi_startproc
 296              		@ args = 0, pretend = 0, frame = 0
 297              		@ frame_needed = 0, uses_anonymous_args = 0
 298              	.LVL17:
 299 0000 10B5     		push	{r4, lr}
 300              	.LCFI4:
 301              		.cfi_def_cfa_offset 8
 302              		.cfi_offset 4, -8
 303              		.cfi_offset 14, -4
 304              	.LBB22:
 305              		.loc 1 215 0
 306 0002 2023     		movs	r3, #32
 307              	.LVL18:
 308              	@ 215 "../../os/kernel/src/chthreads.c" 1
 309 0004 83F31188 		msr     BASEPRI, r3
 310              	@ 0 "" 2
 311              	.LVL19:
 312              		.thumb
 313              	.LBE22:
 314              		.loc 1 217 0
 315 0008 084B     		ldr	r3, .L12
 316              	.LVL20:
 317 000a 9B69     		ldr	r3, [r3, #24]
 318 000c 1C6C     		ldr	r4, [r3, #64]
 319              	.LVL21:
 320              		.loc 1 218 0
 321 000e 9968     		ldr	r1, [r3, #8]
 322 0010 8C42     		cmp	r4, r1
 323 0012 01D0     		beq	.L9
 324              		.loc 1 218 0 is_stmt 0 discriminator 1
 325 0014 8142     		cmp	r1, r0
 326 0016 00D2     		bcs	.L10
 327              	.L9:
 328              		.loc 1 219 0 is_stmt 1
 329 0018 9860     		str	r0, [r3, #8]
 330              	.L10:
 331              		.loc 1 220 0
 332 001a 1864     		str	r0, [r3, #64]
 333              		.loc 1 225 0
 334 001c FFF7FEFF 		bl	chSchRescheduleS
 335              	.LVL22:
 336              	.LBB23:
 337              		.loc 1 226 0
 338 0020 0023     		movs	r3, #0
ARM GAS  C:\Users\LAB_ME~1\AppData\Local\Temp\ccpqSPBc.s 			page 7


 339              	.LVL23:
 340              	@ 226 "../../os/kernel/src/chthreads.c" 1
 341 0022 83F31188 		msr     BASEPRI, r3
 342              	@ 0 "" 2
 343              	.LVL24:
 344              		.thumb
 345              	.LBE23:
 346              		.loc 1 228 0
 347 0026 2046     		mov	r0, r4
 348 0028 10BD     		pop	{r4, pc}
 349              	.L13:
 350 002a 00BF     		.align	2
 351              	.L12:
 352 002c 00000000 		.word	rlist
 353              		.cfi_endproc
 354              	.LFE10:
 355              		.size	chThdSetPriority, .-chThdSetPriority
 356              		.section	.text.chThdResume,"ax",%progbits
 357              		.align	2
 358              		.p2align 4,,15
 359              		.global	chThdResume
 360              		.thumb
 361              		.thumb_func
 362              		.type	chThdResume, %function
 363              	chThdResume:
 364              	.LFB11:
 365              		.loc 1 243 0
 366              		.cfi_startproc
 367              		@ args = 0, pretend = 0, frame = 0
 368              		@ frame_needed = 0, uses_anonymous_args = 0
 369              	.LVL25:
 370 0000 10B5     		push	{r4, lr}
 371              	.LCFI5:
 372              		.cfi_def_cfa_offset 8
 373              		.cfi_offset 4, -8
 374              		.cfi_offset 14, -4
 375              	.LBB24:
 376              		.loc 1 245 0
 377 0002 2023     		movs	r3, #32
 378              	.LVL26:
 379              	.LBE24:
 380              		.loc 1 243 0
 381 0004 0446     		mov	r4, r0
 382              	.LBB25:
 383              		.loc 1 245 0
 384              	@ 245 "../../os/kernel/src/chthreads.c" 1
 385 0006 83F31188 		msr     BASEPRI, r3
 386              	@ 0 "" 2
 387              	.LVL27:
 388              		.thumb
 389              	.LBE25:
 390              		.loc 1 249 0
 391 000a 0021     		movs	r1, #0
 392 000c FFF7FEFF 		bl	chSchWakeupS
 393              	.LVL28:
 394              	.LBB26:
 395              		.loc 1 250 0
ARM GAS  C:\Users\LAB_ME~1\AppData\Local\Temp\ccpqSPBc.s 			page 8


 396 0010 0023     		movs	r3, #0
 397              	.LVL29:
 398              	@ 250 "../../os/kernel/src/chthreads.c" 1
 399 0012 83F31188 		msr     BASEPRI, r3
 400              	@ 0 "" 2
 401              	.LVL30:
 402              		.thumb
 403              	.LBE26:
 404              		.loc 1 252 0
 405 0016 2046     		mov	r0, r4
 406 0018 10BD     		pop	{r4, pc}
 407              		.cfi_endproc
 408              	.LFE11:
 409              		.size	chThdResume, .-chThdResume
 410 001a 00BFAFF3 		.section	.text.chThdTerminate,"ax",%progbits
 410      0080
 411              		.align	2
 412              		.p2align 4,,15
 413              		.global	chThdTerminate
 414              		.thumb
 415              		.thumb_func
 416              		.type	chThdTerminate, %function
 417              	chThdTerminate:
 418              	.LFB12:
 419              		.loc 1 266 0
 420              		.cfi_startproc
 421              		@ args = 0, pretend = 0, frame = 0
 422              		@ frame_needed = 0, uses_anonymous_args = 0
 423              		@ link register save eliminated.
 424              	.LVL31:
 425              	.LBB27:
 426              		.loc 1 268 0
 427 0000 2023     		movs	r3, #32
 428              	.LVL32:
 429              	@ 268 "../../os/kernel/src/chthreads.c" 1
 430 0002 83F31188 		msr     BASEPRI, r3
 431              	@ 0 "" 2
 432              	.LVL33:
 433              		.thumb
 434              	.LBE27:
 435              		.loc 1 269 0
 436 0006 437F     		ldrb	r3, [r0, #29]	@ zero_extendqisi2
 437              	.LVL34:
 438 0008 43F00403 		orr	r3, r3, #4
 439 000c 4377     		strb	r3, [r0, #29]
 440              	.LBB28:
 441              		.loc 1 270 0
 442 000e 0023     		movs	r3, #0
 443              	.LVL35:
 444              	@ 270 "../../os/kernel/src/chthreads.c" 1
 445 0010 83F31188 		msr     BASEPRI, r3
 446              	@ 0 "" 2
 447              	.LVL36:
 448              		.thumb
 449 0014 7047     		bx	lr
 450              	.LBE28:
 451              		.cfi_endproc
ARM GAS  C:\Users\LAB_ME~1\AppData\Local\Temp\ccpqSPBc.s 			page 9


 452              	.LFE12:
 453              		.size	chThdTerminate, .-chThdTerminate
 454 0016 00BFAFF3 		.section	.text.chThdSleep,"ax",%progbits
 454      0080AFF3 
 454      0080
 455              		.align	2
 456              		.p2align 4,,15
 457              		.global	chThdSleep
 458              		.thumb
 459              		.thumb_func
 460              		.type	chThdSleep, %function
 461              	chThdSleep:
 462              	.LFB13:
 463              		.loc 1 285 0
 464              		.cfi_startproc
 465              		@ args = 0, pretend = 0, frame = 0
 466              		@ frame_needed = 0, uses_anonymous_args = 0
 467              	.LVL37:
 468 0000 08B5     		push	{r3, lr}
 469              	.LCFI6:
 470              		.cfi_def_cfa_offset 8
 471              		.cfi_offset 3, -8
 472              		.cfi_offset 14, -4
 473              		.loc 1 285 0
 474 0002 0146     		mov	r1, r0
 475              	.LBB29:
 476              		.loc 1 289 0
 477 0004 2023     		movs	r3, #32
 478              	.LVL38:
 479              	@ 289 "../../os/kernel/src/chthreads.c" 1
 480 0006 83F31188 		msr     BASEPRI, r3
 481              	@ 0 "" 2
 482              	.LVL39:
 483              		.thumb
 484              	.LBE29:
 485              		.loc 1 290 0
 486 000a 0620     		movs	r0, #6
 487              	.LVL40:
 488 000c FFF7FEFF 		bl	chSchGoSleepTimeoutS
 489              	.LVL41:
 490              	.LBB30:
 491              		.loc 1 291 0
 492 0010 0023     		movs	r3, #0
 493              	.LVL42:
 494              	@ 291 "../../os/kernel/src/chthreads.c" 1
 495 0012 83F31188 		msr     BASEPRI, r3
 496              	@ 0 "" 2
 497              	.LVL43:
 498              		.thumb
 499 0016 08BD     		pop	{r3, pc}
 500              	.LBE30:
 501              		.cfi_endproc
 502              	.LFE13:
 503              		.size	chThdSleep, .-chThdSleep
 504              		.section	.text.chThdSleepUntil,"ax",%progbits
 505              		.align	2
 506              		.p2align 4,,15
ARM GAS  C:\Users\LAB_ME~1\AppData\Local\Temp\ccpqSPBc.s 			page 10


 507              		.global	chThdSleepUntil
 508              		.thumb
 509              		.thumb_func
 510              		.type	chThdSleepUntil, %function
 511              	chThdSleepUntil:
 512              	.LFB14:
 513              		.loc 1 302 0
 514              		.cfi_startproc
 515              		@ args = 0, pretend = 0, frame = 0
 516              		@ frame_needed = 0, uses_anonymous_args = 0
 517              	.LVL44:
 518 0000 08B5     		push	{r3, lr}
 519              	.LCFI7:
 520              		.cfi_def_cfa_offset 8
 521              		.cfi_offset 3, -8
 522              		.cfi_offset 14, -4
 523              	.LBB31:
 524              		.loc 1 304 0
 525 0002 2023     		movs	r3, #32
 526              	.LVL45:
 527              	@ 304 "../../os/kernel/src/chthreads.c" 1
 528 0004 83F31188 		msr     BASEPRI, r3
 529              	@ 0 "" 2
 530              	.LVL46:
 531              		.thumb
 532              	.LBE31:
 533              		.loc 1 305 0
 534 0008 054B     		ldr	r3, .L22
 535              	.LVL47:
 536 000a D968     		ldr	r1, [r3, #12]
 537              	.LVL48:
 538 000c 411A     		subs	r1, r0, r1
 539              	.LVL49:
 540 000e 02D0     		beq	.L18
 541              		.loc 1 306 0
 542 0010 0620     		movs	r0, #6
 543 0012 FFF7FEFF 		bl	chSchGoSleepTimeoutS
 544              	.LVL50:
 545              	.L18:
 546              	.LBB32:
 547              		.loc 1 307 0
 548 0016 0023     		movs	r3, #0
 549              	.LVL51:
 550              	@ 307 "../../os/kernel/src/chthreads.c" 1
 551 0018 83F31188 		msr     BASEPRI, r3
 552              	@ 0 "" 2
 553              	.LVL52:
 554              		.thumb
 555 001c 08BD     		pop	{r3, pc}
 556              	.L23:
 557 001e 00BF     		.align	2
 558              	.L22:
 559 0020 00000000 		.word	vtlist
 560              	.LBE32:
 561              		.cfi_endproc
 562              	.LFE14:
 563              		.size	chThdSleepUntil, .-chThdSleepUntil
ARM GAS  C:\Users\LAB_ME~1\AppData\Local\Temp\ccpqSPBc.s 			page 11


 564 0024 AFF30080 		.section	.text.chThdYield,"ax",%progbits
 564      AFF30080 
 564      AFF30080 
 565              		.align	2
 566              		.p2align 4,,15
 567              		.global	chThdYield
 568              		.thumb
 569              		.thumb_func
 570              		.type	chThdYield, %function
 571              	chThdYield:
 572              	.LFB15:
 573              		.loc 1 317 0
 574              		.cfi_startproc
 575              		@ args = 0, pretend = 0, frame = 0
 576              		@ frame_needed = 0, uses_anonymous_args = 0
 577 0000 08B5     		push	{r3, lr}
 578              	.LCFI8:
 579              		.cfi_def_cfa_offset 8
 580              		.cfi_offset 3, -8
 581              		.cfi_offset 14, -4
 582              	.LBB33:
 583              		.loc 1 319 0
 584 0002 2023     		movs	r3, #32
 585              	.LVL53:
 586              	@ 319 "../../os/kernel/src/chthreads.c" 1
 587 0004 83F31188 		msr     BASEPRI, r3
 588              	@ 0 "" 2
 589              	.LVL54:
 590              		.thumb
 591              	.LBE33:
 592              		.loc 1 320 0
 593 0008 064B     		ldr	r3, .L26
 594              	.LVL55:
 595 000a 1A68     		ldr	r2, [r3, #0]
 596 000c 9B69     		ldr	r3, [r3, #24]
 597 000e 9268     		ldr	r2, [r2, #8]
 598 0010 9B68     		ldr	r3, [r3, #8]
 599 0012 9A42     		cmp	r2, r3
 600 0014 01D3     		bcc	.L25
 601              		.loc 1 320 0 is_stmt 0 discriminator 1
 602 0016 FFF7FEFF 		bl	chSchDoRescheduleBehind
 603              	.LVL56:
 604              	.L25:
 605              	.LBB34:
 606              		.loc 1 321 0 is_stmt 1
 607 001a 0023     		movs	r3, #0
 608              	.LVL57:
 609              	@ 321 "../../os/kernel/src/chthreads.c" 1
 610 001c 83F31188 		msr     BASEPRI, r3
 611              	@ 0 "" 2
 612              	.LVL58:
 613              		.thumb
 614 0020 08BD     		pop	{r3, pc}
 615              	.L27:
 616 0022 00BF     		.align	2
 617              	.L26:
 618 0024 00000000 		.word	rlist
ARM GAS  C:\Users\LAB_ME~1\AppData\Local\Temp\ccpqSPBc.s 			page 12


 619              	.LBE34:
 620              		.cfi_endproc
 621              	.LFE15:
 622              		.size	chThdYield, .-chThdYield
 623 0028 AFF30080 		.section	.text.chThdExitS,"ax",%progbits
 623      AFF30080 
 624              		.align	2
 625              		.p2align 4,,15
 626              		.global	chThdExitS
 627              		.thumb
 628              		.thumb_func
 629              		.type	chThdExitS, %function
 630              	chThdExitS:
 631              	.LFB17:
 632              		.loc 1 359 0
 633              		.cfi_startproc
 634              		@ args = 0, pretend = 0, frame = 0
 635              		@ frame_needed = 0, uses_anonymous_args = 0
 636              	.LVL59:
 637 0000 38B5     		push	{r3, r4, r5, lr}
 638              	.LCFI9:
 639              		.cfi_def_cfa_offset 16
 640              		.cfi_offset 3, -16
 641              		.cfi_offset 4, -12
 642              		.cfi_offset 5, -8
 643              		.cfi_offset 14, -4
 644              		.loc 1 360 0
 645 0002 0E4B     		ldr	r3, .L36
 646 0004 9C69     		ldr	r4, [r3, #24]
 647              	.LVL60:
 648              		.loc 1 367 0
 649 0006 2546     		mov	r5, r4
 650              		.loc 1 362 0
 651 0008 6062     		str	r0, [r4, #36]
 652              		.loc 1 367 0
 653 000a 55F8280F 		ldr	r0, [r5, #40]!
 654              	.LVL61:
 655 000e A842     		cmp	r0, r5
 656 0010 06D0     		beq	.L33
 657              	.LVL62:
 658              	.L34:
 659              	.LBB35:
 660              	.LBB36:
 661              		.file 2 "../../os/kernel/include/chinline.h"
 662              		.loc 2 82 0
 663 0012 0368     		ldr	r3, [r0, #0]
 664 0014 A362     		str	r3, [r4, #40]
 665              	.LBE36:
 666              	.LBE35:
 667              		.loc 1 368 0
 668 0016 FFF7FEFF 		bl	chSchReadyI
 669              	.LVL63:
 670              		.loc 1 367 0
 671 001a A06A     		ldr	r0, [r4, #40]
 672 001c A842     		cmp	r0, r5
 673 001e F8D1     		bne	.L34
 674              	.LVL64:
ARM GAS  C:\Users\LAB_ME~1\AppData\Local\Temp\ccpqSPBc.s 			page 13


 675              	.L33:
 676              		.loc 1 373 0
 677 0020 637F     		ldrb	r3, [r4, #29]	@ zero_extendqisi2
 678 0022 9B07     		lsls	r3, r3, #30
 679 0024 04D1     		bne	.L31
 680              		.loc 1 374 0
 681 0026 6369     		ldr	r3, [r4, #20]
 682 0028 2269     		ldr	r2, [r4, #16]
 683 002a 1A61     		str	r2, [r3, #16]
 684 002c 2269     		ldr	r2, [r4, #16]
 685 002e 5361     		str	r3, [r2, #20]
 686              	.L31:
 687              		.loc 1 376 0
 688 0030 0E20     		movs	r0, #14
 689              		.loc 1 379 0
 690 0032 BDE83840 		pop	{r3, r4, r5, lr}
 691              		.loc 1 376 0
 692 0036 FFF7FEBF 		b	chSchGoSleepS
 693              	.LVL65:
 694              	.L37:
 695 003a 00BF     		.align	2
 696              	.L36:
 697 003c 00000000 		.word	rlist
 698              		.cfi_endproc
 699              	.LFE17:
 700              		.size	chThdExitS, .-chThdExitS
 701              		.section	.text.chThdExit,"ax",%progbits
 702              		.align	2
 703              		.p2align 4,,15
 704              		.global	chThdExit
 705              		.thumb
 706              		.thumb_func
 707              		.type	chThdExit, %function
 708              	chThdExit:
 709              	.LFB16:
 710              		.loc 1 338 0
 711              		.cfi_startproc
 712              		@ args = 0, pretend = 0, frame = 0
 713              		@ frame_needed = 0, uses_anonymous_args = 0
 714              		@ link register save eliminated.
 715              	.LVL66:
 716              	.LBB37:
 717              		.loc 1 340 0
 718 0000 2023     		movs	r3, #32
 719              	.LVL67:
 720              	@ 340 "../../os/kernel/src/chthreads.c" 1
 721 0002 83F31188 		msr     BASEPRI, r3
 722              	@ 0 "" 2
 723              	.LVL68:
 724              		.thumb
 725              	.LBE37:
 726              		.loc 1 343 0
 727              		.loc 1 341 0
 728 0006 FFF7FEBF 		b	chThdExitS
 729              	.LVL69:
 730              		.cfi_endproc
 731              	.LFE16:
ARM GAS  C:\Users\LAB_ME~1\AppData\Local\Temp\ccpqSPBc.s 			page 14


 732              		.size	chThdExit, .-chThdExit
 733 000a 00BFAFF3 		.section	.text.chThdWait,"ax",%progbits
 733      0080
 734              		.align	2
 735              		.p2align 4,,15
 736              		.global	chThdWait
 737              		.thumb
 738              		.thumb_func
 739              		.type	chThdWait, %function
 740              	chThdWait:
 741              	.LFB18:
 742              		.loc 1 413 0
 743              		.cfi_startproc
 744              		@ args = 0, pretend = 0, frame = 0
 745              		@ frame_needed = 0, uses_anonymous_args = 0
 746              	.LVL70:
 747 0000 38B5     		push	{r3, r4, r5, lr}
 748              	.LCFI10:
 749              		.cfi_def_cfa_offset 16
 750              		.cfi_offset 3, -16
 751              		.cfi_offset 4, -12
 752              		.cfi_offset 5, -8
 753              		.cfi_offset 14, -4
 754              		.loc 1 413 0
 755 0002 0446     		mov	r4, r0
 756              	.LBB38:
 757              		.loc 1 418 0
 758 0004 2023     		movs	r3, #32
 759              	.LVL71:
 760              	@ 418 "../../os/kernel/src/chthreads.c" 1
 761 0006 83F31188 		msr     BASEPRI, r3
 762              	@ 0 "" 2
 763              	.LVL72:
 764              		.thumb
 765              	.LBE38:
 766              		.loc 1 423 0
 767 000a 037F     		ldrb	r3, [r0, #28]	@ zero_extendqisi2
 768              	.LVL73:
 769 000c 0E2B     		cmp	r3, #14
 770 000e 07D0     		beq	.L40
 771              		.loc 1 424 0
 772 0010 084B     		ldr	r3, .L44
 773              	.LBB39:
 774              	.LBB40:
 775              		.loc 2 75 0
 776 0012 826A     		ldr	r2, [r0, #40]
 777              	.LBE40:
 778              	.LBE39:
 779              		.loc 1 424 0
 780 0014 9B69     		ldr	r3, [r3, #24]
 781              	.LVL74:
 782              		.loc 1 425 0
 783 0016 0720     		movs	r0, #7
 784              	.LVL75:
 785              	.LBB42:
 786              	.LBB41:
 787              		.loc 2 75 0
ARM GAS  C:\Users\LAB_ME~1\AppData\Local\Temp\ccpqSPBc.s 			page 15


 788 0018 1A60     		str	r2, [r3, #0]
 789              		.loc 2 76 0
 790 001a A362     		str	r3, [r4, #40]
 791              	.LBE41:
 792              	.LBE42:
 793              		.loc 1 425 0
 794 001c FFF7FEFF 		bl	chSchGoSleepS
 795              	.LVL76:
 796              	.L40:
 797              		.loc 1 427 0
 798 0020 656A     		ldr	r5, [r4, #36]
 799              	.LVL77:
 800              	.LBB43:
 801              		.loc 1 428 0
 802 0022 0023     		movs	r3, #0
 803              	.LVL78:
 804              	@ 428 "../../os/kernel/src/chthreads.c" 1
 805 0024 83F31188 		msr     BASEPRI, r3
 806              	@ 0 "" 2
 807              	.LVL79:
 808              		.thumb
 809              	.LBE43:
 810              		.loc 1 430 0
 811 0028 2046     		mov	r0, r4
 812 002a FFF7FEFF 		bl	chThdRelease
 813              	.LVL80:
 814              		.loc 1 433 0
 815 002e 2846     		mov	r0, r5
 816 0030 38BD     		pop	{r3, r4, r5, pc}
 817              	.L45:
 818 0032 00BF     		.align	2
 819              	.L44:
 820 0034 00000000 		.word	rlist
 821              		.cfi_endproc
 822              	.LFE18:
 823              		.size	chThdWait, .-chThdWait
 824 0038 AFF30080 		.text
 824      AFF30080 
 825              	.Letext0:
 826              		.file 3 "c:\\program files (x86)\\codesourcery\\sourcery_codebench_lite_for_arm_eabi\\bin\\../lib/
 827              		.file 4 "c:\\program files (x86)\\codesourcery\\sourcery_codebench_lite_for_arm_eabi\\bin\\../lib/
 828              		.file 5 "../../os/ports/GCC/ARMCMx/chtypes.h"
 829              		.file 6 "../../os/kernel/include/chlists.h"
 830              		.file 7 "../../os/kernel/include/chthreads.h"
 831              		.file 8 "../../os/ports/GCC/ARMCMx/chcore_v7m.h"
 832              		.file 9 "../../os/kernel/include/chvt.h"
 833              		.file 10 "../../os/kernel/include/chschd.h"
 834              		.file 11 "../../os/kernel/include/chmtx.h"
 835              		.file 12 "../../os/kernel/include/chdynamic.h"
 836              		.section	.debug_info,"",%progbits
 837              	.Ldebug_info0:
 838 0000 3F0C0000 		.4byte	0xc3f
 839 0004 0200     		.2byte	0x2
 840 0006 00000000 		.4byte	.Ldebug_abbrev0
 841 000a 04       		.byte	0x4
 842 000b 01       		.uleb128 0x1
 843 000c 20020000 		.4byte	.LASF98
ARM GAS  C:\Users\LAB_ME~1\AppData\Local\Temp\ccpqSPBc.s 			page 16


 844 0010 01       		.byte	0x1
 845 0011 AB030000 		.4byte	.LASF99
 846 0015 08040000 		.4byte	.LASF100
 847 0019 60000000 		.4byte	.Ldebug_ranges0+0x60
 848 001d 00000000 		.4byte	0
 849 0021 00000000 		.4byte	0
 850 0025 00000000 		.4byte	.Ldebug_line0
 851 0029 02       		.uleb128 0x2
 852 002a 04       		.byte	0x4
 853 002b 05       		.byte	0x5
 854 002c 696E7400 		.ascii	"int\000"
 855 0030 03       		.uleb128 0x3
 856 0031 0E000000 		.4byte	.LASF2
 857 0035 03       		.byte	0x3
 858 0036 D5       		.byte	0xd5
 859 0037 3B000000 		.4byte	0x3b
 860 003b 04       		.uleb128 0x4
 861 003c 04       		.byte	0x4
 862 003d 07       		.byte	0x7
 863 003e 06010000 		.4byte	.LASF0
 864 0042 04       		.uleb128 0x4
 865 0043 01       		.byte	0x1
 866 0044 06       		.byte	0x6
 867 0045 68000000 		.4byte	.LASF1
 868 0049 03       		.uleb128 0x3
 869 004a A3030000 		.4byte	.LASF3
 870 004e 04       		.byte	0x4
 871 004f 2A       		.byte	0x2a
 872 0050 54000000 		.4byte	0x54
 873 0054 04       		.uleb128 0x4
 874 0055 01       		.byte	0x1
 875 0056 08       		.byte	0x8
 876 0057 6D020000 		.4byte	.LASF4
 877 005b 04       		.uleb128 0x4
 878 005c 02       		.byte	0x2
 879 005d 05       		.byte	0x5
 880 005e 85020000 		.4byte	.LASF5
 881 0062 04       		.uleb128 0x4
 882 0063 02       		.byte	0x2
 883 0064 07       		.byte	0x7
 884 0065 3A010000 		.4byte	.LASF6
 885 0069 03       		.uleb128 0x3
 886 006a 65020000 		.4byte	.LASF7
 887 006e 04       		.byte	0x4
 888 006f 4F       		.byte	0x4f
 889 0070 74000000 		.4byte	0x74
 890 0074 04       		.uleb128 0x4
 891 0075 04       		.byte	0x4
 892 0076 05       		.byte	0x5
 893 0077 A5000000 		.4byte	.LASF8
 894 007b 03       		.uleb128 0x3
 895 007c EB020000 		.4byte	.LASF9
 896 0080 04       		.byte	0x4
 897 0081 50       		.byte	0x50
 898 0082 86000000 		.4byte	0x86
 899 0086 04       		.uleb128 0x4
 900 0087 04       		.byte	0x4
ARM GAS  C:\Users\LAB_ME~1\AppData\Local\Temp\ccpqSPBc.s 			page 17


 901 0088 07       		.byte	0x7
 902 0089 1B010000 		.4byte	.LASF10
 903 008d 04       		.uleb128 0x4
 904 008e 08       		.byte	0x8
 905 008f 05       		.byte	0x5
 906 0090 5A000000 		.4byte	.LASF11
 907 0094 04       		.uleb128 0x4
 908 0095 08       		.byte	0x8
 909 0096 07       		.byte	0x7
 910 0097 33000000 		.4byte	.LASF12
 911 009b 03       		.uleb128 0x3
 912 009c 68010000 		.4byte	.LASF13
 913 00a0 05       		.byte	0x5
 914 00a1 28       		.byte	0x28
 915 00a2 49000000 		.4byte	0x49
 916 00a6 03       		.uleb128 0x3
 917 00a7 AE000000 		.4byte	.LASF14
 918 00ab 05       		.byte	0x5
 919 00ac 29       		.byte	0x29
 920 00ad 49000000 		.4byte	0x49
 921 00b1 03       		.uleb128 0x3
 922 00b2 4E020000 		.4byte	.LASF15
 923 00b6 05       		.byte	0x5
 924 00b7 2A       		.byte	0x2a
 925 00b8 49000000 		.4byte	0x49
 926 00bc 03       		.uleb128 0x3
 927 00bd 8E000000 		.4byte	.LASF16
 928 00c1 05       		.byte	0x5
 929 00c2 2B       		.byte	0x2b
 930 00c3 49000000 		.4byte	0x49
 931 00c7 03       		.uleb128 0x3
 932 00c8 5D020000 		.4byte	.LASF17
 933 00cc 05       		.byte	0x5
 934 00cd 2C       		.byte	0x2c
 935 00ce 7B000000 		.4byte	0x7b
 936 00d2 03       		.uleb128 0x3
 937 00d3 5A010000 		.4byte	.LASF18
 938 00d7 05       		.byte	0x5
 939 00d8 2D       		.byte	0x2d
 940 00d9 69000000 		.4byte	0x69
 941 00dd 03       		.uleb128 0x3
 942 00de 8B010000 		.4byte	.LASF19
 943 00e2 05       		.byte	0x5
 944 00e3 2F       		.byte	0x2f
 945 00e4 7B000000 		.4byte	0x7b
 946 00e8 03       		.uleb128 0x3
 947 00e9 2E030000 		.4byte	.LASF20
 948 00ed 05       		.byte	0x5
 949 00ee 31       		.byte	0x31
 950 00ef 7B000000 		.4byte	0x7b
 951 00f3 03       		.uleb128 0x3
 952 00f4 CB020000 		.4byte	.LASF21
 953 00f8 06       		.byte	0x6
 954 00f9 23       		.byte	0x23
 955 00fa FE000000 		.4byte	0xfe
 956 00fe 05       		.uleb128 0x5
 957 00ff CB020000 		.4byte	.LASF21
ARM GAS  C:\Users\LAB_ME~1\AppData\Local\Temp\ccpqSPBc.s 			page 18


 958 0103 48       		.byte	0x48
 959 0104 07       		.byte	0x7
 960 0105 57       		.byte	0x57
 961 0106 23020000 		.4byte	0x223
 962 010a 06       		.uleb128 0x6
 963 010b AF020000 		.4byte	.LASF22
 964 010f 07       		.byte	0x7
 965 0110 58       		.byte	0x58
 966 0111 48020000 		.4byte	0x248
 967 0115 02       		.byte	0x2
 968 0116 23       		.byte	0x23
 969 0117 00       		.uleb128 0
 970 0118 06       		.uleb128 0x6
 971 0119 56020000 		.4byte	.LASF23
 972 011d 07       		.byte	0x7
 973 011e 5A       		.byte	0x5a
 974 011f 48020000 		.4byte	0x248
 975 0123 02       		.byte	0x2
 976 0124 23       		.byte	0x23
 977 0125 04       		.uleb128 0x4
 978 0126 06       		.uleb128 0x6
 979 0127 53000000 		.4byte	.LASF24
 980 012b 07       		.byte	0x7
 981 012c 5C       		.byte	0x5c
 982 012d C7000000 		.4byte	0xc7
 983 0131 02       		.byte	0x2
 984 0132 23       		.byte	0x23
 985 0133 08       		.uleb128 0x8
 986 0134 06       		.uleb128 0x6
 987 0135 24040000 		.4byte	.LASF25
 988 0139 07       		.byte	0x7
 989 013a 5D       		.byte	0x5d
 990 013b 16030000 		.4byte	0x316
 991 013f 02       		.byte	0x2
 992 0140 23       		.byte	0x23
 993 0141 0C       		.uleb128 0xc
 994 0142 06       		.uleb128 0x6
 995 0143 B7000000 		.4byte	.LASF26
 996 0147 07       		.byte	0x7
 997 0148 5F       		.byte	0x5f
 998 0149 48020000 		.4byte	0x248
 999 014d 02       		.byte	0x2
 1000 014e 23       		.byte	0x23
 1001 014f 10       		.uleb128 0x10
 1002 0150 06       		.uleb128 0x6
 1003 0151 00020000 		.4byte	.LASF27
 1004 0155 07       		.byte	0x7
 1005 0156 60       		.byte	0x60
 1006 0157 48020000 		.4byte	0x248
 1007 015b 02       		.byte	0x2
 1008 015c 23       		.byte	0x23
 1009 015d 14       		.uleb128 0x14
 1010 015e 06       		.uleb128 0x6
 1011 015f D2030000 		.4byte	.LASF28
 1012 0163 07       		.byte	0x7
 1013 0164 67       		.byte	0x67
 1014 0165 F7040000 		.4byte	0x4f7
ARM GAS  C:\Users\LAB_ME~1\AppData\Local\Temp\ccpqSPBc.s 			page 19


 1015 0169 02       		.byte	0x2
 1016 016a 23       		.byte	0x23
 1017 016b 18       		.uleb128 0x18
 1018 016c 06       		.uleb128 0x6
 1019 016d 8F020000 		.4byte	.LASF29
 1020 0171 07       		.byte	0x7
 1021 0172 72       		.byte	0x72
 1022 0173 A6000000 		.4byte	0xa6
 1023 0177 02       		.byte	0x2
 1024 0178 23       		.byte	0x23
 1025 0179 1C       		.uleb128 0x1c
 1026 017a 06       		.uleb128 0x6
 1027 017b B6020000 		.4byte	.LASF30
 1028 017f 07       		.byte	0x7
 1029 0180 76       		.byte	0x76
 1030 0181 9B000000 		.4byte	0x9b
 1031 0185 02       		.byte	0x2
 1032 0186 23       		.byte	0x23
 1033 0187 1D       		.uleb128 0x1d
 1034 0188 06       		.uleb128 0x6
 1035 0189 8C030000 		.4byte	.LASF31
 1036 018d 07       		.byte	0x7
 1037 018e 7B       		.byte	0x7b
 1038 018f B1000000 		.4byte	0xb1
 1039 0193 02       		.byte	0x2
 1040 0194 23       		.byte	0x23
 1041 0195 1E       		.uleb128 0x1e
 1042 0196 06       		.uleb128 0x6
 1043 0197 97020000 		.4byte	.LASF32
 1044 019b 07       		.byte	0x7
 1045 019c 81       		.byte	0x81
 1046 019d BC000000 		.4byte	0xbc
 1047 01a1 02       		.byte	0x2
 1048 01a2 23       		.byte	0x23
 1049 01a3 1F       		.uleb128 0x1f
 1050 01a4 06       		.uleb128 0x6
 1051 01a5 57030000 		.4byte	.LASF33
 1052 01a9 07       		.byte	0x7
 1053 01aa 88       		.byte	0x88
 1054 01ab 02040000 		.4byte	0x402
 1055 01af 02       		.byte	0x2
 1056 01b0 23       		.byte	0x23
 1057 01b1 20       		.uleb128 0x20
 1058 01b2 07       		.uleb128 0x7
 1059 01b3 705F7500 		.ascii	"p_u\000"
 1060 01b7 07       		.byte	0x7
 1061 01b8 AD       		.byte	0xad
 1062 01b9 C2040000 		.4byte	0x4c2
 1063 01bd 02       		.byte	0x2
 1064 01be 23       		.byte	0x23
 1065 01bf 24       		.uleb128 0x24
 1066 01c0 06       		.uleb128 0x6
 1067 01c1 2A040000 		.4byte	.LASF34
 1068 01c5 07       		.byte	0x7
 1069 01c6 B2       		.byte	0xb2
 1070 01c7 70020000 		.4byte	0x270
 1071 01cb 02       		.byte	0x2
ARM GAS  C:\Users\LAB_ME~1\AppData\Local\Temp\ccpqSPBc.s 			page 20


 1072 01cc 23       		.byte	0x23
 1073 01cd 28       		.uleb128 0x28
 1074 01ce 06       		.uleb128 0x6
 1075 01cf 65030000 		.4byte	.LASF35
 1076 01d3 07       		.byte	0x7
 1077 01d4 B8       		.byte	0xb8
 1078 01d5 4E020000 		.4byte	0x24e
 1079 01d9 02       		.byte	0x2
 1080 01da 23       		.byte	0x23
 1081 01db 2C       		.uleb128 0x2c
 1082 01dc 06       		.uleb128 0x6
 1083 01dd 08000000 		.4byte	.LASF36
 1084 01e1 07       		.byte	0x7
 1085 01e2 BC       		.byte	0xbc
 1086 01e3 D2000000 		.4byte	0xd2
 1087 01e7 02       		.byte	0x2
 1088 01e8 23       		.byte	0x23
 1089 01e9 34       		.uleb128 0x34
 1090 01ea 06       		.uleb128 0x6
 1091 01eb E0020000 		.4byte	.LASF37
 1092 01ef 07       		.byte	0x7
 1093 01f0 C2       		.byte	0xc2
 1094 01f1 DD000000 		.4byte	0xdd
 1095 01f5 02       		.byte	0x2
 1096 01f6 23       		.byte	0x23
 1097 01f7 38       		.uleb128 0x38
 1098 01f8 06       		.uleb128 0x6
 1099 01f9 7B020000 		.4byte	.LASF38
 1100 01fd 07       		.byte	0x7
 1101 01fe C9       		.byte	0xc9
 1102 01ff 09050000 		.4byte	0x509
 1103 0203 02       		.byte	0x2
 1104 0204 23       		.byte	0x23
 1105 0205 3C       		.uleb128 0x3c
 1106 0206 06       		.uleb128 0x6
 1107 0207 38030000 		.4byte	.LASF39
 1108 020b 07       		.byte	0x7
 1109 020c CD       		.byte	0xcd
 1110 020d C7000000 		.4byte	0xc7
 1111 0211 02       		.byte	0x2
 1112 0212 23       		.byte	0x23
 1113 0213 40       		.uleb128 0x40
 1114 0214 06       		.uleb128 0x6
 1115 0215 7E000000 		.4byte	.LASF40
 1116 0219 07       		.byte	0x7
 1117 021a D3       		.byte	0xd3
 1118 021b 86020000 		.4byte	0x286
 1119 021f 02       		.byte	0x2
 1120 0220 23       		.byte	0x23
 1121 0221 44       		.uleb128 0x44
 1122 0222 00       		.byte	0
 1123 0223 08       		.uleb128 0x8
 1124 0224 08       		.byte	0x8
 1125 0225 06       		.byte	0x6
 1126 0226 5A       		.byte	0x5a
 1127 0227 48020000 		.4byte	0x248
 1128 022b 06       		.uleb128 0x6
ARM GAS  C:\Users\LAB_ME~1\AppData\Local\Temp\ccpqSPBc.s 			page 21


 1129 022c AF020000 		.4byte	.LASF22
 1130 0230 06       		.byte	0x6
 1131 0231 5B       		.byte	0x5b
 1132 0232 48020000 		.4byte	0x248
 1133 0236 02       		.byte	0x2
 1134 0237 23       		.byte	0x23
 1135 0238 00       		.uleb128 0
 1136 0239 06       		.uleb128 0x6
 1137 023a 56020000 		.4byte	.LASF23
 1138 023e 06       		.byte	0x6
 1139 023f 5D       		.byte	0x5d
 1140 0240 48020000 		.4byte	0x248
 1141 0244 02       		.byte	0x2
 1142 0245 23       		.byte	0x23
 1143 0246 04       		.uleb128 0x4
 1144 0247 00       		.byte	0
 1145 0248 09       		.uleb128 0x9
 1146 0249 04       		.byte	0x4
 1147 024a F3000000 		.4byte	0xf3
 1148 024e 03       		.uleb128 0x3
 1149 024f 0E020000 		.4byte	.LASF41
 1150 0253 06       		.byte	0x6
 1151 0254 5F       		.byte	0x5f
 1152 0255 23020000 		.4byte	0x223
 1153 0259 08       		.uleb128 0x8
 1154 025a 04       		.byte	0x4
 1155 025b 06       		.byte	0x6
 1156 025c 64       		.byte	0x64
 1157 025d 70020000 		.4byte	0x270
 1158 0261 06       		.uleb128 0x6
 1159 0262 AF020000 		.4byte	.LASF22
 1160 0266 06       		.byte	0x6
 1161 0267 66       		.byte	0x66
 1162 0268 48020000 		.4byte	0x248
 1163 026c 02       		.byte	0x2
 1164 026d 23       		.byte	0x23
 1165 026e 00       		.uleb128 0
 1166 026f 00       		.byte	0
 1167 0270 03       		.uleb128 0x3
 1168 0271 7F010000 		.4byte	.LASF42
 1169 0275 06       		.byte	0x6
 1170 0276 69       		.byte	0x69
 1171 0277 59020000 		.4byte	0x259
 1172 027b 03       		.uleb128 0x3
 1173 027c E4000000 		.4byte	.LASF43
 1174 0280 08       		.byte	0x8
 1175 0281 DE       		.byte	0xde
 1176 0282 86020000 		.4byte	0x286
 1177 0286 0A       		.uleb128 0xa
 1178 0287 04       		.byte	0x4
 1179 0288 0B       		.uleb128 0xb
 1180 0289 5E030000 		.4byte	.LASF44
 1181 028d 24       		.byte	0x24
 1182 028e 08       		.byte	0x8
 1183 028f 0501     		.2byte	0x105
 1184 0291 16030000 		.4byte	0x316
 1185 0295 0C       		.uleb128 0xc
ARM GAS  C:\Users\LAB_ME~1\AppData\Local\Temp\ccpqSPBc.s 			page 22


 1186 0296 723400   		.ascii	"r4\000"
 1187 0299 08       		.byte	0x8
 1188 029a 1801     		.2byte	0x118
 1189 029c 7B020000 		.4byte	0x27b
 1190 02a0 02       		.byte	0x2
 1191 02a1 23       		.byte	0x23
 1192 02a2 00       		.uleb128 0
 1193 02a3 0C       		.uleb128 0xc
 1194 02a4 723500   		.ascii	"r5\000"
 1195 02a7 08       		.byte	0x8
 1196 02a8 1901     		.2byte	0x119
 1197 02aa 7B020000 		.4byte	0x27b
 1198 02ae 02       		.byte	0x2
 1199 02af 23       		.byte	0x23
 1200 02b0 04       		.uleb128 0x4
 1201 02b1 0C       		.uleb128 0xc
 1202 02b2 723600   		.ascii	"r6\000"
 1203 02b5 08       		.byte	0x8
 1204 02b6 1A01     		.2byte	0x11a
 1205 02b8 7B020000 		.4byte	0x27b
 1206 02bc 02       		.byte	0x2
 1207 02bd 23       		.byte	0x23
 1208 02be 08       		.uleb128 0x8
 1209 02bf 0C       		.uleb128 0xc
 1210 02c0 723700   		.ascii	"r7\000"
 1211 02c3 08       		.byte	0x8
 1212 02c4 1B01     		.2byte	0x11b
 1213 02c6 7B020000 		.4byte	0x27b
 1214 02ca 02       		.byte	0x2
 1215 02cb 23       		.byte	0x23
 1216 02cc 0C       		.uleb128 0xc
 1217 02cd 0C       		.uleb128 0xc
 1218 02ce 723800   		.ascii	"r8\000"
 1219 02d1 08       		.byte	0x8
 1220 02d2 1C01     		.2byte	0x11c
 1221 02d4 7B020000 		.4byte	0x27b
 1222 02d8 02       		.byte	0x2
 1223 02d9 23       		.byte	0x23
 1224 02da 10       		.uleb128 0x10
 1225 02db 0C       		.uleb128 0xc
 1226 02dc 723900   		.ascii	"r9\000"
 1227 02df 08       		.byte	0x8
 1228 02e0 1D01     		.2byte	0x11d
 1229 02e2 7B020000 		.4byte	0x27b
 1230 02e6 02       		.byte	0x2
 1231 02e7 23       		.byte	0x23
 1232 02e8 14       		.uleb128 0x14
 1233 02e9 0C       		.uleb128 0xc
 1234 02ea 72313000 		.ascii	"r10\000"
 1235 02ee 08       		.byte	0x8
 1236 02ef 1E01     		.2byte	0x11e
 1237 02f1 7B020000 		.4byte	0x27b
 1238 02f5 02       		.byte	0x2
 1239 02f6 23       		.byte	0x23
 1240 02f7 18       		.uleb128 0x18
 1241 02f8 0C       		.uleb128 0xc
 1242 02f9 72313100 		.ascii	"r11\000"
ARM GAS  C:\Users\LAB_ME~1\AppData\Local\Temp\ccpqSPBc.s 			page 23


 1243 02fd 08       		.byte	0x8
 1244 02fe 1F01     		.2byte	0x11f
 1245 0300 7B020000 		.4byte	0x27b
 1246 0304 02       		.byte	0x2
 1247 0305 23       		.byte	0x23
 1248 0306 1C       		.uleb128 0x1c
 1249 0307 0C       		.uleb128 0xc
 1250 0308 6C7200   		.ascii	"lr\000"
 1251 030b 08       		.byte	0x8
 1252 030c 2001     		.2byte	0x120
 1253 030e 7B020000 		.4byte	0x27b
 1254 0312 02       		.byte	0x2
 1255 0313 23       		.byte	0x23
 1256 0314 20       		.uleb128 0x20
 1257 0315 00       		.byte	0
 1258 0316 0B       		.uleb128 0xb
 1259 0317 2D010000 		.4byte	.LASF45
 1260 031b 04       		.byte	0x4
 1261 031c 08       		.byte	0x8
 1262 031d 2A01     		.2byte	0x12a
 1263 031f 33030000 		.4byte	0x333
 1264 0323 0C       		.uleb128 0xc
 1265 0324 72313300 		.ascii	"r13\000"
 1266 0328 08       		.byte	0x8
 1267 0329 2B01     		.2byte	0x12b
 1268 032b 33030000 		.4byte	0x333
 1269 032f 02       		.byte	0x2
 1270 0330 23       		.byte	0x23
 1271 0331 00       		.uleb128 0
 1272 0332 00       		.byte	0
 1273 0333 09       		.uleb128 0x9
 1274 0334 04       		.byte	0x4
 1275 0335 88020000 		.4byte	0x288
 1276 0339 04       		.uleb128 0x4
 1277 033a 04       		.byte	0x4
 1278 033b 07       		.byte	0x7
 1279 033c CB010000 		.4byte	.LASF46
 1280 0340 03       		.uleb128 0x3
 1281 0341 43030000 		.4byte	.LASF47
 1282 0345 09       		.byte	0x9
 1283 0346 4E       		.byte	0x4e
 1284 0347 4B030000 		.4byte	0x34b
 1285 034b 09       		.uleb128 0x9
 1286 034c 04       		.byte	0x4
 1287 034d 51030000 		.4byte	0x351
 1288 0351 0D       		.uleb128 0xd
 1289 0352 01       		.byte	0x1
 1290 0353 5D030000 		.4byte	0x35d
 1291 0357 0E       		.uleb128 0xe
 1292 0358 86020000 		.4byte	0x286
 1293 035c 00       		.byte	0
 1294 035d 03       		.uleb128 0x3
 1295 035e 09030000 		.4byte	.LASF48
 1296 0362 09       		.byte	0x9
 1297 0363 53       		.byte	0x53
 1298 0364 68030000 		.4byte	0x368
 1299 0368 05       		.uleb128 0x5
ARM GAS  C:\Users\LAB_ME~1\AppData\Local\Temp\ccpqSPBc.s 			page 24


 1300 0369 09030000 		.4byte	.LASF48
 1301 036d 14       		.byte	0x14
 1302 036e 09       		.byte	0x9
 1303 036f 5A       		.byte	0x5a
 1304 0370 BB030000 		.4byte	0x3bb
 1305 0374 06       		.uleb128 0x6
 1306 0375 13010000 		.4byte	.LASF49
 1307 0379 09       		.byte	0x9
 1308 037a 5B       		.byte	0x5b
 1309 037b BB030000 		.4byte	0x3bb
 1310 037f 02       		.byte	0x2
 1311 0380 23       		.byte	0x23
 1312 0381 00       		.uleb128 0
 1313 0382 06       		.uleb128 0x6
 1314 0383 ED000000 		.4byte	.LASF50
 1315 0387 09       		.byte	0x9
 1316 0388 5D       		.byte	0x5d
 1317 0389 BB030000 		.4byte	0x3bb
 1318 038d 02       		.byte	0x2
 1319 038e 23       		.byte	0x23
 1320 038f 04       		.uleb128 0x4
 1321 0390 06       		.uleb128 0x6
 1322 0391 C3010000 		.4byte	.LASF51
 1323 0395 09       		.byte	0x9
 1324 0396 5F       		.byte	0x5f
 1325 0397 E8000000 		.4byte	0xe8
 1326 039b 02       		.byte	0x2
 1327 039c 23       		.byte	0x23
 1328 039d 08       		.uleb128 0x8
 1329 039e 06       		.uleb128 0x6
 1330 039f D4010000 		.4byte	.LASF52
 1331 03a3 09       		.byte	0x9
 1332 03a4 60       		.byte	0x60
 1333 03a5 40030000 		.4byte	0x340
 1334 03a9 02       		.byte	0x2
 1335 03aa 23       		.byte	0x23
 1336 03ab 0C       		.uleb128 0xc
 1337 03ac 06       		.uleb128 0x6
 1338 03ad 7A030000 		.4byte	.LASF53
 1339 03b1 09       		.byte	0x9
 1340 03b2 62       		.byte	0x62
 1341 03b3 86020000 		.4byte	0x286
 1342 03b7 02       		.byte	0x2
 1343 03b8 23       		.byte	0x23
 1344 03b9 10       		.uleb128 0x10
 1345 03ba 00       		.byte	0
 1346 03bb 09       		.uleb128 0x9
 1347 03bc 04       		.byte	0x4
 1348 03bd 5D030000 		.4byte	0x35d
 1349 03c1 08       		.uleb128 0x8
 1350 03c2 10       		.byte	0x10
 1351 03c3 09       		.byte	0x9
 1352 03c4 6C       		.byte	0x6c
 1353 03c5 02040000 		.4byte	0x402
 1354 03c9 06       		.uleb128 0x6
 1355 03ca 13010000 		.4byte	.LASF49
 1356 03ce 09       		.byte	0x9
ARM GAS  C:\Users\LAB_ME~1\AppData\Local\Temp\ccpqSPBc.s 			page 25


 1357 03cf 6D       		.byte	0x6d
 1358 03d0 BB030000 		.4byte	0x3bb
 1359 03d4 02       		.byte	0x2
 1360 03d5 23       		.byte	0x23
 1361 03d6 00       		.uleb128 0
 1362 03d7 06       		.uleb128 0x6
 1363 03d8 ED000000 		.4byte	.LASF50
 1364 03dc 09       		.byte	0x9
 1365 03dd 6F       		.byte	0x6f
 1366 03de BB030000 		.4byte	0x3bb
 1367 03e2 02       		.byte	0x2
 1368 03e3 23       		.byte	0x23
 1369 03e4 04       		.uleb128 0x4
 1370 03e5 06       		.uleb128 0x6
 1371 03e6 C3010000 		.4byte	.LASF51
 1372 03ea 09       		.byte	0x9
 1373 03eb 71       		.byte	0x71
 1374 03ec E8000000 		.4byte	0xe8
 1375 03f0 02       		.byte	0x2
 1376 03f1 23       		.byte	0x23
 1377 03f2 08       		.uleb128 0x8
 1378 03f3 06       		.uleb128 0x6
 1379 03f4 D9030000 		.4byte	.LASF54
 1380 03f8 09       		.byte	0x9
 1381 03f9 72       		.byte	0x72
 1382 03fa 02040000 		.4byte	0x402
 1383 03fe 02       		.byte	0x2
 1384 03ff 23       		.byte	0x23
 1385 0400 0C       		.uleb128 0xc
 1386 0401 00       		.byte	0
 1387 0402 0F       		.uleb128 0xf
 1388 0403 E8000000 		.4byte	0xe8
 1389 0407 03       		.uleb128 0x3
 1390 0408 F9030000 		.4byte	.LASF55
 1391 040c 09       		.byte	0x9
 1392 040d 73       		.byte	0x73
 1393 040e C1030000 		.4byte	0x3c1
 1394 0412 08       		.uleb128 0x8
 1395 0413 1C       		.byte	0x1c
 1396 0414 0A       		.byte	0xa
 1397 0415 57       		.byte	0x57
 1398 0416 6F040000 		.4byte	0x46f
 1399 041a 06       		.uleb128 0x6
 1400 041b 01030000 		.4byte	.LASF56
 1401 041f 0A       		.byte	0xa
 1402 0420 58       		.byte	0x58
 1403 0421 4E020000 		.4byte	0x24e
 1404 0425 02       		.byte	0x2
 1405 0426 23       		.byte	0x23
 1406 0427 00       		.uleb128 0
 1407 0428 06       		.uleb128 0x6
 1408 0429 A1020000 		.4byte	.LASF57
 1409 042d 0A       		.byte	0xa
 1410 042e 59       		.byte	0x59
 1411 042f C7000000 		.4byte	0xc7
 1412 0433 02       		.byte	0x2
 1413 0434 23       		.byte	0x23
ARM GAS  C:\Users\LAB_ME~1\AppData\Local\Temp\ccpqSPBc.s 			page 26


 1414 0435 08       		.uleb128 0x8
 1415 0436 06       		.uleb128 0x6
 1416 0437 08020000 		.4byte	.LASF58
 1417 043b 0A       		.byte	0xa
 1418 043c 5B       		.byte	0x5b
 1419 043d 16030000 		.4byte	0x316
 1420 0441 02       		.byte	0x2
 1421 0442 23       		.byte	0x23
 1422 0443 0C       		.uleb128 0xc
 1423 0444 06       		.uleb128 0x6
 1424 0445 DC000000 		.4byte	.LASF59
 1425 0449 0A       		.byte	0xa
 1426 044a 5E       		.byte	0x5e
 1427 044b 48020000 		.4byte	0x248
 1428 044f 02       		.byte	0x2
 1429 0450 23       		.byte	0x23
 1430 0451 10       		.uleb128 0x10
 1431 0452 06       		.uleb128 0x6
 1432 0453 36020000 		.4byte	.LASF60
 1433 0457 0A       		.byte	0xa
 1434 0458 5F       		.byte	0x5f
 1435 0459 48020000 		.4byte	0x248
 1436 045d 02       		.byte	0x2
 1437 045e 23       		.byte	0x23
 1438 045f 14       		.uleb128 0x14
 1439 0460 06       		.uleb128 0x6
 1440 0461 2C020000 		.4byte	.LASF61
 1441 0465 0A       		.byte	0xa
 1442 0466 62       		.byte	0x62
 1443 0467 48020000 		.4byte	0x248
 1444 046b 02       		.byte	0x2
 1445 046c 23       		.byte	0x23
 1446 046d 18       		.uleb128 0x18
 1447 046e 00       		.byte	0
 1448 046f 03       		.uleb128 0x3
 1449 0470 93030000 		.4byte	.LASF62
 1450 0474 0A       		.byte	0xa
 1451 0475 64       		.byte	0x64
 1452 0476 12040000 		.4byte	0x412
 1453 047a 05       		.uleb128 0x5
 1454 047b 97010000 		.4byte	.LASF63
 1455 047f 10       		.byte	0x10
 1456 0480 0B       		.byte	0xb
 1457 0481 25       		.byte	0x25
 1458 0482 B1040000 		.4byte	0x4b1
 1459 0486 06       		.uleb128 0x6
 1460 0487 86000000 		.4byte	.LASF64
 1461 048b 0B       		.byte	0xb
 1462 048c 26       		.byte	0x26
 1463 048d 4E020000 		.4byte	0x24e
 1464 0491 02       		.byte	0x2
 1465 0492 23       		.byte	0x23
 1466 0493 00       		.uleb128 0
 1467 0494 06       		.uleb128 0x6
 1468 0495 00040000 		.4byte	.LASF65
 1469 0499 0B       		.byte	0xb
 1470 049a 28       		.byte	0x28
ARM GAS  C:\Users\LAB_ME~1\AppData\Local\Temp\ccpqSPBc.s 			page 27


 1471 049b 48020000 		.4byte	0x248
 1472 049f 02       		.byte	0x2
 1473 04a0 23       		.byte	0x23
 1474 04a1 08       		.uleb128 0x8
 1475 04a2 06       		.uleb128 0x6
 1476 04a3 27030000 		.4byte	.LASF66
 1477 04a7 0B       		.byte	0xb
 1478 04a8 2A       		.byte	0x2a
 1479 04a9 B1040000 		.4byte	0x4b1
 1480 04ad 02       		.byte	0x2
 1481 04ae 23       		.byte	0x23
 1482 04af 0C       		.uleb128 0xc
 1483 04b0 00       		.byte	0
 1484 04b1 09       		.uleb128 0x9
 1485 04b2 04       		.byte	0x4
 1486 04b3 7A040000 		.4byte	0x47a
 1487 04b7 03       		.uleb128 0x3
 1488 04b8 97010000 		.4byte	.LASF63
 1489 04bc 0B       		.byte	0xb
 1490 04bd 2C       		.byte	0x2c
 1491 04be 7A040000 		.4byte	0x47a
 1492 04c2 10       		.uleb128 0x10
 1493 04c3 04       		.byte	0x4
 1494 04c4 07       		.byte	0x7
 1495 04c5 8F       		.byte	0x8f
 1496 04c6 F7040000 		.4byte	0x4f7
 1497 04ca 11       		.uleb128 0x11
 1498 04cb 1A000000 		.4byte	.LASF67
 1499 04cf 07       		.byte	0x7
 1500 04d0 96       		.byte	0x96
 1501 04d1 D2000000 		.4byte	0xd2
 1502 04d5 11       		.uleb128 0x11
 1503 04d6 4A000000 		.4byte	.LASF68
 1504 04da 07       		.byte	0x7
 1505 04db 9D       		.byte	0x9d
 1506 04dc D2000000 		.4byte	0xd2
 1507 04e0 11       		.uleb128 0x11
 1508 04e1 CB030000 		.4byte	.LASF69
 1509 04e5 07       		.byte	0x7
 1510 04e6 A4       		.byte	0xa4
 1511 04e7 86020000 		.4byte	0x286
 1512 04eb 11       		.uleb128 0x11
 1513 04ec A8020000 		.4byte	.LASF70
 1514 04f0 07       		.byte	0x7
 1515 04f1 AB       		.byte	0xab
 1516 04f2 DD000000 		.4byte	0xdd
 1517 04f6 00       		.byte	0
 1518 04f7 09       		.uleb128 0x9
 1519 04f8 04       		.byte	0x4
 1520 04f9 FD040000 		.4byte	0x4fd
 1521 04fd 12       		.uleb128 0x12
 1522 04fe 02050000 		.4byte	0x502
 1523 0502 04       		.uleb128 0x4
 1524 0503 01       		.byte	0x1
 1525 0504 08       		.byte	0x8
 1526 0505 16030000 		.4byte	.LASF71
 1527 0509 09       		.uleb128 0x9
ARM GAS  C:\Users\LAB_ME~1\AppData\Local\Temp\ccpqSPBc.s 			page 28


 1528 050a 04       		.byte	0x4
 1529 050b B7040000 		.4byte	0x4b7
 1530 050f 03       		.uleb128 0x3
 1531 0510 00000000 		.4byte	.LASF72
 1532 0514 07       		.byte	0x7
 1533 0515 DE       		.byte	0xde
 1534 0516 1A050000 		.4byte	0x51a
 1535 051a 09       		.uleb128 0x9
 1536 051b 04       		.byte	0x4
 1537 051c 20050000 		.4byte	0x520
 1538 0520 13       		.uleb128 0x13
 1539 0521 01       		.byte	0x1
 1540 0522 D2000000 		.4byte	0xd2
 1541 0526 30050000 		.4byte	0x530
 1542 052a 0E       		.uleb128 0xe
 1543 052b 86020000 		.4byte	0x286
 1544 052f 00       		.byte	0
 1545 0530 14       		.uleb128 0x14
 1546 0531 01       		.byte	0x1
 1547 0532 F4020000 		.4byte	.LASF91
 1548 0536 01       		.byte	0x1
 1549 0537 45       		.byte	0x45
 1550 0538 01       		.byte	0x1
 1551 0539 48020000 		.4byte	0x248
 1552 053d 01       		.byte	0x1
 1553 053e 58050000 		.4byte	0x558
 1554 0542 15       		.uleb128 0x15
 1555 0543 747000   		.ascii	"tp\000"
 1556 0546 01       		.byte	0x1
 1557 0547 45       		.byte	0x45
 1558 0548 48020000 		.4byte	0x248
 1559 054c 16       		.uleb128 0x16
 1560 054d 15000000 		.4byte	.LASF73
 1561 0551 01       		.byte	0x1
 1562 0552 45       		.byte	0x45
 1563 0553 C7000000 		.4byte	0xc7
 1564 0557 00       		.byte	0
 1565 0558 17       		.uleb128 0x17
 1566 0559 BF000000 		.4byte	.LASF101
 1567 055d 02       		.byte	0x2
 1568 055e 4F       		.byte	0x4f
 1569 055f 01       		.byte	0x1
 1570 0560 48020000 		.4byte	0x248
 1571 0564 03       		.byte	0x3
 1572 0565 7F050000 		.4byte	0x57f
 1573 0569 15       		.uleb128 0x15
 1574 056a 746C7000 		.ascii	"tlp\000"
 1575 056e 02       		.byte	0x2
 1576 056f 4F       		.byte	0x4f
 1577 0570 7F050000 		.4byte	0x57f
 1578 0574 18       		.uleb128 0x18
 1579 0575 747000   		.ascii	"tp\000"
 1580 0578 02       		.byte	0x2
 1581 0579 51       		.byte	0x51
 1582 057a 48020000 		.4byte	0x248
 1583 057e 00       		.byte	0
 1584 057f 09       		.uleb128 0x9
ARM GAS  C:\Users\LAB_ME~1\AppData\Local\Temp\ccpqSPBc.s 			page 29


 1585 0580 04       		.byte	0x4
 1586 0581 70020000 		.4byte	0x270
 1587 0585 19       		.uleb128 0x19
 1588 0586 B7010000 		.4byte	.LASF102
 1589 058a 02       		.byte	0x2
 1590 058b 49       		.byte	0x49
 1591 058c 01       		.byte	0x1
 1592 058d 03       		.byte	0x3
 1593 058e A8050000 		.4byte	0x5a8
 1594 0592 15       		.uleb128 0x15
 1595 0593 747000   		.ascii	"tp\000"
 1596 0596 02       		.byte	0x2
 1597 0597 49       		.byte	0x49
 1598 0598 48020000 		.4byte	0x248
 1599 059c 15       		.uleb128 0x15
 1600 059d 746C7000 		.ascii	"tlp\000"
 1601 05a1 02       		.byte	0x2
 1602 05a2 49       		.byte	0x49
 1603 05a3 7F050000 		.4byte	0x57f
 1604 05a7 00       		.byte	0
 1605 05a8 1A       		.uleb128 0x1a
 1606 05a9 30050000 		.4byte	0x530
 1607 05ad 00000000 		.4byte	.LFB7
 1608 05b1 44000000 		.4byte	.LFE7
 1609 05b5 00000000 		.4byte	.LLST0
 1610 05b9 01       		.byte	0x1
 1611 05ba CF050000 		.4byte	0x5cf
 1612 05be 1B       		.uleb128 0x1b
 1613 05bf 42050000 		.4byte	0x542
 1614 05c3 01       		.byte	0x1
 1615 05c4 50       		.byte	0x50
 1616 05c5 1C       		.uleb128 0x1c
 1617 05c6 4C050000 		.4byte	0x54c
 1618 05ca 20000000 		.4byte	.LLST1
 1619 05ce 00       		.byte	0
 1620 05cf 1D       		.uleb128 0x1d
 1621 05d0 01       		.byte	0x1
 1622 05d1 98000000 		.4byte	.LASF75
 1623 05d5 01       		.byte	0x1
 1624 05d6 96       		.byte	0x96
 1625 05d7 01       		.byte	0x1
 1626 05d8 48020000 		.4byte	0x248
 1627 05dc 00000000 		.4byte	.LFB8
 1628 05e0 68000000 		.4byte	.LFE8
 1629 05e4 40000000 		.4byte	.LLST2
 1630 05e8 01       		.byte	0x1
 1631 05e9 5F060000 		.4byte	0x65f
 1632 05ed 1E       		.uleb128 0x1e
 1633 05ee 77737000 		.ascii	"wsp\000"
 1634 05f2 01       		.byte	0x1
 1635 05f3 96       		.byte	0x96
 1636 05f4 86020000 		.4byte	0x286
 1637 05f8 01       		.byte	0x1
 1638 05f9 50       		.byte	0x50
 1639 05fa 1F       		.uleb128 0x1f
 1640 05fb 35010000 		.4byte	.LASF74
 1641 05ff 01       		.byte	0x1
ARM GAS  C:\Users\LAB_ME~1\AppData\Local\Temp\ccpqSPBc.s 			page 30


 1642 0600 96       		.byte	0x96
 1643 0601 30000000 		.4byte	0x30
 1644 0605 60000000 		.4byte	.LLST3
 1645 0609 1F       		.uleb128 0x1f
 1646 060a 15000000 		.4byte	.LASF73
 1647 060e 01       		.byte	0x1
 1648 060f 97       		.byte	0x97
 1649 0610 C7000000 		.4byte	0xc7
 1650 0614 80000000 		.4byte	.LLST4
 1651 0618 20       		.uleb128 0x20
 1652 0619 706600   		.ascii	"pf\000"
 1653 061c 01       		.byte	0x1
 1654 061d 97       		.byte	0x97
 1655 061e 0F050000 		.4byte	0x50f
 1656 0622 9E000000 		.4byte	.LLST5
 1657 0626 1E       		.uleb128 0x1e
 1658 0627 61726700 		.ascii	"arg\000"
 1659 062b 01       		.byte	0x1
 1660 062c 97       		.byte	0x97
 1661 062d 86020000 		.4byte	0x286
 1662 0631 02       		.byte	0x2
 1663 0632 91       		.byte	0x91
 1664 0633 00       		.sleb128 0
 1665 0634 21       		.uleb128 0x21
 1666 0635 747000   		.ascii	"tp\000"
 1667 0638 01       		.byte	0x1
 1668 0639 99       		.byte	0x99
 1669 063a 48020000 		.4byte	0x248
 1670 063e 01       		.byte	0x1
 1671 063f 50       		.byte	0x50
 1672 0640 22       		.uleb128 0x22
 1673 0641 30050000 		.4byte	0x530
 1674 0645 06000000 		.4byte	.LBB10
 1675 0649 00000000 		.4byte	.Ldebug_ranges0+0
 1676 064d 01       		.byte	0x1
 1677 064e A1       		.byte	0xa1
 1678 064f 1B       		.uleb128 0x1b
 1679 0650 4C050000 		.4byte	0x54c
 1680 0654 01       		.byte	0x1
 1681 0655 58       		.byte	0x58
 1682 0656 1B       		.uleb128 0x1b
 1683 0657 42050000 		.4byte	0x542
 1684 065b 01       		.byte	0x1
 1685 065c 50       		.byte	0x50
 1686 065d 00       		.byte	0
 1687 065e 00       		.byte	0
 1688 065f 1D       		.uleb128 0x1d
 1689 0660 01       		.byte	0x1
 1690 0661 A5010000 		.4byte	.LASF76
 1691 0665 01       		.byte	0x1
 1692 0666 B4       		.byte	0xb4
 1693 0667 01       		.byte	0x1
 1694 0668 48020000 		.4byte	0x248
 1695 066c 00000000 		.4byte	.LFB9
 1696 0670 2A000000 		.4byte	.LFE9
 1697 0674 BD000000 		.4byte	.LLST6
 1698 0678 01       		.byte	0x1
ARM GAS  C:\Users\LAB_ME~1\AppData\Local\Temp\ccpqSPBc.s 			page 31


 1699 0679 55070000 		.4byte	0x755
 1700 067d 20       		.uleb128 0x20
 1701 067e 77737000 		.ascii	"wsp\000"
 1702 0682 01       		.byte	0x1
 1703 0683 B4       		.byte	0xb4
 1704 0684 86020000 		.4byte	0x286
 1705 0688 E9000000 		.4byte	.LLST7
 1706 068c 1F       		.uleb128 0x1f
 1707 068d 35010000 		.4byte	.LASF74
 1708 0691 01       		.byte	0x1
 1709 0692 B4       		.byte	0xb4
 1710 0693 30000000 		.4byte	0x30
 1711 0697 0A010000 		.4byte	.LLST8
 1712 069b 1F       		.uleb128 0x1f
 1713 069c 15000000 		.4byte	.LASF73
 1714 06a0 01       		.byte	0x1
 1715 06a1 B5       		.byte	0xb5
 1716 06a2 C7000000 		.4byte	0xc7
 1717 06a6 2B010000 		.4byte	.LLST9
 1718 06aa 20       		.uleb128 0x20
 1719 06ab 706600   		.ascii	"pf\000"
 1720 06ae 01       		.byte	0x1
 1721 06af B5       		.byte	0xb5
 1722 06b0 0F050000 		.4byte	0x50f
 1723 06b4 4C010000 		.4byte	.LLST10
 1724 06b8 1E       		.uleb128 0x1e
 1725 06b9 61726700 		.ascii	"arg\000"
 1726 06bd 01       		.byte	0x1
 1727 06be B5       		.byte	0xb5
 1728 06bf 86020000 		.4byte	0x286
 1729 06c3 02       		.byte	0x2
 1730 06c4 91       		.byte	0x91
 1731 06c5 00       		.sleb128 0
 1732 06c6 23       		.uleb128 0x23
 1733 06c7 747000   		.ascii	"tp\000"
 1734 06ca 01       		.byte	0x1
 1735 06cb B6       		.byte	0xb6
 1736 06cc 48020000 		.4byte	0x248
 1737 06d0 83010000 		.4byte	.LLST11
 1738 06d4 24       		.uleb128 0x24
 1739 06d5 06000000 		.4byte	.LBB20
 1740 06d9 0C000000 		.4byte	.LBE20
 1741 06dd F1060000 		.4byte	0x6f1
 1742 06e1 23       		.uleb128 0x23
 1743 06e2 746D7000 		.ascii	"tmp\000"
 1744 06e6 01       		.byte	0x1
 1745 06e7 C0       		.byte	0xc0
 1746 06e8 7B000000 		.4byte	0x7b
 1747 06ec A1010000 		.4byte	.LLST12
 1748 06f0 00       		.byte	0
 1749 06f1 24       		.uleb128 0x24
 1750 06f2 1E000000 		.4byte	.LBB21
 1751 06f6 24000000 		.4byte	.LBE21
 1752 06fa 0E070000 		.4byte	0x70e
 1753 06fe 23       		.uleb128 0x23
 1754 06ff 746D7000 		.ascii	"tmp\000"
 1755 0703 01       		.byte	0x1
ARM GAS  C:\Users\LAB_ME~1\AppData\Local\Temp\ccpqSPBc.s 			page 32


 1756 0704 C2       		.byte	0xc2
 1757 0705 7B000000 		.4byte	0x7b
 1758 0709 B4010000 		.4byte	.LLST13
 1759 070d 00       		.byte	0
 1760 070e 25       		.uleb128 0x25
 1761 070f 16000000 		.4byte	.LVL12
 1762 0713 CF050000 		.4byte	0x5cf
 1763 0717 3F070000 		.4byte	0x73f
 1764 071b 26       		.uleb128 0x26
 1765 071c 01       		.byte	0x1
 1766 071d 53       		.byte	0x53
 1767 071e 03       		.byte	0x3
 1768 071f F3       		.byte	0xf3
 1769 0720 01       		.uleb128 0x1
 1770 0721 53       		.byte	0x53
 1771 0722 26       		.uleb128 0x26
 1772 0723 01       		.byte	0x1
 1773 0724 52       		.byte	0x52
 1774 0725 03       		.byte	0x3
 1775 0726 F3       		.byte	0xf3
 1776 0727 01       		.uleb128 0x1
 1777 0728 52       		.byte	0x52
 1778 0729 26       		.uleb128 0x26
 1779 072a 01       		.byte	0x1
 1780 072b 51       		.byte	0x51
 1781 072c 03       		.byte	0x3
 1782 072d F3       		.byte	0xf3
 1783 072e 01       		.uleb128 0x1
 1784 072f 51       		.byte	0x51
 1785 0730 26       		.uleb128 0x26
 1786 0731 01       		.byte	0x1
 1787 0732 50       		.byte	0x50
 1788 0733 03       		.byte	0x3
 1789 0734 F3       		.byte	0xf3
 1790 0735 01       		.uleb128 0x1
 1791 0736 50       		.byte	0x50
 1792 0737 26       		.uleb128 0x26
 1793 0738 02       		.byte	0x2
 1794 0739 7D       		.byte	0x7d
 1795 073a 00       		.sleb128 0
 1796 073b 02       		.byte	0x2
 1797 073c 74       		.byte	0x74
 1798 073d 00       		.sleb128 0
 1799 073e 00       		.byte	0
 1800 073f 27       		.uleb128 0x27
 1801 0740 1E000000 		.4byte	.LVL14
 1802 0744 BC0B0000 		.4byte	0xbbc
 1803 0748 26       		.uleb128 0x26
 1804 0749 01       		.byte	0x1
 1805 074a 51       		.byte	0x51
 1806 074b 01       		.byte	0x1
 1807 074c 30       		.byte	0x30
 1808 074d 26       		.uleb128 0x26
 1809 074e 01       		.byte	0x1
 1810 074f 50       		.byte	0x50
 1811 0750 02       		.byte	0x2
 1812 0751 74       		.byte	0x74
ARM GAS  C:\Users\LAB_ME~1\AppData\Local\Temp\ccpqSPBc.s 			page 33


 1813 0752 00       		.sleb128 0
 1814 0753 00       		.byte	0
 1815 0754 00       		.byte	0
 1816 0755 1D       		.uleb128 0x1d
 1817 0756 01       		.byte	0x1
 1818 0757 F5000000 		.4byte	.LASF77
 1819 075b 01       		.byte	0x1
 1820 075c D2       		.byte	0xd2
 1821 075d 01       		.byte	0x1
 1822 075e C7000000 		.4byte	0xc7
 1823 0762 00000000 		.4byte	.LFB10
 1824 0766 30000000 		.4byte	.LFE10
 1825 076a C7010000 		.4byte	.LLST14
 1826 076e 01       		.byte	0x1
 1827 076f D3070000 		.4byte	0x7d3
 1828 0773 1F       		.uleb128 0x1f
 1829 0774 60010000 		.4byte	.LASF78
 1830 0778 01       		.byte	0x1
 1831 0779 D2       		.byte	0xd2
 1832 077a C7000000 		.4byte	0xc7
 1833 077e E7010000 		.4byte	.LLST15
 1834 0782 28       		.uleb128 0x28
 1835 0783 9D010000 		.4byte	.LASF79
 1836 0787 01       		.byte	0x1
 1837 0788 D3       		.byte	0xd3
 1838 0789 C7000000 		.4byte	0xc7
 1839 078d 01       		.byte	0x1
 1840 078e 54       		.byte	0x54
 1841 078f 24       		.uleb128 0x24
 1842 0790 02000000 		.4byte	.LBB22
 1843 0794 08000000 		.4byte	.LBE22
 1844 0798 AC070000 		.4byte	0x7ac
 1845 079c 23       		.uleb128 0x23
 1846 079d 746D7000 		.ascii	"tmp\000"
 1847 07a1 01       		.byte	0x1
 1848 07a2 D7       		.byte	0xd7
 1849 07a3 7B000000 		.4byte	0x7b
 1850 07a7 08020000 		.4byte	.LLST16
 1851 07ab 00       		.byte	0
 1852 07ac 24       		.uleb128 0x24
 1853 07ad 20000000 		.4byte	.LBB23
 1854 07b1 26000000 		.4byte	.LBE23
 1855 07b5 C9070000 		.4byte	0x7c9
 1856 07b9 23       		.uleb128 0x23
 1857 07ba 746D7000 		.ascii	"tmp\000"
 1858 07be 01       		.byte	0x1
 1859 07bf E2       		.byte	0xe2
 1860 07c0 7B000000 		.4byte	0x7b
 1861 07c4 1B020000 		.4byte	.LLST17
 1862 07c8 00       		.byte	0
 1863 07c9 29       		.uleb128 0x29
 1864 07ca 20000000 		.4byte	.LVL22
 1865 07ce D50B0000 		.4byte	0xbd5
 1866 07d2 00       		.byte	0
 1867 07d3 1D       		.uleb128 0x1d
 1868 07d4 01       		.byte	0x1
 1869 07d5 DC010000 		.4byte	.LASF80
ARM GAS  C:\Users\LAB_ME~1\AppData\Local\Temp\ccpqSPBc.s 			page 34


 1870 07d9 01       		.byte	0x1
 1871 07da F3       		.byte	0xf3
 1872 07db 01       		.byte	0x1
 1873 07dc 48020000 		.4byte	0x248
 1874 07e0 00000000 		.4byte	.LFB11
 1875 07e4 1A000000 		.4byte	.LFE11
 1876 07e8 2E020000 		.4byte	.LLST18
 1877 07ec 01       		.byte	0x1
 1878 07ed 4B080000 		.4byte	0x84b
 1879 07f1 20       		.uleb128 0x20
 1880 07f2 747000   		.ascii	"tp\000"
 1881 07f5 01       		.byte	0x1
 1882 07f6 F3       		.byte	0xf3
 1883 07f7 48020000 		.4byte	0x248
 1884 07fb 4E020000 		.4byte	.LLST19
 1885 07ff 2A       		.uleb128 0x2a
 1886 0800 30000000 		.4byte	.Ldebug_ranges0+0x30
 1887 0804 18080000 		.4byte	0x818
 1888 0808 23       		.uleb128 0x23
 1889 0809 746D7000 		.ascii	"tmp\000"
 1890 080d 01       		.byte	0x1
 1891 080e F5       		.byte	0xf5
 1892 080f 7B000000 		.4byte	0x7b
 1893 0813 6C020000 		.4byte	.LLST20
 1894 0817 00       		.byte	0
 1895 0818 24       		.uleb128 0x24
 1896 0819 10000000 		.4byte	.LBB26
 1897 081d 16000000 		.4byte	.LBE26
 1898 0821 35080000 		.4byte	0x835
 1899 0825 23       		.uleb128 0x23
 1900 0826 746D7000 		.ascii	"tmp\000"
 1901 082a 01       		.byte	0x1
 1902 082b FA       		.byte	0xfa
 1903 082c 7B000000 		.4byte	0x7b
 1904 0830 7F020000 		.4byte	.LLST21
 1905 0834 00       		.byte	0
 1906 0835 27       		.uleb128 0x27
 1907 0836 10000000 		.4byte	.LVL28
 1908 083a BC0B0000 		.4byte	0xbbc
 1909 083e 26       		.uleb128 0x26
 1910 083f 01       		.byte	0x1
 1911 0840 51       		.byte	0x51
 1912 0841 01       		.byte	0x1
 1913 0842 30       		.byte	0x30
 1914 0843 26       		.uleb128 0x26
 1915 0844 01       		.byte	0x1
 1916 0845 50       		.byte	0x50
 1917 0846 02       		.byte	0x2
 1918 0847 74       		.byte	0x74
 1919 0848 00       		.sleb128 0
 1920 0849 00       		.byte	0
 1921 084a 00       		.byte	0
 1922 084b 2B       		.uleb128 0x2b
 1923 084c 01       		.byte	0x1
 1924 084d 70010000 		.4byte	.LASF81
 1925 0851 01       		.byte	0x1
 1926 0852 0A01     		.2byte	0x10a
ARM GAS  C:\Users\LAB_ME~1\AppData\Local\Temp\ccpqSPBc.s 			page 35


 1927 0854 01       		.byte	0x1
 1928 0855 00000000 		.4byte	.LFB12
 1929 0859 16000000 		.4byte	.LFE12
 1930 085d 02       		.byte	0x2
 1931 085e 7D       		.byte	0x7d
 1932 085f 00       		.sleb128 0
 1933 0860 01       		.byte	0x1
 1934 0861 AB080000 		.4byte	0x8ab
 1935 0865 2C       		.uleb128 0x2c
 1936 0866 747000   		.ascii	"tp\000"
 1937 0869 01       		.byte	0x1
 1938 086a 0A01     		.2byte	0x10a
 1939 086c 48020000 		.4byte	0x248
 1940 0870 01       		.byte	0x1
 1941 0871 50       		.byte	0x50
 1942 0872 24       		.uleb128 0x24
 1943 0873 00000000 		.4byte	.LBB27
 1944 0877 06000000 		.4byte	.LBE27
 1945 087b 90080000 		.4byte	0x890
 1946 087f 2D       		.uleb128 0x2d
 1947 0880 746D7000 		.ascii	"tmp\000"
 1948 0884 01       		.byte	0x1
 1949 0885 0C01     		.2byte	0x10c
 1950 0887 7B000000 		.4byte	0x7b
 1951 088b 92020000 		.4byte	.LLST22
 1952 088f 00       		.byte	0
 1953 0890 2E       		.uleb128 0x2e
 1954 0891 0E000000 		.4byte	.LBB28
 1955 0895 16000000 		.4byte	.LBE28
 1956 0899 2D       		.uleb128 0x2d
 1957 089a 746D7000 		.ascii	"tmp\000"
 1958 089e 01       		.byte	0x1
 1959 089f 0E01     		.2byte	0x10e
 1960 08a1 7B000000 		.4byte	0x7b
 1961 08a5 A5020000 		.4byte	.LLST23
 1962 08a9 00       		.byte	0
 1963 08aa 00       		.byte	0
 1964 08ab 2F       		.uleb128 0x2f
 1965 08ac 01       		.byte	0x1
 1966 08ad 81030000 		.4byte	.LASF82
 1967 08b1 01       		.byte	0x1
 1968 08b2 1D01     		.2byte	0x11d
 1969 08b4 01       		.byte	0x1
 1970 08b5 00000000 		.4byte	.LFB13
 1971 08b9 18000000 		.4byte	.LFE13
 1972 08bd B8020000 		.4byte	.LLST24
 1973 08c1 01       		.byte	0x1
 1974 08c2 29090000 		.4byte	0x929
 1975 08c6 30       		.uleb128 0x30
 1976 08c7 1B020000 		.4byte	.LASF83
 1977 08cb 01       		.byte	0x1
 1978 08cc 1D01     		.2byte	0x11d
 1979 08ce E8000000 		.4byte	0xe8
 1980 08d2 D8020000 		.4byte	.LLST25
 1981 08d6 24       		.uleb128 0x24
 1982 08d7 04000000 		.4byte	.LBB29
 1983 08db 0A000000 		.4byte	.LBE29
ARM GAS  C:\Users\LAB_ME~1\AppData\Local\Temp\ccpqSPBc.s 			page 36


 1984 08df F4080000 		.4byte	0x8f4
 1985 08e3 2D       		.uleb128 0x2d
 1986 08e4 746D7000 		.ascii	"tmp\000"
 1987 08e8 01       		.byte	0x1
 1988 08e9 2101     		.2byte	0x121
 1989 08eb 7B000000 		.4byte	0x7b
 1990 08ef 04030000 		.4byte	.LLST26
 1991 08f3 00       		.byte	0
 1992 08f4 24       		.uleb128 0x24
 1993 08f5 10000000 		.4byte	.LBB30
 1994 08f9 18000000 		.4byte	.LBE30
 1995 08fd 12090000 		.4byte	0x912
 1996 0901 2D       		.uleb128 0x2d
 1997 0902 746D7000 		.ascii	"tmp\000"
 1998 0906 01       		.byte	0x1
 1999 0907 2301     		.2byte	0x123
 2000 0909 7B000000 		.4byte	0x7b
 2001 090d 17030000 		.4byte	.LLST27
 2002 0911 00       		.byte	0
 2003 0912 27       		.uleb128 0x27
 2004 0913 10000000 		.4byte	.LVL41
 2005 0917 DF0B0000 		.4byte	0xbdf
 2006 091b 26       		.uleb128 0x26
 2007 091c 01       		.byte	0x1
 2008 091d 51       		.byte	0x51
 2009 091e 03       		.byte	0x3
 2010 091f F3       		.byte	0xf3
 2011 0920 01       		.uleb128 0x1
 2012 0921 50       		.byte	0x50
 2013 0922 26       		.uleb128 0x26
 2014 0923 01       		.byte	0x1
 2015 0924 50       		.byte	0x50
 2016 0925 01       		.byte	0x1
 2017 0926 36       		.byte	0x36
 2018 0927 00       		.byte	0
 2019 0928 00       		.byte	0
 2020 0929 2F       		.uleb128 0x2f
 2021 092a 01       		.byte	0x1
 2022 092b 3E020000 		.4byte	.LASF84
 2023 092f 01       		.byte	0x1
 2024 0930 2E01     		.2byte	0x12e
 2025 0932 01       		.byte	0x1
 2026 0933 00000000 		.4byte	.LFB14
 2027 0937 24000000 		.4byte	.LFE14
 2028 093b 2A030000 		.4byte	.LLST28
 2029 093f 01       		.byte	0x1
 2030 0940 A0090000 		.4byte	0x9a0
 2031 0944 30       		.uleb128 0x30
 2032 0945 1B020000 		.4byte	.LASF83
 2033 0949 01       		.byte	0x1
 2034 094a 2E01     		.2byte	0x12e
 2035 094c E8000000 		.4byte	0xe8
 2036 0950 4A030000 		.4byte	.LLST29
 2037 0954 24       		.uleb128 0x24
 2038 0955 02000000 		.4byte	.LBB31
 2039 0959 08000000 		.4byte	.LBE31
 2040 095d 72090000 		.4byte	0x972
ARM GAS  C:\Users\LAB_ME~1\AppData\Local\Temp\ccpqSPBc.s 			page 37


 2041 0961 2D       		.uleb128 0x2d
 2042 0962 746D7000 		.ascii	"tmp\000"
 2043 0966 01       		.byte	0x1
 2044 0967 3001     		.2byte	0x130
 2045 0969 7B000000 		.4byte	0x7b
 2046 096d 78030000 		.4byte	.LLST30
 2047 0971 00       		.byte	0
 2048 0972 24       		.uleb128 0x24
 2049 0973 16000000 		.4byte	.LBB32
 2050 0977 24000000 		.4byte	.LBE32
 2051 097b 90090000 		.4byte	0x990
 2052 097f 2D       		.uleb128 0x2d
 2053 0980 746D7000 		.ascii	"tmp\000"
 2054 0984 01       		.byte	0x1
 2055 0985 3301     		.2byte	0x133
 2056 0987 7B000000 		.4byte	0x7b
 2057 098b 8B030000 		.4byte	.LLST31
 2058 098f 00       		.byte	0
 2059 0990 27       		.uleb128 0x27
 2060 0991 16000000 		.4byte	.LVL50
 2061 0995 DF0B0000 		.4byte	0xbdf
 2062 0999 26       		.uleb128 0x26
 2063 099a 01       		.byte	0x1
 2064 099b 50       		.byte	0x50
 2065 099c 01       		.byte	0x1
 2066 099d 36       		.byte	0x36
 2067 099e 00       		.byte	0
 2068 099f 00       		.byte	0
 2069 09a0 2F       		.uleb128 0x2f
 2070 09a1 01       		.byte	0x1
 2071 09a2 4C030000 		.4byte	.LASF85
 2072 09a6 01       		.byte	0x1
 2073 09a7 3D01     		.2byte	0x13d
 2074 09a9 01       		.byte	0x1
 2075 09aa 00000000 		.4byte	.LFB15
 2076 09ae 28000000 		.4byte	.LFE15
 2077 09b2 9E030000 		.4byte	.LLST32
 2078 09b6 01       		.byte	0x1
 2079 09b7 010A0000 		.4byte	0xa01
 2080 09bb 24       		.uleb128 0x24
 2081 09bc 02000000 		.4byte	.LBB33
 2082 09c0 08000000 		.4byte	.LBE33
 2083 09c4 D9090000 		.4byte	0x9d9
 2084 09c8 2D       		.uleb128 0x2d
 2085 09c9 746D7000 		.ascii	"tmp\000"
 2086 09cd 01       		.byte	0x1
 2087 09ce 3F01     		.2byte	0x13f
 2088 09d0 7B000000 		.4byte	0x7b
 2089 09d4 BE030000 		.4byte	.LLST33
 2090 09d8 00       		.byte	0
 2091 09d9 24       		.uleb128 0x24
 2092 09da 1A000000 		.4byte	.LBB34
 2093 09de 28000000 		.4byte	.LBE34
 2094 09e2 F7090000 		.4byte	0x9f7
 2095 09e6 2D       		.uleb128 0x2d
 2096 09e7 746D7000 		.ascii	"tmp\000"
 2097 09eb 01       		.byte	0x1
ARM GAS  C:\Users\LAB_ME~1\AppData\Local\Temp\ccpqSPBc.s 			page 38


 2098 09ec 4101     		.2byte	0x141
 2099 09ee 7B000000 		.4byte	0x7b
 2100 09f2 D1030000 		.4byte	.LLST34
 2101 09f6 00       		.byte	0
 2102 09f7 29       		.uleb128 0x29
 2103 09f8 1A000000 		.4byte	.LVL56
 2104 09fc FC0B0000 		.4byte	0xbfc
 2105 0a00 00       		.byte	0
 2106 0a01 2F       		.uleb128 0x2f
 2107 0a02 01       		.byte	0x1
 2108 0a03 28000000 		.4byte	.LASF86
 2109 0a07 01       		.byte	0x1
 2110 0a08 6701     		.2byte	0x167
 2111 0a0a 01       		.byte	0x1
 2112 0a0b 00000000 		.4byte	.LFB17
 2113 0a0f 40000000 		.4byte	.LFE17
 2114 0a13 E4030000 		.4byte	.LLST35
 2115 0a17 01       		.byte	0x1
 2116 0a18 840A0000 		.4byte	0xa84
 2117 0a1c 31       		.uleb128 0x31
 2118 0a1d 6D736700 		.ascii	"msg\000"
 2119 0a21 01       		.byte	0x1
 2120 0a22 6701     		.2byte	0x167
 2121 0a24 D2000000 		.4byte	0xd2
 2122 0a28 04040000 		.4byte	.LLST36
 2123 0a2c 32       		.uleb128 0x32
 2124 0a2d 747000   		.ascii	"tp\000"
 2125 0a30 01       		.byte	0x1
 2126 0a31 6801     		.2byte	0x168
 2127 0a33 48020000 		.4byte	0x248
 2128 0a37 01       		.byte	0x1
 2129 0a38 54       		.byte	0x54
 2130 0a39 33       		.uleb128 0x33
 2131 0a3a 58050000 		.4byte	0x558
 2132 0a3e 12000000 		.4byte	.LBB35
 2133 0a42 16000000 		.4byte	.LBE35
 2134 0a46 01       		.byte	0x1
 2135 0a47 7001     		.2byte	0x170
 2136 0a49 6A0A0000 		.4byte	0xa6a
 2137 0a4d 1C       		.uleb128 0x1c
 2138 0a4e 69050000 		.4byte	0x569
 2139 0a52 31040000 		.4byte	.LLST37
 2140 0a56 2E       		.uleb128 0x2e
 2141 0a57 12000000 		.4byte	.LBB36
 2142 0a5b 16000000 		.4byte	.LBE36
 2143 0a5f 34       		.uleb128 0x34
 2144 0a60 74050000 		.4byte	0x574
 2145 0a64 46040000 		.4byte	.LLST38
 2146 0a68 00       		.byte	0
 2147 0a69 00       		.byte	0
 2148 0a6a 29       		.uleb128 0x29
 2149 0a6b 1A000000 		.4byte	.LVL63
 2150 0a6f 060C0000 		.4byte	0xc06
 2151 0a73 35       		.uleb128 0x35
 2152 0a74 3A000000 		.4byte	.LVL65
 2153 0a78 01       		.byte	0x1
 2154 0a79 1E0C0000 		.4byte	0xc1e
ARM GAS  C:\Users\LAB_ME~1\AppData\Local\Temp\ccpqSPBc.s 			page 39


 2155 0a7d 26       		.uleb128 0x26
 2156 0a7e 01       		.byte	0x1
 2157 0a7f 50       		.byte	0x50
 2158 0a80 01       		.byte	0x1
 2159 0a81 3E       		.byte	0x3e
 2160 0a82 00       		.byte	0
 2161 0a83 00       		.byte	0
 2162 0a84 2B       		.uleb128 0x2b
 2163 0a85 01       		.byte	0x1
 2164 0a86 74000000 		.4byte	.LASF87
 2165 0a8a 01       		.byte	0x1
 2166 0a8b 5201     		.2byte	0x152
 2167 0a8d 01       		.byte	0x1
 2168 0a8e 00000000 		.4byte	.LFB16
 2169 0a92 0A000000 		.4byte	.LFE16
 2170 0a96 02       		.byte	0x2
 2171 0a97 7D       		.byte	0x7d
 2172 0a98 00       		.sleb128 0
 2173 0a99 01       		.byte	0x1
 2174 0a9a DF0A0000 		.4byte	0xadf
 2175 0a9e 31       		.uleb128 0x31
 2176 0a9f 6D736700 		.ascii	"msg\000"
 2177 0aa3 01       		.byte	0x1
 2178 0aa4 5201     		.2byte	0x152
 2179 0aa6 D2000000 		.4byte	0xd2
 2180 0aaa 59040000 		.4byte	.LLST39
 2181 0aae 24       		.uleb128 0x24
 2182 0aaf 00000000 		.4byte	.LBB37
 2183 0ab3 06000000 		.4byte	.LBE37
 2184 0ab7 CC0A0000 		.4byte	0xacc
 2185 0abb 2D       		.uleb128 0x2d
 2186 0abc 746D7000 		.ascii	"tmp\000"
 2187 0ac0 01       		.byte	0x1
 2188 0ac1 5401     		.2byte	0x154
 2189 0ac3 7B000000 		.4byte	0x7b
 2190 0ac7 7A040000 		.4byte	.LLST40
 2191 0acb 00       		.byte	0
 2192 0acc 35       		.uleb128 0x35
 2193 0acd 0A000000 		.4byte	.LVL69
 2194 0ad1 01       		.byte	0x1
 2195 0ad2 010A0000 		.4byte	0xa01
 2196 0ad6 26       		.uleb128 0x26
 2197 0ad7 01       		.byte	0x1
 2198 0ad8 50       		.byte	0x50
 2199 0ad9 03       		.byte	0x3
 2200 0ada F3       		.byte	0xf3
 2201 0adb 01       		.uleb128 0x1
 2202 0adc 50       		.byte	0x50
 2203 0add 00       		.byte	0
 2204 0ade 00       		.byte	0
 2205 0adf 36       		.uleb128 0x36
 2206 0ae0 01       		.byte	0x1
 2207 0ae1 70030000 		.4byte	.LASF88
 2208 0ae5 01       		.byte	0x1
 2209 0ae6 9D01     		.2byte	0x19d
 2210 0ae8 01       		.byte	0x1
 2211 0ae9 D2000000 		.4byte	0xd2
ARM GAS  C:\Users\LAB_ME~1\AppData\Local\Temp\ccpqSPBc.s 			page 40


 2212 0aed 00000000 		.4byte	.LFB18
 2213 0af1 38000000 		.4byte	.LFE18
 2214 0af5 8D040000 		.4byte	.LLST41
 2215 0af9 01       		.byte	0x1
 2216 0afa A20B0000 		.4byte	0xba2
 2217 0afe 31       		.uleb128 0x31
 2218 0aff 747000   		.ascii	"tp\000"
 2219 0b02 01       		.byte	0x1
 2220 0b03 9D01     		.2byte	0x19d
 2221 0b05 48020000 		.4byte	0x248
 2222 0b09 AD040000 		.4byte	.LLST42
 2223 0b0d 32       		.uleb128 0x32
 2224 0b0e 6D736700 		.ascii	"msg\000"
 2225 0b12 01       		.byte	0x1
 2226 0b13 9E01     		.2byte	0x19e
 2227 0b15 D2000000 		.4byte	0xd2
 2228 0b19 01       		.byte	0x1
 2229 0b1a 55       		.byte	0x55
 2230 0b1b 24       		.uleb128 0x24
 2231 0b1c 04000000 		.4byte	.LBB38
 2232 0b20 0A000000 		.4byte	.LBE38
 2233 0b24 390B0000 		.4byte	0xb39
 2234 0b28 2D       		.uleb128 0x2d
 2235 0b29 746D7000 		.ascii	"tmp\000"
 2236 0b2d 01       		.byte	0x1
 2237 0b2e A201     		.2byte	0x1a2
 2238 0b30 7B000000 		.4byte	0x7b
 2239 0b34 CB040000 		.4byte	.LLST43
 2240 0b38 00       		.byte	0
 2241 0b39 37       		.uleb128 0x37
 2242 0b3a 85050000 		.4byte	0x585
 2243 0b3e 12000000 		.4byte	.LBB39
 2244 0b42 48000000 		.4byte	.Ldebug_ranges0+0x48
 2245 0b46 01       		.byte	0x1
 2246 0b47 A801     		.2byte	0x1a8
 2247 0b49 600B0000 		.4byte	0xb60
 2248 0b4d 1C       		.uleb128 0x1c
 2249 0b4e 9C050000 		.4byte	0x59c
 2250 0b52 DE040000 		.4byte	.LLST44
 2251 0b56 1C       		.uleb128 0x1c
 2252 0b57 92050000 		.4byte	0x592
 2253 0b5b 00050000 		.4byte	.LLST45
 2254 0b5f 00       		.byte	0
 2255 0b60 24       		.uleb128 0x24
 2256 0b61 22000000 		.4byte	.LBB43
 2257 0b65 28000000 		.4byte	.LBE43
 2258 0b69 7E0B0000 		.4byte	0xb7e
 2259 0b6d 2D       		.uleb128 0x2d
 2260 0b6e 746D7000 		.ascii	"tmp\000"
 2261 0b72 01       		.byte	0x1
 2262 0b73 AC01     		.2byte	0x1ac
 2263 0b75 7B000000 		.4byte	0x7b
 2264 0b79 13050000 		.4byte	.LLST46
 2265 0b7d 00       		.byte	0
 2266 0b7e 25       		.uleb128 0x25
 2267 0b7f 20000000 		.4byte	.LVL76
 2268 0b83 1E0C0000 		.4byte	0xc1e
ARM GAS  C:\Users\LAB_ME~1\AppData\Local\Temp\ccpqSPBc.s 			page 41


 2269 0b87 910B0000 		.4byte	0xb91
 2270 0b8b 26       		.uleb128 0x26
 2271 0b8c 01       		.byte	0x1
 2272 0b8d 50       		.byte	0x50
 2273 0b8e 01       		.byte	0x1
 2274 0b8f 37       		.byte	0x37
 2275 0b90 00       		.byte	0
 2276 0b91 27       		.uleb128 0x27
 2277 0b92 2E000000 		.4byte	.LVL80
 2278 0b96 320C0000 		.4byte	0xc32
 2279 0b9a 26       		.uleb128 0x26
 2280 0b9b 01       		.byte	0x1
 2281 0b9c 50       		.byte	0x50
 2282 0b9d 02       		.byte	0x2
 2283 0b9e 74       		.byte	0x74
 2284 0b9f 00       		.sleb128 0
 2285 0ba0 00       		.byte	0
 2286 0ba1 00       		.byte	0
 2287 0ba2 38       		.uleb128 0x38
 2288 0ba3 21000000 		.4byte	.LASF89
 2289 0ba7 09       		.byte	0x9
 2290 0ba8 D1       		.byte	0xd1
 2291 0ba9 07040000 		.4byte	0x407
 2292 0bad 01       		.byte	0x1
 2293 0bae 01       		.byte	0x1
 2294 0baf 38       		.uleb128 0x38
 2295 0bb0 9D030000 		.4byte	.LASF90
 2296 0bb4 0A       		.byte	0xa
 2297 0bb5 68       		.byte	0x68
 2298 0bb6 6F040000 		.4byte	0x46f
 2299 0bba 01       		.byte	0x1
 2300 0bbb 01       		.byte	0x1
 2301 0bbc 39       		.uleb128 0x39
 2302 0bbd 01       		.byte	0x1
 2303 0bbe 4D010000 		.4byte	.LASF96
 2304 0bc2 0A       		.byte	0xa
 2305 0bc3 92       		.byte	0x92
 2306 0bc4 01       		.byte	0x1
 2307 0bc5 01       		.byte	0x1
 2308 0bc6 D50B0000 		.4byte	0xbd5
 2309 0bca 0E       		.uleb128 0xe
 2310 0bcb 48020000 		.4byte	0x248
 2311 0bcf 0E       		.uleb128 0xe
 2312 0bd0 D2000000 		.4byte	0xd2
 2313 0bd4 00       		.byte	0
 2314 0bd5 3A       		.uleb128 0x3a
 2315 0bd6 01       		.byte	0x1
 2316 0bd7 CB000000 		.4byte	.LASF93
 2317 0bdb 0A       		.byte	0xa
 2318 0bdc 95       		.byte	0x95
 2319 0bdd 01       		.byte	0x1
 2320 0bde 01       		.byte	0x1
 2321 0bdf 3B       		.uleb128 0x3b
 2322 0be0 01       		.byte	0x1
 2323 0be1 E4030000 		.4byte	.LASF92
 2324 0be5 0A       		.byte	0xa
 2325 0be6 8F       		.byte	0x8f
ARM GAS  C:\Users\LAB_ME~1\AppData\Local\Temp\ccpqSPBc.s 			page 42


 2326 0be7 01       		.byte	0x1
 2327 0be8 D2000000 		.4byte	0xd2
 2328 0bec 01       		.byte	0x1
 2329 0bed FC0B0000 		.4byte	0xbfc
 2330 0bf1 0E       		.uleb128 0xe
 2331 0bf2 A6000000 		.4byte	0xa6
 2332 0bf6 0E       		.uleb128 0xe
 2333 0bf7 E8000000 		.4byte	0xe8
 2334 0bfb 00       		.byte	0
 2335 0bfc 3A       		.uleb128 0x3a
 2336 0bfd 01       		.byte	0x1
 2337 0bfe E8010000 		.4byte	.LASF94
 2338 0c02 0A       		.byte	0xa
 2339 0c03 9B       		.byte	0x9b
 2340 0c04 01       		.byte	0x1
 2341 0c05 01       		.byte	0x1
 2342 0c06 3B       		.uleb128 0x3b
 2343 0c07 01       		.byte	0x1
 2344 0c08 1B030000 		.4byte	.LASF95
 2345 0c0c 0A       		.byte	0xa
 2346 0c0d 89       		.byte	0x89
 2347 0c0e 01       		.byte	0x1
 2348 0c0f 48020000 		.4byte	0x248
 2349 0c13 01       		.byte	0x1
 2350 0c14 1E0C0000 		.4byte	0xc1e
 2351 0c18 0E       		.uleb128 0xe
 2352 0c19 48020000 		.4byte	0x248
 2353 0c1d 00       		.byte	0
 2354 0c1e 39       		.uleb128 0x39
 2355 0c1f 01       		.byte	0x1
 2356 0c20 D2020000 		.4byte	.LASF97
 2357 0c24 0A       		.byte	0xa
 2358 0c25 8C       		.byte	0x8c
 2359 0c26 01       		.byte	0x1
 2360 0c27 01       		.byte	0x1
 2361 0c28 320C0000 		.4byte	0xc32
 2362 0c2c 0E       		.uleb128 0xe
 2363 0c2d A6000000 		.4byte	0xa6
 2364 0c31 00       		.byte	0
 2365 0c32 3C       		.uleb128 0x3c
 2366 0c33 01       		.byte	0x1
 2367 0c34 BE020000 		.4byte	.LASF103
 2368 0c38 0C       		.byte	0xc
 2369 0c39 33       		.byte	0x33
 2370 0c3a 01       		.byte	0x1
 2371 0c3b 01       		.byte	0x1
 2372 0c3c 0E       		.uleb128 0xe
 2373 0c3d 48020000 		.4byte	0x248
 2374 0c41 00       		.byte	0
 2375 0c42 00       		.byte	0
 2376              		.section	.debug_abbrev,"",%progbits
 2377              	.Ldebug_abbrev0:
 2378 0000 01       		.uleb128 0x1
 2379 0001 11       		.uleb128 0x11
 2380 0002 01       		.byte	0x1
 2381 0003 25       		.uleb128 0x25
 2382 0004 0E       		.uleb128 0xe
ARM GAS  C:\Users\LAB_ME~1\AppData\Local\Temp\ccpqSPBc.s 			page 43


 2383 0005 13       		.uleb128 0x13
 2384 0006 0B       		.uleb128 0xb
 2385 0007 03       		.uleb128 0x3
 2386 0008 0E       		.uleb128 0xe
 2387 0009 1B       		.uleb128 0x1b
 2388 000a 0E       		.uleb128 0xe
 2389 000b 55       		.uleb128 0x55
 2390 000c 06       		.uleb128 0x6
 2391 000d 11       		.uleb128 0x11
 2392 000e 01       		.uleb128 0x1
 2393 000f 52       		.uleb128 0x52
 2394 0010 01       		.uleb128 0x1
 2395 0011 10       		.uleb128 0x10
 2396 0012 06       		.uleb128 0x6
 2397 0013 00       		.byte	0
 2398 0014 00       		.byte	0
 2399 0015 02       		.uleb128 0x2
 2400 0016 24       		.uleb128 0x24
 2401 0017 00       		.byte	0
 2402 0018 0B       		.uleb128 0xb
 2403 0019 0B       		.uleb128 0xb
 2404 001a 3E       		.uleb128 0x3e
 2405 001b 0B       		.uleb128 0xb
 2406 001c 03       		.uleb128 0x3
 2407 001d 08       		.uleb128 0x8
 2408 001e 00       		.byte	0
 2409 001f 00       		.byte	0
 2410 0020 03       		.uleb128 0x3
 2411 0021 16       		.uleb128 0x16
 2412 0022 00       		.byte	0
 2413 0023 03       		.uleb128 0x3
 2414 0024 0E       		.uleb128 0xe
 2415 0025 3A       		.uleb128 0x3a
 2416 0026 0B       		.uleb128 0xb
 2417 0027 3B       		.uleb128 0x3b
 2418 0028 0B       		.uleb128 0xb
 2419 0029 49       		.uleb128 0x49
 2420 002a 13       		.uleb128 0x13
 2421 002b 00       		.byte	0
 2422 002c 00       		.byte	0
 2423 002d 04       		.uleb128 0x4
 2424 002e 24       		.uleb128 0x24
 2425 002f 00       		.byte	0
 2426 0030 0B       		.uleb128 0xb
 2427 0031 0B       		.uleb128 0xb
 2428 0032 3E       		.uleb128 0x3e
 2429 0033 0B       		.uleb128 0xb
 2430 0034 03       		.uleb128 0x3
 2431 0035 0E       		.uleb128 0xe
 2432 0036 00       		.byte	0
 2433 0037 00       		.byte	0
 2434 0038 05       		.uleb128 0x5
 2435 0039 13       		.uleb128 0x13
 2436 003a 01       		.byte	0x1
 2437 003b 03       		.uleb128 0x3
 2438 003c 0E       		.uleb128 0xe
 2439 003d 0B       		.uleb128 0xb
ARM GAS  C:\Users\LAB_ME~1\AppData\Local\Temp\ccpqSPBc.s 			page 44


 2440 003e 0B       		.uleb128 0xb
 2441 003f 3A       		.uleb128 0x3a
 2442 0040 0B       		.uleb128 0xb
 2443 0041 3B       		.uleb128 0x3b
 2444 0042 0B       		.uleb128 0xb
 2445 0043 01       		.uleb128 0x1
 2446 0044 13       		.uleb128 0x13
 2447 0045 00       		.byte	0
 2448 0046 00       		.byte	0
 2449 0047 06       		.uleb128 0x6
 2450 0048 0D       		.uleb128 0xd
 2451 0049 00       		.byte	0
 2452 004a 03       		.uleb128 0x3
 2453 004b 0E       		.uleb128 0xe
 2454 004c 3A       		.uleb128 0x3a
 2455 004d 0B       		.uleb128 0xb
 2456 004e 3B       		.uleb128 0x3b
 2457 004f 0B       		.uleb128 0xb
 2458 0050 49       		.uleb128 0x49
 2459 0051 13       		.uleb128 0x13
 2460 0052 38       		.uleb128 0x38
 2461 0053 0A       		.uleb128 0xa
 2462 0054 00       		.byte	0
 2463 0055 00       		.byte	0
 2464 0056 07       		.uleb128 0x7
 2465 0057 0D       		.uleb128 0xd
 2466 0058 00       		.byte	0
 2467 0059 03       		.uleb128 0x3
 2468 005a 08       		.uleb128 0x8
 2469 005b 3A       		.uleb128 0x3a
 2470 005c 0B       		.uleb128 0xb
 2471 005d 3B       		.uleb128 0x3b
 2472 005e 0B       		.uleb128 0xb
 2473 005f 49       		.uleb128 0x49
 2474 0060 13       		.uleb128 0x13
 2475 0061 38       		.uleb128 0x38
 2476 0062 0A       		.uleb128 0xa
 2477 0063 00       		.byte	0
 2478 0064 00       		.byte	0
 2479 0065 08       		.uleb128 0x8
 2480 0066 13       		.uleb128 0x13
 2481 0067 01       		.byte	0x1
 2482 0068 0B       		.uleb128 0xb
 2483 0069 0B       		.uleb128 0xb
 2484 006a 3A       		.uleb128 0x3a
 2485 006b 0B       		.uleb128 0xb
 2486 006c 3B       		.uleb128 0x3b
 2487 006d 0B       		.uleb128 0xb
 2488 006e 01       		.uleb128 0x1
 2489 006f 13       		.uleb128 0x13
 2490 0070 00       		.byte	0
 2491 0071 00       		.byte	0
 2492 0072 09       		.uleb128 0x9
 2493 0073 0F       		.uleb128 0xf
 2494 0074 00       		.byte	0
 2495 0075 0B       		.uleb128 0xb
 2496 0076 0B       		.uleb128 0xb
ARM GAS  C:\Users\LAB_ME~1\AppData\Local\Temp\ccpqSPBc.s 			page 45


 2497 0077 49       		.uleb128 0x49
 2498 0078 13       		.uleb128 0x13
 2499 0079 00       		.byte	0
 2500 007a 00       		.byte	0
 2501 007b 0A       		.uleb128 0xa
 2502 007c 0F       		.uleb128 0xf
 2503 007d 00       		.byte	0
 2504 007e 0B       		.uleb128 0xb
 2505 007f 0B       		.uleb128 0xb
 2506 0080 00       		.byte	0
 2507 0081 00       		.byte	0
 2508 0082 0B       		.uleb128 0xb
 2509 0083 13       		.uleb128 0x13
 2510 0084 01       		.byte	0x1
 2511 0085 03       		.uleb128 0x3
 2512 0086 0E       		.uleb128 0xe
 2513 0087 0B       		.uleb128 0xb
 2514 0088 0B       		.uleb128 0xb
 2515 0089 3A       		.uleb128 0x3a
 2516 008a 0B       		.uleb128 0xb
 2517 008b 3B       		.uleb128 0x3b
 2518 008c 05       		.uleb128 0x5
 2519 008d 01       		.uleb128 0x1
 2520 008e 13       		.uleb128 0x13
 2521 008f 00       		.byte	0
 2522 0090 00       		.byte	0
 2523 0091 0C       		.uleb128 0xc
 2524 0092 0D       		.uleb128 0xd
 2525 0093 00       		.byte	0
 2526 0094 03       		.uleb128 0x3
 2527 0095 08       		.uleb128 0x8
 2528 0096 3A       		.uleb128 0x3a
 2529 0097 0B       		.uleb128 0xb
 2530 0098 3B       		.uleb128 0x3b
 2531 0099 05       		.uleb128 0x5
 2532 009a 49       		.uleb128 0x49
 2533 009b 13       		.uleb128 0x13
 2534 009c 38       		.uleb128 0x38
 2535 009d 0A       		.uleb128 0xa
 2536 009e 00       		.byte	0
 2537 009f 00       		.byte	0
 2538 00a0 0D       		.uleb128 0xd
 2539 00a1 15       		.uleb128 0x15
 2540 00a2 01       		.byte	0x1
 2541 00a3 27       		.uleb128 0x27
 2542 00a4 0C       		.uleb128 0xc
 2543 00a5 01       		.uleb128 0x1
 2544 00a6 13       		.uleb128 0x13
 2545 00a7 00       		.byte	0
 2546 00a8 00       		.byte	0
 2547 00a9 0E       		.uleb128 0xe
 2548 00aa 05       		.uleb128 0x5
 2549 00ab 00       		.byte	0
 2550 00ac 49       		.uleb128 0x49
 2551 00ad 13       		.uleb128 0x13
 2552 00ae 00       		.byte	0
 2553 00af 00       		.byte	0
ARM GAS  C:\Users\LAB_ME~1\AppData\Local\Temp\ccpqSPBc.s 			page 46


 2554 00b0 0F       		.uleb128 0xf
 2555 00b1 35       		.uleb128 0x35
 2556 00b2 00       		.byte	0
 2557 00b3 49       		.uleb128 0x49
 2558 00b4 13       		.uleb128 0x13
 2559 00b5 00       		.byte	0
 2560 00b6 00       		.byte	0
 2561 00b7 10       		.uleb128 0x10
 2562 00b8 17       		.uleb128 0x17
 2563 00b9 01       		.byte	0x1
 2564 00ba 0B       		.uleb128 0xb
 2565 00bb 0B       		.uleb128 0xb
 2566 00bc 3A       		.uleb128 0x3a
 2567 00bd 0B       		.uleb128 0xb
 2568 00be 3B       		.uleb128 0x3b
 2569 00bf 0B       		.uleb128 0xb
 2570 00c0 01       		.uleb128 0x1
 2571 00c1 13       		.uleb128 0x13
 2572 00c2 00       		.byte	0
 2573 00c3 00       		.byte	0
 2574 00c4 11       		.uleb128 0x11
 2575 00c5 0D       		.uleb128 0xd
 2576 00c6 00       		.byte	0
 2577 00c7 03       		.uleb128 0x3
 2578 00c8 0E       		.uleb128 0xe
 2579 00c9 3A       		.uleb128 0x3a
 2580 00ca 0B       		.uleb128 0xb
 2581 00cb 3B       		.uleb128 0x3b
 2582 00cc 0B       		.uleb128 0xb
 2583 00cd 49       		.uleb128 0x49
 2584 00ce 13       		.uleb128 0x13
 2585 00cf 00       		.byte	0
 2586 00d0 00       		.byte	0
 2587 00d1 12       		.uleb128 0x12
 2588 00d2 26       		.uleb128 0x26
 2589 00d3 00       		.byte	0
 2590 00d4 49       		.uleb128 0x49
 2591 00d5 13       		.uleb128 0x13
 2592 00d6 00       		.byte	0
 2593 00d7 00       		.byte	0
 2594 00d8 13       		.uleb128 0x13
 2595 00d9 15       		.uleb128 0x15
 2596 00da 01       		.byte	0x1
 2597 00db 27       		.uleb128 0x27
 2598 00dc 0C       		.uleb128 0xc
 2599 00dd 49       		.uleb128 0x49
 2600 00de 13       		.uleb128 0x13
 2601 00df 01       		.uleb128 0x1
 2602 00e0 13       		.uleb128 0x13
 2603 00e1 00       		.byte	0
 2604 00e2 00       		.byte	0
 2605 00e3 14       		.uleb128 0x14
 2606 00e4 2E       		.uleb128 0x2e
 2607 00e5 01       		.byte	0x1
 2608 00e6 3F       		.uleb128 0x3f
 2609 00e7 0C       		.uleb128 0xc
 2610 00e8 03       		.uleb128 0x3
ARM GAS  C:\Users\LAB_ME~1\AppData\Local\Temp\ccpqSPBc.s 			page 47


 2611 00e9 0E       		.uleb128 0xe
 2612 00ea 3A       		.uleb128 0x3a
 2613 00eb 0B       		.uleb128 0xb
 2614 00ec 3B       		.uleb128 0x3b
 2615 00ed 0B       		.uleb128 0xb
 2616 00ee 27       		.uleb128 0x27
 2617 00ef 0C       		.uleb128 0xc
 2618 00f0 49       		.uleb128 0x49
 2619 00f1 13       		.uleb128 0x13
 2620 00f2 20       		.uleb128 0x20
 2621 00f3 0B       		.uleb128 0xb
 2622 00f4 01       		.uleb128 0x1
 2623 00f5 13       		.uleb128 0x13
 2624 00f6 00       		.byte	0
 2625 00f7 00       		.byte	0
 2626 00f8 15       		.uleb128 0x15
 2627 00f9 05       		.uleb128 0x5
 2628 00fa 00       		.byte	0
 2629 00fb 03       		.uleb128 0x3
 2630 00fc 08       		.uleb128 0x8
 2631 00fd 3A       		.uleb128 0x3a
 2632 00fe 0B       		.uleb128 0xb
 2633 00ff 3B       		.uleb128 0x3b
 2634 0100 0B       		.uleb128 0xb
 2635 0101 49       		.uleb128 0x49
 2636 0102 13       		.uleb128 0x13
 2637 0103 00       		.byte	0
 2638 0104 00       		.byte	0
 2639 0105 16       		.uleb128 0x16
 2640 0106 05       		.uleb128 0x5
 2641 0107 00       		.byte	0
 2642 0108 03       		.uleb128 0x3
 2643 0109 0E       		.uleb128 0xe
 2644 010a 3A       		.uleb128 0x3a
 2645 010b 0B       		.uleb128 0xb
 2646 010c 3B       		.uleb128 0x3b
 2647 010d 0B       		.uleb128 0xb
 2648 010e 49       		.uleb128 0x49
 2649 010f 13       		.uleb128 0x13
 2650 0110 00       		.byte	0
 2651 0111 00       		.byte	0
 2652 0112 17       		.uleb128 0x17
 2653 0113 2E       		.uleb128 0x2e
 2654 0114 01       		.byte	0x1
 2655 0115 03       		.uleb128 0x3
 2656 0116 0E       		.uleb128 0xe
 2657 0117 3A       		.uleb128 0x3a
 2658 0118 0B       		.uleb128 0xb
 2659 0119 3B       		.uleb128 0x3b
 2660 011a 0B       		.uleb128 0xb
 2661 011b 27       		.uleb128 0x27
 2662 011c 0C       		.uleb128 0xc
 2663 011d 49       		.uleb128 0x49
 2664 011e 13       		.uleb128 0x13
 2665 011f 20       		.uleb128 0x20
 2666 0120 0B       		.uleb128 0xb
 2667 0121 01       		.uleb128 0x1
ARM GAS  C:\Users\LAB_ME~1\AppData\Local\Temp\ccpqSPBc.s 			page 48


 2668 0122 13       		.uleb128 0x13
 2669 0123 00       		.byte	0
 2670 0124 00       		.byte	0
 2671 0125 18       		.uleb128 0x18
 2672 0126 34       		.uleb128 0x34
 2673 0127 00       		.byte	0
 2674 0128 03       		.uleb128 0x3
 2675 0129 08       		.uleb128 0x8
 2676 012a 3A       		.uleb128 0x3a
 2677 012b 0B       		.uleb128 0xb
 2678 012c 3B       		.uleb128 0x3b
 2679 012d 0B       		.uleb128 0xb
 2680 012e 49       		.uleb128 0x49
 2681 012f 13       		.uleb128 0x13
 2682 0130 00       		.byte	0
 2683 0131 00       		.byte	0
 2684 0132 19       		.uleb128 0x19
 2685 0133 2E       		.uleb128 0x2e
 2686 0134 01       		.byte	0x1
 2687 0135 03       		.uleb128 0x3
 2688 0136 0E       		.uleb128 0xe
 2689 0137 3A       		.uleb128 0x3a
 2690 0138 0B       		.uleb128 0xb
 2691 0139 3B       		.uleb128 0x3b
 2692 013a 0B       		.uleb128 0xb
 2693 013b 27       		.uleb128 0x27
 2694 013c 0C       		.uleb128 0xc
 2695 013d 20       		.uleb128 0x20
 2696 013e 0B       		.uleb128 0xb
 2697 013f 01       		.uleb128 0x1
 2698 0140 13       		.uleb128 0x13
 2699 0141 00       		.byte	0
 2700 0142 00       		.byte	0
 2701 0143 1A       		.uleb128 0x1a
 2702 0144 2E       		.uleb128 0x2e
 2703 0145 01       		.byte	0x1
 2704 0146 31       		.uleb128 0x31
 2705 0147 13       		.uleb128 0x13
 2706 0148 11       		.uleb128 0x11
 2707 0149 01       		.uleb128 0x1
 2708 014a 12       		.uleb128 0x12
 2709 014b 01       		.uleb128 0x1
 2710 014c 40       		.uleb128 0x40
 2711 014d 06       		.uleb128 0x6
 2712 014e 9742     		.uleb128 0x2117
 2713 0150 0C       		.uleb128 0xc
 2714 0151 01       		.uleb128 0x1
 2715 0152 13       		.uleb128 0x13
 2716 0153 00       		.byte	0
 2717 0154 00       		.byte	0
 2718 0155 1B       		.uleb128 0x1b
 2719 0156 05       		.uleb128 0x5
 2720 0157 00       		.byte	0
 2721 0158 31       		.uleb128 0x31
 2722 0159 13       		.uleb128 0x13
 2723 015a 02       		.uleb128 0x2
 2724 015b 0A       		.uleb128 0xa
ARM GAS  C:\Users\LAB_ME~1\AppData\Local\Temp\ccpqSPBc.s 			page 49


 2725 015c 00       		.byte	0
 2726 015d 00       		.byte	0
 2727 015e 1C       		.uleb128 0x1c
 2728 015f 05       		.uleb128 0x5
 2729 0160 00       		.byte	0
 2730 0161 31       		.uleb128 0x31
 2731 0162 13       		.uleb128 0x13
 2732 0163 02       		.uleb128 0x2
 2733 0164 06       		.uleb128 0x6
 2734 0165 00       		.byte	0
 2735 0166 00       		.byte	0
 2736 0167 1D       		.uleb128 0x1d
 2737 0168 2E       		.uleb128 0x2e
 2738 0169 01       		.byte	0x1
 2739 016a 3F       		.uleb128 0x3f
 2740 016b 0C       		.uleb128 0xc
 2741 016c 03       		.uleb128 0x3
 2742 016d 0E       		.uleb128 0xe
 2743 016e 3A       		.uleb128 0x3a
 2744 016f 0B       		.uleb128 0xb
 2745 0170 3B       		.uleb128 0x3b
 2746 0171 0B       		.uleb128 0xb
 2747 0172 27       		.uleb128 0x27
 2748 0173 0C       		.uleb128 0xc
 2749 0174 49       		.uleb128 0x49
 2750 0175 13       		.uleb128 0x13
 2751 0176 11       		.uleb128 0x11
 2752 0177 01       		.uleb128 0x1
 2753 0178 12       		.uleb128 0x12
 2754 0179 01       		.uleb128 0x1
 2755 017a 40       		.uleb128 0x40
 2756 017b 06       		.uleb128 0x6
 2757 017c 9742     		.uleb128 0x2117
 2758 017e 0C       		.uleb128 0xc
 2759 017f 01       		.uleb128 0x1
 2760 0180 13       		.uleb128 0x13
 2761 0181 00       		.byte	0
 2762 0182 00       		.byte	0
 2763 0183 1E       		.uleb128 0x1e
 2764 0184 05       		.uleb128 0x5
 2765 0185 00       		.byte	0
 2766 0186 03       		.uleb128 0x3
 2767 0187 08       		.uleb128 0x8
 2768 0188 3A       		.uleb128 0x3a
 2769 0189 0B       		.uleb128 0xb
 2770 018a 3B       		.uleb128 0x3b
 2771 018b 0B       		.uleb128 0xb
 2772 018c 49       		.uleb128 0x49
 2773 018d 13       		.uleb128 0x13
 2774 018e 02       		.uleb128 0x2
 2775 018f 0A       		.uleb128 0xa
 2776 0190 00       		.byte	0
 2777 0191 00       		.byte	0
 2778 0192 1F       		.uleb128 0x1f
 2779 0193 05       		.uleb128 0x5
 2780 0194 00       		.byte	0
 2781 0195 03       		.uleb128 0x3
ARM GAS  C:\Users\LAB_ME~1\AppData\Local\Temp\ccpqSPBc.s 			page 50


 2782 0196 0E       		.uleb128 0xe
 2783 0197 3A       		.uleb128 0x3a
 2784 0198 0B       		.uleb128 0xb
 2785 0199 3B       		.uleb128 0x3b
 2786 019a 0B       		.uleb128 0xb
 2787 019b 49       		.uleb128 0x49
 2788 019c 13       		.uleb128 0x13
 2789 019d 02       		.uleb128 0x2
 2790 019e 06       		.uleb128 0x6
 2791 019f 00       		.byte	0
 2792 01a0 00       		.byte	0
 2793 01a1 20       		.uleb128 0x20
 2794 01a2 05       		.uleb128 0x5
 2795 01a3 00       		.byte	0
 2796 01a4 03       		.uleb128 0x3
 2797 01a5 08       		.uleb128 0x8
 2798 01a6 3A       		.uleb128 0x3a
 2799 01a7 0B       		.uleb128 0xb
 2800 01a8 3B       		.uleb128 0x3b
 2801 01a9 0B       		.uleb128 0xb
 2802 01aa 49       		.uleb128 0x49
 2803 01ab 13       		.uleb128 0x13
 2804 01ac 02       		.uleb128 0x2
 2805 01ad 06       		.uleb128 0x6
 2806 01ae 00       		.byte	0
 2807 01af 00       		.byte	0
 2808 01b0 21       		.uleb128 0x21
 2809 01b1 34       		.uleb128 0x34
 2810 01b2 00       		.byte	0
 2811 01b3 03       		.uleb128 0x3
 2812 01b4 08       		.uleb128 0x8
 2813 01b5 3A       		.uleb128 0x3a
 2814 01b6 0B       		.uleb128 0xb
 2815 01b7 3B       		.uleb128 0x3b
 2816 01b8 0B       		.uleb128 0xb
 2817 01b9 49       		.uleb128 0x49
 2818 01ba 13       		.uleb128 0x13
 2819 01bb 02       		.uleb128 0x2
 2820 01bc 0A       		.uleb128 0xa
 2821 01bd 00       		.byte	0
 2822 01be 00       		.byte	0
 2823 01bf 22       		.uleb128 0x22
 2824 01c0 1D       		.uleb128 0x1d
 2825 01c1 01       		.byte	0x1
 2826 01c2 31       		.uleb128 0x31
 2827 01c3 13       		.uleb128 0x13
 2828 01c4 52       		.uleb128 0x52
 2829 01c5 01       		.uleb128 0x1
 2830 01c6 55       		.uleb128 0x55
 2831 01c7 06       		.uleb128 0x6
 2832 01c8 58       		.uleb128 0x58
 2833 01c9 0B       		.uleb128 0xb
 2834 01ca 59       		.uleb128 0x59
 2835 01cb 0B       		.uleb128 0xb
 2836 01cc 00       		.byte	0
 2837 01cd 00       		.byte	0
 2838 01ce 23       		.uleb128 0x23
ARM GAS  C:\Users\LAB_ME~1\AppData\Local\Temp\ccpqSPBc.s 			page 51


 2839 01cf 34       		.uleb128 0x34
 2840 01d0 00       		.byte	0
 2841 01d1 03       		.uleb128 0x3
 2842 01d2 08       		.uleb128 0x8
 2843 01d3 3A       		.uleb128 0x3a
 2844 01d4 0B       		.uleb128 0xb
 2845 01d5 3B       		.uleb128 0x3b
 2846 01d6 0B       		.uleb128 0xb
 2847 01d7 49       		.uleb128 0x49
 2848 01d8 13       		.uleb128 0x13
 2849 01d9 02       		.uleb128 0x2
 2850 01da 06       		.uleb128 0x6
 2851 01db 00       		.byte	0
 2852 01dc 00       		.byte	0
 2853 01dd 24       		.uleb128 0x24
 2854 01de 0B       		.uleb128 0xb
 2855 01df 01       		.byte	0x1
 2856 01e0 11       		.uleb128 0x11
 2857 01e1 01       		.uleb128 0x1
 2858 01e2 12       		.uleb128 0x12
 2859 01e3 01       		.uleb128 0x1
 2860 01e4 01       		.uleb128 0x1
 2861 01e5 13       		.uleb128 0x13
 2862 01e6 00       		.byte	0
 2863 01e7 00       		.byte	0
 2864 01e8 25       		.uleb128 0x25
 2865 01e9 898201   		.uleb128 0x4109
 2866 01ec 01       		.byte	0x1
 2867 01ed 11       		.uleb128 0x11
 2868 01ee 01       		.uleb128 0x1
 2869 01ef 31       		.uleb128 0x31
 2870 01f0 13       		.uleb128 0x13
 2871 01f1 01       		.uleb128 0x1
 2872 01f2 13       		.uleb128 0x13
 2873 01f3 00       		.byte	0
 2874 01f4 00       		.byte	0
 2875 01f5 26       		.uleb128 0x26
 2876 01f6 8A8201   		.uleb128 0x410a
 2877 01f9 00       		.byte	0
 2878 01fa 02       		.uleb128 0x2
 2879 01fb 0A       		.uleb128 0xa
 2880 01fc 9142     		.uleb128 0x2111
 2881 01fe 0A       		.uleb128 0xa
 2882 01ff 00       		.byte	0
 2883 0200 00       		.byte	0
 2884 0201 27       		.uleb128 0x27
 2885 0202 898201   		.uleb128 0x4109
 2886 0205 01       		.byte	0x1
 2887 0206 11       		.uleb128 0x11
 2888 0207 01       		.uleb128 0x1
 2889 0208 31       		.uleb128 0x31
 2890 0209 13       		.uleb128 0x13
 2891 020a 00       		.byte	0
 2892 020b 00       		.byte	0
 2893 020c 28       		.uleb128 0x28
 2894 020d 34       		.uleb128 0x34
 2895 020e 00       		.byte	0
ARM GAS  C:\Users\LAB_ME~1\AppData\Local\Temp\ccpqSPBc.s 			page 52


 2896 020f 03       		.uleb128 0x3
 2897 0210 0E       		.uleb128 0xe
 2898 0211 3A       		.uleb128 0x3a
 2899 0212 0B       		.uleb128 0xb
 2900 0213 3B       		.uleb128 0x3b
 2901 0214 0B       		.uleb128 0xb
 2902 0215 49       		.uleb128 0x49
 2903 0216 13       		.uleb128 0x13
 2904 0217 02       		.uleb128 0x2
 2905 0218 0A       		.uleb128 0xa
 2906 0219 00       		.byte	0
 2907 021a 00       		.byte	0
 2908 021b 29       		.uleb128 0x29
 2909 021c 898201   		.uleb128 0x4109
 2910 021f 00       		.byte	0
 2911 0220 11       		.uleb128 0x11
 2912 0221 01       		.uleb128 0x1
 2913 0222 31       		.uleb128 0x31
 2914 0223 13       		.uleb128 0x13
 2915 0224 00       		.byte	0
 2916 0225 00       		.byte	0
 2917 0226 2A       		.uleb128 0x2a
 2918 0227 0B       		.uleb128 0xb
 2919 0228 01       		.byte	0x1
 2920 0229 55       		.uleb128 0x55
 2921 022a 06       		.uleb128 0x6
 2922 022b 01       		.uleb128 0x1
 2923 022c 13       		.uleb128 0x13
 2924 022d 00       		.byte	0
 2925 022e 00       		.byte	0
 2926 022f 2B       		.uleb128 0x2b
 2927 0230 2E       		.uleb128 0x2e
 2928 0231 01       		.byte	0x1
 2929 0232 3F       		.uleb128 0x3f
 2930 0233 0C       		.uleb128 0xc
 2931 0234 03       		.uleb128 0x3
 2932 0235 0E       		.uleb128 0xe
 2933 0236 3A       		.uleb128 0x3a
 2934 0237 0B       		.uleb128 0xb
 2935 0238 3B       		.uleb128 0x3b
 2936 0239 05       		.uleb128 0x5
 2937 023a 27       		.uleb128 0x27
 2938 023b 0C       		.uleb128 0xc
 2939 023c 11       		.uleb128 0x11
 2940 023d 01       		.uleb128 0x1
 2941 023e 12       		.uleb128 0x12
 2942 023f 01       		.uleb128 0x1
 2943 0240 40       		.uleb128 0x40
 2944 0241 0A       		.uleb128 0xa
 2945 0242 9742     		.uleb128 0x2117
 2946 0244 0C       		.uleb128 0xc
 2947 0245 01       		.uleb128 0x1
 2948 0246 13       		.uleb128 0x13
 2949 0247 00       		.byte	0
 2950 0248 00       		.byte	0
 2951 0249 2C       		.uleb128 0x2c
 2952 024a 05       		.uleb128 0x5
ARM GAS  C:\Users\LAB_ME~1\AppData\Local\Temp\ccpqSPBc.s 			page 53


 2953 024b 00       		.byte	0
 2954 024c 03       		.uleb128 0x3
 2955 024d 08       		.uleb128 0x8
 2956 024e 3A       		.uleb128 0x3a
 2957 024f 0B       		.uleb128 0xb
 2958 0250 3B       		.uleb128 0x3b
 2959 0251 05       		.uleb128 0x5
 2960 0252 49       		.uleb128 0x49
 2961 0253 13       		.uleb128 0x13
 2962 0254 02       		.uleb128 0x2
 2963 0255 0A       		.uleb128 0xa
 2964 0256 00       		.byte	0
 2965 0257 00       		.byte	0
 2966 0258 2D       		.uleb128 0x2d
 2967 0259 34       		.uleb128 0x34
 2968 025a 00       		.byte	0
 2969 025b 03       		.uleb128 0x3
 2970 025c 08       		.uleb128 0x8
 2971 025d 3A       		.uleb128 0x3a
 2972 025e 0B       		.uleb128 0xb
 2973 025f 3B       		.uleb128 0x3b
 2974 0260 05       		.uleb128 0x5
 2975 0261 49       		.uleb128 0x49
 2976 0262 13       		.uleb128 0x13
 2977 0263 02       		.uleb128 0x2
 2978 0264 06       		.uleb128 0x6
 2979 0265 00       		.byte	0
 2980 0266 00       		.byte	0
 2981 0267 2E       		.uleb128 0x2e
 2982 0268 0B       		.uleb128 0xb
 2983 0269 01       		.byte	0x1
 2984 026a 11       		.uleb128 0x11
 2985 026b 01       		.uleb128 0x1
 2986 026c 12       		.uleb128 0x12
 2987 026d 01       		.uleb128 0x1
 2988 026e 00       		.byte	0
 2989 026f 00       		.byte	0
 2990 0270 2F       		.uleb128 0x2f
 2991 0271 2E       		.uleb128 0x2e
 2992 0272 01       		.byte	0x1
 2993 0273 3F       		.uleb128 0x3f
 2994 0274 0C       		.uleb128 0xc
 2995 0275 03       		.uleb128 0x3
 2996 0276 0E       		.uleb128 0xe
 2997 0277 3A       		.uleb128 0x3a
 2998 0278 0B       		.uleb128 0xb
 2999 0279 3B       		.uleb128 0x3b
 3000 027a 05       		.uleb128 0x5
 3001 027b 27       		.uleb128 0x27
 3002 027c 0C       		.uleb128 0xc
 3003 027d 11       		.uleb128 0x11
 3004 027e 01       		.uleb128 0x1
 3005 027f 12       		.uleb128 0x12
 3006 0280 01       		.uleb128 0x1
 3007 0281 40       		.uleb128 0x40
 3008 0282 06       		.uleb128 0x6
 3009 0283 9742     		.uleb128 0x2117
ARM GAS  C:\Users\LAB_ME~1\AppData\Local\Temp\ccpqSPBc.s 			page 54


 3010 0285 0C       		.uleb128 0xc
 3011 0286 01       		.uleb128 0x1
 3012 0287 13       		.uleb128 0x13
 3013 0288 00       		.byte	0
 3014 0289 00       		.byte	0
 3015 028a 30       		.uleb128 0x30
 3016 028b 05       		.uleb128 0x5
 3017 028c 00       		.byte	0
 3018 028d 03       		.uleb128 0x3
 3019 028e 0E       		.uleb128 0xe
 3020 028f 3A       		.uleb128 0x3a
 3021 0290 0B       		.uleb128 0xb
 3022 0291 3B       		.uleb128 0x3b
 3023 0292 05       		.uleb128 0x5
 3024 0293 49       		.uleb128 0x49
 3025 0294 13       		.uleb128 0x13
 3026 0295 02       		.uleb128 0x2
 3027 0296 06       		.uleb128 0x6
 3028 0297 00       		.byte	0
 3029 0298 00       		.byte	0
 3030 0299 31       		.uleb128 0x31
 3031 029a 05       		.uleb128 0x5
 3032 029b 00       		.byte	0
 3033 029c 03       		.uleb128 0x3
 3034 029d 08       		.uleb128 0x8
 3035 029e 3A       		.uleb128 0x3a
 3036 029f 0B       		.uleb128 0xb
 3037 02a0 3B       		.uleb128 0x3b
 3038 02a1 05       		.uleb128 0x5
 3039 02a2 49       		.uleb128 0x49
 3040 02a3 13       		.uleb128 0x13
 3041 02a4 02       		.uleb128 0x2
 3042 02a5 06       		.uleb128 0x6
 3043 02a6 00       		.byte	0
 3044 02a7 00       		.byte	0
 3045 02a8 32       		.uleb128 0x32
 3046 02a9 34       		.uleb128 0x34
 3047 02aa 00       		.byte	0
 3048 02ab 03       		.uleb128 0x3
 3049 02ac 08       		.uleb128 0x8
 3050 02ad 3A       		.uleb128 0x3a
 3051 02ae 0B       		.uleb128 0xb
 3052 02af 3B       		.uleb128 0x3b
 3053 02b0 05       		.uleb128 0x5
 3054 02b1 49       		.uleb128 0x49
 3055 02b2 13       		.uleb128 0x13
 3056 02b3 02       		.uleb128 0x2
 3057 02b4 0A       		.uleb128 0xa
 3058 02b5 00       		.byte	0
 3059 02b6 00       		.byte	0
 3060 02b7 33       		.uleb128 0x33
 3061 02b8 1D       		.uleb128 0x1d
 3062 02b9 01       		.byte	0x1
 3063 02ba 31       		.uleb128 0x31
 3064 02bb 13       		.uleb128 0x13
 3065 02bc 11       		.uleb128 0x11
 3066 02bd 01       		.uleb128 0x1
ARM GAS  C:\Users\LAB_ME~1\AppData\Local\Temp\ccpqSPBc.s 			page 55


 3067 02be 12       		.uleb128 0x12
 3068 02bf 01       		.uleb128 0x1
 3069 02c0 58       		.uleb128 0x58
 3070 02c1 0B       		.uleb128 0xb
 3071 02c2 59       		.uleb128 0x59
 3072 02c3 05       		.uleb128 0x5
 3073 02c4 01       		.uleb128 0x1
 3074 02c5 13       		.uleb128 0x13
 3075 02c6 00       		.byte	0
 3076 02c7 00       		.byte	0
 3077 02c8 34       		.uleb128 0x34
 3078 02c9 34       		.uleb128 0x34
 3079 02ca 00       		.byte	0
 3080 02cb 31       		.uleb128 0x31
 3081 02cc 13       		.uleb128 0x13
 3082 02cd 02       		.uleb128 0x2
 3083 02ce 06       		.uleb128 0x6
 3084 02cf 00       		.byte	0
 3085 02d0 00       		.byte	0
 3086 02d1 35       		.uleb128 0x35
 3087 02d2 898201   		.uleb128 0x4109
 3088 02d5 01       		.byte	0x1
 3089 02d6 11       		.uleb128 0x11
 3090 02d7 01       		.uleb128 0x1
 3091 02d8 9542     		.uleb128 0x2115
 3092 02da 0C       		.uleb128 0xc
 3093 02db 31       		.uleb128 0x31
 3094 02dc 13       		.uleb128 0x13
 3095 02dd 00       		.byte	0
 3096 02de 00       		.byte	0
 3097 02df 36       		.uleb128 0x36
 3098 02e0 2E       		.uleb128 0x2e
 3099 02e1 01       		.byte	0x1
 3100 02e2 3F       		.uleb128 0x3f
 3101 02e3 0C       		.uleb128 0xc
 3102 02e4 03       		.uleb128 0x3
 3103 02e5 0E       		.uleb128 0xe
 3104 02e6 3A       		.uleb128 0x3a
 3105 02e7 0B       		.uleb128 0xb
 3106 02e8 3B       		.uleb128 0x3b
 3107 02e9 05       		.uleb128 0x5
 3108 02ea 27       		.uleb128 0x27
 3109 02eb 0C       		.uleb128 0xc
 3110 02ec 49       		.uleb128 0x49
 3111 02ed 13       		.uleb128 0x13
 3112 02ee 11       		.uleb128 0x11
 3113 02ef 01       		.uleb128 0x1
 3114 02f0 12       		.uleb128 0x12
 3115 02f1 01       		.uleb128 0x1
 3116 02f2 40       		.uleb128 0x40
 3117 02f3 06       		.uleb128 0x6
 3118 02f4 9742     		.uleb128 0x2117
 3119 02f6 0C       		.uleb128 0xc
 3120 02f7 01       		.uleb128 0x1
 3121 02f8 13       		.uleb128 0x13
 3122 02f9 00       		.byte	0
 3123 02fa 00       		.byte	0
ARM GAS  C:\Users\LAB_ME~1\AppData\Local\Temp\ccpqSPBc.s 			page 56


 3124 02fb 37       		.uleb128 0x37
 3125 02fc 1D       		.uleb128 0x1d
 3126 02fd 01       		.byte	0x1
 3127 02fe 31       		.uleb128 0x31
 3128 02ff 13       		.uleb128 0x13
 3129 0300 52       		.uleb128 0x52
 3130 0301 01       		.uleb128 0x1
 3131 0302 55       		.uleb128 0x55
 3132 0303 06       		.uleb128 0x6
 3133 0304 58       		.uleb128 0x58
 3134 0305 0B       		.uleb128 0xb
 3135 0306 59       		.uleb128 0x59
 3136 0307 05       		.uleb128 0x5
 3137 0308 01       		.uleb128 0x1
 3138 0309 13       		.uleb128 0x13
 3139 030a 00       		.byte	0
 3140 030b 00       		.byte	0
 3141 030c 38       		.uleb128 0x38
 3142 030d 34       		.uleb128 0x34
 3143 030e 00       		.byte	0
 3144 030f 03       		.uleb128 0x3
 3145 0310 0E       		.uleb128 0xe
 3146 0311 3A       		.uleb128 0x3a
 3147 0312 0B       		.uleb128 0xb
 3148 0313 3B       		.uleb128 0x3b
 3149 0314 0B       		.uleb128 0xb
 3150 0315 49       		.uleb128 0x49
 3151 0316 13       		.uleb128 0x13
 3152 0317 3F       		.uleb128 0x3f
 3153 0318 0C       		.uleb128 0xc
 3154 0319 3C       		.uleb128 0x3c
 3155 031a 0C       		.uleb128 0xc
 3156 031b 00       		.byte	0
 3157 031c 00       		.byte	0
 3158 031d 39       		.uleb128 0x39
 3159 031e 2E       		.uleb128 0x2e
 3160 031f 01       		.byte	0x1
 3161 0320 3F       		.uleb128 0x3f
 3162 0321 0C       		.uleb128 0xc
 3163 0322 03       		.uleb128 0x3
 3164 0323 0E       		.uleb128 0xe
 3165 0324 3A       		.uleb128 0x3a
 3166 0325 0B       		.uleb128 0xb
 3167 0326 3B       		.uleb128 0x3b
 3168 0327 0B       		.uleb128 0xb
 3169 0328 27       		.uleb128 0x27
 3170 0329 0C       		.uleb128 0xc
 3171 032a 3C       		.uleb128 0x3c
 3172 032b 0C       		.uleb128 0xc
 3173 032c 01       		.uleb128 0x1
 3174 032d 13       		.uleb128 0x13
 3175 032e 00       		.byte	0
 3176 032f 00       		.byte	0
 3177 0330 3A       		.uleb128 0x3a
 3178 0331 2E       		.uleb128 0x2e
 3179 0332 00       		.byte	0
 3180 0333 3F       		.uleb128 0x3f
ARM GAS  C:\Users\LAB_ME~1\AppData\Local\Temp\ccpqSPBc.s 			page 57


 3181 0334 0C       		.uleb128 0xc
 3182 0335 03       		.uleb128 0x3
 3183 0336 0E       		.uleb128 0xe
 3184 0337 3A       		.uleb128 0x3a
 3185 0338 0B       		.uleb128 0xb
 3186 0339 3B       		.uleb128 0x3b
 3187 033a 0B       		.uleb128 0xb
 3188 033b 27       		.uleb128 0x27
 3189 033c 0C       		.uleb128 0xc
 3190 033d 3C       		.uleb128 0x3c
 3191 033e 0C       		.uleb128 0xc
 3192 033f 00       		.byte	0
 3193 0340 00       		.byte	0
 3194 0341 3B       		.uleb128 0x3b
 3195 0342 2E       		.uleb128 0x2e
 3196 0343 01       		.byte	0x1
 3197 0344 3F       		.uleb128 0x3f
 3198 0345 0C       		.uleb128 0xc
 3199 0346 03       		.uleb128 0x3
 3200 0347 0E       		.uleb128 0xe
 3201 0348 3A       		.uleb128 0x3a
 3202 0349 0B       		.uleb128 0xb
 3203 034a 3B       		.uleb128 0x3b
 3204 034b 0B       		.uleb128 0xb
 3205 034c 27       		.uleb128 0x27
 3206 034d 0C       		.uleb128 0xc
 3207 034e 49       		.uleb128 0x49
 3208 034f 13       		.uleb128 0x13
 3209 0350 3C       		.uleb128 0x3c
 3210 0351 0C       		.uleb128 0xc
 3211 0352 01       		.uleb128 0x1
 3212 0353 13       		.uleb128 0x13
 3213 0354 00       		.byte	0
 3214 0355 00       		.byte	0
 3215 0356 3C       		.uleb128 0x3c
 3216 0357 2E       		.uleb128 0x2e
 3217 0358 01       		.byte	0x1
 3218 0359 3F       		.uleb128 0x3f
 3219 035a 0C       		.uleb128 0xc
 3220 035b 03       		.uleb128 0x3
 3221 035c 0E       		.uleb128 0xe
 3222 035d 3A       		.uleb128 0x3a
 3223 035e 0B       		.uleb128 0xb
 3224 035f 3B       		.uleb128 0x3b
 3225 0360 0B       		.uleb128 0xb
 3226 0361 27       		.uleb128 0x27
 3227 0362 0C       		.uleb128 0xc
 3228 0363 3C       		.uleb128 0x3c
 3229 0364 0C       		.uleb128 0xc
 3230 0365 00       		.byte	0
 3231 0366 00       		.byte	0
 3232 0367 00       		.byte	0
 3233              		.section	.debug_loc,"",%progbits
 3234              	.Ldebug_loc0:
 3235              	.LLST0:
 3236 0000 00000000 		.4byte	.LFB7
 3237 0004 02000000 		.4byte	.LCFI0
ARM GAS  C:\Users\LAB_ME~1\AppData\Local\Temp\ccpqSPBc.s 			page 58


 3238 0008 0200     		.2byte	0x2
 3239 000a 7D       		.byte	0x7d
 3240 000b 00       		.sleb128 0
 3241 000c 02000000 		.4byte	.LCFI0
 3242 0010 44000000 		.4byte	.LFE7
 3243 0014 0200     		.2byte	0x2
 3244 0016 7D       		.byte	0x7d
 3245 0017 10       		.sleb128 16
 3246 0018 00000000 		.4byte	0
 3247 001c 00000000 		.4byte	0
 3248              	.LLST1:
 3249 0020 00000000 		.4byte	.LVL0
 3250 0024 20000000 		.4byte	.LVL1
 3251 0028 0100     		.2byte	0x1
 3252 002a 51       		.byte	0x51
 3253 002b 20000000 		.4byte	.LVL1
 3254 002f 44000000 		.4byte	.LFE7
 3255 0033 0300     		.2byte	0x3
 3256 0035 70       		.byte	0x70
 3257 0036 C000     		.sleb128 64
 3258 0038 00000000 		.4byte	0
 3259 003c 00000000 		.4byte	0
 3260              	.LLST2:
 3261 0040 00000000 		.4byte	.LFB8
 3262 0044 04000000 		.4byte	.LCFI1
 3263 0048 0200     		.2byte	0x2
 3264 004a 7D       		.byte	0x7d
 3265 004b 00       		.sleb128 0
 3266 004c 04000000 		.4byte	.LCFI1
 3267 0050 68000000 		.4byte	.LFE8
 3268 0054 0200     		.2byte	0x2
 3269 0056 7D       		.byte	0x7d
 3270 0057 18       		.sleb128 24
 3271 0058 00000000 		.4byte	0
 3272 005c 00000000 		.4byte	0
 3273              	.LLST3:
 3274 0060 00000000 		.4byte	.LVL2
 3275 0064 06000000 		.4byte	.LVL3
 3276 0068 0100     		.2byte	0x1
 3277 006a 51       		.byte	0x51
 3278 006b 06000000 		.4byte	.LVL3
 3279 006f 68000000 		.4byte	.LFE8
 3280 0073 0300     		.2byte	0x3
 3281 0075 71       		.byte	0x71
 3282 0076 24       		.sleb128 36
 3283 0077 9F       		.byte	0x9f
 3284 0078 00000000 		.4byte	0
 3285 007c 00000000 		.4byte	0
 3286              	.LLST4:
 3287 0080 00000000 		.4byte	.LVL2
 3288 0084 2C000000 		.4byte	.LVL5
 3289 0088 0100     		.2byte	0x1
 3290 008a 52       		.byte	0x52
 3291 008b 2C000000 		.4byte	.LVL5
 3292 008f 68000000 		.4byte	.LFE8
 3293 0093 0100     		.2byte	0x1
 3294 0095 58       		.byte	0x58
ARM GAS  C:\Users\LAB_ME~1\AppData\Local\Temp\ccpqSPBc.s 			page 59


 3295 0096 00000000 		.4byte	0
 3296 009a 00000000 		.4byte	0
 3297              	.LLST5:
 3298 009e 00000000 		.4byte	.LVL2
 3299 00a2 14000000 		.4byte	.LVL4
 3300 00a6 0100     		.2byte	0x1
 3301 00a8 53       		.byte	0x53
 3302 00a9 14000000 		.4byte	.LVL4
 3303 00ad 68000000 		.4byte	.LFE8
 3304 00b1 0200     		.2byte	0x2
 3305 00b3 77       		.byte	0x77
 3306 00b4 00       		.sleb128 0
 3307 00b5 00000000 		.4byte	0
 3308 00b9 00000000 		.4byte	0
 3309              	.LLST6:
 3310 00bd 00000000 		.4byte	.LFB9
 3311 00c1 02000000 		.4byte	.LCFI2
 3312 00c5 0200     		.2byte	0x2
 3313 00c7 7D       		.byte	0x7d
 3314 00c8 00       		.sleb128 0
 3315 00c9 02000000 		.4byte	.LCFI2
 3316 00cd 06000000 		.4byte	.LCFI3
 3317 00d1 0200     		.2byte	0x2
 3318 00d3 7D       		.byte	0x7d
 3319 00d4 08       		.sleb128 8
 3320 00d5 06000000 		.4byte	.LCFI3
 3321 00d9 2A000000 		.4byte	.LFE9
 3322 00dd 0200     		.2byte	0x2
 3323 00df 7D       		.byte	0x7d
 3324 00e0 10       		.sleb128 16
 3325 00e1 00000000 		.4byte	0
 3326 00e5 00000000 		.4byte	0
 3327              	.LLST7:
 3328 00e9 00000000 		.4byte	.LVL7
 3329 00ed 15000000 		.4byte	.LVL12-1
 3330 00f1 0100     		.2byte	0x1
 3331 00f3 50       		.byte	0x50
 3332 00f4 15000000 		.4byte	.LVL12-1
 3333 00f8 2A000000 		.4byte	.LFE9
 3334 00fc 0400     		.2byte	0x4
 3335 00fe F3       		.byte	0xf3
 3336 00ff 01       		.uleb128 0x1
 3337 0100 50       		.byte	0x50
 3338 0101 9F       		.byte	0x9f
 3339 0102 00000000 		.4byte	0
 3340 0106 00000000 		.4byte	0
 3341              	.LLST8:
 3342 010a 00000000 		.4byte	.LVL7
 3343 010e 15000000 		.4byte	.LVL12-1
 3344 0112 0100     		.2byte	0x1
 3345 0114 51       		.byte	0x51
 3346 0115 15000000 		.4byte	.LVL12-1
 3347 0119 2A000000 		.4byte	.LFE9
 3348 011d 0400     		.2byte	0x4
 3349 011f F3       		.byte	0xf3
 3350 0120 01       		.uleb128 0x1
 3351 0121 51       		.byte	0x51
ARM GAS  C:\Users\LAB_ME~1\AppData\Local\Temp\ccpqSPBc.s 			page 60


 3352 0122 9F       		.byte	0x9f
 3353 0123 00000000 		.4byte	0
 3354 0127 00000000 		.4byte	0
 3355              	.LLST9:
 3356 012b 00000000 		.4byte	.LVL7
 3357 012f 15000000 		.4byte	.LVL12-1
 3358 0133 0100     		.2byte	0x1
 3359 0135 52       		.byte	0x52
 3360 0136 15000000 		.4byte	.LVL12-1
 3361 013a 2A000000 		.4byte	.LFE9
 3362 013e 0400     		.2byte	0x4
 3363 0140 F3       		.byte	0xf3
 3364 0141 01       		.uleb128 0x1
 3365 0142 52       		.byte	0x52
 3366 0143 9F       		.byte	0x9f
 3367 0144 00000000 		.4byte	0
 3368 0148 00000000 		.4byte	0
 3369              	.LLST10:
 3370 014c 00000000 		.4byte	.LVL7
 3371 0150 08000000 		.4byte	.LVL8
 3372 0154 0100     		.2byte	0x1
 3373 0156 53       		.byte	0x53
 3374 0157 08000000 		.4byte	.LVL8
 3375 015b 10000000 		.4byte	.LVL11
 3376 015f 0100     		.2byte	0x1
 3377 0161 54       		.byte	0x54
 3378 0162 10000000 		.4byte	.LVL11
 3379 0166 15000000 		.4byte	.LVL12-1
 3380 016a 0100     		.2byte	0x1
 3381 016c 53       		.byte	0x53
 3382 016d 15000000 		.4byte	.LVL12-1
 3383 0171 2A000000 		.4byte	.LFE9
 3384 0175 0400     		.2byte	0x4
 3385 0177 F3       		.byte	0xf3
 3386 0178 01       		.uleb128 0x1
 3387 0179 53       		.byte	0x53
 3388 017a 9F       		.byte	0x9f
 3389 017b 00000000 		.4byte	0
 3390 017f 00000000 		.4byte	0
 3391              	.LLST11:
 3392 0183 1A000000 		.4byte	.LVL13
 3393 0187 1D000000 		.4byte	.LVL14-1
 3394 018b 0100     		.2byte	0x1
 3395 018d 50       		.byte	0x50
 3396 018e 1D000000 		.4byte	.LVL14-1
 3397 0192 2A000000 		.4byte	.LFE9
 3398 0196 0100     		.2byte	0x1
 3399 0198 54       		.byte	0x54
 3400 0199 00000000 		.4byte	0
 3401 019d 00000000 		.4byte	0
 3402              	.LLST12:
 3403 01a1 0C000000 		.4byte	.LVL9
 3404 01a5 0E000000 		.4byte	.LVL10
 3405 01a9 0100     		.2byte	0x1
 3406 01ab 53       		.byte	0x53
 3407 01ac 00000000 		.4byte	0
 3408 01b0 00000000 		.4byte	0
ARM GAS  C:\Users\LAB_ME~1\AppData\Local\Temp\ccpqSPBc.s 			page 61


 3409              	.LLST13:
 3410 01b4 24000000 		.4byte	.LVL16
 3411 01b8 2A000000 		.4byte	.LFE9
 3412 01bc 0100     		.2byte	0x1
 3413 01be 53       		.byte	0x53
 3414 01bf 00000000 		.4byte	0
 3415 01c3 00000000 		.4byte	0
 3416              	.LLST14:
 3417 01c7 00000000 		.4byte	.LFB10
 3418 01cb 02000000 		.4byte	.LCFI4
 3419 01cf 0200     		.2byte	0x2
 3420 01d1 7D       		.byte	0x7d
 3421 01d2 00       		.sleb128 0
 3422 01d3 02000000 		.4byte	.LCFI4
 3423 01d7 30000000 		.4byte	.LFE10
 3424 01db 0200     		.2byte	0x2
 3425 01dd 7D       		.byte	0x7d
 3426 01de 08       		.sleb128 8
 3427 01df 00000000 		.4byte	0
 3428 01e3 00000000 		.4byte	0
 3429              	.LLST15:
 3430 01e7 00000000 		.4byte	.LVL17
 3431 01eb 1F000000 		.4byte	.LVL22-1
 3432 01ef 0100     		.2byte	0x1
 3433 01f1 50       		.byte	0x50
 3434 01f2 1F000000 		.4byte	.LVL22-1
 3435 01f6 30000000 		.4byte	.LFE10
 3436 01fa 0400     		.2byte	0x4
 3437 01fc F3       		.byte	0xf3
 3438 01fd 01       		.uleb128 0x1
 3439 01fe 50       		.byte	0x50
 3440 01ff 9F       		.byte	0x9f
 3441 0200 00000000 		.4byte	0
 3442 0204 00000000 		.4byte	0
 3443              	.LLST16:
 3444 0208 08000000 		.4byte	.LVL19
 3445 020c 0A000000 		.4byte	.LVL20
 3446 0210 0100     		.2byte	0x1
 3447 0212 53       		.byte	0x53
 3448 0213 00000000 		.4byte	0
 3449 0217 00000000 		.4byte	0
 3450              	.LLST17:
 3451 021b 26000000 		.4byte	.LVL24
 3452 021f 30000000 		.4byte	.LFE10
 3453 0223 0100     		.2byte	0x1
 3454 0225 53       		.byte	0x53
 3455 0226 00000000 		.4byte	0
 3456 022a 00000000 		.4byte	0
 3457              	.LLST18:
 3458 022e 00000000 		.4byte	.LFB11
 3459 0232 02000000 		.4byte	.LCFI5
 3460 0236 0200     		.2byte	0x2
 3461 0238 7D       		.byte	0x7d
 3462 0239 00       		.sleb128 0
 3463 023a 02000000 		.4byte	.LCFI5
 3464 023e 1A000000 		.4byte	.LFE11
 3465 0242 0200     		.2byte	0x2
ARM GAS  C:\Users\LAB_ME~1\AppData\Local\Temp\ccpqSPBc.s 			page 62


 3466 0244 7D       		.byte	0x7d
 3467 0245 08       		.sleb128 8
 3468 0246 00000000 		.4byte	0
 3469 024a 00000000 		.4byte	0
 3470              	.LLST19:
 3471 024e 00000000 		.4byte	.LVL25
 3472 0252 0F000000 		.4byte	.LVL28-1
 3473 0256 0100     		.2byte	0x1
 3474 0258 50       		.byte	0x50
 3475 0259 0F000000 		.4byte	.LVL28-1
 3476 025d 1A000000 		.4byte	.LFE11
 3477 0261 0100     		.2byte	0x1
 3478 0263 54       		.byte	0x54
 3479 0264 00000000 		.4byte	0
 3480 0268 00000000 		.4byte	0
 3481              	.LLST20:
 3482 026c 0A000000 		.4byte	.LVL27
 3483 0270 0F000000 		.4byte	.LVL28-1
 3484 0274 0100     		.2byte	0x1
 3485 0276 53       		.byte	0x53
 3486 0277 00000000 		.4byte	0
 3487 027b 00000000 		.4byte	0
 3488              	.LLST21:
 3489 027f 16000000 		.4byte	.LVL30
 3490 0283 1A000000 		.4byte	.LFE11
 3491 0287 0100     		.2byte	0x1
 3492 0289 53       		.byte	0x53
 3493 028a 00000000 		.4byte	0
 3494 028e 00000000 		.4byte	0
 3495              	.LLST22:
 3496 0292 06000000 		.4byte	.LVL33
 3497 0296 08000000 		.4byte	.LVL34
 3498 029a 0100     		.2byte	0x1
 3499 029c 53       		.byte	0x53
 3500 029d 00000000 		.4byte	0
 3501 02a1 00000000 		.4byte	0
 3502              	.LLST23:
 3503 02a5 14000000 		.4byte	.LVL36
 3504 02a9 16000000 		.4byte	.LFE12
 3505 02ad 0100     		.2byte	0x1
 3506 02af 53       		.byte	0x53
 3507 02b0 00000000 		.4byte	0
 3508 02b4 00000000 		.4byte	0
 3509              	.LLST24:
 3510 02b8 00000000 		.4byte	.LFB13
 3511 02bc 02000000 		.4byte	.LCFI6
 3512 02c0 0200     		.2byte	0x2
 3513 02c2 7D       		.byte	0x7d
 3514 02c3 00       		.sleb128 0
 3515 02c4 02000000 		.4byte	.LCFI6
 3516 02c8 18000000 		.4byte	.LFE13
 3517 02cc 0200     		.2byte	0x2
 3518 02ce 7D       		.byte	0x7d
 3519 02cf 08       		.sleb128 8
 3520 02d0 00000000 		.4byte	0
 3521 02d4 00000000 		.4byte	0
 3522              	.LLST25:
ARM GAS  C:\Users\LAB_ME~1\AppData\Local\Temp\ccpqSPBc.s 			page 63


 3523 02d8 00000000 		.4byte	.LVL37
 3524 02dc 0C000000 		.4byte	.LVL40
 3525 02e0 0100     		.2byte	0x1
 3526 02e2 50       		.byte	0x50
 3527 02e3 0C000000 		.4byte	.LVL40
 3528 02e7 0F000000 		.4byte	.LVL41-1
 3529 02eb 0100     		.2byte	0x1
 3530 02ed 51       		.byte	0x51
 3531 02ee 0F000000 		.4byte	.LVL41-1
 3532 02f2 18000000 		.4byte	.LFE13
 3533 02f6 0400     		.2byte	0x4
 3534 02f8 F3       		.byte	0xf3
 3535 02f9 01       		.uleb128 0x1
 3536 02fa 50       		.byte	0x50
 3537 02fb 9F       		.byte	0x9f
 3538 02fc 00000000 		.4byte	0
 3539 0300 00000000 		.4byte	0
 3540              	.LLST26:
 3541 0304 0A000000 		.4byte	.LVL39
 3542 0308 0F000000 		.4byte	.LVL41-1
 3543 030c 0100     		.2byte	0x1
 3544 030e 53       		.byte	0x53
 3545 030f 00000000 		.4byte	0
 3546 0313 00000000 		.4byte	0
 3547              	.LLST27:
 3548 0317 16000000 		.4byte	.LVL43
 3549 031b 18000000 		.4byte	.LFE13
 3550 031f 0100     		.2byte	0x1
 3551 0321 53       		.byte	0x53
 3552 0322 00000000 		.4byte	0
 3553 0326 00000000 		.4byte	0
 3554              	.LLST28:
 3555 032a 00000000 		.4byte	.LFB14
 3556 032e 02000000 		.4byte	.LCFI7
 3557 0332 0200     		.2byte	0x2
 3558 0334 7D       		.byte	0x7d
 3559 0335 00       		.sleb128 0
 3560 0336 02000000 		.4byte	.LCFI7
 3561 033a 24000000 		.4byte	.LFE14
 3562 033e 0200     		.2byte	0x2
 3563 0340 7D       		.byte	0x7d
 3564 0341 08       		.sleb128 8
 3565 0342 00000000 		.4byte	0
 3566 0346 00000000 		.4byte	0
 3567              	.LLST29:
 3568 034a 00000000 		.4byte	.LVL44
 3569 034e 0C000000 		.4byte	.LVL48
 3570 0352 0100     		.2byte	0x1
 3571 0354 50       		.byte	0x50
 3572 0355 0C000000 		.4byte	.LVL48
 3573 0359 0E000000 		.4byte	.LVL49
 3574 035d 0600     		.2byte	0x6
 3575 035f 70       		.byte	0x70
 3576 0360 00       		.sleb128 0
 3577 0361 71       		.byte	0x71
 3578 0362 00       		.sleb128 0
 3579 0363 1C       		.byte	0x1c
ARM GAS  C:\Users\LAB_ME~1\AppData\Local\Temp\ccpqSPBc.s 			page 64


 3580 0364 9F       		.byte	0x9f
 3581 0365 0E000000 		.4byte	.LVL49
 3582 0369 15000000 		.4byte	.LVL50-1
 3583 036d 0100     		.2byte	0x1
 3584 036f 51       		.byte	0x51
 3585 0370 00000000 		.4byte	0
 3586 0374 00000000 		.4byte	0
 3587              	.LLST30:
 3588 0378 08000000 		.4byte	.LVL46
 3589 037c 0A000000 		.4byte	.LVL47
 3590 0380 0100     		.2byte	0x1
 3591 0382 53       		.byte	0x53
 3592 0383 00000000 		.4byte	0
 3593 0387 00000000 		.4byte	0
 3594              	.LLST31:
 3595 038b 1C000000 		.4byte	.LVL52
 3596 038f 24000000 		.4byte	.LFE14
 3597 0393 0100     		.2byte	0x1
 3598 0395 53       		.byte	0x53
 3599 0396 00000000 		.4byte	0
 3600 039a 00000000 		.4byte	0
 3601              	.LLST32:
 3602 039e 00000000 		.4byte	.LFB15
 3603 03a2 02000000 		.4byte	.LCFI8
 3604 03a6 0200     		.2byte	0x2
 3605 03a8 7D       		.byte	0x7d
 3606 03a9 00       		.sleb128 0
 3607 03aa 02000000 		.4byte	.LCFI8
 3608 03ae 28000000 		.4byte	.LFE15
 3609 03b2 0200     		.2byte	0x2
 3610 03b4 7D       		.byte	0x7d
 3611 03b5 08       		.sleb128 8
 3612 03b6 00000000 		.4byte	0
 3613 03ba 00000000 		.4byte	0
 3614              	.LLST33:
 3615 03be 08000000 		.4byte	.LVL54
 3616 03c2 0A000000 		.4byte	.LVL55
 3617 03c6 0100     		.2byte	0x1
 3618 03c8 53       		.byte	0x53
 3619 03c9 00000000 		.4byte	0
 3620 03cd 00000000 		.4byte	0
 3621              	.LLST34:
 3622 03d1 20000000 		.4byte	.LVL58
 3623 03d5 28000000 		.4byte	.LFE15
 3624 03d9 0100     		.2byte	0x1
 3625 03db 53       		.byte	0x53
 3626 03dc 00000000 		.4byte	0
 3627 03e0 00000000 		.4byte	0
 3628              	.LLST35:
 3629 03e4 00000000 		.4byte	.LFB17
 3630 03e8 02000000 		.4byte	.LCFI9
 3631 03ec 0200     		.2byte	0x2
 3632 03ee 7D       		.byte	0x7d
 3633 03ef 00       		.sleb128 0
 3634 03f0 02000000 		.4byte	.LCFI9
 3635 03f4 40000000 		.4byte	.LFE17
 3636 03f8 0200     		.2byte	0x2
ARM GAS  C:\Users\LAB_ME~1\AppData\Local\Temp\ccpqSPBc.s 			page 65


 3637 03fa 7D       		.byte	0x7d
 3638 03fb 10       		.sleb128 16
 3639 03fc 00000000 		.4byte	0
 3640 0400 00000000 		.4byte	0
 3641              	.LLST36:
 3642 0404 00000000 		.4byte	.LVL59
 3643 0408 0E000000 		.4byte	.LVL61
 3644 040c 0100     		.2byte	0x1
 3645 040e 50       		.byte	0x50
 3646 040f 0E000000 		.4byte	.LVL61
 3647 0413 12000000 		.4byte	.LVL62
 3648 0417 0200     		.2byte	0x2
 3649 0419 74       		.byte	0x74
 3650 041a 24       		.sleb128 36
 3651 041b 12000000 		.4byte	.LVL62
 3652 041f 40000000 		.4byte	.LFE17
 3653 0423 0400     		.2byte	0x4
 3654 0425 F3       		.byte	0xf3
 3655 0426 01       		.uleb128 0x1
 3656 0427 50       		.byte	0x50
 3657 0428 9F       		.byte	0x9f
 3658 0429 00000000 		.4byte	0
 3659 042d 00000000 		.4byte	0
 3660              	.LLST37:
 3661 0431 12000000 		.4byte	.LVL62
 3662 0435 20000000 		.4byte	.LVL64
 3663 0439 0300     		.2byte	0x3
 3664 043b 74       		.byte	0x74
 3665 043c 28       		.sleb128 40
 3666 043d 9F       		.byte	0x9f
 3667 043e 00000000 		.4byte	0
 3668 0442 00000000 		.4byte	0
 3669              	.LLST38:
 3670 0446 12000000 		.4byte	.LVL62
 3671 044a 19000000 		.4byte	.LVL63-1
 3672 044e 0100     		.2byte	0x1
 3673 0450 50       		.byte	0x50
 3674 0451 00000000 		.4byte	0
 3675 0455 00000000 		.4byte	0
 3676              	.LLST39:
 3677 0459 00000000 		.4byte	.LVL66
 3678 045d 09000000 		.4byte	.LVL69-1
 3679 0461 0100     		.2byte	0x1
 3680 0463 50       		.byte	0x50
 3681 0464 09000000 		.4byte	.LVL69-1
 3682 0468 0A000000 		.4byte	.LFE16
 3683 046c 0400     		.2byte	0x4
 3684 046e F3       		.byte	0xf3
 3685 046f 01       		.uleb128 0x1
 3686 0470 50       		.byte	0x50
 3687 0471 9F       		.byte	0x9f
 3688 0472 00000000 		.4byte	0
 3689 0476 00000000 		.4byte	0
 3690              	.LLST40:
 3691 047a 06000000 		.4byte	.LVL68
 3692 047e 09000000 		.4byte	.LVL69-1
 3693 0482 0100     		.2byte	0x1
ARM GAS  C:\Users\LAB_ME~1\AppData\Local\Temp\ccpqSPBc.s 			page 66


 3694 0484 53       		.byte	0x53
 3695 0485 00000000 		.4byte	0
 3696 0489 00000000 		.4byte	0
 3697              	.LLST41:
 3698 048d 00000000 		.4byte	.LFB18
 3699 0491 02000000 		.4byte	.LCFI10
 3700 0495 0200     		.2byte	0x2
 3701 0497 7D       		.byte	0x7d
 3702 0498 00       		.sleb128 0
 3703 0499 02000000 		.4byte	.LCFI10
 3704 049d 38000000 		.4byte	.LFE18
 3705 04a1 0200     		.2byte	0x2
 3706 04a3 7D       		.byte	0x7d
 3707 04a4 10       		.sleb128 16
 3708 04a5 00000000 		.4byte	0
 3709 04a9 00000000 		.4byte	0
 3710              	.LLST42:
 3711 04ad 00000000 		.4byte	.LVL70
 3712 04b1 18000000 		.4byte	.LVL75
 3713 04b5 0100     		.2byte	0x1
 3714 04b7 50       		.byte	0x50
 3715 04b8 18000000 		.4byte	.LVL75
 3716 04bc 38000000 		.4byte	.LFE18
 3717 04c0 0100     		.2byte	0x1
 3718 04c2 54       		.byte	0x54
 3719 04c3 00000000 		.4byte	0
 3720 04c7 00000000 		.4byte	0
 3721              	.LLST43:
 3722 04cb 0A000000 		.4byte	.LVL72
 3723 04cf 0C000000 		.4byte	.LVL73
 3724 04d3 0100     		.2byte	0x1
 3725 04d5 53       		.byte	0x53
 3726 04d6 00000000 		.4byte	0
 3727 04da 00000000 		.4byte	0
 3728              	.LLST44:
 3729 04de 16000000 		.4byte	.LVL74
 3730 04e2 18000000 		.4byte	.LVL75
 3731 04e6 0300     		.2byte	0x3
 3732 04e8 70       		.byte	0x70
 3733 04e9 28       		.sleb128 40
 3734 04ea 9F       		.byte	0x9f
 3735 04eb 18000000 		.4byte	.LVL75
 3736 04ef 20000000 		.4byte	.LVL76
 3737 04f3 0300     		.2byte	0x3
 3738 04f5 74       		.byte	0x74
 3739 04f6 28       		.sleb128 40
 3740 04f7 9F       		.byte	0x9f
 3741 04f8 00000000 		.4byte	0
 3742 04fc 00000000 		.4byte	0
 3743              	.LLST45:
 3744 0500 16000000 		.4byte	.LVL74
 3745 0504 1F000000 		.4byte	.LVL76-1
 3746 0508 0100     		.2byte	0x1
 3747 050a 53       		.byte	0x53
 3748 050b 00000000 		.4byte	0
 3749 050f 00000000 		.4byte	0
 3750              	.LLST46:
ARM GAS  C:\Users\LAB_ME~1\AppData\Local\Temp\ccpqSPBc.s 			page 67


 3751 0513 28000000 		.4byte	.LVL79
 3752 0517 2D000000 		.4byte	.LVL80-1
 3753 051b 0100     		.2byte	0x1
 3754 051d 53       		.byte	0x53
 3755 051e 00000000 		.4byte	0
 3756 0522 00000000 		.4byte	0
 3757              		.section	.debug_aranges,"",%progbits
 3758 0000 74000000 		.4byte	0x74
 3759 0004 0200     		.2byte	0x2
 3760 0006 00000000 		.4byte	.Ldebug_info0
 3761 000a 04       		.byte	0x4
 3762 000b 00       		.byte	0
 3763 000c 0000     		.2byte	0
 3764 000e 0000     		.2byte	0
 3765 0010 00000000 		.4byte	.LFB7
 3766 0014 44000000 		.4byte	.LFE7-.LFB7
 3767 0018 00000000 		.4byte	.LFB8
 3768 001c 68000000 		.4byte	.LFE8-.LFB8
 3769 0020 00000000 		.4byte	.LFB9
 3770 0024 2A000000 		.4byte	.LFE9-.LFB9
 3771 0028 00000000 		.4byte	.LFB10
 3772 002c 30000000 		.4byte	.LFE10-.LFB10
 3773 0030 00000000 		.4byte	.LFB11
 3774 0034 1A000000 		.4byte	.LFE11-.LFB11
 3775 0038 00000000 		.4byte	.LFB12
 3776 003c 16000000 		.4byte	.LFE12-.LFB12
 3777 0040 00000000 		.4byte	.LFB13
 3778 0044 18000000 		.4byte	.LFE13-.LFB13
 3779 0048 00000000 		.4byte	.LFB14
 3780 004c 24000000 		.4byte	.LFE14-.LFB14
 3781 0050 00000000 		.4byte	.LFB15
 3782 0054 28000000 		.4byte	.LFE15-.LFB15
 3783 0058 00000000 		.4byte	.LFB17
 3784 005c 40000000 		.4byte	.LFE17-.LFB17
 3785 0060 00000000 		.4byte	.LFB16
 3786 0064 0A000000 		.4byte	.LFE16-.LFB16
 3787 0068 00000000 		.4byte	.LFB18
 3788 006c 38000000 		.4byte	.LFE18-.LFB18
 3789 0070 00000000 		.4byte	0
 3790 0074 00000000 		.4byte	0
 3791              		.section	.debug_ranges,"",%progbits
 3792              	.Ldebug_ranges0:
 3793 0000 06000000 		.4byte	.LBB10
 3794 0004 08000000 		.4byte	.LBE10
 3795 0008 0A000000 		.4byte	.LBB16
 3796 000c 0E000000 		.4byte	.LBE16
 3797 0010 1A000000 		.4byte	.LBB17
 3798 0014 22000000 		.4byte	.LBE17
 3799 0018 24000000 		.4byte	.LBB18
 3800 001c 3A000000 		.4byte	.LBE18
 3801 0020 3C000000 		.4byte	.LBB19
 3802 0024 5A000000 		.4byte	.LBE19
 3803 0028 00000000 		.4byte	0
 3804 002c 00000000 		.4byte	0
 3805 0030 02000000 		.4byte	.LBB24
 3806 0034 04000000 		.4byte	.LBE24
 3807 0038 06000000 		.4byte	.LBB25
ARM GAS  C:\Users\LAB_ME~1\AppData\Local\Temp\ccpqSPBc.s 			page 68


 3808 003c 0A000000 		.4byte	.LBE25
 3809 0040 00000000 		.4byte	0
 3810 0044 00000000 		.4byte	0
 3811 0048 12000000 		.4byte	.LBB39
 3812 004c 14000000 		.4byte	.LBE39
 3813 0050 18000000 		.4byte	.LBB42
 3814 0054 1C000000 		.4byte	.LBE42
 3815 0058 00000000 		.4byte	0
 3816 005c 00000000 		.4byte	0
 3817 0060 00000000 		.4byte	.LFB7
 3818 0064 44000000 		.4byte	.LFE7
 3819 0068 00000000 		.4byte	.LFB8
 3820 006c 68000000 		.4byte	.LFE8
 3821 0070 00000000 		.4byte	.LFB9
 3822 0074 2A000000 		.4byte	.LFE9
 3823 0078 00000000 		.4byte	.LFB10
 3824 007c 30000000 		.4byte	.LFE10
 3825 0080 00000000 		.4byte	.LFB11
 3826 0084 1A000000 		.4byte	.LFE11
 3827 0088 00000000 		.4byte	.LFB12
 3828 008c 16000000 		.4byte	.LFE12
 3829 0090 00000000 		.4byte	.LFB13
 3830 0094 18000000 		.4byte	.LFE13
 3831 0098 00000000 		.4byte	.LFB14
 3832 009c 24000000 		.4byte	.LFE14
 3833 00a0 00000000 		.4byte	.LFB15
 3834 00a4 28000000 		.4byte	.LFE15
 3835 00a8 00000000 		.4byte	.LFB17
 3836 00ac 40000000 		.4byte	.LFE17
 3837 00b0 00000000 		.4byte	.LFB16
 3838 00b4 0A000000 		.4byte	.LFE16
 3839 00b8 00000000 		.4byte	.LFB18
 3840 00bc 38000000 		.4byte	.LFE18
 3841 00c0 00000000 		.4byte	0
 3842 00c4 00000000 		.4byte	0
 3843              		.section	.debug_line,"",%progbits
 3844              	.Ldebug_line0:
 3845 0000 9C030000 		.section	.debug_str,"MS",%progbits,1
 3845      0200F901 
 3845      00000201 
 3845      FB0E0D00 
 3845      01010101 
 3846              	.LASF72:
 3847 0000 7466756E 		.ascii	"tfunc_t\000"
 3847      635F7400 
 3848              	.LASF36:
 3849 0008 705F6D73 		.ascii	"p_msg\000"
 3849      6700
 3850              	.LASF2:
 3851 000e 73697A65 		.ascii	"size_t\000"
 3851      5F7400
 3852              	.LASF73:
 3853 0015 7072696F 		.ascii	"prio\000"
 3853      00
 3854              	.LASF67:
 3855 001a 7264796D 		.ascii	"rdymsg\000"
 3855      736700
ARM GAS  C:\Users\LAB_ME~1\AppData\Local\Temp\ccpqSPBc.s 			page 69


 3856              	.LASF89:
 3857 0021 76746C69 		.ascii	"vtlist\000"
 3857      737400
 3858              	.LASF86:
 3859 0028 63685468 		.ascii	"chThdExitS\000"
 3859      64457869 
 3859      745300
 3860              	.LASF12:
 3861 0033 6C6F6E67 		.ascii	"long long unsigned int\000"
 3861      206C6F6E 
 3861      6720756E 
 3861      7369676E 
 3861      65642069 
 3862              	.LASF68:
 3863 004a 65786974 		.ascii	"exitcode\000"
 3863      636F6465 
 3863      00
 3864              	.LASF24:
 3865 0053 705F7072 		.ascii	"p_prio\000"
 3865      696F00
 3866              	.LASF11:
 3867 005a 6C6F6E67 		.ascii	"long long int\000"
 3867      206C6F6E 
 3867      6720696E 
 3867      7400
 3868              	.LASF1:
 3869 0068 7369676E 		.ascii	"signed char\000"
 3869      65642063 
 3869      68617200 
 3870              	.LASF87:
 3871 0074 63685468 		.ascii	"chThdExit\000"
 3871      64457869 
 3871      7400
 3872              	.LASF40:
 3873 007e 705F6D70 		.ascii	"p_mpool\000"
 3873      6F6F6C00 
 3874              	.LASF64:
 3875 0086 6D5F7175 		.ascii	"m_queue\000"
 3875      65756500 
 3876              	.LASF16:
 3877 008e 74736C69 		.ascii	"tslices_t\000"
 3877      6365735F 
 3877      7400
 3878              	.LASF75:
 3879 0098 63685468 		.ascii	"chThdCreateI\000"
 3879      64437265 
 3879      61746549 
 3879      00
 3880              	.LASF8:
 3881 00a5 6C6F6E67 		.ascii	"long int\000"
 3881      20696E74 
 3881      00
 3882              	.LASF14:
 3883 00ae 74737461 		.ascii	"tstate_t\000"
 3883      74655F74 
 3883      00
 3884              	.LASF26:
ARM GAS  C:\Users\LAB_ME~1\AppData\Local\Temp\ccpqSPBc.s 			page 70


 3885 00b7 705F6E65 		.ascii	"p_newer\000"
 3885      77657200 
 3886              	.LASF101:
 3887 00bf 6C697374 		.ascii	"list_remove\000"
 3887      5F72656D 
 3887      6F766500 
 3888              	.LASF93:
 3889 00cb 63685363 		.ascii	"chSchRescheduleS\000"
 3889      68526573 
 3889      63686564 
 3889      756C6553 
 3889      00
 3890              	.LASF59:
 3891 00dc 725F6E65 		.ascii	"r_newer\000"
 3891      77657200 
 3892              	.LASF43:
 3893 00e4 72656761 		.ascii	"regarm_t\000"
 3893      726D5F74 
 3893      00
 3894              	.LASF50:
 3895 00ed 76745F70 		.ascii	"vt_prev\000"
 3895      72657600 
 3896              	.LASF77:
 3897 00f5 63685468 		.ascii	"chThdSetPriority\000"
 3897      64536574 
 3897      5072696F 
 3897      72697479 
 3897      00
 3898              	.LASF0:
 3899 0106 756E7369 		.ascii	"unsigned int\000"
 3899      676E6564 
 3899      20696E74 
 3899      00
 3900              	.LASF49:
 3901 0113 76745F6E 		.ascii	"vt_next\000"
 3901      65787400 
 3902              	.LASF10:
 3903 011b 6C6F6E67 		.ascii	"long unsigned int\000"
 3903      20756E73 
 3903      69676E65 
 3903      6420696E 
 3903      7400
 3904              	.LASF45:
 3905 012d 636F6E74 		.ascii	"context\000"
 3905      65787400 
 3906              	.LASF74:
 3907 0135 73697A65 		.ascii	"size\000"
 3907      00
 3908              	.LASF6:
 3909 013a 73686F72 		.ascii	"short unsigned int\000"
 3909      7420756E 
 3909      7369676E 
 3909      65642069 
 3909      6E7400
 3910              	.LASF96:
 3911 014d 63685363 		.ascii	"chSchWakeupS\000"
 3911      6857616B 
ARM GAS  C:\Users\LAB_ME~1\AppData\Local\Temp\ccpqSPBc.s 			page 71


 3911      65757053 
 3911      00
 3912              	.LASF18:
 3913 015a 6D73675F 		.ascii	"msg_t\000"
 3913      7400
 3914              	.LASF78:
 3915 0160 6E657770 		.ascii	"newprio\000"
 3915      72696F00 
 3916              	.LASF13:
 3917 0168 746D6F64 		.ascii	"tmode_t\000"
 3917      655F7400 
 3918              	.LASF81:
 3919 0170 63685468 		.ascii	"chThdTerminate\000"
 3919      64546572 
 3919      6D696E61 
 3919      746500
 3920              	.LASF42:
 3921 017f 54687265 		.ascii	"ThreadsList\000"
 3921      6164734C 
 3921      69737400 
 3922              	.LASF19:
 3923 018b 6576656E 		.ascii	"eventmask_t\000"
 3923      746D6173 
 3923      6B5F7400 
 3924              	.LASF63:
 3925 0197 4D757465 		.ascii	"Mutex\000"
 3925      7800
 3926              	.LASF79:
 3927 019d 6F6C6470 		.ascii	"oldprio\000"
 3927      72696F00 
 3928              	.LASF76:
 3929 01a5 63685468 		.ascii	"chThdCreateStatic\000"
 3929      64437265 
 3929      61746553 
 3929      74617469 
 3929      6300
 3930              	.LASF102:
 3931 01b7 6C697374 		.ascii	"list_insert\000"
 3931      5F696E73 
 3931      65727400 
 3932              	.LASF51:
 3933 01c3 76745F74 		.ascii	"vt_time\000"
 3933      696D6500 
 3934              	.LASF46:
 3935 01cb 73697A65 		.ascii	"sizetype\000"
 3935      74797065 
 3935      00
 3936              	.LASF52:
 3937 01d4 76745F66 		.ascii	"vt_func\000"
 3937      756E6300 
 3938              	.LASF80:
 3939 01dc 63685468 		.ascii	"chThdResume\000"
 3939      64526573 
 3939      756D6500 
 3940              	.LASF94:
 3941 01e8 63685363 		.ascii	"chSchDoRescheduleBehind\000"
 3941      68446F52 
ARM GAS  C:\Users\LAB_ME~1\AppData\Local\Temp\ccpqSPBc.s 			page 72


 3941      65736368 
 3941      6564756C 
 3941      65426568 
 3942              	.LASF27:
 3943 0200 705F6F6C 		.ascii	"p_older\000"
 3943      64657200 
 3944              	.LASF58:
 3945 0208 725F6374 		.ascii	"r_ctx\000"
 3945      7800
 3946              	.LASF41:
 3947 020e 54687265 		.ascii	"ThreadsQueue\000"
 3947      61647351 
 3947      75657565 
 3947      00
 3948              	.LASF83:
 3949 021b 74696D65 		.ascii	"time\000"
 3949      00
 3950              	.LASF98:
 3951 0220 474E5520 		.ascii	"GNU C 4.7.2\000"
 3951      4320342E 
 3951      372E3200 
 3952              	.LASF61:
 3953 022c 725F6375 		.ascii	"r_current\000"
 3953      7272656E 
 3953      7400
 3954              	.LASF60:
 3955 0236 725F6F6C 		.ascii	"r_older\000"
 3955      64657200 
 3956              	.LASF84:
 3957 023e 63685468 		.ascii	"chThdSleepUntil\000"
 3957      64536C65 
 3957      6570556E 
 3957      74696C00 
 3958              	.LASF15:
 3959 024e 74726566 		.ascii	"trefs_t\000"
 3959      735F7400 
 3960              	.LASF23:
 3961 0256 705F7072 		.ascii	"p_prev\000"
 3961      657600
 3962              	.LASF17:
 3963 025d 74707269 		.ascii	"tprio_t\000"
 3963      6F5F7400 
 3964              	.LASF7:
 3965 0265 696E7433 		.ascii	"int32_t\000"
 3965      325F7400 
 3966              	.LASF4:
 3967 026d 756E7369 		.ascii	"unsigned char\000"
 3967      676E6564 
 3967      20636861 
 3967      7200
 3968              	.LASF38:
 3969 027b 705F6D74 		.ascii	"p_mtxlist\000"
 3969      786C6973 
 3969      7400
 3970              	.LASF5:
 3971 0285 73686F72 		.ascii	"short int\000"
 3971      7420696E 
ARM GAS  C:\Users\LAB_ME~1\AppData\Local\Temp\ccpqSPBc.s 			page 73


 3971      7400
 3972              	.LASF29:
 3973 028f 705F7374 		.ascii	"p_state\000"
 3973      61746500 
 3974              	.LASF32:
 3975 0297 705F7072 		.ascii	"p_preempt\000"
 3975      65656D70 
 3975      7400
 3976              	.LASF57:
 3977 02a1 725F7072 		.ascii	"r_prio\000"
 3977      696F00
 3978              	.LASF70:
 3979 02a8 65776D61 		.ascii	"ewmask\000"
 3979      736B00
 3980              	.LASF22:
 3981 02af 705F6E65 		.ascii	"p_next\000"
 3981      787400
 3982              	.LASF30:
 3983 02b6 705F666C 		.ascii	"p_flags\000"
 3983      61677300 
 3984              	.LASF103:
 3985 02be 63685468 		.ascii	"chThdRelease\000"
 3985      6452656C 
 3985      65617365 
 3985      00
 3986              	.LASF21:
 3987 02cb 54687265 		.ascii	"Thread\000"
 3987      616400
 3988              	.LASF97:
 3989 02d2 63685363 		.ascii	"chSchGoSleepS\000"
 3989      68476F53 
 3989      6C656570 
 3989      5300
 3990              	.LASF37:
 3991 02e0 705F6570 		.ascii	"p_epending\000"
 3991      656E6469 
 3991      6E6700
 3992              	.LASF9:
 3993 02eb 75696E74 		.ascii	"uint32_t\000"
 3993      33325F74 
 3993      00
 3994              	.LASF91:
 3995 02f4 5F746872 		.ascii	"_thread_init\000"
 3995      6561645F 
 3995      696E6974 
 3995      00
 3996              	.LASF56:
 3997 0301 725F7175 		.ascii	"r_queue\000"
 3997      65756500 
 3998              	.LASF48:
 3999 0309 56697274 		.ascii	"VirtualTimer\000"
 3999      75616C54 
 3999      696D6572 
 3999      00
 4000              	.LASF71:
 4001 0316 63686172 		.ascii	"char\000"
 4001      00
ARM GAS  C:\Users\LAB_ME~1\AppData\Local\Temp\ccpqSPBc.s 			page 74


 4002              	.LASF95:
 4003 031b 63685363 		.ascii	"chSchReadyI\000"
 4003      68526561 
 4003      64794900 
 4004              	.LASF66:
 4005 0327 6D5F6E65 		.ascii	"m_next\000"
 4005      787400
 4006              	.LASF20:
 4007 032e 73797374 		.ascii	"systime_t\000"
 4007      696D655F 
 4007      7400
 4008              	.LASF39:
 4009 0338 705F7265 		.ascii	"p_realprio\000"
 4009      616C7072 
 4009      696F00
 4010              	.LASF47:
 4011 0343 76746675 		.ascii	"vtfunc_t\000"
 4011      6E635F74 
 4011      00
 4012              	.LASF85:
 4013 034c 63685468 		.ascii	"chThdYield\000"
 4013      64596965 
 4013      6C6400
 4014              	.LASF33:
 4015 0357 705F7469 		.ascii	"p_time\000"
 4015      6D6500
 4016              	.LASF44:
 4017 035e 696E7463 		.ascii	"intctx\000"
 4017      747800
 4018              	.LASF35:
 4019 0365 705F6D73 		.ascii	"p_msgqueue\000"
 4019      67717565 
 4019      756500
 4020              	.LASF88:
 4021 0370 63685468 		.ascii	"chThdWait\000"
 4021      64576169 
 4021      7400
 4022              	.LASF53:
 4023 037a 76745F70 		.ascii	"vt_par\000"
 4023      617200
 4024              	.LASF82:
 4025 0381 63685468 		.ascii	"chThdSleep\000"
 4025      64536C65 
 4025      657000
 4026              	.LASF31:
 4027 038c 705F7265 		.ascii	"p_refs\000"
 4027      667300
 4028              	.LASF62:
 4029 0393 52656164 		.ascii	"ReadyList\000"
 4029      794C6973 
 4029      7400
 4030              	.LASF90:
 4031 039d 726C6973 		.ascii	"rlist\000"
 4031      7400
 4032              	.LASF3:
 4033 03a3 75696E74 		.ascii	"uint8_t\000"
 4033      385F7400 
ARM GAS  C:\Users\LAB_ME~1\AppData\Local\Temp\ccpqSPBc.s 			page 75


 4034              	.LASF99:
 4035 03ab 2E2E2F2E 		.ascii	"../../os/kernel/src/chthreads.c\000"
 4035      2E2F6F73 
 4035      2F6B6572 
 4035      6E656C2F 
 4035      7372632F 
 4036              	.LASF69:
 4037 03cb 77746F62 		.ascii	"wtobjp\000"
 4037      6A7000
 4038              	.LASF28:
 4039 03d2 705F6E61 		.ascii	"p_name\000"
 4039      6D6500
 4040              	.LASF54:
 4041 03d9 76745F73 		.ascii	"vt_systime\000"
 4041      79737469 
 4041      6D6500
 4042              	.LASF92:
 4043 03e4 63685363 		.ascii	"chSchGoSleepTimeoutS\000"
 4043      68476F53 
 4043      6C656570 
 4043      54696D65 
 4043      6F757453 
 4044              	.LASF55:
 4045 03f9 56544C69 		.ascii	"VTList\000"
 4045      737400
 4046              	.LASF65:
 4047 0400 6D5F6F77 		.ascii	"m_owner\000"
 4047      6E657200 
 4048              	.LASF100:
 4049 0408 433A5C43 		.ascii	"C:\\Chibios\\demos\\FirmwareV2\000"
 4049      68696269 
 4049      6F735C64 
 4049      656D6F73 
 4049      5C466972 
 4050              	.LASF25:
 4051 0424 705F6374 		.ascii	"p_ctx\000"
 4051      7800
 4052              	.LASF34:
 4053 042a 705F7761 		.ascii	"p_waiting\000"
 4053      6974696E 
 4053      6700
 4054              		.ident	"GCC: (Sourcery CodeBench Lite 2012.09-63) 4.7.2"
ARM GAS  C:\Users\LAB_ME~1\AppData\Local\Temp\ccpqSPBc.s 			page 76


DEFINED SYMBOLS
                            *ABS*:00000000 chthreads.c
C:\Users\LAB_ME~1\AppData\Local\Temp\ccpqSPBc.s:19     .text._thread_init:00000000 $t
C:\Users\LAB_ME~1\AppData\Local\Temp\ccpqSPBc.s:25     .text._thread_init:00000000 _thread_init
C:\Users\LAB_ME~1\AppData\Local\Temp\ccpqSPBc.s:96     .text._thread_init:00000040 $d
C:\Users\LAB_ME~1\AppData\Local\Temp\ccpqSPBc.s:101    .text.chThdCreateI:00000000 $t
C:\Users\LAB_ME~1\AppData\Local\Temp\ccpqSPBc.s:107    .text.chThdCreateI:00000000 chThdCreateI
C:\Users\LAB_ME~1\AppData\Local\Temp\ccpqSPBc.s:217    .text.chThdCreateI:00000060 $d
C:\Users\LAB_ME~1\AppData\Local\Temp\ccpqSPBc.s:223    .text.chThdCreateStatic:00000000 $t
C:\Users\LAB_ME~1\AppData\Local\Temp\ccpqSPBc.s:229    .text.chThdCreateStatic:00000000 chThdCreateStatic
C:\Users\LAB_ME~1\AppData\Local\Temp\ccpqSPBc.s:286    .text.chThdSetPriority:00000000 $t
C:\Users\LAB_ME~1\AppData\Local\Temp\ccpqSPBc.s:292    .text.chThdSetPriority:00000000 chThdSetPriority
C:\Users\LAB_ME~1\AppData\Local\Temp\ccpqSPBc.s:352    .text.chThdSetPriority:0000002c $d
C:\Users\LAB_ME~1\AppData\Local\Temp\ccpqSPBc.s:357    .text.chThdResume:00000000 $t
C:\Users\LAB_ME~1\AppData\Local\Temp\ccpqSPBc.s:363    .text.chThdResume:00000000 chThdResume
C:\Users\LAB_ME~1\AppData\Local\Temp\ccpqSPBc.s:411    .text.chThdTerminate:00000000 $t
C:\Users\LAB_ME~1\AppData\Local\Temp\ccpqSPBc.s:417    .text.chThdTerminate:00000000 chThdTerminate
C:\Users\LAB_ME~1\AppData\Local\Temp\ccpqSPBc.s:455    .text.chThdSleep:00000000 $t
C:\Users\LAB_ME~1\AppData\Local\Temp\ccpqSPBc.s:461    .text.chThdSleep:00000000 chThdSleep
C:\Users\LAB_ME~1\AppData\Local\Temp\ccpqSPBc.s:505    .text.chThdSleepUntil:00000000 $t
C:\Users\LAB_ME~1\AppData\Local\Temp\ccpqSPBc.s:511    .text.chThdSleepUntil:00000000 chThdSleepUntil
C:\Users\LAB_ME~1\AppData\Local\Temp\ccpqSPBc.s:559    .text.chThdSleepUntil:00000020 $d
C:\Users\LAB_ME~1\AppData\Local\Temp\ccpqSPBc.s:565    .text.chThdYield:00000000 $t
C:\Users\LAB_ME~1\AppData\Local\Temp\ccpqSPBc.s:571    .text.chThdYield:00000000 chThdYield
C:\Users\LAB_ME~1\AppData\Local\Temp\ccpqSPBc.s:618    .text.chThdYield:00000024 $d
C:\Users\LAB_ME~1\AppData\Local\Temp\ccpqSPBc.s:624    .text.chThdExitS:00000000 $t
C:\Users\LAB_ME~1\AppData\Local\Temp\ccpqSPBc.s:630    .text.chThdExitS:00000000 chThdExitS
C:\Users\LAB_ME~1\AppData\Local\Temp\ccpqSPBc.s:697    .text.chThdExitS:0000003c $d
C:\Users\LAB_ME~1\AppData\Local\Temp\ccpqSPBc.s:702    .text.chThdExit:00000000 $t
C:\Users\LAB_ME~1\AppData\Local\Temp\ccpqSPBc.s:708    .text.chThdExit:00000000 chThdExit
C:\Users\LAB_ME~1\AppData\Local\Temp\ccpqSPBc.s:734    .text.chThdWait:00000000 $t
C:\Users\LAB_ME~1\AppData\Local\Temp\ccpqSPBc.s:740    .text.chThdWait:00000000 chThdWait
C:\Users\LAB_ME~1\AppData\Local\Temp\ccpqSPBc.s:820    .text.chThdWait:00000034 $d
                     .debug_frame:00000010 $d
C:\Users\LAB_ME~1\AppData\Local\Temp\ccpqSPBc.s:100    .text._thread_init:00000044 $t
C:\Users\LAB_ME~1\AppData\Local\Temp\ccpqSPBc.s:222    .text.chThdCreateI:00000068 $t
C:\Users\LAB_ME~1\AppData\Local\Temp\ccpqSPBc.s:564    .text.chThdSleepUntil:00000024 $t
C:\Users\LAB_ME~1\AppData\Local\Temp\ccpqSPBc.s:623    .text.chThdYield:00000028 $t
C:\Users\LAB_ME~1\AppData\Local\Temp\ccpqSPBc.s:824    .text.chThdWait:00000038 $t

UNDEFINED SYMBOLS
rlist
_port_thread_start
chSchWakeupS
chSchRescheduleS
chSchGoSleepTimeoutS
vtlist
chSchDoRescheduleBehind
chSchReadyI
chSchGoSleepS
chThdRelease
