ARM GAS  C:\Users\LAB_ME~1\AppData\Local\Temp\ccuhdSG4.s 			page 1


   1              		.syntax unified
   2              		.cpu cortex-m4
   3              		.fpu softvfp
   4              		.eabi_attribute 20, 1
   5              		.eabi_attribute 21, 1
   6              		.eabi_attribute 23, 3
   7              		.eabi_attribute 24, 1
   8              		.eabi_attribute 25, 1
   9              		.eabi_attribute 26, 1
  10              		.eabi_attribute 30, 2
  11              		.eabi_attribute 34, 1
  12              		.eabi_attribute 18, 4
  13              		.thumb
  14              		.file	"chvt.c"
  15              		.text
  16              	.Ltext0:
  17              		.cfi_sections	.debug_frame
  18              		.section	.text._vt_init,"ax",%progbits
  19              		.align	2
  20              		.p2align 4,,15
  21              		.global	_vt_init
  22              		.thumb
  23              		.thumb_func
  24              		.type	_vt_init, %function
  25              	_vt_init:
  26              	.LFB7:
  27              		.file 1 "../../os/kernel/src/chvt.c"
  28              		.loc 1 43 0
  29              		.cfi_startproc
  30              		@ args = 0, pretend = 0, frame = 0
  31              		@ frame_needed = 0, uses_anonymous_args = 0
  32              		@ link register save eliminated.
  33              		.loc 1 45 0
  34 0000 044B     		ldr	r3, .L2
  35              		.loc 1 46 0
  36 0002 4FF0FF32 		mov	r2, #-1
  37 0006 9A60     		str	r2, [r3, #8]
  38              		.loc 1 47 0
  39 0008 0022     		movs	r2, #0
  40              		.loc 1 45 0
  41 000a 5B60     		str	r3, [r3, #4]
  42 000c 1B60     		str	r3, [r3, #0]
  43              		.loc 1 47 0
  44 000e DA60     		str	r2, [r3, #12]
  45 0010 7047     		bx	lr
  46              	.L3:
  47 0012 00BF     		.align	2
  48              	.L2:
  49 0014 00000000 		.word	.LANCHOR0
  50              		.cfi_endproc
  51              	.LFE7:
  52              		.size	_vt_init, .-_vt_init
  53 0018 AFF30080 		.section	.text.chVTSetI,"ax",%progbits
  53      AFF30080 
  54              		.align	2
  55              		.p2align 4,,15
  56              		.global	chVTSetI
ARM GAS  C:\Users\LAB_ME~1\AppData\Local\Temp\ccuhdSG4.s 			page 2


  57              		.thumb
  58              		.thumb_func
  59              		.type	chVTSetI, %function
  60              	chVTSetI:
  61              	.LFB8:
  62              		.loc 1 69 0
  63              		.cfi_startproc
  64              		@ args = 0, pretend = 0, frame = 0
  65              		@ frame_needed = 0, uses_anonymous_args = 0
  66              		@ link register save eliminated.
  67              	.LVL0:
  68 0000 70B4     		push	{r4, r5, r6}
  69              	.LCFI0:
  70              		.cfi_def_cfa_offset 12
  71              		.cfi_offset 4, -12
  72              		.cfi_offset 5, -8
  73              		.cfi_offset 6, -4
  74              		.loc 1 78 0
  75 0002 0C4E     		ldr	r6, .L11
  76              		.loc 1 76 0
  77 0004 0361     		str	r3, [r0, #16]
  78              		.loc 1 78 0
  79 0006 3468     		ldr	r4, [r6, #0]
  80              	.LVL1:
  81              		.loc 1 77 0
  82 0008 C260     		str	r2, [r0, #12]
  83              		.loc 1 79 0
  84 000a A568     		ldr	r5, [r4, #8]
  85 000c A942     		cmp	r1, r5
  86 000e 04D9     		bls	.L5
  87              	.L8:
  88              		.loc 1 81 0
  89 0010 2468     		ldr	r4, [r4, #0]
  90              	.LVL2:
  91              		.loc 1 80 0
  92 0012 491B     		subs	r1, r1, r5
  93              	.LVL3:
  94              		.loc 1 79 0
  95 0014 A568     		ldr	r5, [r4, #8]
  96 0016 8D42     		cmp	r5, r1
  97 0018 FAD3     		bcc	.L8
  98              	.L5:
  99              		.loc 1 84 0
 100 001a 6368     		ldr	r3, [r4, #4]
 101              	.LVL4:
 102 001c 0460     		str	r4, [r0, #0]
 103              		.loc 1 87 0
 104 001e B442     		cmp	r4, r6
 105              		.loc 1 84 0
 106 0020 4360     		str	r3, [r0, #4]
 107              		.loc 1 85 0
 108 0022 1860     		str	r0, [r3, #0]
 109 0024 6060     		str	r0, [r4, #4]
 110              		.loc 1 86 0
 111 0026 8160     		str	r1, [r0, #8]
 112              		.loc 1 87 0
 113 0028 02D0     		beq	.L4
ARM GAS  C:\Users\LAB_ME~1\AppData\Local\Temp\ccuhdSG4.s 			page 3


 114              		.loc 1 88 0
 115 002a A368     		ldr	r3, [r4, #8]
 116 002c 591A     		subs	r1, r3, r1
 117              	.LVL5:
 118 002e A160     		str	r1, [r4, #8]
 119              	.L4:
 120              		.loc 1 89 0
 121 0030 70BC     		pop	{r4, r5, r6}
 122 0032 7047     		bx	lr
 123              	.L12:
 124              		.align	2
 125              	.L11:
 126 0034 00000000 		.word	.LANCHOR0
 127              		.cfi_endproc
 128              	.LFE8:
 129              		.size	chVTSetI, .-chVTSetI
 130 0038 AFF30080 		.section	.text.chVTResetI,"ax",%progbits
 130      AFF30080 
 131              		.align	2
 132              		.p2align 4,,15
 133              		.global	chVTResetI
 134              		.thumb
 135              		.thumb_func
 136              		.type	chVTResetI, %function
 137              	chVTResetI:
 138              	.LFB9:
 139              		.loc 1 99 0
 140              		.cfi_startproc
 141              		@ args = 0, pretend = 0, frame = 0
 142              		@ frame_needed = 0, uses_anonymous_args = 0
 143              		@ link register save eliminated.
 144              	.LVL6:
 145              		.loc 1 107 0
 146 0000 0368     		ldr	r3, [r0, #0]
 147 0002 074A     		ldr	r2, .L15
 148 0004 9342     		cmp	r3, r2
 149 0006 03D0     		beq	.L14
 150              		.loc 1 108 0
 151 0008 9968     		ldr	r1, [r3, #8]
 152 000a 8268     		ldr	r2, [r0, #8]
 153 000c 8A18     		adds	r2, r1, r2
 154 000e 9A60     		str	r2, [r3, #8]
 155              	.L14:
 156              		.loc 1 109 0
 157 0010 4268     		ldr	r2, [r0, #4]
 158 0012 1360     		str	r3, [r2, #0]
 159              		.loc 1 110 0
 160 0014 0368     		ldr	r3, [r0, #0]
 161 0016 5A60     		str	r2, [r3, #4]
 162              		.loc 1 111 0
 163 0018 0023     		movs	r3, #0
 164 001a C360     		str	r3, [r0, #12]
 165 001c 7047     		bx	lr
 166              	.L16:
 167 001e 00BF     		.align	2
 168              	.L15:
 169 0020 00000000 		.word	.LANCHOR0
ARM GAS  C:\Users\LAB_ME~1\AppData\Local\Temp\ccuhdSG4.s 			page 4


 170              		.cfi_endproc
 171              	.LFE9:
 172              		.size	chVTResetI, .-chVTResetI
 173 0024 AFF30080 		.section	.text.chTimeIsWithin,"ax",%progbits
 173      AFF30080 
 173      AFF30080 
 174              		.align	2
 175              		.p2align 4,,15
 176              		.global	chTimeIsWithin
 177              		.thumb
 178              		.thumb_func
 179              		.type	chTimeIsWithin, %function
 180              	chTimeIsWithin:
 181              	.LFB10:
 182              		.loc 1 127 0
 183              		.cfi_startproc
 184              		@ args = 0, pretend = 0, frame = 0
 185              		@ frame_needed = 0, uses_anonymous_args = 0
 186              		@ link register save eliminated.
 187              	.LVL7:
 188              		.loc 1 129 0
 189 0000 094B     		ldr	r3, .L24
 190              		.loc 1 130 0
 191 0002 8142     		cmp	r1, r0
 192              		.loc 1 129 0
 193 0004 DB68     		ldr	r3, [r3, #12]
 194              	.LVL8:
 195              		.loc 1 130 0
 196 0006 05D9     		bls	.L18
 197              		.loc 1 130 0 is_stmt 0 discriminator 1
 198 0008 8342     		cmp	r3, r0
 199 000a 01D3     		bcc	.L22
 200              		.loc 1 130 0 discriminator 3
 201 000c 8B42     		cmp	r3, r1
 202 000e 03D3     		bcc	.L20
 203              	.L22:
 204              		.loc 1 130 0
 205 0010 0020     		movs	r0, #0
 206              	.LVL9:
 207              		.loc 1 132 0 is_stmt 1
 208 0012 7047     		bx	lr
 209              	.LVL10:
 210              	.L18:
 211              		.loc 1 130 0 discriminator 2
 212 0014 8342     		cmp	r3, r0
 213 0016 01D3     		bcc	.L23
 214              	.L20:
 215              		.loc 1 130 0 is_stmt 0
 216 0018 0120     		movs	r0, #1
 217              	.LVL11:
 218 001a 7047     		bx	lr
 219              	.LVL12:
 220              	.L23:
 221              		.loc 1 131 0 is_stmt 1
 222 001c 8B42     		cmp	r3, r1
 223 001e 2CBF     		ite	cs
 224 0020 0020     		movcs	r0, #0
ARM GAS  C:\Users\LAB_ME~1\AppData\Local\Temp\ccuhdSG4.s 			page 5


 225              	.LVL13:
 226 0022 0120     		movcc	r0, #1
 227 0024 7047     		bx	lr
 228              	.L25:
 229 0026 00BF     		.align	2
 230              	.L24:
 231 0028 00000000 		.word	.LANCHOR0
 232              		.cfi_endproc
 233              	.LFE10:
 234              		.size	chTimeIsWithin, .-chTimeIsWithin
 235              		.global	vtlist
 236 002c AFF30080 		.section	.bss.vtlist,"aw",%nobits
 237              		.align	2
 238              		.set	.LANCHOR0,. + 0
 239              		.type	vtlist, %object
 240              		.size	vtlist, 16
 241              	vtlist:
 242 0000 00000000 		.space	16
 242      00000000 
 242      00000000 
 242      00000000 
 243              		.text
 244              	.Letext0:
 245              		.file 2 "c:\\program files (x86)\\codesourcery\\sourcery_codebench_lite_for_arm_eabi\\bin\\../lib/
 246              		.file 3 "../../os/ports/GCC/ARMCMx/chtypes.h"
 247              		.file 4 "../../os/kernel/include/chvt.h"