ARM GAS  C:\Users\LAB_ME~1\AppData\Local\Temp\cckQhmLC.s 			page 1


   1              		.syntax unified
   2              		.cpu cortex-m4
   3              		.fpu softvfp
   4              		.eabi_attribute 20, 1
   5              		.eabi_attribute 21, 1
   6              		.eabi_attribute 23, 3
   7              		.eabi_attribute 24, 1
   8              		.eabi_attribute 25, 1
   9              		.eabi_attribute 26, 1
  10              		.eabi_attribute 30, 2
  11              		.eabi_attribute 34, 1
  12              		.eabi_attribute 18, 4
  13              		.thumb
  14              		.file	"gpt_lld.c"
  15              		.text
  16              	.Ltext0:
  17              		.cfi_sections	.debug_frame
  18              		.section	.text.VectorB0,"ax",%progbits
  19              		.align	2
  20              		.p2align 4,,15
  21              		.global	VectorB0
  22              		.thumb
  23              		.thumb_func
  24              		.type	VectorB0, %function
  25              	VectorB0:
  26              	.LFB119:
  27              		.file 1 "../../os/hal/platforms/STM32/gpt_lld.c"
  28              		.loc 1 141 0
  29              		.cfi_startproc
  30              		@ args = 0, pretend = 0, frame = 0
  31              		@ frame_needed = 0, uses_anonymous_args = 0
  32              	.LVL0:
  33 0000 08B5     		push	{r3, lr}
  34              	.LCFI0:
  35              		.cfi_def_cfa_offset 8
  36              		.cfi_offset 3, -8
  37              		.cfi_offset 14, -4
  38              	.LBB8:
  39              	.LBB9:
  40              		.loc 1 101 0
  41 0002 0A4B     		ldr	r3, .L4
  42              		.loc 1 102 0
  43 0004 1878     		ldrb	r0, [r3, #0]	@ zero_extendqisi2
  44              		.loc 1 101 0
  45 0006 DA68     		ldr	r2, [r3, #12]
  46 0008 0021     		movs	r1, #0
  47              		.loc 1 102 0
  48 000a 0428     		cmp	r0, #4
  49              		.loc 1 101 0
  50 000c 1182     		strh	r1, [r2, #16]	@ movhi
  51              		.loc 1 102 0
  52 000e 04D1     		bne	.L2
  53              		.loc 1 103 0
  54 0010 0220     		movs	r0, #2
  55 0012 1870     		strb	r0, [r3, #0]
  56              	.LVL1:
  57              	.LBB10:
ARM GAS  C:\Users\LAB_ME~1\AppData\Local\Temp\cckQhmLC.s 			page 2


  58              	.LBB11:
  59              		.loc 1 440 0
  60 0014 1180     		strh	r1, [r2, #0]	@ movhi
  61              		.loc 1 441 0
  62 0016 1182     		strh	r1, [r2, #16]	@ movhi
  63              		.loc 1 442 0
  64 0018 9181     		strh	r1, [r2, #12]	@ movhi
  65              	.LVL2:
  66              	.L2:
  67              	.LBE11:
  68              	.LBE10:
  69              		.loc 1 106 0
  70 001a 5B68     		ldr	r3, [r3, #4]
  71 001c 0348     		ldr	r0, .L4
  72 001e 5B68     		ldr	r3, [r3, #4]
  73 0020 9847     		blx	r3
  74              	.LVL3:
  75              	.LBE9:
  76              	.LBE8:
  77              		.loc 1 148 0
  78 0022 BDE80840 		pop	{r3, lr}
  79              		.loc 1 147 0
  80 0026 FFF7FEBF 		b	_port_irq_epilogue
  81              	.LVL4:
  82              	.L5:
  83 002a 00BF     		.align	2
  84              	.L4:
  85 002c 00000000 		.word	.LANCHOR0
  86              		.cfi_endproc
  87              	.LFE119:
  88              		.size	VectorB0, .-VectorB0
  89              		.section	.text.gpt_lld_init,"ax",%progbits
  90              		.align	2
  91              		.p2align 4,,15
  92              		.global	gpt_lld_init
  93              		.thumb
  94              		.thumb_func
  95              		.type	gpt_lld_init, %function
  96              	gpt_lld_init:
  97              	.LFB120:
  98              		.loc 1 236 0
  99              		.cfi_startproc
 100              		@ args = 0, pretend = 0, frame = 0
 101              		@ frame_needed = 0, uses_anonymous_args = 0
 102              		@ link register save eliminated.
 103              		.loc 1 246 0
 104 0000 034B     		ldr	r3, .L7
 105 0002 4FF08042 		mov	r2, #1073741824
 106              		.loc 1 247 0
 107 0006 1846     		mov	r0, r3
 108              		.loc 1 246 0
 109 0008 DA60     		str	r2, [r3, #12]
 110              		.loc 1 273 0
 111              		.loc 1 247 0
 112 000a FFF7FEBF 		b	gptObjectInit
 113              	.LVL5:
 114              	.L8:
ARM GAS  C:\Users\LAB_ME~1\AppData\Local\Temp\cckQhmLC.s 			page 3


 115 000e 00BF     		.align	2
 116              	.L7:
 117 0010 00000000 		.word	.LANCHOR0
 118              		.cfi_endproc
 119              	.LFE120:
 120              		.size	gpt_lld_init, .-gpt_lld_init
 121 0014 AFF30080 		.section	.text.gpt_lld_start,"ax",%progbits
 121      AFF30080 
 121      AFF30080 
 122              		.align	2
 123              		.p2align 4,,15
 124              		.global	gpt_lld_start
 125              		.thumb
 126              		.thumb_func
 127              		.type	gpt_lld_start, %function
 128              	gpt_lld_start:
 129              	.LFB121:
 130              		.loc 1 282 0
 131              		.cfi_startproc
 132              		@ args = 0, pretend = 0, frame = 0
 133              		@ frame_needed = 0, uses_anonymous_args = 0
 134              	.LVL6:
 135              		.loc 1 285 0
 136 0000 0378     		ldrb	r3, [r0, #0]	@ zero_extendqisi2
 137 0002 012B     		cmp	r3, #1
 138              		.loc 1 282 0
 139 0004 10B5     		push	{r4, lr}
 140              	.LCFI1:
 141              		.cfi_def_cfa_offset 8
 142              		.cfi_offset 4, -8
 143              		.cfi_offset 14, -4
 144              		.loc 1 282 0
 145 0006 0446     		mov	r4, r0
 146              		.loc 1 285 0
 147 0008 0DD0     		beq	.L11
 148              	.LVL7:
 149              	.L10:
 150              		.loc 1 346 0
 151 000a 6368     		ldr	r3, [r4, #4]
 152 000c A168     		ldr	r1, [r4, #8]
 153 000e 1A68     		ldr	r2, [r3, #0]
 154              		.loc 1 351 0
 155 0010 E368     		ldr	r3, [r4, #12]
 156              		.loc 1 346 0
 157 0012 B1FBF2F1 		udiv	r1, r1, r2
 158 0016 0139     		subs	r1, r1, #1
 159              		.loc 1 351 0
 160 0018 0022     		movs	r2, #0
 161              	.LVL8:
 162              		.loc 1 352 0
 163 001a 0820     		movs	r0, #8
 164              		.loc 1 351 0
 165 001c 1A80     		strh	r2, [r3, #0]	@ movhi
 166              		.loc 1 352 0
 167 001e 9880     		strh	r0, [r3, #4]	@ movhi
 168              		.loc 1 353 0
 169 0020 1985     		strh	r1, [r3, #40]	@ movhi
ARM GAS  C:\Users\LAB_ME~1\AppData\Local\Temp\cckQhmLC.s 			page 4


 170              		.loc 1 354 0
 171 0022 9A81     		strh	r2, [r3, #12]	@ movhi
 172 0024 10BD     		pop	{r4, pc}
 173              	.LVL9:
 174              	.L11:
 175              		.loc 1 297 0
 176 0026 0A4B     		ldr	r3, .L12
 177 0028 9842     		cmp	r0, r3
 178 002a EED1     		bne	.L10
 179              		.loc 1 298 0
 180 002c 094B     		ldr	r3, .L12+4
 181 002e 1A6C     		ldr	r2, [r3, #64]
 182 0030 42F00102 		orr	r2, r2, #1
 183 0034 1A64     		str	r2, [r3, #64]
 184              		.loc 1 299 0
 185 0036 1A6A     		ldr	r2, [r3, #32]
 186 0038 42F00102 		orr	r2, r2, #1
 187 003c 1A62     		str	r2, [r3, #32]
 188 003e 0022     		movs	r2, #0
 189 0040 1A62     		str	r2, [r3, #32]
 190              		.loc 1 300 0
 191 0042 1C20     		movs	r0, #28
 192              	.LVL10:
 193 0044 7021     		movs	r1, #112
 194 0046 FFF7FEFF 		bl	nvicEnableVector
 195              	.LVL11:
 196              		.loc 1 302 0
 197 004a 034B     		ldr	r3, .L12+8
 198 004c A360     		str	r3, [r4, #8]
 199 004e DCE7     		b	.L10
 200              	.L13:
 201              		.align	2
 202              	.L12:
 203 0050 00000000 		.word	.LANCHOR0
 204 0054 00380240 		.word	1073887232
 205 0058 00BD0105 		.word	84000000
 206              		.cfi_endproc
 207              	.LFE121:
 208              		.size	gpt_lld_start, .-gpt_lld_start
 209 005c AFF30080 		.section	.text.gpt_lld_stop,"ax",%progbits
 210              		.align	2
 211              		.p2align 4,,15
 212              		.global	gpt_lld_stop
 213              		.thumb
 214              		.thumb_func
 215              		.type	gpt_lld_stop, %function
 216              	gpt_lld_stop:
 217              	.LFB122:
 218              		.loc 1 364 0
 219              		.cfi_startproc
 220              		@ args = 0, pretend = 0, frame = 0
 221              		@ frame_needed = 0, uses_anonymous_args = 0
 222              	.LVL12:
 223 0000 08B5     		push	{r3, lr}
 224              	.LCFI2:
 225              		.cfi_def_cfa_offset 8
 226              		.cfi_offset 3, -8
ARM GAS  C:\Users\LAB_ME~1\AppData\Local\Temp\cckQhmLC.s 			page 5


 227              		.cfi_offset 14, -4
 228              		.loc 1 366 0
 229 0002 0378     		ldrb	r3, [r0, #0]	@ zero_extendqisi2
 230 0004 022B     		cmp	r3, #2
 231 0006 00D0     		beq	.L18
 232              	.LVL13:
 233              	.L14:
 234 0008 08BD     		pop	{r3, pc}
 235              	.LVL14:
 236              	.L18:
 237              		.loc 1 367 0
 238 000a C368     		ldr	r3, [r0, #12]
 239 000c 0022     		movs	r2, #0
 240 000e 1A80     		strh	r2, [r3, #0]	@ movhi
 241              		.loc 1 368 0
 242 0010 9A81     		strh	r2, [r3, #12]	@ movhi
 243              		.loc 1 369 0
 244 0012 1A82     		strh	r2, [r3, #16]	@ movhi
 245              		.loc 1 378 0
 246 0014 054B     		ldr	r3, .L19
 247 0016 9842     		cmp	r0, r3
 248 0018 F6D1     		bne	.L14
 249              		.loc 1 379 0
 250 001a 1C20     		movs	r0, #28
 251              	.LVL15:
 252 001c FFF7FEFF 		bl	nvicDisableVector
 253              	.LVL16:
 254              		.loc 1 380 0
 255 0020 034B     		ldr	r3, .L19+4
 256 0022 1A6C     		ldr	r2, [r3, #64]
 257 0024 22F00102 		bic	r2, r2, #1
 258 0028 1A64     		str	r2, [r3, #64]
 259 002a EDE7     		b	.L14
 260              	.L20:
 261              		.align	2
 262              	.L19:
 263 002c 00000000 		.word	.LANCHOR0
 264 0030 00380240 		.word	1073887232
 265              		.cfi_endproc
 266              	.LFE122:
 267              		.size	gpt_lld_stop, .-gpt_lld_stop
 268 0034 AFF30080 		.section	.text.gpt_lld_start_timer,"ax",%progbits
 268      AFF30080 
 268      AFF30080 
 269              		.align	2
 270              		.p2align 4,,15
 271              		.global	gpt_lld_start_timer
 272              		.thumb
 273              		.thumb_func
 274              		.type	gpt_lld_start_timer, %function
 275              	gpt_lld_start_timer:
 276              	.LFB123:
 277              		.loc 1 418 0
 278              		.cfi_startproc
 279              		@ args = 0, pretend = 0, frame = 0
 280              		@ frame_needed = 0, uses_anonymous_args = 0
 281              		@ link register save eliminated.
ARM GAS  C:\Users\LAB_ME~1\AppData\Local\Temp\cckQhmLC.s 			page 6


 282              	.LVL17:
 283              		.loc 1 420 0
 284 0000 C368     		ldr	r3, [r0, #12]
 285              		.loc 1 421 0
 286 0002 0122     		movs	r2, #1
 287              		.loc 1 422 0
 288 0004 0020     		movs	r0, #0
 289              	.LVL18:
 290              		.loc 1 420 0
 291 0006 0139     		subs	r1, r1, #1
 292              	.LVL19:
 293 0008 D962     		str	r1, [r3, #44]
 294              		.loc 1 421 0
 295 000a 9A82     		strh	r2, [r3, #20]	@ movhi
 296              		.loc 1 422 0
 297 000c 5862     		str	r0, [r3, #36]
 298              		.loc 1 426 0
 299 000e 1882     		strh	r0, [r3, #16]	@ movhi
 300              		.loc 1 427 0
 301 0010 9A81     		strh	r2, [r3, #12]	@ movhi
 302              		.loc 1 428 0
 303 0012 0522     		movs	r2, #5
 304 0014 1A80     		strh	r2, [r3, #0]	@ movhi
 305 0016 7047     		bx	lr
 306              		.cfi_endproc
 307              	.LFE123:
 308              		.size	gpt_lld_start_timer, .-gpt_lld_start_timer
 309              		.section	.text.gpt_lld_stop_timer,"ax",%progbits
 310              		.align	2
 311              		.p2align 4,,15
 312              		.global	gpt_lld_stop_timer
 313              		.thumb
 314              		.thumb_func
 315              		.type	gpt_lld_stop_timer, %function
 316              	gpt_lld_stop_timer:
 317              	.LFB124:
 318              		.loc 1 438 0
 319              		.cfi_startproc
 320              		@ args = 0, pretend = 0, frame = 0
 321              		@ frame_needed = 0, uses_anonymous_args = 0
 322              		@ link register save eliminated.
 323              	.LVL20:
 324              		.loc 1 440 0
 325 0000 C368     		ldr	r3, [r0, #12]
 326 0002 0022     		movs	r2, #0
 327 0004 1A80     		strh	r2, [r3, #0]	@ movhi
 328              		.loc 1 441 0
 329 0006 1A82     		strh	r2, [r3, #16]	@ movhi
 330              		.loc 1 442 0
 331 0008 9A81     		strh	r2, [r3, #12]	@ movhi
 332 000a 7047     		bx	lr
 333              		.cfi_endproc
 334              	.LFE124:
 335              		.size	gpt_lld_stop_timer, .-gpt_lld_stop_timer
 336 000c AFF30080 		.section	.text.gpt_lld_polled_delay,"ax",%progbits
 337              		.align	2
 338              		.p2align 4,,15
ARM GAS  C:\Users\LAB_ME~1\AppData\Local\Temp\cckQhmLC.s 			page 7


 339              		.global	gpt_lld_polled_delay
 340              		.thumb
 341              		.thumb_func
 342              		.type	gpt_lld_polled_delay, %function
 343              	gpt_lld_polled_delay:
 344              	.LFB125:
 345              		.loc 1 456 0
 346              		.cfi_startproc
 347              		@ args = 0, pretend = 0, frame = 0
 348              		@ frame_needed = 0, uses_anonymous_args = 0
 349              		@ link register save eliminated.
 350              	.LVL21:
 351              		.loc 1 458 0
 352 0000 C268     		ldr	r2, [r0, #12]
 353              		.loc 1 459 0
 354 0002 0123     		movs	r3, #1
 355              		.loc 1 458 0
 356 0004 0139     		subs	r1, r1, #1
 357              	.LVL22:
 358 0006 D162     		str	r1, [r2, #44]
 359              		.loc 1 459 0
 360 0008 9382     		strh	r3, [r2, #20]	@ movhi
 361              		.loc 1 460 0
 362 000a 0023     		movs	r3, #0
 363 000c 1382     		strh	r3, [r2, #16]	@ movhi
 364              		.loc 1 461 0
 365 000e 0D23     		movs	r3, #13
 366 0010 1380     		strh	r3, [r2, #0]	@ movhi
 367              	.L24:
 368              		.loc 1 462 0 discriminator 1
 369 0012 138A     		ldrh	r3, [r2, #16]
 370 0014 DB07     		lsls	r3, r3, #31
 371 0016 FCD5     		bpl	.L24
 372              		.loc 1 464 0
 373 0018 7047     		bx	lr
 374              		.cfi_endproc
 375              	.LFE125:
 376              		.size	gpt_lld_polled_delay, .-gpt_lld_polled_delay
 377              		.global	GPTD2
 378              		.section	.bss.GPTD2,"aw",%nobits
 379              		.align	2
 380              		.set	.LANCHOR0,. + 0
 381              		.type	GPTD2, %object
 382              		.size	GPTD2, 16
 383              	GPTD2:
 384 0000 00000000 		.space	16
 384      00000000 
 384      00000000 
 384      00000000 
 385              		.text
 386              	.Letext0:
 387              		.file 2 "c:\\program files (x86)\\codesourcery\\sourcery_codebench_lite_for_arm_eabi\\bin\\../lib/
 388              		.file 3 "../../os/hal/platforms/STM32F4xx/stm32f4xx.h"
 389              		.file 4 "../../os/hal/platforms/STM32/stm32.h"
 390              		.file 5 "../../os/hal/include/gpt.h"
 391              		.file 6 "../../os/hal/platforms/STM32/gpt_lld.h"
 392              		.file 7 "../../os/ports/common/ARMCMx/CMSIS/include/core_cm4.h"
ARM GAS  C:\Users\LAB_ME~1\AppData\Local\Temp\cckQhmLC.s 			page 8


 393              		.file 8 "../../os/ports/common/ARMCMx/nvic.h"
 394              		.file 9 "../../os/ports/GCC/ARMCMx/chcore_v7m.h"
 395              		.section	.debug_info,"",%progbits
 396              	.Ldebug_info0:
 397 0000 270A0000 		.4byte	0xa27
 398 0004 0200     		.2byte	0x2
 399 0006 00000000 		.4byte	.Ldebug_abbrev0
 400 000a 04       		.byte	0x4
 401 000b 01       		.uleb128 0x1
 402 000c 39050000 		.4byte	.LASF185
 403 0010 01       		.byte	0x1
 404 0011 FF050000 		.4byte	.LASF186
 405 0015 1D050000 		.4byte	.LASF187
 406 0019 00000000 		.4byte	.Ldebug_ranges0+0
 407 001d 00000000 		.4byte	0
 408 0021 00000000 		.4byte	0
 409 0025 00000000 		.4byte	.Ldebug_line0
 410 0029 02       		.uleb128 0x2
 411 002a 04       		.byte	0x4
 412 002b 05       		.byte	0x5
 413 002c 696E7400 		.ascii	"int\000"
 414 0030 03       		.uleb128 0x3
 415 0031 04       		.byte	0x4
 416 0032 07       		.byte	0x7
 417 0033 E3020000 		.4byte	.LASF0
 418 0037 03       		.uleb128 0x3
 419 0038 01       		.byte	0x1
 420 0039 06       		.byte	0x6
 421 003a 6B010000 		.4byte	.LASF1
 422 003e 04       		.uleb128 0x4
 423 003f 6A080000 		.4byte	.LASF4
 424 0043 02       		.byte	0x2
 425 0044 2A       		.byte	0x2a
 426 0045 49000000 		.4byte	0x49
 427 0049 03       		.uleb128 0x3
 428 004a 01       		.byte	0x1
 429 004b 08       		.byte	0x8
 430 004c F1050000 		.4byte	.LASF2
 431 0050 03       		.uleb128 0x3
 432 0051 02       		.byte	0x2
 433 0052 05       		.byte	0x5
 434 0053 5F060000 		.4byte	.LASF3
 435 0057 04       		.uleb128 0x4
 436 0058 1D020000 		.4byte	.LASF5
 437 005c 02       		.byte	0x2
 438 005d 36       		.byte	0x36
 439 005e 62000000 		.4byte	0x62
 440 0062 03       		.uleb128 0x3
 441 0063 02       		.byte	0x2
 442 0064 07       		.byte	0x7
 443 0065 96060000 		.4byte	.LASF6
 444 0069 04       		.uleb128 0x4
 445 006a E9050000 		.4byte	.LASF7
 446 006e 02       		.byte	0x2
 447 006f 4F       		.byte	0x4f
 448 0070 74000000 		.4byte	0x74
 449 0074 03       		.uleb128 0x3
ARM GAS  C:\Users\LAB_ME~1\AppData\Local\Temp\cckQhmLC.s 			page 9


 450 0075 04       		.byte	0x4
 451 0076 05       		.byte	0x5
 452 0077 D0010000 		.4byte	.LASF8
 453 007b 04       		.uleb128 0x4
 454 007c E7060000 		.4byte	.LASF9
 455 0080 02       		.byte	0x2
 456 0081 50       		.byte	0x50
 457 0082 86000000 		.4byte	0x86
 458 0086 03       		.uleb128 0x3
 459 0087 04       		.byte	0x4
 460 0088 07       		.byte	0x7
 461 0089 4D030000 		.4byte	.LASF10
 462 008d 03       		.uleb128 0x3
 463 008e 08       		.byte	0x8
 464 008f 05       		.byte	0x5
 465 0090 5D010000 		.4byte	.LASF11
 466 0094 03       		.uleb128 0x3
 467 0095 08       		.byte	0x8
 468 0096 07       		.byte	0x7
 469 0097 C8000000 		.4byte	.LASF12
 470 009b 05       		.uleb128 0x5
 471 009c 7B000000 		.4byte	0x7b
 472 00a0 03       		.uleb128 0x3
 473 00a1 04       		.byte	0x4
 474 00a2 07       		.byte	0x7
 475 00a3 6D040000 		.4byte	.LASF13
 476 00a7 03       		.uleb128 0x3
 477 00a8 01       		.byte	0x1
 478 00a9 08       		.byte	0x8
 479 00aa 38070000 		.4byte	.LASF14
 480 00ae 06       		.uleb128 0x6
 481 00af 68040000 		.4byte	.LASF188
 482 00b3 01       		.byte	0x1
 483 00b4 03       		.byte	0x3
 484 00b5 8C       		.byte	0x8c
 485 00b6 E9020000 		.4byte	0x2e9
 486 00ba 07       		.uleb128 0x7
 487 00bb 8C070000 		.4byte	.LASF15
 488 00bf 72       		.sleb128 -14
 489 00c0 07       		.uleb128 0x7
 490 00c1 22030000 		.4byte	.LASF16
 491 00c5 74       		.sleb128 -12
 492 00c6 07       		.uleb128 0x7
 493 00c7 99020000 		.4byte	.LASF17
 494 00cb 75       		.sleb128 -11
 495 00cc 07       		.uleb128 0x7
 496 00cd FC060000 		.4byte	.LASF18
 497 00d1 76       		.sleb128 -10
 498 00d2 07       		.uleb128 0x7
 499 00d3 99030000 		.4byte	.LASF19
 500 00d7 7B       		.sleb128 -5
 501 00d8 07       		.uleb128 0x7
 502 00d9 CA070000 		.4byte	.LASF20
 503 00dd 7C       		.sleb128 -4
 504 00de 07       		.uleb128 0x7
 505 00df A7020000 		.4byte	.LASF21
 506 00e3 7E       		.sleb128 -2
ARM GAS  C:\Users\LAB_ME~1\AppData\Local\Temp\cckQhmLC.s 			page 10


 507 00e4 07       		.uleb128 0x7
 508 00e5 36040000 		.4byte	.LASF22
 509 00e9 7F       		.sleb128 -1
 510 00ea 07       		.uleb128 0x7
 511 00eb 22010000 		.4byte	.LASF23
 512 00ef 00       		.sleb128 0
 513 00f0 07       		.uleb128 0x7
 514 00f1 22000000 		.4byte	.LASF24
 515 00f5 01       		.sleb128 1
 516 00f6 07       		.uleb128 0x7
 517 00f7 BA070000 		.4byte	.LASF25
 518 00fb 02       		.sleb128 2
 519 00fc 07       		.uleb128 0x7
 520 00fd 0E010000 		.4byte	.LASF26
 521 0101 03       		.sleb128 3
 522 0102 07       		.uleb128 0x7
 523 0103 C4060000 		.4byte	.LASF27
 524 0107 04       		.sleb128 4
 525 0108 07       		.uleb128 0x7
 526 0109 F7080000 		.4byte	.LASF28
 527 010d 05       		.sleb128 5
 528 010e 07       		.uleb128 0x7
 529 010f 2E080000 		.4byte	.LASF29
 530 0113 06       		.sleb128 6
 531 0114 07       		.uleb128 0x7
 532 0115 1B090000 		.4byte	.LASF30
 533 0119 07       		.sleb128 7
 534 011a 07       		.uleb128 0x7
 535 011b A9060000 		.4byte	.LASF31
 536 011f 08       		.sleb128 8
 537 0120 07       		.uleb128 0x7
 538 0121 DF040000 		.4byte	.LASF32
 539 0125 09       		.sleb128 9
 540 0126 07       		.uleb128 0x7
 541 0127 46060000 		.4byte	.LASF33
 542 012b 0A       		.sleb128 10
 543 012c 07       		.uleb128 0x7
 544 012d 26090000 		.4byte	.LASF34
 545 0131 0B       		.sleb128 11
 546 0132 07       		.uleb128 0x7
 547 0133 67070000 		.4byte	.LASF35
 548 0137 0C       		.sleb128 12
 549 0138 07       		.uleb128 0x7
 550 0139 F4040000 		.4byte	.LASF36
 551 013d 0D       		.sleb128 13
 552 013e 07       		.uleb128 0x7
 553 013f F0020000 		.4byte	.LASF37
 554 0143 0E       		.sleb128 14
 555 0144 07       		.uleb128 0x7
 556 0145 A4040000 		.4byte	.LASF38
 557 0149 0F       		.sleb128 15
 558 014a 07       		.uleb128 0x7
 559 014b EB010000 		.4byte	.LASF39
 560 014f 10       		.sleb128 16
 561 0150 07       		.uleb128 0x7
 562 0151 10030000 		.4byte	.LASF40
 563 0155 11       		.sleb128 17
ARM GAS  C:\Users\LAB_ME~1\AppData\Local\Temp\cckQhmLC.s 			page 11


 564 0156 07       		.uleb128 0x7
 565 0157 B3080000 		.4byte	.LASF41
 566 015b 12       		.sleb128 18
 567 015c 07       		.uleb128 0x7
 568 015d C7030000 		.4byte	.LASF42
 569 0161 13       		.sleb128 19
 570 0162 07       		.uleb128 0x7
 571 0163 14000000 		.4byte	.LASF43
 572 0167 14       		.sleb128 20
 573 0168 07       		.uleb128 0x7
 574 0169 B1000000 		.4byte	.LASF44
 575 016d 15       		.sleb128 21
 576 016e 07       		.uleb128 0x7
 577 016f DB080000 		.4byte	.LASF45
 578 0173 16       		.sleb128 22
 579 0174 07       		.uleb128 0x7
 580 0175 FD010000 		.4byte	.LASF46
 581 0179 17       		.sleb128 23
 582 017a 07       		.uleb128 0x7
 583 017b 26060000 		.4byte	.LASF47
 584 017f 18       		.sleb128 24
 585 0180 07       		.uleb128 0x7
 586 0181 7F040000 		.4byte	.LASF48
 587 0185 19       		.sleb128 25
 588 0186 07       		.uleb128 0x7
 589 0187 7E060000 		.4byte	.LASF49
 590 018b 1A       		.sleb128 26
 591 018c 07       		.uleb128 0x7
 592 018d 43040000 		.4byte	.LASF50
 593 0191 1B       		.sleb128 27
 594 0192 07       		.uleb128 0x7
 595 0193 1B080000 		.4byte	.LASF51
 596 0197 1C       		.sleb128 28
 597 0198 07       		.uleb128 0x7
 598 0199 11090000 		.4byte	.LASF52
 599 019d 1D       		.sleb128 29
 600 019e 07       		.uleb128 0x7
 601 019f 04010000 		.4byte	.LASF53
 602 01a3 1E       		.sleb128 30
 603 01a4 07       		.uleb128 0x7
 604 01a5 63000000 		.4byte	.LASF54
 605 01a9 1F       		.sleb128 31
 606 01aa 07       		.uleb128 0x7
 607 01ab A6080000 		.4byte	.LASF55
 608 01af 20       		.sleb128 32
 609 01b0 07       		.uleb128 0x7
 610 01b1 FC070000 		.4byte	.LASF56
 611 01b5 21       		.sleb128 33
 612 01b6 07       		.uleb128 0x7
 613 01b7 F7000000 		.4byte	.LASF57
 614 01bb 22       		.sleb128 34
 615 01bc 07       		.uleb128 0x7
 616 01bd EC030000 		.4byte	.LASF58
 617 01c1 23       		.sleb128 35
 618 01c2 07       		.uleb128 0x7
 619 01c3 EA040000 		.4byte	.LASF59
 620 01c7 24       		.sleb128 36
ARM GAS  C:\Users\LAB_ME~1\AppData\Local\Temp\cckQhmLC.s 			page 12


 621 01c8 07       		.uleb128 0x7
 622 01c9 39080000 		.4byte	.LASF60
 623 01cd 25       		.sleb128 37
 624 01ce 07       		.uleb128 0x7
 625 01cf F0060000 		.4byte	.LASF61
 626 01d3 26       		.sleb128 38
 627 01d4 07       		.uleb128 0x7
 628 01d5 09080000 		.4byte	.LASF62
 629 01d9 27       		.sleb128 39
 630 01da 07       		.uleb128 0x7
 631 01db DD030000 		.4byte	.LASF63
 632 01df 28       		.sleb128 40
 633 01e0 07       		.uleb128 0x7
 634 01e1 E8000000 		.4byte	.LASF64
 635 01e5 29       		.sleb128 41
 636 01e6 07       		.uleb128 0x7
 637 01e7 47020000 		.4byte	.LASF65
 638 01eb 2A       		.sleb128 42
 639 01ec 07       		.uleb128 0x7
 640 01ed 22040000 		.4byte	.LASF66
 641 01f1 2B       		.sleb128 43
 642 01f2 07       		.uleb128 0x7
 643 01f3 6A020000 		.4byte	.LASF67
 644 01f7 2C       		.sleb128 44
 645 01f8 07       		.uleb128 0x7
 646 01f9 50040000 		.4byte	.LASF68
 647 01fd 2D       		.sleb128 45
 648 01fe 07       		.uleb128 0x7
 649 01ff 39000000 		.4byte	.LASF69
 650 0203 2E       		.sleb128 46
 651 0204 07       		.uleb128 0x7
 652 0205 26070000 		.4byte	.LASF70
 653 0209 2F       		.sleb128 47
 654 020a 07       		.uleb128 0x7
 655 020b DF050000 		.4byte	.LASF71
 656 020f 30       		.sleb128 48
 657 0210 07       		.uleb128 0x7
 658 0211 84030000 		.4byte	.LASF72
 659 0215 31       		.sleb128 49
 660 0216 07       		.uleb128 0x7
 661 0217 D5040000 		.4byte	.LASF73
 662 021b 32       		.sleb128 50
 663 021c 07       		.uleb128 0x7
 664 021d C3050000 		.4byte	.LASF74
 665 0221 33       		.sleb128 51
 666 0222 07       		.uleb128 0x7
 667 0223 3C020000 		.4byte	.LASF75
 668 0227 34       		.sleb128 52
 669 0228 07       		.uleb128 0x7
 670 0229 73060000 		.4byte	.LASF76
 671 022d 35       		.sleb128 53
 672 022e 07       		.uleb128 0x7
 673 022f 26020000 		.4byte	.LASF77
 674 0233 36       		.sleb128 54
 675 0234 07       		.uleb128 0x7
 676 0235 5D070000 		.4byte	.LASF78
 677 0239 37       		.sleb128 55
ARM GAS  C:\Users\LAB_ME~1\AppData\Local\Temp\cckQhmLC.s 			page 13


 678 023a 07       		.uleb128 0x7
 679 023b DC070000 		.4byte	.LASF79
 680 023f 38       		.sleb128 56
 681 0240 07       		.uleb128 0x7
 682 0241 BC080000 		.4byte	.LASF80
 683 0245 39       		.sleb128 57
 684 0246 07       		.uleb128 0x7
 685 0247 AA030000 		.4byte	.LASF81
 686 024b 3A       		.sleb128 58
 687 024c 07       		.uleb128 0x7
 688 024d 92040000 		.4byte	.LASF82
 689 0251 3B       		.sleb128 59
 690 0252 07       		.uleb128 0x7
 691 0253 CD050000 		.4byte	.LASF83
 692 0257 3C       		.sleb128 60
 693 0258 07       		.uleb128 0x7
 694 0259 76040000 		.4byte	.LASF84
 695 025d 3D       		.sleb128 61
 696 025e 07       		.uleb128 0x7
 697 025f 0F020000 		.4byte	.LASF85
 698 0263 3E       		.sleb128 62
 699 0264 07       		.uleb128 0x7
 700 0265 06050000 		.4byte	.LASF86
 701 0269 3F       		.sleb128 63
 702 026a 07       		.uleb128 0x7
 703 026b 2B000000 		.4byte	.LASF87
 704 026f C000     		.sleb128 64
 705 0271 07       		.uleb128 0x7
 706 0272 77010000 		.4byte	.LASF88
 707 0276 C100     		.sleb128 65
 708 0278 07       		.uleb128 0x7
 709 0279 E9080000 		.4byte	.LASF89
 710 027d C200     		.sleb128 66
 711 027f 07       		.uleb128 0x7
 712 0280 DB060000 		.4byte	.LASF90
 713 0284 C300     		.sleb128 67
 714 0286 07       		.uleb128 0x7
 715 0287 58020000 		.4byte	.LASF91
 716 028b C400     		.sleb128 68
 717 028d 07       		.uleb128 0x7
 718 028e A6010000 		.4byte	.LASF92
 719 0292 C500     		.sleb128 69
 720 0294 07       		.uleb128 0x7
 721 0295 B3020000 		.4byte	.LASF93
 722 0299 C600     		.sleb128 70
 723 029b 07       		.uleb128 0x7
 724 029c B6040000 		.4byte	.LASF94
 725 02a0 C700     		.sleb128 71
 726 02a2 07       		.uleb128 0x7
 727 02a3 CE080000 		.4byte	.LASF95
 728 02a7 C800     		.sleb128 72
 729 02a9 07       		.uleb128 0x7
 730 02aa 46000000 		.4byte	.LASF96
 731 02ae C900     		.sleb128 73
 732 02b0 07       		.uleb128 0x7
 733 02b1 70030000 		.4byte	.LASF97
 734 02b5 CA00     		.sleb128 74
ARM GAS  C:\Users\LAB_ME~1\AppData\Local\Temp\cckQhmLC.s 			page 14


 735 02b7 07       		.uleb128 0x7
 736 02b8 79070000 		.4byte	.LASF98
 737 02bc CB00     		.sleb128 75
 738 02be 07       		.uleb128 0x7
 739 02bf 00090000 		.4byte	.LASF99
 740 02c3 CC00     		.sleb128 76
 741 02c5 07       		.uleb128 0x7
 742 02c6 59050000 		.4byte	.LASF100
 743 02ca CD00     		.sleb128 77
 744 02cc 07       		.uleb128 0x7
 745 02cd 72080000 		.4byte	.LASF101
 746 02d1 CE00     		.sleb128 78
 747 02d3 07       		.uleb128 0x7
 748 02d4 3D070000 		.4byte	.LASF102
 749 02d8 CF00     		.sleb128 79
 750 02da 07       		.uleb128 0x7
 751 02db 51060000 		.4byte	.LASF103
 752 02df D000     		.sleb128 80
 753 02e1 07       		.uleb128 0x7
 754 02e2 92080000 		.4byte	.LASF104
 755 02e6 D100     		.sleb128 81
 756 02e8 00       		.byte	0
 757 02e9 08       		.uleb128 0x8
 758 02ea 7B000000 		.4byte	0x7b
 759 02ee F9020000 		.4byte	0x2f9
 760 02f2 09       		.uleb128 0x9
 761 02f3 A0000000 		.4byte	0xa0
 762 02f7 01       		.byte	0x1
 763 02f8 00       		.byte	0
 764 02f9 08       		.uleb128 0x8
 765 02fa 7B000000 		.4byte	0x7b
 766 02fe 09030000 		.4byte	0x309
 767 0302 09       		.uleb128 0x9
 768 0303 A0000000 		.4byte	0xa0
 769 0307 03       		.byte	0x3
 770 0308 00       		.byte	0
 771 0309 05       		.uleb128 0x5
 772 030a 57000000 		.4byte	0x57
 773 030e 05       		.uleb128 0x5
 774 030f 69000000 		.4byte	0x69
 775 0313 0A       		.uleb128 0xa
 776 0314 88       		.byte	0x88
 777 0315 03       		.byte	0x3
 778 0316 DB02     		.2byte	0x2db
 779 0318 E0040000 		.4byte	0x4e0
 780 031c 0B       		.uleb128 0xb
 781 031d 435200   		.ascii	"CR\000"
 782 0320 03       		.byte	0x3
 783 0321 DD02     		.2byte	0x2dd
 784 0323 9B000000 		.4byte	0x9b
 785 0327 02       		.byte	0x2
 786 0328 23       		.byte	0x23
 787 0329 00       		.uleb128 0
 788 032a 0C       		.uleb128 0xc
 789 032b 34020000 		.4byte	.LASF105
 790 032f 03       		.byte	0x3
 791 0330 DE02     		.2byte	0x2de
ARM GAS  C:\Users\LAB_ME~1\AppData\Local\Temp\cckQhmLC.s 			page 15


 792 0332 9B000000 		.4byte	0x9b
 793 0336 02       		.byte	0x2
 794 0337 23       		.byte	0x23
 795 0338 04       		.uleb128 0x4
 796 0339 0C       		.uleb128 0xc
 797 033a 9B080000 		.4byte	.LASF106
 798 033e 03       		.byte	0x3
 799 033f DF02     		.2byte	0x2df
 800 0341 9B000000 		.4byte	0x9b
 801 0345 02       		.byte	0x2
 802 0346 23       		.byte	0x23
 803 0347 08       		.uleb128 0x8
 804 0348 0B       		.uleb128 0xb
 805 0349 43495200 		.ascii	"CIR\000"
 806 034d 03       		.byte	0x3
 807 034e E002     		.2byte	0x2e0
 808 0350 9B000000 		.4byte	0x9b
 809 0354 02       		.byte	0x2
 810 0355 23       		.byte	0x23
 811 0356 0C       		.uleb128 0xc
 812 0357 0C       		.uleb128 0xc
 813 0358 85010000 		.4byte	.LASF107
 814 035c 03       		.byte	0x3
 815 035d E102     		.2byte	0x2e1
 816 035f 9B000000 		.4byte	0x9b
 817 0363 02       		.byte	0x2
 818 0364 23       		.byte	0x23
 819 0365 10       		.uleb128 0x10
 820 0366 0C       		.uleb128 0xc
 821 0367 86020000 		.4byte	.LASF108
 822 036b 03       		.byte	0x3
 823 036c E202     		.2byte	0x2e2
 824 036e 9B000000 		.4byte	0x9b
 825 0372 02       		.byte	0x2
 826 0373 23       		.byte	0x23
 827 0374 14       		.uleb128 0x14
 828 0375 0C       		.uleb128 0xc
 829 0376 D4030000 		.4byte	.LASF109
 830 037a 03       		.byte	0x3
 831 037b E302     		.2byte	0x2e3
 832 037d 9B000000 		.4byte	0x9b
 833 0381 02       		.byte	0x2
 834 0382 23       		.byte	0x23
 835 0383 18       		.uleb128 0x18
 836 0384 0C       		.uleb128 0xc
 837 0385 7D050000 		.4byte	.LASF110
 838 0389 03       		.byte	0x3
 839 038a E402     		.2byte	0x2e4
 840 038c 7B000000 		.4byte	0x7b
 841 0390 02       		.byte	0x2
 842 0391 23       		.byte	0x23
 843 0392 1C       		.uleb128 0x1c
 844 0393 0C       		.uleb128 0xc
 845 0394 25080000 		.4byte	.LASF111
 846 0398 03       		.byte	0x3
 847 0399 E502     		.2byte	0x2e5
 848 039b 9B000000 		.4byte	0x9b
ARM GAS  C:\Users\LAB_ME~1\AppData\Local\Temp\cckQhmLC.s 			page 16


 849 039f 02       		.byte	0x2
 850 03a0 23       		.byte	0x23
 851 03a1 20       		.uleb128 0x20
 852 03a2 0C       		.uleb128 0xc
 853 03a3 E2010000 		.4byte	.LASF112
 854 03a7 03       		.byte	0x3
 855 03a8 E602     		.2byte	0x2e6
 856 03aa 9B000000 		.4byte	0x9b
 857 03ae 02       		.byte	0x2
 858 03af 23       		.byte	0x23
 859 03b0 24       		.uleb128 0x24
 860 03b1 0C       		.uleb128 0xc
 861 03b2 87050000 		.4byte	.LASF113
 862 03b6 03       		.byte	0x3
 863 03b7 E702     		.2byte	0x2e7
 864 03b9 E9020000 		.4byte	0x2e9
 865 03bd 02       		.byte	0x2
 866 03be 23       		.byte	0x23
 867 03bf 28       		.uleb128 0x28
 868 03c0 0C       		.uleb128 0xc
 869 03c1 85080000 		.4byte	.LASF114
 870 03c5 03       		.byte	0x3
 871 03c6 E802     		.2byte	0x2e8
 872 03c8 9B000000 		.4byte	0x9b
 873 03cc 02       		.byte	0x2
 874 03cd 23       		.byte	0x23
 875 03ce 30       		.uleb128 0x30
 876 03cf 0C       		.uleb128 0xc
 877 03d0 B2070000 		.4byte	.LASF115
 878 03d4 03       		.byte	0x3
 879 03d5 E902     		.2byte	0x2e9
 880 03d7 9B000000 		.4byte	0x9b
 881 03db 02       		.byte	0x2
 882 03dc 23       		.byte	0x23
 883 03dd 34       		.uleb128 0x34
 884 03de 0C       		.uleb128 0xc
 885 03df BC060000 		.4byte	.LASF116
 886 03e3 03       		.byte	0x3
 887 03e4 EA02     		.2byte	0x2ea
 888 03e6 9B000000 		.4byte	0x9b
 889 03ea 02       		.byte	0x2
 890 03eb 23       		.byte	0x23
 891 03ec 38       		.uleb128 0x38
 892 03ed 0C       		.uleb128 0xc
 893 03ee 91050000 		.4byte	.LASF117
 894 03f2 03       		.byte	0x3
 895 03f3 EB02     		.2byte	0x2eb
 896 03f5 7B000000 		.4byte	0x7b
 897 03f9 02       		.byte	0x2
 898 03fa 23       		.byte	0x23
 899 03fb 3C       		.uleb128 0x3c
 900 03fc 0C       		.uleb128 0xc
 901 03fd A0070000 		.4byte	.LASF118
 902 0401 03       		.byte	0x3
 903 0402 EC02     		.2byte	0x2ec
 904 0404 9B000000 		.4byte	0x9b
 905 0408 02       		.byte	0x2
ARM GAS  C:\Users\LAB_ME~1\AppData\Local\Temp\cckQhmLC.s 			page 17


 906 0409 23       		.byte	0x23
 907 040a 40       		.uleb128 0x40
 908 040b 0C       		.uleb128 0xc
 909 040c B4060000 		.4byte	.LASF119
 910 0410 03       		.byte	0x3
 911 0411 ED02     		.2byte	0x2ed
 912 0413 9B000000 		.4byte	0x9b
 913 0417 02       		.byte	0x2
 914 0418 23       		.byte	0x23
 915 0419 44       		.uleb128 0x44
 916 041a 0C       		.uleb128 0xc
 917 041b 9B050000 		.4byte	.LASF120
 918 041f 03       		.byte	0x3
 919 0420 EE02     		.2byte	0x2ee
 920 0422 E9020000 		.4byte	0x2e9
 921 0426 02       		.byte	0x2
 922 0427 23       		.byte	0x23
 923 0428 48       		.uleb128 0x48
 924 0429 0C       		.uleb128 0xc
 925 042a 36010000 		.4byte	.LASF121
 926 042e 03       		.byte	0x3
 927 042f EF02     		.2byte	0x2ef
 928 0431 9B000000 		.4byte	0x9b
 929 0435 02       		.byte	0x2
 930 0436 23       		.byte	0x23
 931 0437 50       		.uleb128 0x50
 932 0438 0C       		.uleb128 0xc
 933 0439 13050000 		.4byte	.LASF122
 934 043d 03       		.byte	0x3
 935 043e F002     		.2byte	0x2f0
 936 0440 9B000000 		.4byte	0x9b
 937 0444 02       		.byte	0x2
 938 0445 23       		.byte	0x23
 939 0446 54       		.uleb128 0x54
 940 0447 0C       		.uleb128 0xc
 941 0448 69060000 		.4byte	.LASF123
 942 044c 03       		.byte	0x3
 943 044d F102     		.2byte	0x2f1
 944 044f 9B000000 		.4byte	0x9b
 945 0453 02       		.byte	0x2
 946 0454 23       		.byte	0x23
 947 0455 58       		.uleb128 0x58
 948 0456 0C       		.uleb128 0xc
 949 0457 A5050000 		.4byte	.LASF124
 950 045b 03       		.byte	0x3
 951 045c F202     		.2byte	0x2f2
 952 045e 7B000000 		.4byte	0x7b
 953 0462 02       		.byte	0x2
 954 0463 23       		.byte	0x23
 955 0464 5C       		.uleb128 0x5c
 956 0465 0C       		.uleb128 0xc
 957 0466 00000000 		.4byte	.LASF125
 958 046a 03       		.byte	0x3
 959 046b F302     		.2byte	0x2f3
 960 046d 9B000000 		.4byte	0x9b
 961 0471 02       		.byte	0x2
 962 0472 23       		.byte	0x23
ARM GAS  C:\Users\LAB_ME~1\AppData\Local\Temp\cckQhmLC.s 			page 18


 963 0473 60       		.uleb128 0x60
 964 0474 0C       		.uleb128 0xc
 965 0475 18040000 		.4byte	.LASF126
 966 0479 03       		.byte	0x3
 967 047a F402     		.2byte	0x2f4
 968 047c 9B000000 		.4byte	0x9b
 969 0480 02       		.byte	0x2
 970 0481 23       		.byte	0x23
 971 0482 64       		.uleb128 0x64
 972 0483 0C       		.uleb128 0xc
 973 0484 AF050000 		.4byte	.LASF127
 974 0488 03       		.byte	0x3
 975 0489 F502     		.2byte	0x2f5
 976 048b E9020000 		.4byte	0x2e9
 977 048f 02       		.byte	0x2
 978 0490 23       		.byte	0x23
 979 0491 68       		.uleb128 0x68
 980 0492 0C       		.uleb128 0xc
 981 0493 52080000 		.4byte	.LASF128
 982 0497 03       		.byte	0x3
 983 0498 F602     		.2byte	0x2f6
 984 049a 9B000000 		.4byte	0x9b
 985 049e 02       		.byte	0x2
 986 049f 23       		.byte	0x23
 987 04a0 70       		.uleb128 0x70
 988 04a1 0B       		.uleb128 0xb
 989 04a2 43535200 		.ascii	"CSR\000"
 990 04a6 03       		.byte	0x3
 991 04a7 F702     		.2byte	0x2f7
 992 04a9 9B000000 		.4byte	0x9b
 993 04ad 02       		.byte	0x2
 994 04ae 23       		.byte	0x23
 995 04af 74       		.uleb128 0x74
 996 04b0 0C       		.uleb128 0xc
 997 04b1 B9050000 		.4byte	.LASF129
 998 04b5 03       		.byte	0x3
 999 04b6 F802     		.2byte	0x2f8
 1000 04b8 E9020000 		.4byte	0x2e9
 1001 04bc 02       		.byte	0x2
 1002 04bd 23       		.byte	0x23
 1003 04be 78       		.uleb128 0x78
 1004 04bf 0C       		.uleb128 0xc
 1005 04c0 15080000 		.4byte	.LASF130
 1006 04c4 03       		.byte	0x3
 1007 04c5 F902     		.2byte	0x2f9
 1008 04c7 9B000000 		.4byte	0x9b
 1009 04cb 03       		.byte	0x3
 1010 04cc 23       		.byte	0x23
 1011 04cd 8001     		.uleb128 0x80
 1012 04cf 0C       		.uleb128 0xc
 1013 04d0 BC030000 		.4byte	.LASF131
 1014 04d4 03       		.byte	0x3
 1015 04d5 FA02     		.2byte	0x2fa
 1016 04d7 9B000000 		.4byte	0x9b
 1017 04db 03       		.byte	0x3
 1018 04dc 23       		.byte	0x23
 1019 04dd 8401     		.uleb128 0x84
ARM GAS  C:\Users\LAB_ME~1\AppData\Local\Temp\cckQhmLC.s 			page 19


 1020 04df 00       		.byte	0
 1021 04e0 0D       		.uleb128 0xd
 1022 04e1 5F030000 		.4byte	.LASF132
 1023 04e5 03       		.byte	0x3
 1024 04e6 FB02     		.2byte	0x2fb
 1025 04e8 13030000 		.4byte	0x313
 1026 04ec 0E       		.uleb128 0xe
 1027 04ed 54       		.byte	0x54
 1028 04ee 04       		.byte	0x4
 1029 04ef 60       		.byte	0x60
 1030 04f0 C1060000 		.4byte	0x6c1
 1031 04f4 0F       		.uleb128 0xf
 1032 04f5 43523100 		.ascii	"CR1\000"
 1033 04f9 04       		.byte	0x4
 1034 04fa 61       		.byte	0x61
 1035 04fb 09030000 		.4byte	0x309
 1036 04ff 02       		.byte	0x2
 1037 0500 23       		.byte	0x23
 1038 0501 00       		.uleb128 0
 1039 0502 10       		.uleb128 0x10
 1040 0503 53000000 		.4byte	.LASF133
 1041 0507 04       		.byte	0x4
 1042 0508 62       		.byte	0x62
 1043 0509 57000000 		.4byte	0x57
 1044 050d 02       		.byte	0x2
 1045 050e 23       		.byte	0x23
 1046 050f 02       		.uleb128 0x2
 1047 0510 0F       		.uleb128 0xf
 1048 0511 43523200 		.ascii	"CR2\000"
 1049 0515 04       		.byte	0x4
 1050 0516 63       		.byte	0x63
 1051 0517 09030000 		.4byte	0x309
 1052 051b 02       		.byte	0x2
 1053 051c 23       		.byte	0x23
 1054 051d 04       		.uleb128 0x4
 1055 051e 10       		.uleb128 0x10
 1056 051f 5B000000 		.4byte	.LASF134
 1057 0523 04       		.byte	0x4
 1058 0524 64       		.byte	0x64
 1059 0525 57000000 		.4byte	0x57
 1060 0529 02       		.byte	0x2
 1061 052a 23       		.byte	0x23
 1062 052b 06       		.uleb128 0x6
 1063 052c 10       		.uleb128 0x10
 1064 052d A5030000 		.4byte	.LASF135
 1065 0531 04       		.byte	0x4
 1066 0532 65       		.byte	0x65
 1067 0533 09030000 		.4byte	0x309
 1068 0537 02       		.byte	0x2
 1069 0538 23       		.byte	0x23
 1070 0539 08       		.uleb128 0x8
 1071 053a 10       		.uleb128 0x10
 1072 053b 1E070000 		.4byte	.LASF136
 1073 053f 04       		.byte	0x4
 1074 0540 66       		.byte	0x66
 1075 0541 57000000 		.4byte	0x57
 1076 0545 02       		.byte	0x2
ARM GAS  C:\Users\LAB_ME~1\AppData\Local\Temp\cckQhmLC.s 			page 20


 1077 0546 23       		.byte	0x23
 1078 0547 0A       		.uleb128 0xa
 1079 0548 10       		.uleb128 0x10
 1080 0549 8D080000 		.4byte	.LASF137
 1081 054d 04       		.byte	0x4
 1082 054e 67       		.byte	0x67
 1083 054f 09030000 		.4byte	0x309
 1084 0553 02       		.byte	0x2
 1085 0554 23       		.byte	0x23
 1086 0555 0C       		.uleb128 0xc
 1087 0556 10       		.uleb128 0x10
 1088 0557 70000000 		.4byte	.LASF138
 1089 055b 04       		.byte	0x4
 1090 055c 68       		.byte	0x68
 1091 055d 57000000 		.4byte	0x57
 1092 0561 02       		.byte	0x2
 1093 0562 23       		.byte	0x23
 1094 0563 0E       		.uleb128 0xe
 1095 0564 0F       		.uleb128 0xf
 1096 0565 535200   		.ascii	"SR\000"
 1097 0568 04       		.byte	0x4
 1098 0569 69       		.byte	0x69
 1099 056a 09030000 		.4byte	0x309
 1100 056e 02       		.byte	0x2
 1101 056f 23       		.byte	0x23
 1102 0570 10       		.uleb128 0x10
 1103 0571 10       		.uleb128 0x10
 1104 0572 78000000 		.4byte	.LASF139
 1105 0576 04       		.byte	0x4
 1106 0577 6A       		.byte	0x6a
 1107 0578 57000000 		.4byte	0x57
 1108 057c 02       		.byte	0x2
 1109 057d 23       		.byte	0x23
 1110 057e 12       		.uleb128 0x12
 1111 057f 0F       		.uleb128 0xf
 1112 0580 45475200 		.ascii	"EGR\000"
 1113 0584 04       		.byte	0x4
 1114 0585 6B       		.byte	0x6b
 1115 0586 09030000 		.4byte	0x309
 1116 058a 02       		.byte	0x2
 1117 058b 23       		.byte	0x23
 1118 058c 14       		.uleb128 0x14
 1119 058d 10       		.uleb128 0x10
 1120 058e 80000000 		.4byte	.LASF140
 1121 0592 04       		.byte	0x4
 1122 0593 6C       		.byte	0x6c
 1123 0594 57000000 		.4byte	0x57
 1124 0598 02       		.byte	0x2
 1125 0599 23       		.byte	0x23
 1126 059a 16       		.uleb128 0x16
 1127 059b 10       		.uleb128 0x10
 1128 059c 51010000 		.4byte	.LASF141
 1129 05a0 04       		.byte	0x4
 1130 05a1 6D       		.byte	0x6d
 1131 05a2 09030000 		.4byte	0x309
 1132 05a6 02       		.byte	0x2
 1133 05a7 23       		.byte	0x23
ARM GAS  C:\Users\LAB_ME~1\AppData\Local\Temp\cckQhmLC.s 			page 21


 1134 05a8 18       		.uleb128 0x18
 1135 05a9 10       		.uleb128 0x10
 1136 05aa 88000000 		.4byte	.LASF142
 1137 05ae 04       		.byte	0x4
 1138 05af 6E       		.byte	0x6e
 1139 05b0 57000000 		.4byte	0x57
 1140 05b4 02       		.byte	0x2
 1141 05b5 23       		.byte	0x23
 1142 05b6 1A       		.uleb128 0x1a
 1143 05b7 10       		.uleb128 0x10
 1144 05b8 57010000 		.4byte	.LASF143
 1145 05bc 04       		.byte	0x4
 1146 05bd 6F       		.byte	0x6f
 1147 05be 09030000 		.4byte	0x309
 1148 05c2 02       		.byte	0x2
 1149 05c3 23       		.byte	0x23
 1150 05c4 1C       		.uleb128 0x1c
 1151 05c5 10       		.uleb128 0x10
 1152 05c6 90000000 		.4byte	.LASF144
 1153 05ca 04       		.byte	0x4
 1154 05cb 70       		.byte	0x70
 1155 05cc 57000000 		.4byte	0x57
 1156 05d0 02       		.byte	0x2
 1157 05d1 23       		.byte	0x23
 1158 05d2 1E       		.uleb128 0x1e
 1159 05d3 10       		.uleb128 0x10
 1160 05d4 0A020000 		.4byte	.LASF145
 1161 05d8 04       		.byte	0x4
 1162 05d9 71       		.byte	0x71
 1163 05da 09030000 		.4byte	0x309
 1164 05de 02       		.byte	0x2
 1165 05df 23       		.byte	0x23
 1166 05e0 20       		.uleb128 0x20
 1167 05e1 10       		.uleb128 0x10
 1168 05e2 98000000 		.4byte	.LASF146
 1169 05e6 04       		.byte	0x4
 1170 05e7 72       		.byte	0x72
 1171 05e8 57000000 		.4byte	0x57
 1172 05ec 02       		.byte	0x2
 1173 05ed 23       		.byte	0x23
 1174 05ee 22       		.uleb128 0x22
 1175 05ef 0F       		.uleb128 0xf
 1176 05f0 434E5400 		.ascii	"CNT\000"
 1177 05f4 04       		.byte	0x4
 1178 05f5 73       		.byte	0x73
 1179 05f6 9B000000 		.4byte	0x9b
 1180 05fa 02       		.byte	0x2
 1181 05fb 23       		.byte	0x23
 1182 05fc 24       		.uleb128 0x24
 1183 05fd 0F       		.uleb128 0xf
 1184 05fe 50534300 		.ascii	"PSC\000"
 1185 0602 04       		.byte	0x4
 1186 0603 74       		.byte	0x74
 1187 0604 09030000 		.4byte	0x309
 1188 0608 02       		.byte	0x2
 1189 0609 23       		.byte	0x23
 1190 060a 28       		.uleb128 0x28
ARM GAS  C:\Users\LAB_ME~1\AppData\Local\Temp\cckQhmLC.s 			page 22


 1191 060b 10       		.uleb128 0x10
 1192 060c A0000000 		.4byte	.LASF147
 1193 0610 04       		.byte	0x4
 1194 0611 75       		.byte	0x75
 1195 0612 57000000 		.4byte	0x57
 1196 0616 02       		.byte	0x2
 1197 0617 23       		.byte	0x23
 1198 0618 2A       		.uleb128 0x2a
 1199 0619 0F       		.uleb128 0xf
 1200 061a 41525200 		.ascii	"ARR\000"
 1201 061e 04       		.byte	0x4
 1202 061f 76       		.byte	0x76
 1203 0620 9B000000 		.4byte	0x9b
 1204 0624 02       		.byte	0x2
 1205 0625 23       		.byte	0x23
 1206 0626 2C       		.uleb128 0x2c
 1207 0627 0F       		.uleb128 0xf
 1208 0628 52435200 		.ascii	"RCR\000"
 1209 062c 04       		.byte	0x4
 1210 062d 77       		.byte	0x77
 1211 062e 09030000 		.4byte	0x309
 1212 0632 02       		.byte	0x2
 1213 0633 23       		.byte	0x23
 1214 0634 30       		.uleb128 0x30
 1215 0635 10       		.uleb128 0x10
 1216 0636 B8010000 		.4byte	.LASF148
 1217 063a 04       		.byte	0x4
 1218 063b 78       		.byte	0x78
 1219 063c 57000000 		.4byte	0x57
 1220 0640 02       		.byte	0x2
 1221 0641 23       		.byte	0x23
 1222 0642 32       		.uleb128 0x32
 1223 0643 0F       		.uleb128 0xf
 1224 0644 43435200 		.ascii	"CCR\000"
 1225 0648 04       		.byte	0x4
 1226 0649 79       		.byte	0x79
 1227 064a C1060000 		.4byte	0x6c1
 1228 064e 02       		.byte	0x2
 1229 064f 23       		.byte	0x23
 1230 0650 34       		.uleb128 0x34
 1231 0651 10       		.uleb128 0x10
 1232 0652 C5020000 		.4byte	.LASF149
 1233 0656 04       		.byte	0x4
 1234 0657 7A       		.byte	0x7a
 1235 0658 09030000 		.4byte	0x309
 1236 065c 02       		.byte	0x2
 1237 065d 23       		.byte	0x23
 1238 065e 44       		.uleb128 0x44
 1239 065f 10       		.uleb128 0x10
 1240 0660 A8000000 		.4byte	.LASF150
 1241 0664 04       		.byte	0x4
 1242 0665 7B       		.byte	0x7b
 1243 0666 57000000 		.4byte	0x57
 1244 066a 02       		.byte	0x2
 1245 066b 23       		.byte	0x23
 1246 066c 46       		.uleb128 0x46
 1247 066d 0F       		.uleb128 0xf
ARM GAS  C:\Users\LAB_ME~1\AppData\Local\Temp\cckQhmLC.s 			page 23


 1248 066e 44435200 		.ascii	"DCR\000"
 1249 0672 04       		.byte	0x4
 1250 0673 7C       		.byte	0x7c
 1251 0674 09030000 		.4byte	0x309
 1252 0678 02       		.byte	0x2
 1253 0679 23       		.byte	0x23
 1254 067a 48       		.uleb128 0x48
 1255 067b 10       		.uleb128 0x10
 1256 067c C7010000 		.4byte	.LASF151
 1257 0680 04       		.byte	0x4
 1258 0681 7D       		.byte	0x7d
 1259 0682 57000000 		.4byte	0x57
 1260 0686 02       		.byte	0x2
 1261 0687 23       		.byte	0x23
 1262 0688 4A       		.uleb128 0x4a
 1263 0689 10       		.uleb128 0x10
 1264 068a 4E070000 		.4byte	.LASF152
 1265 068e 04       		.byte	0x4
 1266 068f 7E       		.byte	0x7e
 1267 0690 09030000 		.4byte	0x309
 1268 0694 02       		.byte	0x2
 1269 0695 23       		.byte	0x23
 1270 0696 4C       		.uleb128 0x4c
 1271 0697 10       		.uleb128 0x10
 1272 0698 BF000000 		.4byte	.LASF153
 1273 069c 04       		.byte	0x4
 1274 069d 7F       		.byte	0x7f
 1275 069e 57000000 		.4byte	0x57
 1276 06a2 02       		.byte	0x2
 1277 06a3 23       		.byte	0x23
 1278 06a4 4E       		.uleb128 0x4e
 1279 06a5 0F       		.uleb128 0xf
 1280 06a6 4F5200   		.ascii	"OR\000"
 1281 06a9 04       		.byte	0x4
 1282 06aa 80       		.byte	0x80
 1283 06ab 09030000 		.4byte	0x309
 1284 06af 02       		.byte	0x2
 1285 06b0 23       		.byte	0x23
 1286 06b1 50       		.uleb128 0x50
 1287 06b2 10       		.uleb128 0x10
 1288 06b3 DF000000 		.4byte	.LASF154
 1289 06b7 04       		.byte	0x4
 1290 06b8 81       		.byte	0x81
 1291 06b9 57000000 		.4byte	0x57
 1292 06bd 02       		.byte	0x2
 1293 06be 23       		.byte	0x23
 1294 06bf 52       		.uleb128 0x52
 1295 06c0 00       		.byte	0
 1296 06c1 05       		.uleb128 0x5
 1297 06c2 F9020000 		.4byte	0x2f9
 1298 06c6 04       		.uleb128 0x4
 1299 06c7 0C040000 		.4byte	.LASF155
 1300 06cb 04       		.byte	0x4
 1301 06cc 82       		.byte	0x82
 1302 06cd EC040000 		.4byte	0x4ec
 1303 06d1 11       		.uleb128 0x11
 1304 06d2 01       		.byte	0x1
ARM GAS  C:\Users\LAB_ME~1\AppData\Local\Temp\cckQhmLC.s 			page 24


 1305 06d3 05       		.byte	0x5
 1306 06d4 35       		.byte	0x35
 1307 06d5 F8060000 		.4byte	0x6f8
 1308 06d9 07       		.uleb128 0x7
 1309 06da 8E030000 		.4byte	.LASF156
 1310 06de 00       		.sleb128 0
 1311 06df 07       		.uleb128 0x7
 1312 06e0 7C080000 		.4byte	.LASF157
 1313 06e4 01       		.sleb128 1
 1314 06e5 07       		.uleb128 0x7
 1315 06e6 0A000000 		.4byte	.LASF158
 1316 06ea 02       		.sleb128 2
 1317 06eb 07       		.uleb128 0x7
 1318 06ec 8E010000 		.4byte	.LASF159
 1319 06f0 03       		.sleb128 3
 1320 06f1 07       		.uleb128 0x7
 1321 06f2 CF060000 		.4byte	.LASF160
 1322 06f6 04       		.sleb128 4
 1323 06f7 00       		.byte	0
 1324 06f8 04       		.uleb128 0x4
 1325 06f9 D8020000 		.4byte	.LASF161
 1326 06fd 05       		.byte	0x5
 1327 06fe 3B       		.byte	0x3b
 1328 06ff D1060000 		.4byte	0x6d1
 1329 0703 04       		.uleb128 0x4
 1330 0704 8F020000 		.4byte	.LASF162
 1331 0708 05       		.byte	0x5
 1332 0709 40       		.byte	0x40
 1333 070a 0E070000 		.4byte	0x70e
 1334 070e 12       		.uleb128 0x12
 1335 070f 8F020000 		.4byte	.LASF162
 1336 0713 10       		.byte	0x10
 1337 0714 06       		.byte	0x6
 1338 0715 F3       		.byte	0xf3
 1339 0716 55070000 		.4byte	0x755
 1340 071a 10       		.uleb128 0x10
 1341 071b C1010000 		.4byte	.LASF163
 1342 071f 06       		.byte	0x6
 1343 0720 F7       		.byte	0xf7
 1344 0721 F8060000 		.4byte	0x6f8
 1345 0725 02       		.byte	0x2
 1346 0726 23       		.byte	0x23
 1347 0727 00       		.uleb128 0
 1348 0728 10       		.uleb128 0x10
 1349 0729 47070000 		.4byte	.LASF164
 1350 072d 06       		.byte	0x6
 1351 072e FB       		.byte	0xfb
 1352 072f BE070000 		.4byte	0x7be
 1353 0733 02       		.byte	0x2
 1354 0734 23       		.byte	0x23
 1355 0735 04       		.uleb128 0x4
 1356 0736 0C       		.uleb128 0xc
 1357 0737 A0080000 		.4byte	.LASF165
 1358 073b 06       		.byte	0x6
 1359 073c 0301     		.2byte	0x103
 1360 073e 7B000000 		.4byte	0x7b
 1361 0742 02       		.byte	0x2
ARM GAS  C:\Users\LAB_ME~1\AppData\Local\Temp\cckQhmLC.s 			page 25


 1362 0743 23       		.byte	0x23
 1363 0744 08       		.uleb128 0x8
 1364 0745 0B       		.uleb128 0xb
 1365 0746 74696D00 		.ascii	"tim\000"
 1366 074a 06       		.byte	0x6
 1367 074b 0701     		.2byte	0x107
 1368 074d C9070000 		.4byte	0x7c9
 1369 0751 02       		.byte	0x2
 1370 0752 23       		.byte	0x23
 1371 0753 0C       		.uleb128 0xc
 1372 0754 00       		.byte	0
 1373 0755 04       		.uleb128 0x4
 1374 0756 CA020000 		.4byte	.LASF166
 1375 075a 05       		.byte	0x5
 1376 075b 47       		.byte	0x47
 1377 075c 60070000 		.4byte	0x760
 1378 0760 13       		.uleb128 0x13
 1379 0761 04       		.byte	0x4
 1380 0762 66070000 		.4byte	0x766
 1381 0766 14       		.uleb128 0x14
 1382 0767 01       		.byte	0x1
 1383 0768 72070000 		.4byte	0x772
 1384 076c 15       		.uleb128 0x15
 1385 076d 72070000 		.4byte	0x772
 1386 0771 00       		.byte	0
 1387 0772 13       		.uleb128 0x13
 1388 0773 04       		.byte	0x4
 1389 0774 03070000 		.4byte	0x703
 1390 0778 04       		.uleb128 0x4
 1391 0779 53070000 		.4byte	.LASF167
 1392 077d 06       		.byte	0x6
 1393 077e D6       		.byte	0xd6
 1394 077f 7B000000 		.4byte	0x7b
 1395 0783 04       		.uleb128 0x4
 1396 0784 D9010000 		.4byte	.LASF168
 1397 0788 06       		.byte	0x6
 1398 0789 DB       		.byte	0xdb
 1399 078a 57000000 		.4byte	0x57
 1400 078e 0E       		.uleb128 0xe
 1401 078f 08       		.byte	0x8
 1402 0790 06       		.byte	0x6
 1403 0791 E1       		.byte	0xe1
 1404 0792 B3070000 		.4byte	0x7b3
 1405 0796 10       		.uleb128 0x10
 1406 0797 2C010000 		.4byte	.LASF169
 1407 079b 06       		.byte	0x6
 1408 079c E7       		.byte	0xe7
 1409 079d 78070000 		.4byte	0x778
 1410 07a1 02       		.byte	0x2
 1411 07a2 23       		.byte	0x23
 1412 07a3 00       		.uleb128 0
 1413 07a4 10       		.uleb128 0x10
 1414 07a5 F6030000 		.4byte	.LASF170
 1415 07a9 06       		.byte	0x6
 1416 07aa EC       		.byte	0xec
 1417 07ab 55070000 		.4byte	0x755
 1418 07af 02       		.byte	0x2
ARM GAS  C:\Users\LAB_ME~1\AppData\Local\Temp\cckQhmLC.s 			page 26


 1419 07b0 23       		.byte	0x23
 1420 07b1 04       		.uleb128 0x4
 1421 07b2 00       		.byte	0
 1422 07b3 04       		.uleb128 0x4
 1423 07b4 A8070000 		.4byte	.LASF171
 1424 07b8 06       		.byte	0x6
 1425 07b9 EE       		.byte	0xee
 1426 07ba 8E070000 		.4byte	0x78e
 1427 07be 13       		.uleb128 0x13
 1428 07bf 04       		.byte	0x4
 1429 07c0 C4070000 		.4byte	0x7c4
 1430 07c4 16       		.uleb128 0x16
 1431 07c5 B3070000 		.4byte	0x7b3
 1432 07c9 13       		.uleb128 0x13
 1433 07ca 04       		.byte	0x4
 1434 07cb C6060000 		.4byte	0x6c6
 1435 07cf 17       		.uleb128 0x17
 1436 07d0 01       		.byte	0x1
 1437 07d1 C2040000 		.4byte	.LASF182
 1438 07d5 01       		.byte	0x1
 1439 07d6 B601     		.2byte	0x1b6
 1440 07d8 01       		.byte	0x1
 1441 07d9 01       		.byte	0x1
 1442 07da EB070000 		.4byte	0x7eb
 1443 07de 18       		.uleb128 0x18
 1444 07df 6B030000 		.4byte	.LASF172
 1445 07e3 01       		.byte	0x1
 1446 07e4 B601     		.2byte	0x1b6
 1447 07e6 72070000 		.4byte	0x772
 1448 07ea 00       		.byte	0
 1449 07eb 19       		.uleb128 0x19
 1450 07ec 65050000 		.4byte	.LASF189
 1451 07f0 01       		.byte	0x1
 1452 07f1 63       		.byte	0x63
 1453 07f2 01       		.byte	0x1
 1454 07f3 01       		.byte	0x1
 1455 07f4 04080000 		.4byte	0x804
 1456 07f8 1A       		.uleb128 0x1a
 1457 07f9 6B030000 		.4byte	.LASF172
 1458 07fd 01       		.byte	0x1
 1459 07fe 63       		.byte	0x63
 1460 07ff 72070000 		.4byte	0x772
 1461 0803 00       		.byte	0
 1462 0804 1B       		.uleb128 0x1b
 1463 0805 01       		.byte	0x1
 1464 0806 9D010000 		.4byte	.LASF173
 1465 080a 01       		.byte	0x1
 1466 080b 8D       		.byte	0x8d
 1467 080c 01       		.byte	0x1
 1468 080d 00000000 		.4byte	.LFB119
 1469 0811 30000000 		.4byte	.LFE119
 1470 0815 00000000 		.4byte	.LLST0
 1471 0819 01       		.byte	0x1
 1472 081a 75080000 		.4byte	0x875
 1473 081e 1C       		.uleb128 0x1c
 1474 081f EB070000 		.4byte	0x7eb
 1475 0823 02000000 		.4byte	.LBB8
ARM GAS  C:\Users\LAB_ME~1\AppData\Local\Temp\cckQhmLC.s 			page 27


 1476 0827 22000000 		.4byte	.LBE8
 1477 082b 01       		.byte	0x1
 1478 082c 91       		.byte	0x91
 1479 082d 6A080000 		.4byte	0x86a
 1480 0831 1D       		.uleb128 0x1d
 1481 0832 F8070000 		.4byte	0x7f8
 1482 0836 06       		.byte	0x6
 1483 0837 03       		.byte	0x3
 1484 0838 00000000 		.4byte	GPTD2
 1485 083c 9F       		.byte	0x9f
 1486 083d 1C       		.uleb128 0x1c
 1487 083e CF070000 		.4byte	0x7cf
 1488 0842 14000000 		.4byte	.LBB10
 1489 0846 1A000000 		.4byte	.LBE10
 1490 084a 01       		.byte	0x1
 1491 084b 68       		.byte	0x68
 1492 084c 5A080000 		.4byte	0x85a
 1493 0850 1E       		.uleb128 0x1e
 1494 0851 DE070000 		.4byte	0x7de
 1495 0855 20000000 		.4byte	.LLST1
 1496 0859 00       		.byte	0
 1497 085a 1F       		.uleb128 0x1f
 1498 085b 22000000 		.4byte	.LVL3
 1499 085f 20       		.uleb128 0x20
 1500 0860 01       		.byte	0x1
 1501 0861 50       		.byte	0x50
 1502 0862 05       		.byte	0x5
 1503 0863 03       		.byte	0x3
 1504 0864 00000000 		.4byte	.LANCHOR0
 1505 0868 00       		.byte	0
 1506 0869 00       		.byte	0
 1507 086a 21       		.uleb128 0x21
 1508 086b 2A000000 		.4byte	.LVL4
 1509 086f 01       		.byte	0x1
 1510 0870 E0090000 		.4byte	0x9e0
 1511 0874 00       		.byte	0
 1512 0875 22       		.uleb128 0x22
 1513 0876 01       		.byte	0x1
 1514 0877 FF030000 		.4byte	.LASF174
 1515 087b 01       		.byte	0x1
 1516 087c EC       		.byte	0xec
 1517 087d 01       		.byte	0x1
 1518 087e 00000000 		.4byte	.LFB120
 1519 0882 14000000 		.4byte	.LFE120
 1520 0886 02       		.byte	0x2
 1521 0887 7D       		.byte	0x7d
 1522 0888 00       		.sleb128 0
 1523 0889 01       		.byte	0x1
 1524 088a A3080000 		.4byte	0x8a3
 1525 088e 23       		.uleb128 0x23
 1526 088f 0E000000 		.4byte	.LVL5
 1527 0893 01       		.byte	0x1
 1528 0894 EB090000 		.4byte	0x9eb
 1529 0898 20       		.uleb128 0x20
 1530 0899 01       		.byte	0x1
 1531 089a 50       		.byte	0x50
 1532 089b 05       		.byte	0x5
ARM GAS  C:\Users\LAB_ME~1\AppData\Local\Temp\cckQhmLC.s 			page 28


 1533 089c 03       		.byte	0x3
 1534 089d 00000000 		.4byte	.LANCHOR0
 1535 08a1 00       		.byte	0
 1536 08a2 00       		.byte	0
 1537 08a3 24       		.uleb128 0x24
 1538 08a4 01       		.byte	0x1
 1539 08a5 EE070000 		.4byte	.LASF175
 1540 08a9 01       		.byte	0x1
 1541 08aa 1A01     		.2byte	0x11a
 1542 08ac 01       		.byte	0x1
 1543 08ad 00000000 		.4byte	.LFB121
 1544 08b1 5C000000 		.4byte	.LFE121
 1545 08b5 38000000 		.4byte	.LLST2
 1546 08b9 01       		.byte	0x1
 1547 08ba F4080000 		.4byte	0x8f4
 1548 08be 25       		.uleb128 0x25
 1549 08bf 6B030000 		.4byte	.LASF172
 1550 08c3 01       		.byte	0x1
 1551 08c4 1A01     		.2byte	0x11a
 1552 08c6 72070000 		.4byte	0x772
 1553 08ca 58000000 		.4byte	.LLST3
 1554 08ce 26       		.uleb128 0x26
 1555 08cf 70736300 		.ascii	"psc\000"
 1556 08d3 01       		.byte	0x1
 1557 08d4 1B01     		.2byte	0x11b
 1558 08d6 57000000 		.4byte	0x57
 1559 08da 8C000000 		.4byte	.LLST4
 1560 08de 27       		.uleb128 0x27
 1561 08df 4A000000 		.4byte	.LVL11
 1562 08e3 FF090000 		.4byte	0x9ff
 1563 08e7 20       		.uleb128 0x20
 1564 08e8 01       		.byte	0x1
 1565 08e9 51       		.byte	0x51
 1566 08ea 02       		.byte	0x2
 1567 08eb 08       		.byte	0x8
 1568 08ec 70       		.byte	0x70
 1569 08ed 20       		.uleb128 0x20
 1570 08ee 01       		.byte	0x1
 1571 08ef 50       		.byte	0x50
 1572 08f0 01       		.byte	0x1
 1573 08f1 4C       		.byte	0x4c
 1574 08f2 00       		.byte	0
 1575 08f3 00       		.byte	0
 1576 08f4 24       		.uleb128 0x24
 1577 08f5 01       		.byte	0x1
 1578 08f6 45080000 		.4byte	.LASF176
 1579 08fa 01       		.byte	0x1
 1580 08fb 6C01     		.2byte	0x16c
 1581 08fd 01       		.byte	0x1
 1582 08fe 00000000 		.4byte	.LFB122
 1583 0902 34000000 		.4byte	.LFE122
 1584 0906 9F000000 		.4byte	.LLST5
 1585 090a 01       		.byte	0x1
 1586 090b 2F090000 		.4byte	0x92f
 1587 090f 25       		.uleb128 0x25
 1588 0910 6B030000 		.4byte	.LASF172
 1589 0914 01       		.byte	0x1
ARM GAS  C:\Users\LAB_ME~1\AppData\Local\Temp\cckQhmLC.s 			page 29


 1590 0915 6C01     		.2byte	0x16c
 1591 0917 72070000 		.4byte	0x772
 1592 091b BF000000 		.4byte	.LLST6
 1593 091f 27       		.uleb128 0x27
 1594 0920 20000000 		.4byte	.LVL16
 1595 0924 190A0000 		.4byte	0xa19
 1596 0928 20       		.uleb128 0x20
 1597 0929 01       		.byte	0x1
 1598 092a 50       		.byte	0x50
 1599 092b 01       		.byte	0x1
 1600 092c 4C       		.byte	0x4c
 1601 092d 00       		.byte	0
 1602 092e 00       		.byte	0
 1603 092f 28       		.uleb128 0x28
 1604 0930 01       		.byte	0x1
 1605 0931 45050000 		.4byte	.LASF177
 1606 0935 01       		.byte	0x1
 1607 0936 A201     		.2byte	0x1a2
 1608 0938 01       		.byte	0x1
 1609 0939 00000000 		.4byte	.LFB123
 1610 093d 18000000 		.4byte	.LFE123
 1611 0941 02       		.byte	0x2
 1612 0942 7D       		.byte	0x7d
 1613 0943 00       		.sleb128 0
 1614 0944 01       		.byte	0x1
 1615 0945 6A090000 		.4byte	0x96a
 1616 0949 25       		.uleb128 0x25
 1617 094a 6B030000 		.4byte	.LASF172
 1618 094e 01       		.byte	0x1
 1619 094f A201     		.2byte	0x1a2
 1620 0951 72070000 		.4byte	0x772
 1621 0955 F9000000 		.4byte	.LLST7
 1622 0959 25       		.uleb128 0x25
 1623 095a 7D020000 		.4byte	.LASF178
 1624 095e 01       		.byte	0x1
 1625 095f A201     		.2byte	0x1a2
 1626 0961 83070000 		.4byte	0x783
 1627 0965 1A010000 		.4byte	.LLST8
 1628 0969 00       		.byte	0
 1629 096a 29       		.uleb128 0x29
 1630 096b CF070000 		.4byte	0x7cf
 1631 096f 00000000 		.4byte	.LFB124
 1632 0973 0C000000 		.4byte	.LFE124
 1633 0977 02       		.byte	0x2
 1634 0978 7D       		.byte	0x7d
 1635 0979 00       		.sleb128 0
 1636 097a 01       		.byte	0x1
 1637 097b 87090000 		.4byte	0x987
 1638 097f 1D       		.uleb128 0x1d
 1639 0980 DE070000 		.4byte	0x7de
 1640 0984 01       		.byte	0x1
 1641 0985 50       		.byte	0x50
 1642 0986 00       		.byte	0
 1643 0987 28       		.uleb128 0x28
 1644 0988 01       		.byte	0x1
 1645 0989 38030000 		.4byte	.LASF179
 1646 098d 01       		.byte	0x1
ARM GAS  C:\Users\LAB_ME~1\AppData\Local\Temp\cckQhmLC.s 			page 30


 1647 098e C801     		.2byte	0x1c8
 1648 0990 01       		.byte	0x1
 1649 0991 00000000 		.4byte	.LFB125
 1650 0995 1A000000 		.4byte	.LFE125
 1651 0999 02       		.byte	0x2
 1652 099a 7D       		.byte	0x7d
 1653 099b 00       		.sleb128 0
 1654 099c 01       		.byte	0x1
 1655 099d C0090000 		.4byte	0x9c0
 1656 09a1 2A       		.uleb128 0x2a
 1657 09a2 6B030000 		.4byte	.LASF172
 1658 09a6 01       		.byte	0x1
 1659 09a7 C801     		.2byte	0x1c8
 1660 09a9 72070000 		.4byte	0x772
 1661 09ad 01       		.byte	0x1
 1662 09ae 50       		.byte	0x50
 1663 09af 25       		.uleb128 0x25
 1664 09b0 7D020000 		.4byte	.LASF178
 1665 09b4 01       		.byte	0x1
 1666 09b5 C801     		.2byte	0x1c8
 1667 09b7 83070000 		.4byte	0x783
 1668 09bb 3B010000 		.4byte	.LLST9
 1669 09bf 00       		.byte	0
 1670 09c0 2B       		.uleb128 0x2b
 1671 09c1 39060000 		.4byte	.LASF180
 1672 09c5 07       		.byte	0x7
 1673 09c6 9806     		.2byte	0x698
 1674 09c8 0E030000 		.4byte	0x30e
 1675 09cc 01       		.byte	0x1
 1676 09cd 01       		.byte	0x1
 1677 09ce 2C       		.uleb128 0x2c
 1678 09cf 1C010000 		.4byte	.LASF181
 1679 09d3 01       		.byte	0x1
 1680 09d4 33       		.byte	0x33
 1681 09d5 03070000 		.4byte	0x703
 1682 09d9 01       		.byte	0x1
 1683 09da 05       		.byte	0x5
 1684 09db 03       		.byte	0x3
 1685 09dc 00000000 		.4byte	GPTD2
 1686 09e0 2D       		.uleb128 0x2d
 1687 09e1 01       		.byte	0x1
 1688 09e2 57080000 		.4byte	.LASF190
 1689 09e6 09       		.byte	0x9
 1690 09e7 FC01     		.2byte	0x1fc
 1691 09e9 01       		.byte	0x1
 1692 09ea 01       		.byte	0x1
 1693 09eb 2E       		.uleb128 0x2e
 1694 09ec 01       		.byte	0x1
 1695 09ed 02030000 		.4byte	.LASF183
 1696 09f1 05       		.byte	0x5
 1697 09f2 57       		.byte	0x57
 1698 09f3 01       		.byte	0x1
 1699 09f4 01       		.byte	0x1
 1700 09f5 FF090000 		.4byte	0x9ff
 1701 09f9 15       		.uleb128 0x15
 1702 09fa 72070000 		.4byte	0x772
 1703 09fe 00       		.byte	0
ARM GAS  C:\Users\LAB_ME~1\AppData\Local\Temp\cckQhmLC.s 			page 31


 1704 09ff 2F       		.uleb128 0x2f
 1705 0a00 01       		.byte	0x1
 1706 0a01 40010000 		.4byte	.LASF184
 1707 0a05 08       		.byte	0x8
 1708 0a06 1C01     		.2byte	0x11c
 1709 0a08 01       		.byte	0x1
 1710 0a09 01       		.byte	0x1
 1711 0a0a 190A0000 		.4byte	0xa19
 1712 0a0e 15       		.uleb128 0x15
 1713 0a0f 7B000000 		.4byte	0x7b
 1714 0a13 15       		.uleb128 0x15
 1715 0a14 7B000000 		.4byte	0x7b
 1716 0a18 00       		.byte	0
 1717 0a19 30       		.uleb128 0x30
 1718 0a1a 01       		.byte	0x1
 1719 0a1b 0C070000 		.4byte	.LASF191
 1720 0a1f 08       		.byte	0x8
 1721 0a20 1D01     		.2byte	0x11d
 1722 0a22 01       		.byte	0x1
 1723 0a23 01       		.byte	0x1
 1724 0a24 15       		.uleb128 0x15
 1725 0a25 7B000000 		.4byte	0x7b
 1726 0a29 00       		.byte	0
 1727 0a2a 00       		.byte	0
 1728              		.section	.debug_abbrev,"",%progbits
 1729              	.Ldebug_abbrev0:
 1730 0000 01       		.uleb128 0x1
 1731 0001 11       		.uleb128 0x11
 1732 0002 01       		.byte	0x1
 1733 0003 25       		.uleb128 0x25
 1734 0004 0E       		.uleb128 0xe
 1735 0005 13       		.uleb128 0x13
 1736 0006 0B       		.uleb128 0xb
 1737 0007 03       		.uleb128 0x3
 1738 0008 0E       		.uleb128 0xe
 1739 0009 1B       		.uleb128 0x1b
 1740 000a 0E       		.uleb128 0xe
 1741 000b 55       		.uleb128 0x55
 1742 000c 06       		.uleb128 0x6
 1743 000d 11       		.uleb128 0x11
 1744 000e 01       		.uleb128 0x1
 1745 000f 52       		.uleb128 0x52
 1746 0010 01       		.uleb128 0x1
 1747 0011 10       		.uleb128 0x10
 1748 0012 06       		.uleb128 0x6
 1749 0013 00       		.byte	0
 1750 0014 00       		.byte	0
 1751 0015 02       		.uleb128 0x2
 1752 0016 24       		.uleb128 0x24
 1753 0017 00       		.byte	0
 1754 0018 0B       		.uleb128 0xb
 1755 0019 0B       		.uleb128 0xb
 1756 001a 3E       		.uleb128 0x3e
 1757 001b 0B       		.uleb128 0xb
 1758 001c 03       		.uleb128 0x3
 1759 001d 08       		.uleb128 0x8
 1760 001e 00       		.byte	0
ARM GAS  C:\Users\LAB_ME~1\AppData\Local\Temp\cckQhmLC.s 			page 32


 1761 001f 00       		.byte	0
 1762 0020 03       		.uleb128 0x3
 1763 0021 24       		.uleb128 0x24
 1764 0022 00       		.byte	0
 1765 0023 0B       		.uleb128 0xb
 1766 0024 0B       		.uleb128 0xb
 1767 0025 3E       		.uleb128 0x3e
 1768 0026 0B       		.uleb128 0xb
 1769 0027 03       		.uleb128 0x3
 1770 0028 0E       		.uleb128 0xe
 1771 0029 00       		.byte	0
 1772 002a 00       		.byte	0
 1773 002b 04       		.uleb128 0x4
 1774 002c 16       		.uleb128 0x16
 1775 002d 00       		.byte	0
 1776 002e 03       		.uleb128 0x3
 1777 002f 0E       		.uleb128 0xe
 1778 0030 3A       		.uleb128 0x3a
 1779 0031 0B       		.uleb128 0xb
 1780 0032 3B       		.uleb128 0x3b
 1781 0033 0B       		.uleb128 0xb
 1782 0034 49       		.uleb128 0x49
 1783 0035 13       		.uleb128 0x13
 1784 0036 00       		.byte	0
 1785 0037 00       		.byte	0
 1786 0038 05       		.uleb128 0x5
 1787 0039 35       		.uleb128 0x35
 1788 003a 00       		.byte	0
 1789 003b 49       		.uleb128 0x49
 1790 003c 13       		.uleb128 0x13
 1791 003d 00       		.byte	0
 1792 003e 00       		.byte	0
 1793 003f 06       		.uleb128 0x6
 1794 0040 04       		.uleb128 0x4
 1795 0041 01       		.byte	0x1
 1796 0042 03       		.uleb128 0x3
 1797 0043 0E       		.uleb128 0xe
 1798 0044 0B       		.uleb128 0xb
 1799 0045 0B       		.uleb128 0xb
 1800 0046 3A       		.uleb128 0x3a
 1801 0047 0B       		.uleb128 0xb
 1802 0048 3B       		.uleb128 0x3b
 1803 0049 0B       		.uleb128 0xb
 1804 004a 01       		.uleb128 0x1
 1805 004b 13       		.uleb128 0x13
 1806 004c 00       		.byte	0
 1807 004d 00       		.byte	0
 1808 004e 07       		.uleb128 0x7
 1809 004f 28       		.uleb128 0x28
 1810 0050 00       		.byte	0
 1811 0051 03       		.uleb128 0x3
 1812 0052 0E       		.uleb128 0xe
 1813 0053 1C       		.uleb128 0x1c
 1814 0054 0D       		.uleb128 0xd
 1815 0055 00       		.byte	0
 1816 0056 00       		.byte	0
 1817 0057 08       		.uleb128 0x8
ARM GAS  C:\Users\LAB_ME~1\AppData\Local\Temp\cckQhmLC.s 			page 33


 1818 0058 01       		.uleb128 0x1
 1819 0059 01       		.byte	0x1
 1820 005a 49       		.uleb128 0x49
 1821 005b 13       		.uleb128 0x13
 1822 005c 01       		.uleb128 0x1
 1823 005d 13       		.uleb128 0x13
 1824 005e 00       		.byte	0
 1825 005f 00       		.byte	0
 1826 0060 09       		.uleb128 0x9
 1827 0061 21       		.uleb128 0x21
 1828 0062 00       		.byte	0
 1829 0063 49       		.uleb128 0x49
 1830 0064 13       		.uleb128 0x13
 1831 0065 2F       		.uleb128 0x2f
 1832 0066 0B       		.uleb128 0xb
 1833 0067 00       		.byte	0
 1834 0068 00       		.byte	0
 1835 0069 0A       		.uleb128 0xa
 1836 006a 13       		.uleb128 0x13
 1837 006b 01       		.byte	0x1
 1838 006c 0B       		.uleb128 0xb
 1839 006d 0B       		.uleb128 0xb
 1840 006e 3A       		.uleb128 0x3a
 1841 006f 0B       		.uleb128 0xb
 1842 0070 3B       		.uleb128 0x3b
 1843 0071 05       		.uleb128 0x5
 1844 0072 01       		.uleb128 0x1
 1845 0073 13       		.uleb128 0x13
 1846 0074 00       		.byte	0
 1847 0075 00       		.byte	0
 1848 0076 0B       		.uleb128 0xb
 1849 0077 0D       		.uleb128 0xd
 1850 0078 00       		.byte	0
 1851 0079 03       		.uleb128 0x3
 1852 007a 08       		.uleb128 0x8
 1853 007b 3A       		.uleb128 0x3a
 1854 007c 0B       		.uleb128 0xb
 1855 007d 3B       		.uleb128 0x3b
 1856 007e 05       		.uleb128 0x5
 1857 007f 49       		.uleb128 0x49
 1858 0080 13       		.uleb128 0x13
 1859 0081 38       		.uleb128 0x38
 1860 0082 0A       		.uleb128 0xa
 1861 0083 00       		.byte	0
 1862 0084 00       		.byte	0
 1863 0085 0C       		.uleb128 0xc
 1864 0086 0D       		.uleb128 0xd
 1865 0087 00       		.byte	0
 1866 0088 03       		.uleb128 0x3
 1867 0089 0E       		.uleb128 0xe
 1868 008a 3A       		.uleb128 0x3a
 1869 008b 0B       		.uleb128 0xb
 1870 008c 3B       		.uleb128 0x3b
 1871 008d 05       		.uleb128 0x5
 1872 008e 49       		.uleb128 0x49
 1873 008f 13       		.uleb128 0x13
 1874 0090 38       		.uleb128 0x38
ARM GAS  C:\Users\LAB_ME~1\AppData\Local\Temp\cckQhmLC.s 			page 34


 1875 0091 0A       		.uleb128 0xa
 1876 0092 00       		.byte	0
 1877 0093 00       		.byte	0
 1878 0094 0D       		.uleb128 0xd
 1879 0095 16       		.uleb128 0x16
 1880 0096 00       		.byte	0
 1881 0097 03       		.uleb128 0x3
 1882 0098 0E       		.uleb128 0xe
 1883 0099 3A       		.uleb128 0x3a
 1884 009a 0B       		.uleb128 0xb
 1885 009b 3B       		.uleb128 0x3b
 1886 009c 05       		.uleb128 0x5
 1887 009d 49       		.uleb128 0x49
 1888 009e 13       		.uleb128 0x13
 1889 009f 00       		.byte	0
 1890 00a0 00       		.byte	0
 1891 00a1 0E       		.uleb128 0xe
 1892 00a2 13       		.uleb128 0x13
 1893 00a3 01       		.byte	0x1
 1894 00a4 0B       		.uleb128 0xb
 1895 00a5 0B       		.uleb128 0xb
 1896 00a6 3A       		.uleb128 0x3a
 1897 00a7 0B       		.uleb128 0xb
 1898 00a8 3B       		.uleb128 0x3b
 1899 00a9 0B       		.uleb128 0xb
 1900 00aa 01       		.uleb128 0x1
 1901 00ab 13       		.uleb128 0x13
 1902 00ac 00       		.byte	0
 1903 00ad 00       		.byte	0
 1904 00ae 0F       		.uleb128 0xf
 1905 00af 0D       		.uleb128 0xd
 1906 00b0 00       		.byte	0
 1907 00b1 03       		.uleb128 0x3
 1908 00b2 08       		.uleb128 0x8
 1909 00b3 3A       		.uleb128 0x3a
 1910 00b4 0B       		.uleb128 0xb
 1911 00b5 3B       		.uleb128 0x3b
 1912 00b6 0B       		.uleb128 0xb
 1913 00b7 49       		.uleb128 0x49
 1914 00b8 13       		.uleb128 0x13
 1915 00b9 38       		.uleb128 0x38
 1916 00ba 0A       		.uleb128 0xa
 1917 00bb 00       		.byte	0
 1918 00bc 00       		.byte	0
 1919 00bd 10       		.uleb128 0x10
 1920 00be 0D       		.uleb128 0xd
 1921 00bf 00       		.byte	0
 1922 00c0 03       		.uleb128 0x3
 1923 00c1 0E       		.uleb128 0xe
 1924 00c2 3A       		.uleb128 0x3a
 1925 00c3 0B       		.uleb128 0xb
 1926 00c4 3B       		.uleb128 0x3b
 1927 00c5 0B       		.uleb128 0xb
 1928 00c6 49       		.uleb128 0x49
 1929 00c7 13       		.uleb128 0x13
 1930 00c8 38       		.uleb128 0x38
 1931 00c9 0A       		.uleb128 0xa
ARM GAS  C:\Users\LAB_ME~1\AppData\Local\Temp\cckQhmLC.s 			page 35


 1932 00ca 00       		.byte	0
 1933 00cb 00       		.byte	0
 1934 00cc 11       		.uleb128 0x11
 1935 00cd 04       		.uleb128 0x4
 1936 00ce 01       		.byte	0x1
 1937 00cf 0B       		.uleb128 0xb
 1938 00d0 0B       		.uleb128 0xb
 1939 00d1 3A       		.uleb128 0x3a
 1940 00d2 0B       		.uleb128 0xb
 1941 00d3 3B       		.uleb128 0x3b
 1942 00d4 0B       		.uleb128 0xb
 1943 00d5 01       		.uleb128 0x1
 1944 00d6 13       		.uleb128 0x13
 1945 00d7 00       		.byte	0
 1946 00d8 00       		.byte	0
 1947 00d9 12       		.uleb128 0x12
 1948 00da 13       		.uleb128 0x13
 1949 00db 01       		.byte	0x1
 1950 00dc 03       		.uleb128 0x3
 1951 00dd 0E       		.uleb128 0xe
 1952 00de 0B       		.uleb128 0xb
 1953 00df 0B       		.uleb128 0xb
 1954 00e0 3A       		.uleb128 0x3a
 1955 00e1 0B       		.uleb128 0xb
 1956 00e2 3B       		.uleb128 0x3b
 1957 00e3 0B       		.uleb128 0xb
 1958 00e4 01       		.uleb128 0x1
 1959 00e5 13       		.uleb128 0x13
 1960 00e6 00       		.byte	0
 1961 00e7 00       		.byte	0
 1962 00e8 13       		.uleb128 0x13
 1963 00e9 0F       		.uleb128 0xf
 1964 00ea 00       		.byte	0
 1965 00eb 0B       		.uleb128 0xb
 1966 00ec 0B       		.uleb128 0xb
 1967 00ed 49       		.uleb128 0x49
 1968 00ee 13       		.uleb128 0x13
 1969 00ef 00       		.byte	0
 1970 00f0 00       		.byte	0
 1971 00f1 14       		.uleb128 0x14
 1972 00f2 15       		.uleb128 0x15
 1973 00f3 01       		.byte	0x1
 1974 00f4 27       		.uleb128 0x27
 1975 00f5 0C       		.uleb128 0xc
 1976 00f6 01       		.uleb128 0x1
 1977 00f7 13       		.uleb128 0x13
 1978 00f8 00       		.byte	0
 1979 00f9 00       		.byte	0
 1980 00fa 15       		.uleb128 0x15
 1981 00fb 05       		.uleb128 0x5
 1982 00fc 00       		.byte	0
 1983 00fd 49       		.uleb128 0x49
 1984 00fe 13       		.uleb128 0x13
 1985 00ff 00       		.byte	0
 1986 0100 00       		.byte	0
 1987 0101 16       		.uleb128 0x16
 1988 0102 26       		.uleb128 0x26
ARM GAS  C:\Users\LAB_ME~1\AppData\Local\Temp\cckQhmLC.s 			page 36


 1989 0103 00       		.byte	0
 1990 0104 49       		.uleb128 0x49
 1991 0105 13       		.uleb128 0x13
 1992 0106 00       		.byte	0
 1993 0107 00       		.byte	0
 1994 0108 17       		.uleb128 0x17
 1995 0109 2E       		.uleb128 0x2e
 1996 010a 01       		.byte	0x1
 1997 010b 3F       		.uleb128 0x3f
 1998 010c 0C       		.uleb128 0xc
 1999 010d 03       		.uleb128 0x3
 2000 010e 0E       		.uleb128 0xe
 2001 010f 3A       		.uleb128 0x3a
 2002 0110 0B       		.uleb128 0xb
 2003 0111 3B       		.uleb128 0x3b
 2004 0112 05       		.uleb128 0x5
 2005 0113 27       		.uleb128 0x27
 2006 0114 0C       		.uleb128 0xc
 2007 0115 20       		.uleb128 0x20
 2008 0116 0B       		.uleb128 0xb
 2009 0117 01       		.uleb128 0x1
 2010 0118 13       		.uleb128 0x13
 2011 0119 00       		.byte	0
 2012 011a 00       		.byte	0
 2013 011b 18       		.uleb128 0x18
 2014 011c 05       		.uleb128 0x5
 2015 011d 00       		.byte	0
 2016 011e 03       		.uleb128 0x3
 2017 011f 0E       		.uleb128 0xe
 2018 0120 3A       		.uleb128 0x3a
 2019 0121 0B       		.uleb128 0xb
 2020 0122 3B       		.uleb128 0x3b
 2021 0123 05       		.uleb128 0x5
 2022 0124 49       		.uleb128 0x49
 2023 0125 13       		.uleb128 0x13
 2024 0126 00       		.byte	0
 2025 0127 00       		.byte	0
 2026 0128 19       		.uleb128 0x19
 2027 0129 2E       		.uleb128 0x2e
 2028 012a 01       		.byte	0x1
 2029 012b 03       		.uleb128 0x3
 2030 012c 0E       		.uleb128 0xe
 2031 012d 3A       		.uleb128 0x3a
 2032 012e 0B       		.uleb128 0xb
 2033 012f 3B       		.uleb128 0x3b
 2034 0130 0B       		.uleb128 0xb
 2035 0131 27       		.uleb128 0x27
 2036 0132 0C       		.uleb128 0xc
 2037 0133 20       		.uleb128 0x20
 2038 0134 0B       		.uleb128 0xb
 2039 0135 01       		.uleb128 0x1
 2040 0136 13       		.uleb128 0x13
 2041 0137 00       		.byte	0
 2042 0138 00       		.byte	0
 2043 0139 1A       		.uleb128 0x1a
 2044 013a 05       		.uleb128 0x5
 2045 013b 00       		.byte	0
ARM GAS  C:\Users\LAB_ME~1\AppData\Local\Temp\cckQhmLC.s 			page 37


 2046 013c 03       		.uleb128 0x3
 2047 013d 0E       		.uleb128 0xe
 2048 013e 3A       		.uleb128 0x3a
 2049 013f 0B       		.uleb128 0xb
 2050 0140 3B       		.uleb128 0x3b
 2051 0141 0B       		.uleb128 0xb
 2052 0142 49       		.uleb128 0x49
 2053 0143 13       		.uleb128 0x13
 2054 0144 00       		.byte	0
 2055 0145 00       		.byte	0
 2056 0146 1B       		.uleb128 0x1b
 2057 0147 2E       		.uleb128 0x2e
 2058 0148 01       		.byte	0x1
 2059 0149 3F       		.uleb128 0x3f
 2060 014a 0C       		.uleb128 0xc
 2061 014b 03       		.uleb128 0x3
 2062 014c 0E       		.uleb128 0xe
 2063 014d 3A       		.uleb128 0x3a
 2064 014e 0B       		.uleb128 0xb
 2065 014f 3B       		.uleb128 0x3b
 2066 0150 0B       		.uleb128 0xb
 2067 0151 27       		.uleb128 0x27
 2068 0152 0C       		.uleb128 0xc
 2069 0153 11       		.uleb128 0x11
 2070 0154 01       		.uleb128 0x1
 2071 0155 12       		.uleb128 0x12
 2072 0156 01       		.uleb128 0x1
 2073 0157 40       		.uleb128 0x40
 2074 0158 06       		.uleb128 0x6
 2075 0159 9742     		.uleb128 0x2117
 2076 015b 0C       		.uleb128 0xc
 2077 015c 01       		.uleb128 0x1
 2078 015d 13       		.uleb128 0x13
 2079 015e 00       		.byte	0
 2080 015f 00       		.byte	0
 2081 0160 1C       		.uleb128 0x1c
 2082 0161 1D       		.uleb128 0x1d
 2083 0162 01       		.byte	0x1
 2084 0163 31       		.uleb128 0x31
 2085 0164 13       		.uleb128 0x13
 2086 0165 11       		.uleb128 0x11
 2087 0166 01       		.uleb128 0x1
 2088 0167 12       		.uleb128 0x12
 2089 0168 01       		.uleb128 0x1
 2090 0169 58       		.uleb128 0x58
 2091 016a 0B       		.uleb128 0xb
 2092 016b 59       		.uleb128 0x59
 2093 016c 0B       		.uleb128 0xb
 2094 016d 01       		.uleb128 0x1
 2095 016e 13       		.uleb128 0x13
 2096 016f 00       		.byte	0
 2097 0170 00       		.byte	0
 2098 0171 1D       		.uleb128 0x1d
 2099 0172 05       		.uleb128 0x5
 2100 0173 00       		.byte	0
 2101 0174 31       		.uleb128 0x31
 2102 0175 13       		.uleb128 0x13
ARM GAS  C:\Users\LAB_ME~1\AppData\Local\Temp\cckQhmLC.s 			page 38


 2103 0176 02       		.uleb128 0x2
 2104 0177 0A       		.uleb128 0xa
 2105 0178 00       		.byte	0
 2106 0179 00       		.byte	0
 2107 017a 1E       		.uleb128 0x1e
 2108 017b 05       		.uleb128 0x5
 2109 017c 00       		.byte	0
 2110 017d 31       		.uleb128 0x31
 2111 017e 13       		.uleb128 0x13
 2112 017f 02       		.uleb128 0x2
 2113 0180 06       		.uleb128 0x6
 2114 0181 00       		.byte	0
 2115 0182 00       		.byte	0
 2116 0183 1F       		.uleb128 0x1f
 2117 0184 898201   		.uleb128 0x4109
 2118 0187 01       		.byte	0x1
 2119 0188 11       		.uleb128 0x11
 2120 0189 01       		.uleb128 0x1
 2121 018a 00       		.byte	0
 2122 018b 00       		.byte	0
 2123 018c 20       		.uleb128 0x20
 2124 018d 8A8201   		.uleb128 0x410a
 2125 0190 00       		.byte	0
 2126 0191 02       		.uleb128 0x2
 2127 0192 0A       		.uleb128 0xa
 2128 0193 9142     		.uleb128 0x2111
 2129 0195 0A       		.uleb128 0xa
 2130 0196 00       		.byte	0
 2131 0197 00       		.byte	0
 2132 0198 21       		.uleb128 0x21
 2133 0199 898201   		.uleb128 0x4109
 2134 019c 00       		.byte	0
 2135 019d 11       		.uleb128 0x11
 2136 019e 01       		.uleb128 0x1
 2137 019f 9542     		.uleb128 0x2115
 2138 01a1 0C       		.uleb128 0xc
 2139 01a2 31       		.uleb128 0x31
 2140 01a3 13       		.uleb128 0x13
 2141 01a4 00       		.byte	0
 2142 01a5 00       		.byte	0
 2143 01a6 22       		.uleb128 0x22
 2144 01a7 2E       		.uleb128 0x2e
 2145 01a8 01       		.byte	0x1
 2146 01a9 3F       		.uleb128 0x3f
 2147 01aa 0C       		.uleb128 0xc
 2148 01ab 03       		.uleb128 0x3
 2149 01ac 0E       		.uleb128 0xe
 2150 01ad 3A       		.uleb128 0x3a
 2151 01ae 0B       		.uleb128 0xb
 2152 01af 3B       		.uleb128 0x3b
 2153 01b0 0B       		.uleb128 0xb
 2154 01b1 27       		.uleb128 0x27
 2155 01b2 0C       		.uleb128 0xc
 2156 01b3 11       		.uleb128 0x11
 2157 01b4 01       		.uleb128 0x1
 2158 01b5 12       		.uleb128 0x12
 2159 01b6 01       		.uleb128 0x1
ARM GAS  C:\Users\LAB_ME~1\AppData\Local\Temp\cckQhmLC.s 			page 39


 2160 01b7 40       		.uleb128 0x40
 2161 01b8 0A       		.uleb128 0xa
 2162 01b9 9742     		.uleb128 0x2117
 2163 01bb 0C       		.uleb128 0xc
 2164 01bc 01       		.uleb128 0x1
 2165 01bd 13       		.uleb128 0x13
 2166 01be 00       		.byte	0
 2167 01bf 00       		.byte	0
 2168 01c0 23       		.uleb128 0x23
 2169 01c1 898201   		.uleb128 0x4109
 2170 01c4 01       		.byte	0x1
 2171 01c5 11       		.uleb128 0x11
 2172 01c6 01       		.uleb128 0x1
 2173 01c7 9542     		.uleb128 0x2115
 2174 01c9 0C       		.uleb128 0xc
 2175 01ca 31       		.uleb128 0x31
 2176 01cb 13       		.uleb128 0x13
 2177 01cc 00       		.byte	0
 2178 01cd 00       		.byte	0
 2179 01ce 24       		.uleb128 0x24
 2180 01cf 2E       		.uleb128 0x2e
 2181 01d0 01       		.byte	0x1
 2182 01d1 3F       		.uleb128 0x3f
 2183 01d2 0C       		.uleb128 0xc
 2184 01d3 03       		.uleb128 0x3
 2185 01d4 0E       		.uleb128 0xe
 2186 01d5 3A       		.uleb128 0x3a
 2187 01d6 0B       		.uleb128 0xb
 2188 01d7 3B       		.uleb128 0x3b
 2189 01d8 05       		.uleb128 0x5
 2190 01d9 27       		.uleb128 0x27
 2191 01da 0C       		.uleb128 0xc
 2192 01db 11       		.uleb128 0x11
 2193 01dc 01       		.uleb128 0x1
 2194 01dd 12       		.uleb128 0x12
 2195 01de 01       		.uleb128 0x1
 2196 01df 40       		.uleb128 0x40
 2197 01e0 06       		.uleb128 0x6
 2198 01e1 9742     		.uleb128 0x2117
 2199 01e3 0C       		.uleb128 0xc
 2200 01e4 01       		.uleb128 0x1
 2201 01e5 13       		.uleb128 0x13
 2202 01e6 00       		.byte	0
 2203 01e7 00       		.byte	0
 2204 01e8 25       		.uleb128 0x25
 2205 01e9 05       		.uleb128 0x5
 2206 01ea 00       		.byte	0
 2207 01eb 03       		.uleb128 0x3
 2208 01ec 0E       		.uleb128 0xe
 2209 01ed 3A       		.uleb128 0x3a
 2210 01ee 0B       		.uleb128 0xb
 2211 01ef 3B       		.uleb128 0x3b
 2212 01f0 05       		.uleb128 0x5
 2213 01f1 49       		.uleb128 0x49
 2214 01f2 13       		.uleb128 0x13
 2215 01f3 02       		.uleb128 0x2
 2216 01f4 06       		.uleb128 0x6
ARM GAS  C:\Users\LAB_ME~1\AppData\Local\Temp\cckQhmLC.s 			page 40


 2217 01f5 00       		.byte	0
 2218 01f6 00       		.byte	0
 2219 01f7 26       		.uleb128 0x26
 2220 01f8 34       		.uleb128 0x34
 2221 01f9 00       		.byte	0
 2222 01fa 03       		.uleb128 0x3
 2223 01fb 08       		.uleb128 0x8
 2224 01fc 3A       		.uleb128 0x3a
 2225 01fd 0B       		.uleb128 0xb
 2226 01fe 3B       		.uleb128 0x3b
 2227 01ff 05       		.uleb128 0x5
 2228 0200 49       		.uleb128 0x49
 2229 0201 13       		.uleb128 0x13
 2230 0202 02       		.uleb128 0x2
 2231 0203 06       		.uleb128 0x6
 2232 0204 00       		.byte	0
 2233 0205 00       		.byte	0
 2234 0206 27       		.uleb128 0x27
 2235 0207 898201   		.uleb128 0x4109
 2236 020a 01       		.byte	0x1
 2237 020b 11       		.uleb128 0x11
 2238 020c 01       		.uleb128 0x1
 2239 020d 31       		.uleb128 0x31
 2240 020e 13       		.uleb128 0x13
 2241 020f 00       		.byte	0
 2242 0210 00       		.byte	0
 2243 0211 28       		.uleb128 0x28
 2244 0212 2E       		.uleb128 0x2e
 2245 0213 01       		.byte	0x1
 2246 0214 3F       		.uleb128 0x3f
 2247 0215 0C       		.uleb128 0xc
 2248 0216 03       		.uleb128 0x3
 2249 0217 0E       		.uleb128 0xe
 2250 0218 3A       		.uleb128 0x3a
 2251 0219 0B       		.uleb128 0xb
 2252 021a 3B       		.uleb128 0x3b
 2253 021b 05       		.uleb128 0x5
 2254 021c 27       		.uleb128 0x27
 2255 021d 0C       		.uleb128 0xc
 2256 021e 11       		.uleb128 0x11
 2257 021f 01       		.uleb128 0x1
 2258 0220 12       		.uleb128 0x12
 2259 0221 01       		.uleb128 0x1
 2260 0222 40       		.uleb128 0x40
 2261 0223 0A       		.uleb128 0xa
 2262 0224 9742     		.uleb128 0x2117
 2263 0226 0C       		.uleb128 0xc
 2264 0227 01       		.uleb128 0x1
 2265 0228 13       		.uleb128 0x13
 2266 0229 00       		.byte	0
 2267 022a 00       		.byte	0
 2268 022b 29       		.uleb128 0x29
 2269 022c 2E       		.uleb128 0x2e
 2270 022d 01       		.byte	0x1
 2271 022e 31       		.uleb128 0x31
 2272 022f 13       		.uleb128 0x13
 2273 0230 11       		.uleb128 0x11
ARM GAS  C:\Users\LAB_ME~1\AppData\Local\Temp\cckQhmLC.s 			page 41


 2274 0231 01       		.uleb128 0x1
 2275 0232 12       		.uleb128 0x12
 2276 0233 01       		.uleb128 0x1
 2277 0234 40       		.uleb128 0x40
 2278 0235 0A       		.uleb128 0xa
 2279 0236 9742     		.uleb128 0x2117
 2280 0238 0C       		.uleb128 0xc
 2281 0239 01       		.uleb128 0x1
 2282 023a 13       		.uleb128 0x13
 2283 023b 00       		.byte	0
 2284 023c 00       		.byte	0
 2285 023d 2A       		.uleb128 0x2a
 2286 023e 05       		.uleb128 0x5
 2287 023f 00       		.byte	0
 2288 0240 03       		.uleb128 0x3
 2289 0241 0E       		.uleb128 0xe
 2290 0242 3A       		.uleb128 0x3a
 2291 0243 0B       		.uleb128 0xb
 2292 0244 3B       		.uleb128 0x3b
 2293 0245 05       		.uleb128 0x5
 2294 0246 49       		.uleb128 0x49
 2295 0247 13       		.uleb128 0x13
 2296 0248 02       		.uleb128 0x2
 2297 0249 0A       		.uleb128 0xa
 2298 024a 00       		.byte	0
 2299 024b 00       		.byte	0
 2300 024c 2B       		.uleb128 0x2b
 2301 024d 34       		.uleb128 0x34
 2302 024e 00       		.byte	0
 2303 024f 03       		.uleb128 0x3
 2304 0250 0E       		.uleb128 0xe
 2305 0251 3A       		.uleb128 0x3a
 2306 0252 0B       		.uleb128 0xb
 2307 0253 3B       		.uleb128 0x3b
 2308 0254 05       		.uleb128 0x5
 2309 0255 49       		.uleb128 0x49
 2310 0256 13       		.uleb128 0x13
 2311 0257 3F       		.uleb128 0x3f
 2312 0258 0C       		.uleb128 0xc
 2313 0259 3C       		.uleb128 0x3c
 2314 025a 0C       		.uleb128 0xc
 2315 025b 00       		.byte	0
 2316 025c 00       		.byte	0
 2317 025d 2C       		.uleb128 0x2c
 2318 025e 34       		.uleb128 0x34
 2319 025f 00       		.byte	0
 2320 0260 03       		.uleb128 0x3
 2321 0261 0E       		.uleb128 0xe
 2322 0262 3A       		.uleb128 0x3a
 2323 0263 0B       		.uleb128 0xb
 2324 0264 3B       		.uleb128 0x3b
 2325 0265 0B       		.uleb128 0xb
 2326 0266 49       		.uleb128 0x49
 2327 0267 13       		.uleb128 0x13
 2328 0268 3F       		.uleb128 0x3f
 2329 0269 0C       		.uleb128 0xc
 2330 026a 02       		.uleb128 0x2
ARM GAS  C:\Users\LAB_ME~1\AppData\Local\Temp\cckQhmLC.s 			page 42


 2331 026b 0A       		.uleb128 0xa
 2332 026c 00       		.byte	0
 2333 026d 00       		.byte	0
 2334 026e 2D       		.uleb128 0x2d
 2335 026f 2E       		.uleb128 0x2e
 2336 0270 00       		.byte	0
 2337 0271 3F       		.uleb128 0x3f
 2338 0272 0C       		.uleb128 0xc
 2339 0273 03       		.uleb128 0x3
 2340 0274 0E       		.uleb128 0xe
 2341 0275 3A       		.uleb128 0x3a
 2342 0276 0B       		.uleb128 0xb
 2343 0277 3B       		.uleb128 0x3b
 2344 0278 05       		.uleb128 0x5
 2345 0279 27       		.uleb128 0x27
 2346 027a 0C       		.uleb128 0xc
 2347 027b 3C       		.uleb128 0x3c
 2348 027c 0C       		.uleb128 0xc
 2349 027d 00       		.byte	0
 2350 027e 00       		.byte	0
 2351 027f 2E       		.uleb128 0x2e
 2352 0280 2E       		.uleb128 0x2e
 2353 0281 01       		.byte	0x1
 2354 0282 3F       		.uleb128 0x3f
 2355 0283 0C       		.uleb128 0xc
 2356 0284 03       		.uleb128 0x3
 2357 0285 0E       		.uleb128 0xe
 2358 0286 3A       		.uleb128 0x3a
 2359 0287 0B       		.uleb128 0xb
 2360 0288 3B       		.uleb128 0x3b
 2361 0289 0B       		.uleb128 0xb
 2362 028a 27       		.uleb128 0x27
 2363 028b 0C       		.uleb128 0xc
 2364 028c 3C       		.uleb128 0x3c
 2365 028d 0C       		.uleb128 0xc
 2366 028e 01       		.uleb128 0x1
 2367 028f 13       		.uleb128 0x13
 2368 0290 00       		.byte	0
 2369 0291 00       		.byte	0
 2370 0292 2F       		.uleb128 0x2f
 2371 0293 2E       		.uleb128 0x2e
 2372 0294 01       		.byte	0x1
 2373 0295 3F       		.uleb128 0x3f
 2374 0296 0C       		.uleb128 0xc
 2375 0297 03       		.uleb128 0x3
 2376 0298 0E       		.uleb128 0xe
 2377 0299 3A       		.uleb128 0x3a
 2378 029a 0B       		.uleb128 0xb
 2379 029b 3B       		.uleb128 0x3b
 2380 029c 05       		.uleb128 0x5
 2381 029d 27       		.uleb128 0x27
 2382 029e 0C       		.uleb128 0xc
 2383 029f 3C       		.uleb128 0x3c
 2384 02a0 0C       		.uleb128 0xc
 2385 02a1 01       		.uleb128 0x1
 2386 02a2 13       		.uleb128 0x13
 2387 02a3 00       		.byte	0
ARM GAS  C:\Users\LAB_ME~1\AppData\Local\Temp\cckQhmLC.s 			page 43


 2388 02a4 00       		.byte	0
 2389 02a5 30       		.uleb128 0x30
 2390 02a6 2E       		.uleb128 0x2e
 2391 02a7 01       		.byte	0x1
 2392 02a8 3F       		.uleb128 0x3f
 2393 02a9 0C       		.uleb128 0xc
 2394 02aa 03       		.uleb128 0x3
 2395 02ab 0E       		.uleb128 0xe
 2396 02ac 3A       		.uleb128 0x3a
 2397 02ad 0B       		.uleb128 0xb
 2398 02ae 3B       		.uleb128 0x3b
 2399 02af 05       		.uleb128 0x5
 2400 02b0 27       		.uleb128 0x27
 2401 02b1 0C       		.uleb128 0xc
 2402 02b2 3C       		.uleb128 0x3c
 2403 02b3 0C       		.uleb128 0xc
 2404 02b4 00       		.byte	0
 2405 02b5 00       		.byte	0
 2406 02b6 00       		.byte	0
 2407              		.section	.debug_loc,"",%progbits
 2408              	.Ldebug_loc0:
 2409              	.LLST0:
 2410 0000 00000000 		.4byte	.LFB119
 2411 0004 02000000 		.4byte	.LCFI0
 2412 0008 0200     		.2byte	0x2
 2413 000a 7D       		.byte	0x7d
 2414 000b 00       		.sleb128 0
 2415 000c 02000000 		.4byte	.LCFI0
 2416 0010 30000000 		.4byte	.LFE119
 2417 0014 0200     		.2byte	0x2
 2418 0016 7D       		.byte	0x7d
 2419 0017 08       		.sleb128 8
 2420 0018 00000000 		.4byte	0
 2421 001c 00000000 		.4byte	0
 2422              	.LLST1:
 2423 0020 14000000 		.4byte	.LVL1
 2424 0024 1A000000 		.4byte	.LVL2
 2425 0028 0600     		.2byte	0x6
 2426 002a 03       		.byte	0x3
 2427 002b 00000000 		.4byte	GPTD2
 2428 002f 9F       		.byte	0x9f
 2429 0030 00000000 		.4byte	0
 2430 0034 00000000 		.4byte	0
 2431              	.LLST2:
 2432 0038 00000000 		.4byte	.LFB121
 2433 003c 06000000 		.4byte	.LCFI1
 2434 0040 0200     		.2byte	0x2
 2435 0042 7D       		.byte	0x7d
 2436 0043 00       		.sleb128 0
 2437 0044 06000000 		.4byte	.LCFI1
 2438 0048 5C000000 		.4byte	.LFE121
 2439 004c 0200     		.2byte	0x2
 2440 004e 7D       		.byte	0x7d
 2441 004f 08       		.sleb128 8
 2442 0050 00000000 		.4byte	0
 2443 0054 00000000 		.4byte	0
 2444              	.LLST3:
ARM GAS  C:\Users\LAB_ME~1\AppData\Local\Temp\cckQhmLC.s 			page 44


 2445 0058 00000000 		.4byte	.LVL6
 2446 005c 0A000000 		.4byte	.LVL7
 2447 0060 0100     		.2byte	0x1
 2448 0062 50       		.byte	0x50
 2449 0063 0A000000 		.4byte	.LVL7
 2450 0067 26000000 		.4byte	.LVL9
 2451 006b 0100     		.2byte	0x1
 2452 006d 54       		.byte	0x54
 2453 006e 26000000 		.4byte	.LVL9
 2454 0072 44000000 		.4byte	.LVL10
 2455 0076 0100     		.2byte	0x1
 2456 0078 50       		.byte	0x50
 2457 0079 44000000 		.4byte	.LVL10
 2458 007d 5C000000 		.4byte	.LFE121
 2459 0081 0100     		.2byte	0x1
 2460 0083 54       		.byte	0x54
 2461 0084 00000000 		.4byte	0
 2462 0088 00000000 		.4byte	0
 2463              	.LLST4:
 2464 008c 1A000000 		.4byte	.LVL8
 2465 0090 26000000 		.4byte	.LVL9
 2466 0094 0100     		.2byte	0x1
 2467 0096 51       		.byte	0x51
 2468 0097 00000000 		.4byte	0
 2469 009b 00000000 		.4byte	0
 2470              	.LLST5:
 2471 009f 00000000 		.4byte	.LFB122
 2472 00a3 02000000 		.4byte	.LCFI2
 2473 00a7 0200     		.2byte	0x2
 2474 00a9 7D       		.byte	0x7d
 2475 00aa 00       		.sleb128 0
 2476 00ab 02000000 		.4byte	.LCFI2
 2477 00af 34000000 		.4byte	.LFE122
 2478 00b3 0200     		.2byte	0x2
 2479 00b5 7D       		.byte	0x7d
 2480 00b6 08       		.sleb128 8
 2481 00b7 00000000 		.4byte	0
 2482 00bb 00000000 		.4byte	0
 2483              	.LLST6:
 2484 00bf 00000000 		.4byte	.LVL12
 2485 00c3 08000000 		.4byte	.LVL13
 2486 00c7 0100     		.2byte	0x1
 2487 00c9 50       		.byte	0x50
 2488 00ca 08000000 		.4byte	.LVL13
 2489 00ce 0A000000 		.4byte	.LVL14
 2490 00d2 0400     		.2byte	0x4
 2491 00d4 F3       		.byte	0xf3
 2492 00d5 01       		.uleb128 0x1
 2493 00d6 50       		.byte	0x50
 2494 00d7 9F       		.byte	0x9f
 2495 00d8 0A000000 		.4byte	.LVL14
 2496 00dc 1C000000 		.4byte	.LVL15
 2497 00e0 0100     		.2byte	0x1
 2498 00e2 50       		.byte	0x50
 2499 00e3 1C000000 		.4byte	.LVL15
 2500 00e7 34000000 		.4byte	.LFE122
 2501 00eb 0400     		.2byte	0x4
ARM GAS  C:\Users\LAB_ME~1\AppData\Local\Temp\cckQhmLC.s 			page 45


 2502 00ed F3       		.byte	0xf3
 2503 00ee 01       		.uleb128 0x1
 2504 00ef 50       		.byte	0x50
 2505 00f0 9F       		.byte	0x9f
 2506 00f1 00000000 		.4byte	0
 2507 00f5 00000000 		.4byte	0
 2508              	.LLST7:
 2509 00f9 00000000 		.4byte	.LVL17
 2510 00fd 06000000 		.4byte	.LVL18
 2511 0101 0100     		.2byte	0x1
 2512 0103 50       		.byte	0x50
 2513 0104 06000000 		.4byte	.LVL18
 2514 0108 18000000 		.4byte	.LFE123
 2515 010c 0400     		.2byte	0x4
 2516 010e F3       		.byte	0xf3
 2517 010f 01       		.uleb128 0x1
 2518 0110 50       		.byte	0x50
 2519 0111 9F       		.byte	0x9f
 2520 0112 00000000 		.4byte	0
 2521 0116 00000000 		.4byte	0
 2522              	.LLST8:
 2523 011a 00000000 		.4byte	.LVL17
 2524 011e 08000000 		.4byte	.LVL19
 2525 0122 0100     		.2byte	0x1
 2526 0124 51       		.byte	0x51
 2527 0125 08000000 		.4byte	.LVL19
 2528 0129 18000000 		.4byte	.LFE123
 2529 012d 0400     		.2byte	0x4
 2530 012f F3       		.byte	0xf3
 2531 0130 01       		.uleb128 0x1
 2532 0131 51       		.byte	0x51
 2533 0132 9F       		.byte	0x9f
 2534 0133 00000000 		.4byte	0
 2535 0137 00000000 		.4byte	0
 2536              	.LLST9:
 2537 013b 00000000 		.4byte	.LVL21
 2538 013f 06000000 		.4byte	.LVL22
 2539 0143 0100     		.2byte	0x1
 2540 0145 51       		.byte	0x51
 2541 0146 06000000 		.4byte	.LVL22
 2542 014a 1A000000 		.4byte	.LFE125
 2543 014e 0400     		.2byte	0x4
 2544 0150 F3       		.byte	0xf3
 2545 0151 01       		.uleb128 0x1
 2546 0152 51       		.byte	0x51
 2547 0153 9F       		.byte	0x9f
 2548 0154 00000000 		.4byte	0
 2549 0158 00000000 		.4byte	0
 2550              		.section	.debug_aranges,"",%progbits
 2551 0000 4C000000 		.4byte	0x4c
 2552 0004 0200     		.2byte	0x2
 2553 0006 00000000 		.4byte	.Ldebug_info0
 2554 000a 04       		.byte	0x4
 2555 000b 00       		.byte	0
 2556 000c 0000     		.2byte	0
 2557 000e 0000     		.2byte	0
 2558 0010 00000000 		.4byte	.LFB119
ARM GAS  C:\Users\LAB_ME~1\AppData\Local\Temp\cckQhmLC.s 			page 46


 2559 0014 30000000 		.4byte	.LFE119-.LFB119
 2560 0018 00000000 		.4byte	.LFB120
 2561 001c 14000000 		.4byte	.LFE120-.LFB120
 2562 0020 00000000 		.4byte	.LFB121
 2563 0024 5C000000 		.4byte	.LFE121-.LFB121
 2564 0028 00000000 		.4byte	.LFB122
 2565 002c 34000000 		.4byte	.LFE122-.LFB122
 2566 0030 00000000 		.4byte	.LFB123
 2567 0034 18000000 		.4byte	.LFE123-.LFB123
 2568 0038 00000000 		.4byte	.LFB124
 2569 003c 0C000000 		.4byte	.LFE124-.LFB124
 2570 0040 00000000 		.4byte	.LFB125
 2571 0044 1A000000 		.4byte	.LFE125-.LFB125
 2572 0048 00000000 		.4byte	0
 2573 004c 00000000 		.4byte	0
 2574              		.section	.debug_ranges,"",%progbits
 2575              	.Ldebug_ranges0:
 2576 0000 00000000 		.4byte	.LFB119
 2577 0004 30000000 		.4byte	.LFE119
 2578 0008 00000000 		.4byte	.LFB120
 2579 000c 14000000 		.4byte	.LFE120
 2580 0010 00000000 		.4byte	.LFB121
 2581 0014 5C000000 		.4byte	.LFE121
 2582 0018 00000000 		.4byte	.LFB122
 2583 001c 34000000 		.4byte	.LFE122
 2584 0020 00000000 		.4byte	.LFB123
 2585 0024 18000000 		.4byte	.LFE123
 2586 0028 00000000 		.4byte	.LFB124
 2587 002c 0C000000 		.4byte	.LFE124
 2588 0030 00000000 		.4byte	.LFB125
 2589 0034 1A000000 		.4byte	.LFE125
 2590 0038 00000000 		.4byte	0
 2591 003c 00000000 		.4byte	0
 2592              		.section	.debug_line,"",%progbits
 2593              	.Ldebug_line0:
 2594 0000 96020000 		.section	.debug_str,"MS",%progbits,1
 2594      0200C701 
 2594      00000201 
 2594      FB0E0D00 
 2594      01010101 
 2595              	.LASF125:
 2596 0000 41504231 		.ascii	"APB1LPENR\000"
 2596      4C50454E 
 2596      5200
 2597              	.LASF158:
 2598 000a 4750545F 		.ascii	"GPT_READY\000"
 2598      52454144 
 2598      5900
 2599              	.LASF43:
 2600 0014 43414E31 		.ascii	"CAN1_RX0_IRQn\000"
 2600      5F525830 
 2600      5F495251 
 2600      6E00
 2601              	.LASF24:
 2602 0022 5056445F 		.ascii	"PVD_IRQn\000"
 2602      4952516E 
 2602      00
ARM GAS  C:\Users\LAB_ME~1\AppData\Local\Temp\cckQhmLC.s 			page 47


 2603              	.LASF87:
 2604 002b 43414E32 		.ascii	"CAN2_RX0_IRQn\000"
 2604      5F525830 
 2604      5F495251 
 2604      6E00
 2605              	.LASF69:
 2606 0039 54494D38 		.ascii	"TIM8_CC_IRQn\000"
 2606      5F43435F 
 2606      4952516E 
 2606      00
 2607              	.LASF96:
 2608 0046 49324333 		.ascii	"I2C3_ER_IRQn\000"
 2608      5F45525F 
 2608      4952516E 
 2608      00
 2609              	.LASF133:
 2610 0053 5F726573 		.ascii	"_resvd0\000"
 2610      76643000 
 2611              	.LASF134:
 2612 005b 5F726573 		.ascii	"_resvd1\000"
 2612      76643100 
 2613              	.LASF54:
 2614 0063 49324331 		.ascii	"I2C1_EV_IRQn\000"
 2614      5F45565F 
 2614      4952516E 
 2614      00
 2615              	.LASF138:
 2616 0070 5F726573 		.ascii	"_resvd3\000"
 2616      76643300 
 2617              	.LASF139:
 2618 0078 5F726573 		.ascii	"_resvd4\000"
 2618      76643400 
 2619              	.LASF140:
 2620 0080 5F726573 		.ascii	"_resvd5\000"
 2620      76643500 
 2621              	.LASF142:
 2622 0088 5F726573 		.ascii	"_resvd6\000"
 2622      76643600 
 2623              	.LASF144:
 2624 0090 5F726573 		.ascii	"_resvd7\000"
 2624      76643700 
 2625              	.LASF146:
 2626 0098 5F726573 		.ascii	"_resvd8\000"
 2626      76643800 
 2627              	.LASF147:
 2628 00a0 5F726573 		.ascii	"_resvd9\000"
 2628      76643900 
 2629              	.LASF150:
 2630 00a8 5F726573 		.ascii	"_resvd11\000"
 2630      76643131 
 2630      00
 2631              	.LASF44:
 2632 00b1 43414E31 		.ascii	"CAN1_RX1_IRQn\000"
 2632      5F525831 
 2632      5F495251 
 2632      6E00
 2633              	.LASF153:
ARM GAS  C:\Users\LAB_ME~1\AppData\Local\Temp\cckQhmLC.s 			page 48


 2634 00bf 5F726573 		.ascii	"_resvd13\000"
 2634      76643133 
 2634      00
 2635              	.LASF12:
 2636 00c8 6C6F6E67 		.ascii	"long long unsigned int\000"
 2636      206C6F6E 
 2636      6720756E 
 2636      7369676E 
 2636      65642069 
 2637              	.LASF154:
 2638 00df 5F726573 		.ascii	"_resvd14\000"
 2638      76643134 
 2638      00
 2639              	.LASF64:
 2640 00e8 5254435F 		.ascii	"RTC_Alarm_IRQn\000"
 2640      416C6172 
 2640      6D5F4952 
 2640      516E00
 2641              	.LASF57:
 2642 00f7 49324332 		.ascii	"I2C2_ER_IRQn\000"
 2642      5F45525F 
 2642      4952516E 
 2642      00
 2643              	.LASF53:
 2644 0104 54494D34 		.ascii	"TIM4_IRQn\000"
 2644      5F495251 
 2644      6E00
 2645              	.LASF26:
 2646 010e 5254435F 		.ascii	"RTC_WKUP_IRQn\000"
 2646      574B5550 
 2646      5F495251 
 2646      6E00
 2647              	.LASF181:
 2648 011c 47505444 		.ascii	"GPTD2\000"
 2648      3200
 2649              	.LASF23:
 2650 0122 57574447 		.ascii	"WWDG_IRQn\000"
 2650      5F495251 
 2650      6E00
 2651              	.LASF169:
 2652 012c 66726571 		.ascii	"frequency\000"
 2652      75656E63 
 2652      7900
 2653              	.LASF121:
 2654 0136 41484231 		.ascii	"AHB1LPENR\000"
 2654      4C50454E 
 2654      5200
 2655              	.LASF184:
 2656 0140 6E766963 		.ascii	"nvicEnableVector\000"
 2656      456E6162 
 2656      6C655665 
 2656      63746F72 
 2656      00
 2657              	.LASF141:
 2658 0151 43434D52 		.ascii	"CCMR1\000"
 2658      3100
 2659              	.LASF143:
ARM GAS  C:\Users\LAB_ME~1\AppData\Local\Temp\cckQhmLC.s 			page 49


 2660 0157 43434D52 		.ascii	"CCMR2\000"
 2660      3200
 2661              	.LASF11:
 2662 015d 6C6F6E67 		.ascii	"long long int\000"
 2662      206C6F6E 
 2662      6720696E 
 2662      7400
 2663              	.LASF1:
 2664 016b 7369676E 		.ascii	"signed char\000"
 2664      65642063 
 2664      68617200 
 2665              	.LASF88:
 2666 0177 43414E32 		.ascii	"CAN2_RX1_IRQn\000"
 2666      5F525831 
 2666      5F495251 
 2666      6E00
 2667              	.LASF107:
 2668 0185 41484231 		.ascii	"AHB1RSTR\000"
 2668      52535452 
 2668      00
 2669              	.LASF159:
 2670 018e 4750545F 		.ascii	"GPT_CONTINUOUS\000"
 2670      434F4E54 
 2670      494E554F 
 2670      555300
 2671              	.LASF173:
 2672 019d 56656374 		.ascii	"VectorB0\000"
 2672      6F724230 
 2672      00
 2673              	.LASF92:
 2674 01a6 444D4132 		.ascii	"DMA2_Stream6_IRQn\000"
 2674      5F537472 
 2674      65616D36 
 2674      5F495251 
 2674      6E00
 2675              	.LASF148:
 2676 01b8 5F726573 		.ascii	"_resvd10\000"
 2676      76643130 
 2676      00
 2677              	.LASF163:
 2678 01c1 73746174 		.ascii	"state\000"
 2678      6500
 2679              	.LASF151:
 2680 01c7 5F726573 		.ascii	"_resvd12\000"
 2680      76643132 
 2680      00
 2681              	.LASF8:
 2682 01d0 6C6F6E67 		.ascii	"long int\000"
 2682      20696E74 
 2682      00
 2683              	.LASF168:
 2684 01d9 67707463 		.ascii	"gptcnt_t\000"
 2684      6E745F74 
 2684      00
 2685              	.LASF112:
 2686 01e2 41504232 		.ascii	"APB2RSTR\000"
 2686      52535452 
ARM GAS  C:\Users\LAB_ME~1\AppData\Local\Temp\cckQhmLC.s 			page 50


 2686      00
 2687              	.LASF39:
 2688 01eb 444D4131 		.ascii	"DMA1_Stream5_IRQn\000"
 2688      5F537472 
 2688      65616D35 
 2688      5F495251 
 2688      6E00
 2689              	.LASF46:
 2690 01fd 45585449 		.ascii	"EXTI9_5_IRQn\000"
 2690      395F355F 
 2690      4952516E 
 2690      00
 2691              	.LASF145:
 2692 020a 43434552 		.ascii	"CCER\000"
 2692      00
 2693              	.LASF85:
 2694 020f 4554485F 		.ascii	"ETH_WKUP_IRQn\000"
 2694      574B5550 
 2694      5F495251 
 2694      6E00
 2695              	.LASF5:
 2696 021d 75696E74 		.ascii	"uint16_t\000"
 2696      31365F74 
 2696      00
 2697              	.LASF77:
 2698 0226 54494D36 		.ascii	"TIM6_DAC_IRQn\000"
 2698      5F444143 
 2698      5F495251 
 2698      6E00
 2699              	.LASF105:
 2700 0234 504C4C43 		.ascii	"PLLCFGR\000"
 2700      46475200 
 2701              	.LASF75:
 2702 023c 55415254 		.ascii	"UART4_IRQn\000"
 2702      345F4952 
 2702      516E00
 2703              	.LASF65:
 2704 0247 4F54475F 		.ascii	"OTG_FS_WKUP_IRQn\000"
 2704      46535F57 
 2704      4B55505F 
 2704      4952516E 
 2704      00
 2705              	.LASF91:
 2706 0258 444D4132 		.ascii	"DMA2_Stream5_IRQn\000"
 2706      5F537472 
 2706      65616D35 
 2706      5F495251 
 2706      6E00
 2707              	.LASF67:
 2708 026a 54494D38 		.ascii	"TIM8_UP_TIM13_IRQn\000"
 2708      5F55505F 
 2708      54494D31 
 2708      335F4952 
 2708      516E00
 2709              	.LASF178:
 2710 027d 696E7465 		.ascii	"interval\000"
 2710      7276616C 
ARM GAS  C:\Users\LAB_ME~1\AppData\Local\Temp\cckQhmLC.s 			page 51


 2710      00
 2711              	.LASF108:
 2712 0286 41484232 		.ascii	"AHB2RSTR\000"
 2712      52535452 
 2712      00
 2713              	.LASF162:
 2714 028f 47505444 		.ascii	"GPTDriver\000"
 2714      72697665 
 2714      7200
 2715              	.LASF17:
 2716 0299 42757346 		.ascii	"BusFault_IRQn\000"
 2716      61756C74 
 2716      5F495251 
 2716      6E00
 2717              	.LASF21:
 2718 02a7 50656E64 		.ascii	"PendSV_IRQn\000"
 2718      53565F49 
 2718      52516E00 
 2719              	.LASF93:
 2720 02b3 444D4132 		.ascii	"DMA2_Stream7_IRQn\000"
 2720      5F537472 
 2720      65616D37 
 2720      5F495251 
 2720      6E00
 2721              	.LASF149:
 2722 02c5 42445452 		.ascii	"BDTR\000"
 2722      00
 2723              	.LASF166:
 2724 02ca 67707463 		.ascii	"gptcallback_t\000"
 2724      616C6C62 
 2724      61636B5F 
 2724      7400
 2725              	.LASF161:
 2726 02d8 67707473 		.ascii	"gptstate_t\000"
 2726      74617465 
 2726      5F7400
 2727              	.LASF0:
 2728 02e3 756E7369 		.ascii	"unsigned int\000"
 2728      676E6564 
 2728      20696E74 
 2728      00
 2729              	.LASF37:
 2730 02f0 444D4131 		.ascii	"DMA1_Stream3_IRQn\000"
 2730      5F537472 
 2730      65616D33 
 2730      5F495251 
 2730      6E00
 2731              	.LASF183:
 2732 0302 6770744F 		.ascii	"gptObjectInit\000"
 2732      626A6563 
 2732      74496E69 
 2732      7400
 2733              	.LASF40:
 2734 0310 444D4131 		.ascii	"DMA1_Stream6_IRQn\000"
 2734      5F537472 
 2734      65616D36 
 2734      5F495251 
ARM GAS  C:\Users\LAB_ME~1\AppData\Local\Temp\cckQhmLC.s 			page 52


 2734      6E00
 2735              	.LASF16:
 2736 0322 4D656D6F 		.ascii	"MemoryManagement_IRQn\000"
 2736      72794D61 
 2736      6E616765 
 2736      6D656E74 
 2736      5F495251 
 2737              	.LASF179:
 2738 0338 6770745F 		.ascii	"gpt_lld_polled_delay\000"
 2738      6C6C645F 
 2738      706F6C6C 
 2738      65645F64 
 2738      656C6179 
 2739              	.LASF10:
 2740 034d 6C6F6E67 		.ascii	"long unsigned int\000"
 2740      20756E73 
 2740      69676E65 
 2740      6420696E 
 2740      7400
 2741              	.LASF132:
 2742 035f 5243435F 		.ascii	"RCC_TypeDef\000"
 2742      54797065 
 2742      44656600 
 2743              	.LASF172:
 2744 036b 67707470 		.ascii	"gptp\000"
 2744      00
 2745              	.LASF97:
 2746 0370 4F54475F 		.ascii	"OTG_HS_EP1_OUT_IRQn\000"
 2746      48535F45 
 2746      50315F4F 
 2746      55545F49 
 2746      52516E00 
 2747              	.LASF72:
 2748 0384 5344494F 		.ascii	"SDIO_IRQn\000"
 2748      5F495251 
 2748      6E00
 2749              	.LASF156:
 2750 038e 4750545F 		.ascii	"GPT_UNINIT\000"
 2750      554E494E 
 2750      495400
 2751              	.LASF19:
 2752 0399 53564361 		.ascii	"SVCall_IRQn\000"
 2752      6C6C5F49 
 2752      52516E00 
 2753              	.LASF135:
 2754 03a5 534D4352 		.ascii	"SMCR\000"
 2754      00
 2755              	.LASF81:
 2756 03aa 444D4132 		.ascii	"DMA2_Stream2_IRQn\000"
 2756      5F537472 
 2756      65616D32 
 2756      5F495251 
 2756      6E00
 2757              	.LASF131:
 2758 03bc 504C4C49 		.ascii	"PLLI2SCFGR\000"
 2758      32534346 
 2758      475200
ARM GAS  C:\Users\LAB_ME~1\AppData\Local\Temp\cckQhmLC.s 			page 53


 2759              	.LASF42:
 2760 03c7 43414E31 		.ascii	"CAN1_TX_IRQn\000"
 2760      5F54585F 
 2760      4952516E 
 2760      00
 2761              	.LASF109:
 2762 03d4 41484233 		.ascii	"AHB3RSTR\000"
 2762      52535452 
 2762      00
 2763              	.LASF63:
 2764 03dd 45585449 		.ascii	"EXTI15_10_IRQn\000"
 2764      31355F31 
 2764      305F4952 
 2764      516E00
 2765              	.LASF58:
 2766 03ec 53504931 		.ascii	"SPI1_IRQn\000"
 2766      5F495251 
 2766      6E00
 2767              	.LASF170:
 2768 03f6 63616C6C 		.ascii	"callback\000"
 2768      6261636B 
 2768      00
 2769              	.LASF174:
 2770 03ff 6770745F 		.ascii	"gpt_lld_init\000"
 2770      6C6C645F 
 2770      696E6974 
 2770      00
 2771              	.LASF155:
 2772 040c 73746D33 		.ascii	"stm32_tim_t\000"
 2772      325F7469 
 2772      6D5F7400 
 2773              	.LASF126:
 2774 0418 41504232 		.ascii	"APB2LPENR\000"
 2774      4C50454E 
 2774      5200
 2775              	.LASF66:
 2776 0422 54494D38 		.ascii	"TIM8_BRK_TIM12_IRQn\000"
 2776      5F42524B 
 2776      5F54494D 
 2776      31325F49 
 2776      52516E00 
 2777              	.LASF22:
 2778 0436 53797354 		.ascii	"SysTick_IRQn\000"
 2778      69636B5F 
 2778      4952516E 
 2778      00
 2779              	.LASF50:
 2780 0443 54494D31 		.ascii	"TIM1_CC_IRQn\000"
 2780      5F43435F 
 2780      4952516E 
 2780      00
 2781              	.LASF68:
 2782 0450 54494D38 		.ascii	"TIM8_TRG_COM_TIM14_IRQn\000"
 2782      5F545247 
 2782      5F434F4D 
 2782      5F54494D 
 2782      31345F49 
ARM GAS  C:\Users\LAB_ME~1\AppData\Local\Temp\cckQhmLC.s 			page 54


 2783              	.LASF188:
 2784 0468 4952516E 		.ascii	"IRQn\000"
 2784      00
 2785              	.LASF13:
 2786 046d 73697A65 		.ascii	"sizetype\000"
 2786      74797065 
 2786      00
 2787              	.LASF84:
 2788 0476 4554485F 		.ascii	"ETH_IRQn\000"
 2788      4952516E 
 2788      00
 2789              	.LASF48:
 2790 047f 54494D31 		.ascii	"TIM1_UP_TIM10_IRQn\000"
 2790      5F55505F 
 2790      54494D31 
 2790      305F4952 
 2790      516E00
 2791              	.LASF82:
 2792 0492 444D4132 		.ascii	"DMA2_Stream3_IRQn\000"
 2792      5F537472 
 2792      65616D33 
 2792      5F495251 
 2792      6E00
 2793              	.LASF38:
 2794 04a4 444D4131 		.ascii	"DMA1_Stream4_IRQn\000"
 2794      5F537472 
 2794      65616D34 
 2794      5F495251 
 2794      6E00
 2795              	.LASF94:
 2796 04b6 55534152 		.ascii	"USART6_IRQn\000"
 2796      54365F49 
 2796      52516E00 
 2797              	.LASF182:
 2798 04c2 6770745F 		.ascii	"gpt_lld_stop_timer\000"
 2798      6C6C645F 
 2798      73746F70 
 2798      5F74696D 
 2798      657200
 2799              	.LASF73:
 2800 04d5 54494D35 		.ascii	"TIM5_IRQn\000"
 2800      5F495251 
 2800      6E00
 2801              	.LASF32:
 2802 04df 45585449 		.ascii	"EXTI3_IRQn\000"
 2802      335F4952 
 2802      516E00
 2803              	.LASF59:
 2804 04ea 53504932 		.ascii	"SPI2_IRQn\000"
 2804      5F495251 
 2804      6E00
 2805              	.LASF36:
 2806 04f4 444D4131 		.ascii	"DMA1_Stream2_IRQn\000"
 2806      5F537472 
 2806      65616D32 
 2806      5F495251 
 2806      6E00
ARM GAS  C:\Users\LAB_ME~1\AppData\Local\Temp\cckQhmLC.s 			page 55


 2807              	.LASF86:
 2808 0506 43414E32 		.ascii	"CAN2_TX_IRQn\000"
 2808      5F54585F 
 2808      4952516E 
 2808      00
 2809              	.LASF122:
 2810 0513 41484232 		.ascii	"AHB2LPENR\000"
 2810      4C50454E 
 2810      5200
 2811              	.LASF187:
 2812 051d 433A5C43 		.ascii	"C:\\Chibios\\demos\\FirmwareV2\000"
 2812      68696269 
 2812      6F735C64 
 2812      656D6F73 
 2812      5C466972 
 2813              	.LASF185:
 2814 0539 474E5520 		.ascii	"GNU C 4.7.2\000"
 2814      4320342E 
 2814      372E3200 
 2815              	.LASF177:
 2816 0545 6770745F 		.ascii	"gpt_lld_start_timer\000"
 2816      6C6C645F 
 2816      73746172 
 2816      745F7469 
 2816      6D657200 
 2817              	.LASF100:
 2818 0559 4F54475F 		.ascii	"OTG_HS_IRQn\000"
 2818      48535F49 
 2818      52516E00 
 2819              	.LASF189:
 2820 0565 6770745F 		.ascii	"gpt_lld_serve_interrupt\000"
 2820      6C6C645F 
 2820      73657276 
 2820      655F696E 
 2820      74657272 
 2821              	.LASF110:
 2822 057d 52455345 		.ascii	"RESERVED0\000"
 2822      52564544 
 2822      3000
 2823              	.LASF113:
 2824 0587 52455345 		.ascii	"RESERVED1\000"
 2824      52564544 
 2824      3100
 2825              	.LASF117:
 2826 0591 52455345 		.ascii	"RESERVED2\000"
 2826      52564544 
 2826      3200
 2827              	.LASF120:
 2828 059b 52455345 		.ascii	"RESERVED3\000"
 2828      52564544 
 2828      3300
 2829              	.LASF124:
 2830 05a5 52455345 		.ascii	"RESERVED4\000"
 2830      52564544 
 2830      3400
 2831              	.LASF127:
 2832 05af 52455345 		.ascii	"RESERVED5\000"
ARM GAS  C:\Users\LAB_ME~1\AppData\Local\Temp\cckQhmLC.s 			page 56


 2832      52564544 
 2832      3500
 2833              	.LASF129:
 2834 05b9 52455345 		.ascii	"RESERVED6\000"
 2834      52564544 
 2834      3600
 2835              	.LASF74:
 2836 05c3 53504933 		.ascii	"SPI3_IRQn\000"
 2836      5F495251 
 2836      6E00
 2837              	.LASF83:
 2838 05cd 444D4132 		.ascii	"DMA2_Stream4_IRQn\000"
 2838      5F537472 
 2838      65616D34 
 2838      5F495251 
 2838      6E00
 2839              	.LASF71:
 2840 05df 46534D43 		.ascii	"FSMC_IRQn\000"
 2840      5F495251 
 2840      6E00
 2841              	.LASF7:
 2842 05e9 696E7433 		.ascii	"int32_t\000"
 2842      325F7400 
 2843              	.LASF2:
 2844 05f1 756E7369 		.ascii	"unsigned char\000"
 2844      676E6564 
 2844      20636861 
 2844      7200
 2845              	.LASF186:
 2846 05ff 2E2E2F2E 		.ascii	"../../os/hal/platforms/STM32/gpt_lld.c\000"
 2846      2E2F6F73 
 2846      2F68616C 
 2846      2F706C61 
 2846      74666F72 
 2847              	.LASF47:
 2848 0626 54494D31 		.ascii	"TIM1_BRK_TIM9_IRQn\000"
 2848      5F42524B 
 2848      5F54494D 
 2848      395F4952 
 2848      516E00
 2849              	.LASF180:
 2850 0639 49544D5F 		.ascii	"ITM_RxBuffer\000"
 2850      52784275 
 2850      66666572 
 2850      00
 2851              	.LASF33:
 2852 0646 45585449 		.ascii	"EXTI4_IRQn\000"
 2852      345F4952 
 2852      516E00
 2853              	.LASF103:
 2854 0651 48415348 		.ascii	"HASH_RNG_IRQn\000"
 2854      5F524E47 
 2854      5F495251 
 2854      6E00
 2855              	.LASF3:
 2856 065f 73686F72 		.ascii	"short int\000"
 2856      7420696E 
ARM GAS  C:\Users\LAB_ME~1\AppData\Local\Temp\cckQhmLC.s 			page 57


 2856      7400
 2857              	.LASF123:
 2858 0669 41484233 		.ascii	"AHB3LPENR\000"
 2858      4C50454E 
 2858      5200
 2859              	.LASF76:
 2860 0673 55415254 		.ascii	"UART5_IRQn\000"
 2860      355F4952 
 2860      516E00
 2861              	.LASF49:
 2862 067e 54494D31 		.ascii	"TIM1_TRG_COM_TIM11_IRQn\000"
 2862      5F545247 
 2862      5F434F4D 
 2862      5F54494D 
 2862      31315F49 
 2863              	.LASF6:
 2864 0696 73686F72 		.ascii	"short unsigned int\000"
 2864      7420756E 
 2864      7369676E 
 2864      65642069 
 2864      6E7400
 2865              	.LASF31:
 2866 06a9 45585449 		.ascii	"EXTI2_IRQn\000"
 2866      325F4952 
 2866      516E00
 2867              	.LASF119:
 2868 06b4 41504232 		.ascii	"APB2ENR\000"
 2868      454E5200 
 2869              	.LASF116:
 2870 06bc 41484233 		.ascii	"AHB3ENR\000"
 2870      454E5200 
 2871              	.LASF27:
 2872 06c4 464C4153 		.ascii	"FLASH_IRQn\000"
 2872      485F4952 
 2872      516E00
 2873              	.LASF160:
 2874 06cf 4750545F 		.ascii	"GPT_ONESHOT\000"
 2874      4F4E4553 
 2874      484F5400 
 2875              	.LASF90:
 2876 06db 4F54475F 		.ascii	"OTG_FS_IRQn\000"
 2876      46535F49 
 2876      52516E00 
 2877              	.LASF9:
 2878 06e7 75696E74 		.ascii	"uint32_t\000"
 2878      33325F74 
 2878      00
 2879              	.LASF61:
 2880 06f0 55534152 		.ascii	"USART2_IRQn\000"
 2880      54325F49 
 2880      52516E00 
 2881              	.LASF18:
 2882 06fc 55736167 		.ascii	"UsageFault_IRQn\000"
 2882      65466175 
 2882      6C745F49 
 2882      52516E00 
 2883              	.LASF191:
ARM GAS  C:\Users\LAB_ME~1\AppData\Local\Temp\cckQhmLC.s 			page 58


 2884 070c 6E766963 		.ascii	"nvicDisableVector\000"
 2884      44697361 
 2884      626C6556 
 2884      6563746F 
 2884      7200
 2885              	.LASF136:
 2886 071e 5F726573 		.ascii	"_resvd2\000"
 2886      76643200 
 2887              	.LASF70:
 2888 0726 444D4131 		.ascii	"DMA1_Stream7_IRQn\000"
 2888      5F537472 
 2888      65616D37 
 2888      5F495251 
 2888      6E00
 2889              	.LASF14:
 2890 0738 63686172 		.ascii	"char\000"
 2890      00
 2891              	.LASF102:
 2892 073d 43525950 		.ascii	"CRYP_IRQn\000"
 2892      5F495251 
 2892      6E00
 2893              	.LASF164:
 2894 0747 636F6E66 		.ascii	"config\000"
 2894      696700
 2895              	.LASF152:
 2896 074e 444D4152 		.ascii	"DMAR\000"
 2896      00
 2897              	.LASF167:
 2898 0753 67707466 		.ascii	"gptfreq_t\000"
 2898      7265715F 
 2898      7400
 2899              	.LASF78:
 2900 075d 54494D37 		.ascii	"TIM7_IRQn\000"
 2900      5F495251 
 2900      6E00
 2901              	.LASF35:
 2902 0767 444D4131 		.ascii	"DMA1_Stream1_IRQn\000"
 2902      5F537472 
 2902      65616D31 
 2902      5F495251 
 2902      6E00
 2903              	.LASF98:
 2904 0779 4F54475F 		.ascii	"OTG_HS_EP1_IN_IRQn\000"
 2904      48535F45 
 2904      50315F49 
 2904      4E5F4952 
 2904      516E00
 2905              	.LASF15:
 2906 078c 4E6F6E4D 		.ascii	"NonMaskableInt_IRQn\000"
 2906      61736B61 
 2906      626C6549 
 2906      6E745F49 
 2906      52516E00 
 2907              	.LASF118:
 2908 07a0 41504231 		.ascii	"APB1ENR\000"
 2908      454E5200 
 2909              	.LASF171:
ARM GAS  C:\Users\LAB_ME~1\AppData\Local\Temp\cckQhmLC.s 			page 59


 2910 07a8 47505443 		.ascii	"GPTConfig\000"
 2910      6F6E6669 
 2910      6700
 2911              	.LASF115:
 2912 07b2 41484232 		.ascii	"AHB2ENR\000"
 2912      454E5200 
 2913              	.LASF25:
 2914 07ba 54414D50 		.ascii	"TAMP_STAMP_IRQn\000"
 2914      5F535441 
 2914      4D505F49 
 2914      52516E00 
 2915              	.LASF20:
 2916 07ca 44656275 		.ascii	"DebugMonitor_IRQn\000"
 2916      674D6F6E 
 2916      69746F72 
 2916      5F495251 
 2916      6E00
 2917              	.LASF79:
 2918 07dc 444D4132 		.ascii	"DMA2_Stream0_IRQn\000"
 2918      5F537472 
 2918      65616D30 
 2918      5F495251 
 2918      6E00
 2919              	.LASF175:
 2920 07ee 6770745F 		.ascii	"gpt_lld_start\000"
 2920      6C6C645F 
 2920      73746172 
 2920      7400
 2921              	.LASF56:
 2922 07fc 49324332 		.ascii	"I2C2_EV_IRQn\000"
 2922      5F45565F 
 2922      4952516E 
 2922      00
 2923              	.LASF62:
 2924 0809 55534152 		.ascii	"USART3_IRQn\000"
 2924      54335F49 
 2924      52516E00 
 2925              	.LASF130:
 2926 0815 53534347 		.ascii	"SSCGR\000"
 2926      5200
 2927              	.LASF51:
 2928 081b 54494D32 		.ascii	"TIM2_IRQn\000"
 2928      5F495251 
 2928      6E00
 2929              	.LASF111:
 2930 0825 41504231 		.ascii	"APB1RSTR\000"
 2930      52535452 
 2930      00
 2931              	.LASF29:
 2932 082e 45585449 		.ascii	"EXTI0_IRQn\000"
 2932      305F4952 
 2932      516E00
 2933              	.LASF60:
 2934 0839 55534152 		.ascii	"USART1_IRQn\000"
 2934      54315F49 
 2934      52516E00 
 2935              	.LASF176:
ARM GAS  C:\Users\LAB_ME~1\AppData\Local\Temp\cckQhmLC.s 			page 60


 2936 0845 6770745F 		.ascii	"gpt_lld_stop\000"
 2936      6C6C645F 
 2936      73746F70 
 2936      00
 2937              	.LASF128:
 2938 0852 42444352 		.ascii	"BDCR\000"
 2938      00
 2939              	.LASF190:
 2940 0857 5F706F72 		.ascii	"_port_irq_epilogue\000"
 2940      745F6972 
 2940      715F6570 
 2940      696C6F67 
 2940      756500
 2941              	.LASF4:
 2942 086a 75696E74 		.ascii	"uint8_t\000"
 2942      385F7400 
 2943              	.LASF101:
 2944 0872 44434D49 		.ascii	"DCMI_IRQn\000"
 2944      5F495251 
 2944      6E00
 2945              	.LASF157:
 2946 087c 4750545F 		.ascii	"GPT_STOP\000"
 2946      53544F50 
 2946      00
 2947              	.LASF114:
 2948 0885 41484231 		.ascii	"AHB1ENR\000"
 2948      454E5200 
 2949              	.LASF137:
 2950 088d 44494552 		.ascii	"DIER\000"
 2950      00
 2951              	.LASF104:
 2952 0892 4650555F 		.ascii	"FPU_IRQn\000"
 2952      4952516E 
 2952      00
 2953              	.LASF106:
 2954 089b 43464752 		.ascii	"CFGR\000"
 2954      00
 2955              	.LASF165:
 2956 08a0 636C6F63 		.ascii	"clock\000"
 2956      6B00
 2957              	.LASF55:
 2958 08a6 49324331 		.ascii	"I2C1_ER_IRQn\000"
 2958      5F45525F 
 2958      4952516E 
 2958      00
 2959              	.LASF41:
 2960 08b3 4144435F 		.ascii	"ADC_IRQn\000"
 2960      4952516E 
 2960      00
 2961              	.LASF80:
 2962 08bc 444D4132 		.ascii	"DMA2_Stream1_IRQn\000"
 2962      5F537472 
 2962      65616D31 
 2962      5F495251 
 2962      6E00
 2963              	.LASF95:
 2964 08ce 49324333 		.ascii	"I2C3_EV_IRQn\000"
ARM GAS  C:\Users\LAB_ME~1\AppData\Local\Temp\cckQhmLC.s 			page 61


 2964      5F45565F 
 2964      4952516E 
 2964      00
 2965              	.LASF45:
 2966 08db 43414E31 		.ascii	"CAN1_SCE_IRQn\000"
 2966      5F534345 
 2966      5F495251 
 2966      6E00
 2967              	.LASF89:
 2968 08e9 43414E32 		.ascii	"CAN2_SCE_IRQn\000"
 2968      5F534345 
 2968      5F495251 
 2968      6E00
 2969              	.LASF28:
 2970 08f7 5243435F 		.ascii	"RCC_IRQn\000"
 2970      4952516E 
 2970      00
 2971              	.LASF99:
 2972 0900 4F54475F 		.ascii	"OTG_HS_WKUP_IRQn\000"
 2972      48535F57 
 2972      4B55505F 
 2972      4952516E 
 2972      00
 2973              	.LASF52:
 2974 0911 54494D33 		.ascii	"TIM3_IRQn\000"
 2974      5F495251 
 2974      6E00
 2975              	.LASF30:
 2976 091b 45585449 		.ascii	"EXTI1_IRQn\000"
 2976      315F4952 
 2976      516E00
 2977              	.LASF34:
 2978 0926 444D4131 		.ascii	"DMA1_Stream0_IRQn\000"
 2978      5F537472 
 2978      65616D30 
 2978      5F495251 
 2978      6E00
 2979              		.ident	"GCC: (Sourcery CodeBench Lite 2012.09-63) 4.7.2"
ARM GAS  C:\Users\LAB_ME~1\AppData\Local\Temp\cckQhmLC.s 			page 62


DEFINED SYMBOLS
                            *ABS*:00000000 gpt_lld.c
C:\Users\LAB_ME~1\AppData\Local\Temp\cckQhmLC.s:19     .text.VectorB0:00000000 $t
C:\Users\LAB_ME~1\AppData\Local\Temp\cckQhmLC.s:25     .text.VectorB0:00000000 VectorB0
C:\Users\LAB_ME~1\AppData\Local\Temp\cckQhmLC.s:85     .text.VectorB0:0000002c $d
C:\Users\LAB_ME~1\AppData\Local\Temp\cckQhmLC.s:90     .text.gpt_lld_init:00000000 $t
C:\Users\LAB_ME~1\AppData\Local\Temp\cckQhmLC.s:96     .text.gpt_lld_init:00000000 gpt_lld_init
C:\Users\LAB_ME~1\AppData\Local\Temp\cckQhmLC.s:117    .text.gpt_lld_init:00000010 $d
C:\Users\LAB_ME~1\AppData\Local\Temp\cckQhmLC.s:122    .text.gpt_lld_start:00000000 $t
C:\Users\LAB_ME~1\AppData\Local\Temp\cckQhmLC.s:128    .text.gpt_lld_start:00000000 gpt_lld_start
C:\Users\LAB_ME~1\AppData\Local\Temp\cckQhmLC.s:203    .text.gpt_lld_start:00000050 $d
C:\Users\LAB_ME~1\AppData\Local\Temp\cckQhmLC.s:210    .text.gpt_lld_stop:00000000 $t
C:\Users\LAB_ME~1\AppData\Local\Temp\cckQhmLC.s:216    .text.gpt_lld_stop:00000000 gpt_lld_stop
C:\Users\LAB_ME~1\AppData\Local\Temp\cckQhmLC.s:263    .text.gpt_lld_stop:0000002c $d
C:\Users\LAB_ME~1\AppData\Local\Temp\cckQhmLC.s:269    .text.gpt_lld_start_timer:00000000 $t
C:\Users\LAB_ME~1\AppData\Local\Temp\cckQhmLC.s:275    .text.gpt_lld_start_timer:00000000 gpt_lld_start_timer
C:\Users\LAB_ME~1\AppData\Local\Temp\cckQhmLC.s:310    .text.gpt_lld_stop_timer:00000000 $t
C:\Users\LAB_ME~1\AppData\Local\Temp\cckQhmLC.s:316    .text.gpt_lld_stop_timer:00000000 gpt_lld_stop_timer
C:\Users\LAB_ME~1\AppData\Local\Temp\cckQhmLC.s:337    .text.gpt_lld_polled_delay:00000000 $t
C:\Users\LAB_ME~1\AppData\Local\Temp\cckQhmLC.s:343    .text.gpt_lld_polled_delay:00000000 gpt_lld_polled_delay
C:\Users\LAB_ME~1\AppData\Local\Temp\cckQhmLC.s:383    .bss.GPTD2:00000000 GPTD2
C:\Users\LAB_ME~1\AppData\Local\Temp\cckQhmLC.s:379    .bss.GPTD2:00000000 $d
                     .debug_frame:00000010 $d
C:\Users\LAB_ME~1\AppData\Local\Temp\cckQhmLC.s:121    .text.gpt_lld_init:00000014 $t
C:\Users\LAB_ME~1\AppData\Local\Temp\cckQhmLC.s:209    .text.gpt_lld_start:0000005c $t
C:\Users\LAB_ME~1\AppData\Local\Temp\cckQhmLC.s:268    .text.gpt_lld_stop:00000034 $t

UNDEFINED SYMBOLS
_port_irq_epilogue
gptObjectInit
nvicEnableVector
nvicDisableVector
