ARM GAS  C:\Users\LAB_ME~1\AppData\Local\Temp\cckQhmLC.s 			page 1


   1              		.syntax unified
   2              		.cpu cortex-m4
   3              		.fpu softvfp
   4              		.eabi_attribute 20, 1
   5              		.eabi_attribute 21, 1
   6              		.eabi_attribute 23, 3
   7              		.eabi_attribute 24, 1
   8              		.eabi_attribute 25, 1
   9              		.eabi_attribute 26, 1
  10              		.eabi_attribute 30, 2
  11              		.eabi_attribute 34, 1
  12              		.eabi_attribute 18, 4
  13              		.thumb
  14              		.file	"gpt_lld.c"
  15              		.text
  16              	.Ltext0:
  17              		.cfi_sections	.debug_frame
  18              		.section	.text.VectorB0,"ax",%progbits
  19              		.align	2
  20              		.p2align 4,,15
  21              		.global	VectorB0
  22              		.thumb
  23              		.thumb_func
  24              		.type	VectorB0, %function
  25              	VectorB0:
  26              	.LFB119:
  27              		.file 1 "../../os/hal/platforms/STM32/gpt_lld.c"
  28              		.loc 1 141 0
  29              		.cfi_startproc
  30              		@ args = 0, pretend = 0, frame = 0
  31              		@ frame_needed = 0, uses_anonymous_args = 0
  32              	.LVL0:
  33 0000 08B5     		push	{r3, lr}
  34              	.LCFI0:
  35              		.cfi_def_cfa_offset 8
  36              		.cfi_offset 3, -8
  37              		.cfi_offset 14, -4
  38              	.LBB8:
  39              	.LBB9:
  40              		.loc 1 101 0
  41 0002 0A4B     		ldr	r3, .L4
  42              		.loc 1 102 0
  43 0004 1878     		ldrb	r0, [r3, #0]	@ zero_extendqisi2
  44              		.loc 1 101 0
  45 0006 DA68     		ldr	r2, [r3, #12]
  46 0008 0021     		movs	r1, #0
  47              		.loc 1 102 0
  48 000a 0428     		cmp	r0, #4
  49              		.loc 1 101 0
  50 000c 1182     		strh	r1, [r2, #16]	@ movhi
  51              		.loc 1 102 0
  52 000e 04D1     		bne	.L2
  53              		.loc 1 103 0
  54 0010 0220     		movs	r0, #2
  55 0012 1870     		strb	r0, [r3, #0]
  56              	.LVL1:
  57              	.LBB10:
ARM GAS  C:\Users\LAB_ME~1\AppData\Local\Temp\cckQhmLC.s 			page 2


  58              	.LBB11:
  59              		.loc 1 440 0
  60 0014 1180     		strh	r1, [r2, #0]	@ movhi
  61              		.loc 1 441 0
  62 0016 1182     		strh	r1, [r2, #16]	@ movhi
  63              		.loc 1 442 0
  64 0018 9181     		strh	r1, [r2, #12]	@ movhi
  65              	.LVL2:
  66              	.L2:
  67              	.LBE11:
  68              	.LBE10:
  69              		.loc 1 106 0
  70 001a 5B68     		ldr	r3, [r3, #4]
  71 001c 0348     		ldr	r0, .L4
  72 001e 5B68     		ldr	r3, [r3, #4]
  73 0020 9847     		blx	r3
  74              	.LVL3:
  75              	.LBE9:
  76              	.LBE8:
  77              		.loc 1 148 0
  78 0022 BDE80840 		pop	{r3, lr}
  79              		.loc 1 147 0
  80 0026 FFF7FEBF 		b	_port_irq_epilogue
  81              	.LVL4:
  82              	.L5:
  83 002a 00BF     		.align	2
  84              	.L4:
  85 002c 00000000 		.word	.LANCHOR0
  86              		.cfi_endproc
  87              	.LFE119:
  88              		.size	VectorB0, .-VectorB0
  89              		.section	.text.gpt_lld_init,"ax",%progbits
  90              		.align	2
  91              		.p2align 4,,15
  92              		.global	gpt_lld_init
  93              		.thumb
  94              		.thumb_func
  95              		.type	gpt_lld_init, %function
  96              	gpt_lld_init:
  97              	.LFB120:
  98              		.loc 1 236 0
  99              		.cfi_startproc
 100              		@ args = 0, pretend = 0, frame = 0
 101              		@ frame_needed = 0, uses_anonymous_args = 0
 102              		@ link register save eliminated.
 103              		.loc 1 246 0
 104 0000 034B     		ldr	r3, .L7
 105 0002 4FF08042 		mov	r2, #1073741824
 106              		.loc 1 247 0
 107 0006 1846     		mov	r0, r3
 108              		.loc 1 246 0
 109 0008 DA60     		str	r2, [r3, #12]
 110              		.loc 1 273 0
 111              		.loc 1 247 0
 112 000a FFF7FEBF 		b	gptObjectInit
 113              	.LVL5:
 114              	.L8:
ARM GAS  C:\Users\LAB_ME~1\AppData\Local\Temp\cckQhmLC.s 			page 3


 115 000e 00BF     		.align	2
 116              	.L7:
 117 0010 00000000 		.word	.LANCHOR0
 118              		.cfi_endproc
 119              	.LFE120:
 120              		.size	gpt_lld_init, .-gpt_lld_init
 121 0014 AFF30080 		.section	.text.gpt_lld_start,"ax",%progbits
 121      AFF30080 
 121      AFF30080 
 122              		.align	2
 123              		.p2align 4,,15
 124              		.global	gpt_lld_start
 125              		.thumb
 126              		.thumb_func
 127              		.type	gpt_lld_start, %function
 128              	gpt_lld_start:
 129              	.LFB121:
 130              		.loc 1 282 0
 131              		.cfi_startproc
 132              		@ args = 0, pretend = 0, frame = 0
 133              		@ frame_needed = 0, uses_anonymous_args = 0
 134              	.LVL6:
 135              		.loc 1 285 0
 136 0000 0378     		ldrb	r3, [r0, #0]	@ zero_extendqisi2
 137 0002 012B     		cmp	r3, #1
 138              		.loc 1 282 0
 139 0004 10B5     		push	{r4, lr}
 140              	.LCFI1:
 141              		.cfi_def_cfa_offset 8
 142              		.cfi_offset 4, -8
 143              		.cfi_offset 14, -4
 144              		.loc 1 282 0
 145 0006 0446     		mov	r4, r0
 146              		.loc 1 285 0
 147 0008 0DD0     		beq	.L11
 148              	.LVL7:
 149              	.L10:
 150              		.loc 1 346 0
 151 000a 6368     		ldr	r3, [r4, #4]
 152 000c A168     		ldr	r1, [r4, #8]
 153 000e 1A68     		ldr	r2, [r3, #0]
 154              		.loc 1 351 0
 155 0010 E368     		ldr	r3, [r4, #12]
 156              		.loc 1 346 0
 157 0012 B1FBF2F1 		udiv	r1, r1, r2
 158 0016 0139     		subs	r1, r1, #1
 159              		.loc 1 351 0
 160 0018 0022     		movs	r2, #0
 161              	.LVL8:
 162              		.loc 1 352 0
 163 001a 0820     		movs	r0, #8
 164              		.loc 1 351 0
 165 001c 1A80     		strh	r2, [r3, #0]	@ movhi
 166              		.loc 1 352 0
 167 001e 9880     		strh	r0, [r3, #4]	@ movhi
 168              		.loc 1 353 0
 169 0020 1985     		strh	r1, [r3, #40]	@ movhi
ARM GAS  C:\Users\LAB_ME~1\AppData\Local\Temp\cckQhmLC.s 			page 4


 170              		.loc 1 354 0
 171 0022 9A81     		strh	r2, [r3, #12]	@ movhi
 172 0024 10BD     		pop	{r4, pc}
 173              	.LVL9:
 174              	.L11:
 175              		.loc 1 297 0
 176 0026 0A4B     		ldr	r3, .L12
 177 0028 9842     		cmp	r0, r3
 178 002a EED1     		bne	.L10
 179              		.loc 1 298 0
 180 002c 094B     		ldr	r3, .L12+4
 181 002e 1A6C     		ldr	r2, [r3, #64]
 182 0030 42F00102 		orr	r2, r2, #1
 183 0034 1A64     		str	r2, [r3, #64]
 184              		.loc 1 299 0
 185 0036 1A6A     		ldr	r2, [r3, #32]
 186 0038 42F00102 		orr	r2, r2, #1
 187 003c 1A62     		str	r2, [r3, #32]
 188 003e 0022     		movs	r2, #0
 189 0040 1A62     		str	r2, [r3, #32]
 190              		.loc 1 300 0
 191 0042 1C20     		movs	r0, #28
 192              	.LVL10:
 193 0044 7021     		movs	r1, #112
 194 0046 FFF7FEFF 		bl	nvicEnableVector
 195              	.LVL11:
 196              		.loc 1 302 0
 197 004a 034B     		ldr	r3, .L12+8
 198 004c A360     		str	r3, [r4, #8]
 199 004e DCE7     		b	.L10
 200              	.L13:
 201              		.align	2
 202              	.L12:
 203 0050 00000000 		.word	.LANCHOR0
 204 0054 00380240 		.word	1073887232
 205 0058 00BD0105 		.word	84000000
 206              		.cfi_endproc
 207              	.LFE121:
 208              		.size	gpt_lld_start, .-gpt_lld_start
 209 005c AFF30080 		.section	.text.gpt_lld_stop,"ax",%progbits
 210              		.align	2
 211              		.p2align 4,,15
 212              		.global	gpt_lld_stop
 213              		.thumb
 214              		.thumb_func
 215              		.type	gpt_lld_stop, %function
 216              	gpt_lld_stop:
 217              	.LFB122:
 218              		.loc 1 364 0
 219              		.cfi_startproc
 220              		@ args = 0, pretend = 0, frame = 0
 221              		@ frame_needed = 0, uses_anonymous_args = 0
 222              	.LVL12:
 223 0000 08B5     		push	{r3, lr}
 224              	.LCFI2:
 225              		.cfi_def_cfa_offset 8
 226              		.cfi_offset 3, -8
ARM GAS  C:\Users\LAB_ME~1\AppData\Local\Temp\cckQhmLC.s 			page 5


 227              		.cfi_offset 14, -4
 228              		.loc 1 366 0
 229 0002 0378     		ldrb	r3, [r0, #0]	@ zero_extendqisi2
 230 0004 022B     		cmp	r3, #2
 231 0006 00D0     		beq	.L18
 232              	.LVL13:
 233              	.L14:
 234 0008 08BD     		pop	{r3, pc}
 235              	.LVL14:
 236              	.L18:
 237              		.loc 1 367 0
 238 000a C368     		ldr	r3, [r0, #12]
 239 000c 0022     		movs	r2, #0
 240 000e 1A80     		strh	r2, [r3, #0]	@ movhi
 241              		.loc 1 368 0
 242 0010 9A81     		strh	r2, [r3, #12]	@ movhi
 243              		.loc 1 369 0
 244 0012 1A82     		strh	r2, [r3, #16]	@ movhi
 245              		.loc 1 378 0
 246 0014 054B     		ldr	r3, .L19
 247 0016 9842     		cmp	r0, r3
 248 0018 F6D1     		bne	.L14
 249              		.loc 1 379 0
 250 001a 1C20     		movs	r0, #28
 251              	.LVL15:
 252 001c FFF7FEFF 		bl	nvicDisableVector
 253              	.LVL16:
 254              		.loc 1 380 0
 255 0020 034B     		ldr	r3, .L19+4
 256 0022 1A6C     		ldr	r2, [r3, #64]
 257 0024 22F00102 		bic	r2, r2, #1
 258 0028 1A64     		str	r2, [r3, #64]
 259 002a EDE7     		b	.L14
 260              	.L20:
 261              		.align	2
 262              	.L19:
 263 002c 00000000 		.word	.LANCHOR0
 264 0030 00380240 		.word	1073887232
 265              		.cfi_endproc
 266              	.LFE122:
 267              		.size	gpt_lld_stop, .-gpt_lld_stop
 268 0034 AFF30080 		.section	.text.gpt_lld_start_timer,"ax",%progbits
 268      AFF30080 
 268      AFF30080 
 269              		.align	2
 270              		.p2align 4,,15
 271              		.global	gpt_lld_start_timer
 272              		.thumb
 273              		.thumb_func
 274              		.type	gpt_lld_start_timer, %function
 275              	gpt_lld_start_timer:
 276              	.LFB123:
 277              		.loc 1 418 0
 278              		.cfi_startproc
 279              		@ args = 0, pretend = 0, frame = 0
 280              		@ frame_needed = 0, uses_anonymous_args = 0
 281              		@ link register save eliminated.
ARM GAS  C:\Users\LAB_ME~1\AppData\Local\Temp\cckQhmLC.s 			page 6


 282              	.LVL17:
 283              		.loc 1 420 0
 284 0000 C368     		ldr	r3, [r0, #12]
 285              		.loc 1 421 0
 286 0002 0122     		movs	r2, #1
 287              		.loc 1 422 0
 288 0004 0020     		movs	r0, #0
 289              	.LVL18:
 290              		.loc 1 420 0
 291 0006 0139     		subs	r1, r1, #1
 292              	.LVL19:
 293 0008 D962     		str	r1, [r3, #44]
 294              		.loc 1 421 0
 295 000a 9A82     		strh	r2, [r3, #20]	@ movhi
 296              		.loc 1 422 0
 297 000c 5862     		str	r0, [r3, #36]
 298              		.loc 1 426 0
 299 000e 1882     		strh	r0, [r3, #16]	@ movhi
 300              		.loc 1 427 0
 301 0010 9A81     		strh	r2, [r3, #12]	@ movhi
 302              		.loc 1 428 0
 303 0012 0522     		movs	r2, #5
 304 0014 1A80     		strh	r2, [r3, #0]	@ movhi
 305 0016 7047     		bx	lr
 306              		.cfi_endproc
 307              	.LFE123:
 308              		.size	gpt_lld_start_timer, .-gpt_lld_start_timer
 309              		.section	.text.gpt_lld_stop_timer,"ax",%progbits
 310              		.align	2
 311              		.p2align 4,,15
 312              		.global	gpt_lld_stop_timer
 313              		.thumb
 314              		.thumb_func
 315              		.type	gpt_lld_stop_timer, %function
 316              	gpt_lld_stop_timer:
 317              	.LFB124:
 318              		.loc 1 438 0
 319              		.cfi_startproc
 320              		@ args = 0, pretend = 0, frame = 0
 321              		@ frame_needed = 0, uses_anonymous_args = 0
 322              		@ link register save eliminated.
 323              	.LVL20:
 324              		.loc 1 440 0
 325 0000 C368     		ldr	r3, [r0, #12]
 326 0002 0022     		movs	r2, #0
 327 0004 1A80     		strh	r2, [r3, #0]	@ movhi
 328              		.loc 1 441 0
 329 0006 1A82     		strh	r2, [r3, #16]	@ movhi
 330              		.loc 1 442 0
 331 0008 9A81     		strh	r2, [r3, #12]	@ movhi
 332 000a 7047     		bx	lr
 333              		.cfi_endproc
 334              	.LFE124:
 335              		.size	gpt_lld_stop_timer, .-gpt_lld_stop_timer
 336 000c AFF30080 		.section	.text.gpt_lld_polled_delay,"ax",%progbits
 337              		.align	2
 338              		.p2align 4,,15
ARM GAS  C:\Users\LAB_ME~1\AppData\Local\Temp\cckQhmLC.s 			page 7


 339              		.global	gpt_lld_polled_delay
 340              		.thumb
 341              		.thumb_func
 342              		.type	gpt_lld_polled_delay, %function
 343              	gpt_lld_polled_delay:
 344              	.LFB125:
 345              		.loc 1 456 0
 346              		.cfi_startproc
 347              		@ args = 0, pretend = 0, frame = 0
 348              		@ frame_needed = 0, uses_anonymous_args = 0
 349              		@ link register save eliminated.
 350              	.LVL21:
 351              		.loc 1 458 0
 352 0000 C268     		ldr	r2, [r0, #12]
 353              		.loc 1 459 0
 354 0002 0123     		movs	r3, #1
 355              		.loc 1 458 0
 356 0004 0139     		subs	r1, r1, #1
 357              	.LVL22:
 358 0006 D162     		str	r1, [r2, #44]
 359              		.loc 1 459 0
 360 0008 9382     		strh	r3, [r2, #20]	@ movhi
 361              		.loc 1 460 0
 362 000a 0023     		movs	r3, #0
 363 000c 1382     		strh	r3, [r2, #16]	@ movhi
 364              		.loc 1 461 0
 365 000e 0D23     		movs	r3, #13
 366 0010 1380     		strh	r3, [r2, #0]	@ movhi
 367              	.L24:
 368              		.loc 1 462 0 discriminator 1
 369 0012 138A     		ldrh	r3, [r2, #16]
 370 0014 DB07     		lsls	r3, r3, #31
 371 0016 FCD5     		bpl	.L24
 372              		.loc 1 464 0
 373 0018 7047     		bx	lr
 374              		.cfi_endproc
 375              	.LFE125:
 376              		.size	gpt_lld_polled_delay, .-gpt_lld_polled_delay
 377              		.global	GPTD2
 378              		.section	.bss.GPTD2,"aw",%nobits
 379              		.align	2
 380              		.set	.LANCHOR0,. + 0
 381              		.type	GPTD2, %object
 382              		.size	GPTD2, 16
 383              	GPTD2:
 384 0000 00000000 		.space	16
 384      00000000 
 384      00000000 
 384      00000000 
 385              		.text
 386              	.Letext0:
 387              		.file 2 "c:\\program files (x86)\\codesourcery\\sourcery_codebench_lite_for_arm_eabi\\bin\\../lib/
 388              		.file 3 "../../os/hal/platforms/STM32F4xx/stm32f4xx.h"
 389              		.file 4 "../../os/hal/platforms/STM32/stm32.h"
 390              		.file 5 "../../os/hal/include/gpt.h"
 391              		.file 6 "../../os/hal/platforms/STM32/gpt_lld.h"
 392              		.file 7 "../../os/ports/common/ARMCMx/CMSIS/include/core_cm4.h"
ARM GAS  C:\Users\LAB_ME~1\AppData\Local\Temp\cckQhmLC.s 			page 8


 393              		.file 8 "../../os/ports/common/ARMCMx/nvic.h"
 394              		.file 9 "../../os/ports/GCC/ARMCMx/chcore_v7m.h"