ARM GAS  C:\Users\LAB_ME~1\AppData\Local\Temp\ccBm2uob.s 			page 1


   1              		.syntax unified
   2              		.cpu cortex-m4
   3              		.fpu softvfp
   4              		.eabi_attribute 20, 1
   5              		.eabi_attribute 21, 1
   6              		.eabi_attribute 23, 3
   7              		.eabi_attribute 24, 1
   8              		.eabi_attribute 25, 1
   9              		.eabi_attribute 26, 1
  10              		.eabi_attribute 30, 2
  11              		.eabi_attribute 34, 1
  12              		.eabi_attribute 18, 4
  13              		.thumb
  14              		.file	"hal.c"
  15              		.text
  16              	.Ltext0:
  17              		.cfi_sections	.debug_frame
  18              		.section	.text.halInit,"ax",%progbits
  19              		.align	2
  20              		.p2align 4,,15
  21              		.global	halInit
  22              		.thumb
  23              		.thumb_func
  24              		.type	halInit, %function
  25              	halInit:
  26              	.LFB118:
  27              		.file 1 "../../os/hal/src/hal.c"
  28              		.loc 1 61 0
  29              		.cfi_startproc
  30              		@ args = 0, pretend = 0, frame = 0
  31              		@ frame_needed = 0, uses_anonymous_args = 0
  32 0000 08B5     		push	{r3, lr}
  33              	.LCFI0:
  34              		.cfi_def_cfa_offset 8
  35              		.cfi_offset 3, -8
  36              		.cfi_offset 14, -4
  37              		.loc 1 63 0
  38 0002 FFF7FEFF 		bl	hal_lld_init
  39              	.LVL0:
  40              		.loc 1 69 0
  41 0006 0848     		ldr	r0, .L2
  42 0008 FFF7FEFF 		bl	_pal_lld_init
  43              	.LVL1:
  44              		.loc 1 72 0
  45 000c FFF7FEFF 		bl	adcInit
  46              	.LVL2:
  47              		.loc 1 81 0
  48 0010 FFF7FEFF 		bl	gptInit
  49              	.LVL3:
  50              		.loc 1 93 0
  51 0014 FFF7FEFF 		bl	pwmInit
  52              	.LVL4:
  53              		.loc 1 96 0
  54 0018 FFF7FEFF 		bl	sdInit
  55              	.LVL5:
  56              		.loc 1 105 0
  57 001c FFF7FEFF 		bl	uartInit
ARM GAS  C:\Users\LAB_ME~1\AppData\Local\Temp\ccBm2uob.s 			page 2


  58              	.LVL6:
  59              		.loc 1 121 0
  60 0020 BDE80840 		pop	{r3, lr}
  61              		.loc 1 120 0
  62 0024 FFF7FEBF 		b	boardInit
  63              	.LVL7:
  64              	.L3:
  65              		.align	2
  66              	.L2:
  67 0028 00000000 		.word	pal_default_config
  68              		.cfi_endproc
  69              	.LFE118:
  70              		.size	halInit, .-halInit
  71 002c AFF30080 		.section	.text.halIsCounterWithin,"ax",%progbits
  72              		.align	2
  73              		.p2align 4,,15
  74              		.global	halIsCounterWithin
  75              		.thumb
  76              		.thumb_func
  77              		.type	halIsCounterWithin, %function
  78              	halIsCounterWithin:
  79              	.LFB119:
  80              		.loc 1 167 0
  81              		.cfi_startproc
  82              		@ args = 0, pretend = 0, frame = 0
  83              		@ frame_needed = 0, uses_anonymous_args = 0
  84              		@ link register save eliminated.
  85              	.LVL8:
  86              		.loc 1 168 0
  87 0000 094B     		ldr	r3, .L12
  88              		.loc 1 170 0
  89 0002 8142     		cmp	r1, r0
  90              		.loc 1 168 0
  91 0004 5B68     		ldr	r3, [r3, #4]
  92              	.LVL9:
  93              		.loc 1 170 0
  94 0006 05D9     		bls	.L5
  95              		.loc 1 170 0 is_stmt 0 discriminator 1
  96 0008 8342     		cmp	r3, r0
  97 000a 01D3     		bcc	.L9
  98              		.loc 1 170 0 discriminator 3
  99 000c 8B42     		cmp	r3, r1
 100 000e 03D3     		bcc	.L7
 101              	.L9:
 102              		.loc 1 170 0
 103 0010 0020     		movs	r0, #0
 104              	.LVL10:
 105              		.loc 1 172 0 is_stmt 1
 106 0012 7047     		bx	lr
 107              	.LVL11:
 108              	.L5:
 109              		.loc 1 170 0 discriminator 2
 110 0014 8342     		cmp	r3, r0
 111 0016 01D3     		bcc	.L11
 112              	.L7:
 113              		.loc 1 170 0 is_stmt 0
 114 0018 0120     		movs	r0, #1
ARM GAS  C:\Users\LAB_ME~1\AppData\Local\Temp\ccBm2uob.s 			page 3


 115              	.LVL12:
 116 001a 7047     		bx	lr
 117              	.LVL13:
 118              	.L11:
 119              		.loc 1 171 0 is_stmt 1
 120 001c 8B42     		cmp	r3, r1
 121 001e 2CBF     		ite	cs
 122 0020 0020     		movcs	r0, #0
 123              	.LVL14:
 124 0022 0120     		movcc	r0, #1
 125 0024 7047     		bx	lr
 126              	.L13:
 127 0026 00BF     		.align	2
 128              	.L12:
 129 0028 001000E0 		.word	-536866816
 130              		.cfi_endproc
 131              	.LFE119:
 132              		.size	halIsCounterWithin, .-halIsCounterWithin
 133 002c AFF30080 		.section	.text.halPolledDelay,"ax",%progbits
 134              		.align	2
 135              		.p2align 4,,15
 136              		.global	halPolledDelay
 137              		.thumb
 138              		.thumb_func
 139              		.type	halPolledDelay, %function
 140              	halPolledDelay:
 141              	.LFB120:
 142              		.loc 1 186 0
 143              		.cfi_startproc
 144              		@ args = 0, pretend = 0, frame = 0
 145              		@ frame_needed = 0, uses_anonymous_args = 0
 146              		@ link register save eliminated.
 147              	.LVL15:
 148              		.loc 1 187 0
 149 0000 0849     		ldr	r1, .L22
 150 0002 4A68     		ldr	r2, [r1, #4]
 151              	.LVL16:
 152              		.loc 1 188 0
 153 0004 8018     		adds	r0, r0, r2
 154              	.LVL17:
 155              	.L20:
 156              	.LBB4:
 157              	.LBB5:
 158              		.loc 1 170 0 discriminator 1
 159 0006 8242     		cmp	r2, r0
 160              		.loc 1 168 0 discriminator 1
 161 0008 4B68     		ldr	r3, [r1, #4]
 162              	.LVL18:
 163              		.loc 1 170 0 discriminator 1
 164 000a 02D2     		bcs	.L15
 165              		.loc 1 170 0 is_stmt 0
 166 000c 9A42     		cmp	r2, r3
 167 000e 05D9     		bls	.L21
 168 0010 7047     		bx	lr
 169              	.L15:
 170 0012 9A42     		cmp	r2, r3
 171 0014 F7D9     		bls	.L20
ARM GAS  C:\Users\LAB_ME~1\AppData\Local\Temp\ccBm2uob.s 			page 4


 172              		.loc 1 171 0 is_stmt 1
 173 0016 9842     		cmp	r0, r3
 174 0018 F5D8     		bhi	.L20
 175 001a 7047     		bx	lr
 176              	.L21:
 177              		.loc 1 170 0
 178 001c 9842     		cmp	r0, r3
 179 001e F2D8     		bhi	.L20
 180 0020 7047     		bx	lr
 181              	.L23:
 182 0022 00BF     		.align	2
 183              	.L22:
 184 0024 001000E0 		.word	-536866816
 185              	.LBE5:
 186              	.LBE4:
 187              		.cfi_endproc
 188              	.LFE120:
 189              		.size	halPolledDelay, .-halPolledDelay
 190 0028 AFF30080 		.text
 190      AFF30080 
 191              	.Letext0:
 192              		.file 2 "c:\\program files (x86)\\codesourcery\\sourcery_codebench_lite_for_arm_eabi\\bin\\../lib/
 193              		.file 3 "../../os/ports/GCC/ARMCMx/chtypes.h"
 194              		.file 4 "../../os/ports/common/ARMCMx/nvic.h"
 195              		.file 5 "../../os/hal/platforms/STM32F4xx/hal_lld.h"
 196              		.file 6 "../../os/hal/platforms/STM32/GPIOv2/pal_lld.h"
 197              		.file 7 "../../os/ports/common/ARMCMx/CMSIS/include/core_cm4.h"
 198              		.file 8 "../../os/hal/include/adc.h"
 199              		.file 9 "../../os/hal/include/gpt.h"
 200              		.file 10 "../../os/hal/include/pwm.h"
 201              		.file 11 "../../os/hal/include/serial.h"
 202              		.file 12 "../../os/hal/include/uart.h"
 203              		.file 13 "../../boards/ST_STM32F4_DISCOVERY/board.h"