ARM GAS  C:\Users\LAB_ME~1\AppData\Local\Temp\ccgWVdhu.s 			page 1


   1              		.syntax unified
   2              		.cpu cortex-m4
   3              		.fpu softvfp
   4              		.eabi_attribute 20, 1
   5              		.eabi_attribute 21, 1
   6              		.eabi_attribute 23, 3
   7              		.eabi_attribute 24, 1
   8              		.eabi_attribute 25, 1
   9              		.eabi_attribute 26, 1
  10              		.eabi_attribute 30, 2
  11              		.eabi_attribute 34, 1
  12              		.eabi_attribute 18, 4
  13              		.thumb
  14              		.file	"testpools.c"
  15              		.text
  16              	.Ltext0:
  17              		.cfi_sections	.debug_frame
  18              		.section	.text.null_provider,"ax",%progbits
  19              		.align	2
  20              		.p2align 4,,15
  21              		.thumb
  22              		.thumb_func
  23              		.type	null_provider, %function
  24              	null_provider:
  25              	.LFB7:
  26              		.file 1 "../../test/testpools.c"
  27              		.loc 1 64 0
  28              		.cfi_startproc
  29              		@ args = 0, pretend = 0, frame = 0
  30              		@ frame_needed = 0, uses_anonymous_args = 0
  31              		@ link register save eliminated.
  32              	.LVL0:
  33              		.loc 1 68 0
  34 0000 0020     		movs	r0, #0
  35              	.LVL1:
  36 0002 7047     		bx	lr
  37              		.cfi_endproc
  38              	.LFE7:
  39              		.size	null_provider, .-null_provider
  40 0004 AFF30080 		.section	.text.pools1_setup,"ax",%progbits
  40      AFF30080 
  40      AFF30080 
  41              		.align	2
  42              		.p2align 4,,15
  43              		.thumb
  44              		.thumb_func
  45              		.type	pools1_setup, %function
  46              	pools1_setup:
  47              	.LFB8:
  48              		.loc 1 70 0
  49              		.cfi_startproc
  50              		@ args = 0, pretend = 0, frame = 0
  51              		@ frame_needed = 0, uses_anonymous_args = 0
  52              		@ link register save eliminated.
  53              		.loc 1 72 0
  54 0000 0248     		ldr	r0, .L3
  55 0002 4FF49871 		mov	r1, #304
ARM GAS  C:\Users\LAB_ME~1\AppData\Local\Temp\ccgWVdhu.s 			page 2


  56 0006 0022     		movs	r2, #0
  57              		.loc 1 73 0
  58              		.loc 1 72 0
  59 0008 FFF7FEBF 		b	chPoolInit
  60              	.LVL2:
  61              	.L4:
  62              		.align	2
  63              	.L3:
  64 000c 00000000 		.word	.LANCHOR0
  65              		.cfi_endproc
  66              	.LFE8:
  67              		.size	pools1_setup, .-pools1_setup
  68              		.section	.text.pools1_execute,"ax",%progbits
  69              		.align	2
  70              		.p2align 4,,15
  71              		.thumb
  72              		.thumb_func
  73              		.type	pools1_execute, %function
  74              	pools1_execute:
  75              	.LFB9:
  76              		.loc 1 75 0
  77              		.cfi_startproc
  78              		@ args = 0, pretend = 0, frame = 0
  79              		@ frame_needed = 0, uses_anonymous_args = 0
  80              		.loc 1 79 0
  81 0000 2D4B     		ldr	r3, .L18
  82 0002 2E48     		ldr	r0, .L18+4
  83              		.loc 1 75 0
  84 0004 70B5     		push	{r4, r5, r6, lr}
  85              	.LCFI0:
  86              		.cfi_def_cfa_offset 16
  87              		.cfi_offset 4, -16
  88              		.cfi_offset 5, -12
  89              		.cfi_offset 6, -8
  90              		.cfi_offset 14, -4
  91              		.loc 1 79 0
  92 0006 1D68     		ldr	r5, [r3, #0]
  93 0008 0522     		movs	r2, #5
  94 000a 2946     		mov	r1, r5
  95 000c FFF7FEFF 		bl	chPoolLoadArray
  96              	.LVL3:
  97 0010 0524     		movs	r4, #5
  98              	.LVL4:
  99              	.L8:
 100              		.loc 1 83 0
 101 0012 2A48     		ldr	r0, .L18+4
 102 0014 FFF7FEFF 		bl	chPoolAlloc
 103              	.LVL5:
 104 0018 011C     		adds	r1, r0, #0
 105 001a 18BF     		it	ne
 106 001c 0121     		movne	r1, #1
 107 001e 0120     		movs	r0, #1
 108 0020 FFF7FEFF 		bl	_test_assert
 109              	.LVL6:
 110 0024 0028     		cmp	r0, #0
 111 0026 35D1     		bne	.L5
 112              		.loc 1 82 0
ARM GAS  C:\Users\LAB_ME~1\AppData\Local\Temp\ccgWVdhu.s 			page 3


 113 0028 013C     		subs	r4, r4, #1
 114 002a F2D1     		bne	.L8
 115              		.loc 1 86 0
 116 002c 2348     		ldr	r0, .L18+4
 117 002e FFF7FEFF 		bl	chPoolAlloc
 118              	.LVL7:
 119 0032 D0F10101 		rsbs	r1, r0, #1
 120 0036 38BF     		it	cc
 121 0038 0021     		movcc	r1, #0
 122 003a 0220     		movs	r0, #2
 123 003c FFF7FEFF 		bl	_test_assert
 124              	.LVL8:
 125 0040 40BB     		cbnz	r0, .L5
 126 0042 1D4C     		ldr	r4, .L18
 127              	.LBB4:
 128              	.LBB5:
 129              		.loc 1 90 0
 130 0044 1D48     		ldr	r0, .L18+4
 131              	.LBE5:
 132              	.LBE4:
 133              		.loc 1 75 0
 134 0046 04F11006 		add	r6, r4, #16
 135              	.LBB8:
 136              	.LBB6:
 137              		.loc 1 90 0
 138 004a 2946     		mov	r1, r5
 139 004c FFF7FEFF 		bl	chPoolFree
 140              	.LVL9:
 141              		.loc 1 89 0
 142 0050 B442     		cmp	r4, r6
 143 0052 07D0     		beq	.L12
 144              	.L16:
 145 0054 54F8045F 		ldr	r5, [r4, #4]!
 146              		.loc 1 90 0
 147 0058 1848     		ldr	r0, .L18+4
 148 005a 2946     		mov	r1, r5
 149 005c FFF7FEFF 		bl	chPoolFree
 150              	.LVL10:
 151              		.loc 1 89 0
 152 0060 B442     		cmp	r4, r6
 153 0062 F7D1     		bne	.L16
 154              	.L12:
 155 0064 0524     		movs	r4, #5
 156              	.L10:
 157              		.loc 1 94 0
 158 0066 1548     		ldr	r0, .L18+4
 159 0068 FFF7FEFF 		bl	chPoolAlloc
 160              	.LVL11:
 161 006c 011C     		adds	r1, r0, #0
 162 006e 18BF     		it	ne
 163 0070 0121     		movne	r1, #1
 164 0072 0320     		movs	r0, #3
 165 0074 FFF7FEFF 		bl	_test_assert
 166              	.LVL12:
 167 0078 60B9     		cbnz	r0, .L5
 168              		.loc 1 93 0
 169 007a 013C     		subs	r4, r4, #1
ARM GAS  C:\Users\LAB_ME~1\AppData\Local\Temp\ccgWVdhu.s 			page 4


 170 007c F3D1     		bne	.L10
 171              		.loc 1 97 0
 172 007e 0F48     		ldr	r0, .L18+4
 173 0080 FFF7FEFF 		bl	chPoolAlloc
 174              	.LVL13:
 175 0084 D0F10101 		rsbs	r1, r0, #1
 176 0088 38BF     		it	cc
 177 008a 0021     		movcc	r1, #0
 178 008c 0420     		movs	r0, #4
 179 008e FFF7FEFF 		bl	_test_assert
 180              	.LVL14:
 181 0092 00B1     		cbz	r0, .L17
 182              	.L5:
 183 0094 70BD     		pop	{r4, r5, r6, pc}
 184              	.L17:
 185              		.loc 1 100 0
 186 0096 1021     		movs	r1, #16
 187 0098 094A     		ldr	r2, .L18+8
 188 009a 0848     		ldr	r0, .L18+4
 189 009c FFF7FEFF 		bl	chPoolInit
 190              	.LVL15:
 191              		.loc 1 101 0
 192 00a0 0648     		ldr	r0, .L18+4
 193 00a2 FFF7FEFF 		bl	chPoolAlloc
 194              	.LVL16:
 195 00a6 D0F10101 		rsbs	r1, r0, #1
 196 00aa 38BF     		it	cc
 197 00ac 0021     		movcc	r1, #0
 198 00ae 0520     		movs	r0, #5
 199              	.LBE6:
 200              	.LBE8:
 201              		.loc 1 102 0
 202 00b0 BDE87040 		pop	{r4, r5, r6, lr}
 203              	.LBB9:
 204              	.LBB7:
 205              		.loc 1 101 0
 206 00b4 FFF7FEBF 		b	_test_assert
 207              	.LVL17:
 208              	.L19:
 209              		.align	2
 210              	.L18:
 211 00b8 00000000 		.word	wa
 212 00bc 00000000 		.word	.LANCHOR0
 213 00c0 00000000 		.word	null_provider
 214              	.LBE7:
 215              	.LBE9:
 216              		.cfi_endproc
 217              	.LFE9:
 218              		.size	pools1_execute, .-pools1_execute
 219              		.global	patternpools
 220              		.global	testpools1
 221 00c4 AFF30080 		.section	.rodata.str1.4,"aMS",%progbits,1
 221      AFF30080 
 221      AFF30080 
 222              		.align	2
 223              	.LC0:
 224 0000 4D656D6F 		.ascii	"Memory Pools, queue/dequeue\000"
ARM GAS  C:\Users\LAB_ME~1\AppData\Local\Temp\ccgWVdhu.s 			page 5


 224      72792050 
 224      6F6F6C73 
 224      2C207175 
 224      6575652F 
 225              		.section	.rodata.patternpools,"a",%progbits
 226              		.align	2
 227              		.type	patternpools, %object
 228              		.size	patternpools, 8
 229              	patternpools:
 230 0000 00000000 		.word	testpools1
 231 0004 00000000 		.word	0
 232              		.section	.data.mp1,"aw",%progbits
 233              		.align	2
 234              		.set	.LANCHOR0,. + 0
 235              		.type	mp1, %object
 236              		.size	mp1, 12
 237              	mp1:
 238 0000 00000000 		.word	0
 239 0004 30010000 		.word	304
 240 0008 00000000 		.word	0
 241              		.section	.rodata.testpools1,"a",%progbits
 242              		.align	2
 243              		.type	testpools1, %object
 244              		.size	testpools1, 16
 245              	testpools1:
 246 0000 00000000 		.word	.LC0
 247 0004 00000000 		.word	pools1_setup
 248 0008 00000000 		.word	0
 249 000c 00000000 		.word	pools1_execute
 250              		.text
 251              	.Letext0:
 252              		.file 2 "c:\\program files (x86)\\codesourcery\\sourcery_codebench_lite_for_arm_eabi\\bin\\../lib/
 253              		.file 3 "c:\\program files (x86)\\codesourcery\\sourcery_codebench_lite_for_arm_eabi\\bin\\../lib/
 254              		.file 4 "../../os/ports/GCC/ARMCMx/chtypes.h"
 255              		.file 5 "../../os/kernel/include/chmemcore.h"
 256              		.file 6 "../../os/kernel/include/chmempools.h"
 257              		.file 7 "../../test/test.h"