ARM GAS  C:\Users\LAB_ME~1\AppData\Local\Temp\ccPnnEr8.s 			page 1


   1              		.syntax unified
   2              		.cpu cortex-m4
   3              		.fpu softvfp
   4              		.eabi_attribute 20, 1
   5              		.eabi_attribute 21, 1
   6              		.eabi_attribute 23, 3
   7              		.eabi_attribute 24, 1
   8              		.eabi_attribute 25, 1
   9              		.eabi_attribute 26, 1
  10              		.eabi_attribute 30, 2
  11              		.eabi_attribute 34, 1
  12              		.eabi_attribute 18, 4
  13              		.thumb
  14              		.file	"uart_lld.c"
  15              		.text
  16              	.Ltext0:
  17              		.cfi_sections	.debug_frame
  18              		.section	.text.set_rx_idle_loop,"ax",%progbits
  19              		.align	2
  20              		.p2align 4,,15
  21              		.thumb
  22              		.thumb_func
  23              		.type	set_rx_idle_loop, %function
  24              	set_rx_idle_loop:
  25              	.LFB119:
  26              		.file 1 "../../os/hal/platforms/STM32/USARTv1/uart_lld.c"
  27              		.loc 1 131 0
  28              		.cfi_startproc
  29              		@ args = 0, pretend = 0, frame = 0
  30              		@ frame_needed = 0, uses_anonymous_args = 0
  31              		@ link register save eliminated.
  32              	.LVL0:
  33              		.loc 1 136 0
  34 0000 4368     		ldr	r3, [r0, #4]
  35              		.loc 1 131 0
  36 0002 10B4     		push	{r4}
  37              	.LCFI0:
  38              		.cfi_def_cfa_offset 4
  39              		.cfi_offset 4, -4
  40              		.loc 1 140 0
  41 0004 0469     		ldr	r4, [r0, #16]
  42              		.loc 1 136 0
  43 0006 DA68     		ldr	r2, [r3, #12]
  44              		.loc 1 140 0
  45 0008 2368     		ldr	r3, [r4, #0]
  46 000a 00F11801 		add	r1, r0, #24
  47              		.loc 1 142 0
  48 000e C068     		ldr	r0, [r0, #12]
  49              	.LVL1:
  50              		.loc 1 140 0
  51 0010 D960     		str	r1, [r3, #12]
  52              		.loc 1 137 0
  53 0012 002A     		cmp	r2, #0
  54 0014 14BF     		ite	ne
  55 0016 4FF48872 		movne	r2, #272
  56 001a 4FF48072 		moveq	r2, #256
  57              	.LVL2:
ARM GAS  C:\Users\LAB_ME~1\AppData\Local\Temp\ccPnnEr8.s 			page 2


  58              		.loc 1 142 0
  59 001e 0243     		orrs	r2, r2, r0
  60              	.LVL3:
  61              		.loc 1 141 0
  62 0020 0121     		movs	r1, #1
  63              	.LVL4:
  64 0022 5960     		str	r1, [r3, #4]
  65              		.loc 1 142 0
  66 0024 1A60     		str	r2, [r3, #0]
  67              		.loc 1 143 0
  68 0026 1A68     		ldr	r2, [r3, #0]
  69 0028 0A43     		orrs	r2, r2, r1
  70 002a 1A60     		str	r2, [r3, #0]
  71              		.loc 1 144 0
  72 002c 10BC     		pop	{r4}
  73 002e 7047     		bx	lr
  74              		.cfi_endproc
  75              	.LFE119:
  76              		.size	set_rx_idle_loop, .-set_rx_idle_loop
  77              		.section	.text.usart_stop,"ax",%progbits
  78              		.align	2
  79              		.p2align 4,,15
  80              		.thumb
  81              		.thumb_func
  82              		.type	usart_stop, %function
  83              	usart_stop:
  84              	.LFB120:
  85              		.loc 1 152 0
  86              		.cfi_startproc
  87              		@ args = 0, pretend = 0, frame = 0
  88              		@ frame_needed = 0, uses_anonymous_args = 0
  89              		@ link register save eliminated.
  90              	.LVL5:
  91 0000 30B4     		push	{r4, r5}
  92              	.LCFI1:
  93              		.cfi_def_cfa_offset 8
  94              		.cfi_offset 4, -8
  95              		.cfi_offset 5, -4
  96              		.loc 1 155 0
  97 0002 0469     		ldr	r4, [r0, #16]
  98 0004 2268     		ldr	r2, [r4, #0]
  99 0006 1368     		ldr	r3, [r2, #0]
 100 0008 23F00103 		bic	r3, r3, #1
 101 000c 1360     		str	r3, [r2, #0]
 102              	.L5:
 103              		.loc 1 155 0 is_stmt 0 discriminator 1
 104 000e 1368     		ldr	r3, [r2, #0]
 105 0010 DB07     		lsls	r3, r3, #31
 106 0012 FCD4     		bmi	.L5
 107              		.loc 1 155 0 discriminator 2
 108 0014 257A     		ldrb	r5, [r4, #8]	@ zero_extendqisi2
 109              		.loc 1 156 0 is_stmt 1 discriminator 2
 110 0016 4169     		ldr	r1, [r0, #20]
 111              		.loc 1 155 0 discriminator 2
 112 0018 6368     		ldr	r3, [r4, #4]
 113              		.loc 1 156 0 discriminator 2
 114 001a 0A68     		ldr	r2, [r1, #0]
ARM GAS  C:\Users\LAB_ME~1\AppData\Local\Temp\ccPnnEr8.s 			page 3


 115              		.loc 1 155 0 discriminator 2
 116 001c 3D24     		movs	r4, #61
 117 001e 04FA05F4 		lsl	r4, r4, r5
 118 0022 1C60     		str	r4, [r3, #0]
 119              		.loc 1 156 0 discriminator 2
 120 0024 1368     		ldr	r3, [r2, #0]
 121 0026 23F00103 		bic	r3, r3, #1
 122 002a 1360     		str	r3, [r2, #0]
 123              	.L6:
 124              		.loc 1 156 0 is_stmt 0 discriminator 1
 125 002c 1368     		ldr	r3, [r2, #0]
 126 002e 13F00103 		ands	r3, r3, #1
 127 0032 FBD1     		bne	.L6
 128              		.loc 1 156 0 discriminator 2
 129 0034 0C7A     		ldrb	r4, [r1, #8]	@ zero_extendqisi2
 130              		.loc 1 159 0 is_stmt 1 discriminator 2
 131 0036 8268     		ldr	r2, [r0, #8]
 132              		.loc 1 156 0 discriminator 2
 133 0038 4968     		ldr	r1, [r1, #4]
 134 003a 3D20     		movs	r0, #61
 135              	.LVL6:
 136 003c 00FA04F0 		lsl	r0, r0, r4
 137 0040 0860     		str	r0, [r1, #0]
 138              		.loc 1 159 0 discriminator 2
 139 0042 9381     		strh	r3, [r2, #12]	@ movhi
 140              		.loc 1 160 0 discriminator 2
 141 0044 1382     		strh	r3, [r2, #16]	@ movhi
 142              		.loc 1 161 0 discriminator 2
 143 0046 9382     		strh	r3, [r2, #20]	@ movhi
 144              		.loc 1 162 0 discriminator 2
 145 0048 30BC     		pop	{r4, r5}
 146 004a 7047     		bx	lr
 147              		.cfi_endproc
 148              	.LFE120:
 149              		.size	usart_stop, .-usart_stop
 150 004c AFF30080 		.section	.text.uart_lld_serve_tx_end_irq,"ax",%progbits
 151              		.align	2
 152              		.p2align 4,,15
 153              		.thumb
 154              		.thumb_func
 155              		.type	uart_lld_serve_tx_end_irq, %function
 156              	uart_lld_serve_tx_end_irq:
 157              	.LFB123:
 158              		.loc 1 254 0
 159              		.cfi_startproc
 160              		@ args = 0, pretend = 0, frame = 0
 161              		@ frame_needed = 0, uses_anonymous_args = 0
 162              	.LVL7:
 163              		.loc 1 258 0
 164 0000 11F00C0F 		tst	r1, #12
 165              		.loc 1 254 0
 166 0004 10B5     		push	{r4, lr}
 167              	.LCFI2:
 168              		.cfi_def_cfa_offset 8
 169              		.cfi_offset 4, -8
 170              		.cfi_offset 14, -4
 171              		.loc 1 254 0
ARM GAS  C:\Users\LAB_ME~1\AppData\Local\Temp\ccPnnEr8.s 			page 4


 172 0006 0446     		mov	r4, r0
 173              		.loc 1 258 0
 174 0008 1CD1     		bne	.L23
 175              	.LVL8:
 176              	.L11:
 177              		.loc 1 265 0
 178 000a 6169     		ldr	r1, [r4, #20]
 179 000c 0A68     		ldr	r2, [r1, #0]
 180 000e 1368     		ldr	r3, [r2, #0]
 181 0010 23F00103 		bic	r3, r3, #1
 182 0014 1360     		str	r3, [r2, #0]
 183              	.L12:
 184              		.loc 1 265 0 is_stmt 0 discriminator 1
 185 0016 1368     		ldr	r3, [r2, #0]
 186 0018 D807     		lsls	r0, r3, #31
 187 001a FCD4     		bmi	.L12
 188              		.loc 1 265 0 discriminator 2
 189 001c 087A     		ldrb	r0, [r1, #8]	@ zero_extendqisi2
 190              		.loc 1 269 0 is_stmt 1 discriminator 2
 191 001e 6368     		ldr	r3, [r4, #4]
 192              		.loc 1 265 0 discriminator 2
 193 0020 4A68     		ldr	r2, [r1, #4]
 194              		.loc 1 269 0 discriminator 2
 195 0022 1B68     		ldr	r3, [r3, #0]
 196              		.loc 1 265 0 discriminator 2
 197 0024 3D21     		movs	r1, #61
 198 0026 01FA00F1 		lsl	r1, r1, r0
 199 002a 1160     		str	r1, [r2, #0]
 200              		.loc 1 268 0 discriminator 2
 201 002c 0222     		movs	r2, #2
 202 002e 6270     		strb	r2, [r4, #1]
 203              		.loc 1 269 0 discriminator 2
 204 0030 2BB1     		cbz	r3, .L15
 205              		.loc 1 270 0
 206 0032 2046     		mov	r0, r4
 207 0034 9847     		blx	r3
 208              	.LVL9:
 209              		.loc 1 274 0
 210 0036 6378     		ldrb	r3, [r4, #1]	@ zero_extendqisi2
 211 0038 022B     		cmp	r3, #2
 212 003a 00D0     		beq	.L15
 213 003c 10BD     		pop	{r4, pc}
 214              	.L15:
 215              		.loc 1 275 0
 216 003e 0023     		movs	r3, #0
 217 0040 6370     		strb	r3, [r4, #1]
 218 0042 10BD     		pop	{r4, pc}
 219              	.LVL10:
 220              	.L23:
 221              		.loc 1 259 0
 222 0044 FFF7FEFF 		bl	port_halt
 223              	.LVL11:
 224 0048 DFE7     		b	.L11
 225              		.cfi_endproc
 226              	.LFE123:
 227              		.size	uart_lld_serve_tx_end_irq, .-uart_lld_serve_tx_end_irq
 228 004a 00BFAFF3 		.section	.text.uart_lld_serve_rx_end_irq,"ax",%progbits
ARM GAS  C:\Users\LAB_ME~1\AppData\Local\Temp\ccPnnEr8.s 			page 5


 228      0080
 229              		.align	2
 230              		.p2align 4,,15
 231              		.thumb
 232              		.thumb_func
 233              		.type	uart_lld_serve_rx_end_irq, %function
 234              	uart_lld_serve_rx_end_irq:
 235              	.LFB122:
 236              		.loc 1 214 0
 237              		.cfi_startproc
 238              		@ args = 0, pretend = 0, frame = 0
 239              		@ frame_needed = 0, uses_anonymous_args = 0
 240              	.LVL12:
 241              		.loc 1 218 0
 242 0000 11F00C0F 		tst	r1, #12
 243              		.loc 1 214 0
 244 0004 10B5     		push	{r4, lr}
 245              	.LCFI3:
 246              		.cfi_def_cfa_offset 8
 247              		.cfi_offset 4, -8
 248              		.cfi_offset 14, -4
 249              		.loc 1 214 0
 250 0006 0446     		mov	r4, r0
 251              		.loc 1 218 0
 252 0008 23D1     		bne	.L40
 253              	.LVL13:
 254              	.L25:
 255              		.loc 1 225 0
 256 000a A378     		ldrb	r3, [r4, #2]	@ zero_extendqisi2
 257 000c 3BB9     		cbnz	r3, .L26
 258              		.loc 1 228 0
 259 000e 6368     		ldr	r3, [r4, #4]
 260 0010 DB68     		ldr	r3, [r3, #12]
 261 0012 EBB1     		cbz	r3, .L24
 262              		.loc 1 229 0
 263 0014 218B     		ldrh	r1, [r4, #24]
 264 0016 2046     		mov	r0, r4
 265 0018 89B2     		uxth	r1, r1
 266 001a 9847     		blx	r3
 267              	.LVL14:
 268 001c 10BD     		pop	{r4, pc}
 269              	.L26:
 270              	.LVL15:
 271              	.LBB4:
 272              	.LBB5:
 273              		.loc 1 234 0
 274 001e 2169     		ldr	r1, [r4, #16]
 275 0020 0A68     		ldr	r2, [r1, #0]
 276 0022 1368     		ldr	r3, [r2, #0]
 277 0024 23F00103 		bic	r3, r3, #1
 278 0028 1360     		str	r3, [r2, #0]
 279              	.L29:
 280 002a 1368     		ldr	r3, [r2, #0]
 281 002c DB07     		lsls	r3, r3, #31
 282 002e FCD4     		bmi	.L29
 283 0030 087A     		ldrb	r0, [r1, #8]	@ zero_extendqisi2
 284              		.loc 1 236 0
ARM GAS  C:\Users\LAB_ME~1\AppData\Local\Temp\ccPnnEr8.s 			page 6


 285 0032 6368     		ldr	r3, [r4, #4]
 286              		.loc 1 234 0
 287 0034 4A68     		ldr	r2, [r1, #4]
 288              		.loc 1 236 0
 289 0036 9B68     		ldr	r3, [r3, #8]
 290              		.loc 1 234 0
 291 0038 3D21     		movs	r1, #61
 292 003a 01FA00F1 		lsl	r1, r1, r0
 293 003e 1160     		str	r1, [r2, #0]
 294              		.loc 1 235 0
 295 0040 0222     		movs	r2, #2
 296 0042 A270     		strb	r2, [r4, #2]
 297              		.loc 1 236 0
 298 0044 43B1     		cbz	r3, .L31
 299              		.loc 1 237 0
 300 0046 2046     		mov	r0, r4
 301 0048 9847     		blx	r3
 302              	.LVL16:
 303              		.loc 1 241 0
 304 004a A378     		ldrb	r3, [r4, #2]	@ zero_extendqisi2
 305 004c 022B     		cmp	r3, #2
 306 004e 03D0     		beq	.L31
 307              	.LVL17:
 308              	.L24:
 309 0050 10BD     		pop	{r4, pc}
 310              	.LVL18:
 311              	.L40:
 312              	.LBE5:
 313              	.LBE4:
 314              		.loc 1 219 0
 315 0052 FFF7FEFF 		bl	port_halt
 316              	.LVL19:
 317 0056 D8E7     		b	.L25
 318              	.LVL20:
 319              	.L31:
 320              	.LBB8:
 321              	.LBB6:
 322              		.loc 1 242 0
 323 0058 0023     		movs	r3, #0
 324              		.loc 1 243 0
 325 005a 2046     		mov	r0, r4
 326              		.loc 1 242 0
 327 005c A370     		strb	r3, [r4, #2]
 328              	.LBE6:
 329              	.LBE8:
 330              		.loc 1 246 0
 331 005e BDE81040 		pop	{r4, lr}
 332              	.LBB9:
 333              	.LBB7:
 334              		.loc 1 243 0
 335 0062 FFF7FEBF 		b	set_rx_idle_loop
 336              	.LVL21:
 337              	.LBE7:
 338              	.LBE9:
 339              		.cfi_endproc
 340              	.LFE122:
 341              		.size	uart_lld_serve_rx_end_irq, .-uart_lld_serve_rx_end_irq
ARM GAS  C:\Users\LAB_ME~1\AppData\Local\Temp\ccPnnEr8.s 			page 7


 342 0066 00BFAFF3 		.section	.text.VectorD8,"ax",%progbits
 342      0080AFF3 
 342      0080
 343              		.align	2
 344              		.p2align 4,,15
 345              		.global	VectorD8
 346              		.thumb
 347              		.thumb_func
 348              		.type	VectorD8, %function
 349              	VectorD8:
 350              	.LFB125:
 351              		.loc 1 336 0
 352              		.cfi_startproc
 353              		@ args = 0, pretend = 0, frame = 0
 354              		@ frame_needed = 0, uses_anonymous_args = 0
 355              	.LVL22:
 356 0000 70B5     		push	{r4, r5, r6, lr}
 357              	.LCFI4:
 358              		.cfi_def_cfa_offset 16
 359              		.cfi_offset 4, -16
 360              		.cfi_offset 5, -12
 361              		.cfi_offset 6, -8
 362              		.cfi_offset 14, -4
 363              	.LBB14:
 364              	.LBB15:
 365              		.loc 1 285 0
 366 0002 1F4E     		ldr	r6, .L73
 367 0004 B568     		ldr	r5, [r6, #8]
 368              	.LVL23:
 369              		.loc 1 287 0
 370 0006 2C88     		ldrh	r4, [r5, #0]
 371              		.loc 1 288 0
 372 0008 AB88     		ldrh	r3, [r5, #4]
 373              		.loc 1 287 0
 374 000a A4B2     		uxth	r4, r4
 375              	.LVL24:
 376              		.loc 1 289 0
 377 000c 40F20F13 		movw	r3, #271
 378 0010 2340     		ands	r3, r3, r4
 379 0012 13B3     		cbz	r3, .L43
 380              		.loc 1 292 0
 381 0014 7368     		ldr	r3, [r6, #4]
 382 0016 1B69     		ldr	r3, [r3, #16]
 383              		.loc 1 291 0
 384 0018 4FF6FF62 		movw	r2, #65279
 385 001c 2A80     		strh	r2, [r5, #0]	@ movhi
 386              		.loc 1 292 0
 387 001e E3B1     		cbz	r3, .L43
 388              	.LVL25:
 389              	.LBB16:
 390              	.LBB17:
 391              		.loc 1 113 0
 392 0020 04F00801 		and	r1, r4, #8
 393 0024 89B2     		uxth	r1, r1
 394              		.loc 1 114 0
 395 0026 0029     		cmp	r1, #0
 396 0028 14BF     		ite	ne
ARM GAS  C:\Users\LAB_ME~1\AppData\Local\Temp\ccPnnEr8.s 			page 8


 397 002a 1021     		movne	r1, #16
 398 002c 0021     		moveq	r1, #0
 399              	.LVL26:
 400              		.loc 1 115 0
 401 002e E207     		lsls	r2, r4, #31
 402              		.loc 1 117 0
 403 0030 04F00202 		and	r2, r4, #2
 404 0034 92B2     		uxth	r2, r2
 405              		.loc 1 116 0
 406 0036 48BF     		it	mi
 407 0038 41F00401 		orrmi	r1, r1, #4
 408              	.LVL27:
 409              		.loc 1 117 0
 410 003c 0AB1     		cbz	r2, .L47
 411              		.loc 1 118 0
 412 003e 41F00801 		orr	r1, r1, #8
 413              	.LVL28:
 414              	.L47:
 415              		.loc 1 119 0
 416 0042 04F00402 		and	r2, r4, #4
 417 0046 92B2     		uxth	r2, r2
 418 0048 BAB9     		cbnz	r2, .L72
 419              	.L48:
 420              		.loc 1 121 0
 421 004a 04F48072 		and	r2, r4, #256
 422 004e 92B2     		uxth	r2, r2
 423 0050 0AB1     		cbz	r2, .L49
 424              		.loc 1 122 0
 425 0052 41F04001 		orr	r1, r1, #64
 426              	.LVL29:
 427              	.L49:
 428              	.LBE17:
 429              	.LBE16:
 430              		.loc 1 293 0
 431 0056 0A48     		ldr	r0, .L73
 432 0058 9847     		blx	r3
 433              	.LVL30:
 434              	.L43:
 435              		.loc 1 295 0
 436 005a 04F04004 		and	r4, r4, #64
 437              	.LVL31:
 438 005e A4B2     		uxth	r4, r4
 439 0060 3CB1     		cbz	r4, .L51
 440              		.loc 1 299 0
 441 0062 7368     		ldr	r3, [r6, #4]
 442 0064 5B68     		ldr	r3, [r3, #4]
 443              		.loc 1 296 0
 444 0066 4FF6BF72 		movw	r2, #65471
 445 006a 2A80     		strh	r2, [r5, #0]	@ movhi
 446              		.loc 1 299 0
 447 006c 0BB1     		cbz	r3, .L51
 448              		.loc 1 300 0
 449 006e 0448     		ldr	r0, .L73
 450 0070 9847     		blx	r3
 451              	.LVL32:
 452              	.L51:
 453              	.LBE15:
ARM GAS  C:\Users\LAB_ME~1\AppData\Local\Temp\ccPnnEr8.s 			page 9


 454              	.LBE14:
 455              		.loc 1 343 0
 456 0072 BDE87040 		pop	{r4, r5, r6, lr}
 457              		.loc 1 342 0
 458 0076 FFF7FEBF 		b	_port_irq_epilogue
 459              	.LVL33:
 460              	.L72:
 461              	.LBB21:
 462              	.LBB20:
 463              	.LBB19:
 464              	.LBB18:
 465              		.loc 1 120 0
 466 007a 41F02001 		orr	r1, r1, #32
 467              	.LVL34:
 468 007e E4E7     		b	.L48
 469              	.L74:
 470              		.align	2
 471              	.L73:
 472 0080 00000000 		.word	.LANCHOR0
 473              	.LBE18:
 474              	.LBE19:
 475              	.LBE20:
 476              	.LBE21:
 477              		.cfi_endproc
 478              	.LFE125:
 479              		.size	VectorD8, .-VectorD8
 480 0084 AFF30080 		.section	.text.uart_lld_init,"ax",%progbits
 480      AFF30080 
 480      AFF30080 
 481              		.align	2
 482              		.p2align 4,,15
 483              		.global	uart_lld_init
 484              		.thumb
 485              		.thumb_func
 486              		.type	uart_lld_init, %function
 487              	uart_lld_init:
 488              	.LFB126:
 489              		.loc 1 393 0
 490              		.cfi_startproc
 491              		@ args = 0, pretend = 0, frame = 0
 492              		@ frame_needed = 0, uses_anonymous_args = 0
 493 0000 10B5     		push	{r4, lr}
 494              	.LCFI5:
 495              		.cfi_def_cfa_offset 8
 496              		.cfi_offset 4, -8
 497              		.cfi_offset 14, -4
 498              		.loc 1 404 0
 499 0002 064C     		ldr	r4, .L76
 500 0004 2046     		mov	r0, r4
 501 0006 FFF7FEFF 		bl	uartObjectInit
 502              	.LVL35:
 503              		.loc 1 407 0
 504 000a 054B     		ldr	r3, .L76+4
 505              		.loc 1 405 0
 506 000c 054A     		ldr	r2, .L76+8
 507              		.loc 1 407 0
 508 000e 2361     		str	r3, [r4, #16]
ARM GAS  C:\Users\LAB_ME~1\AppData\Local\Temp\ccPnnEr8.s 			page 10


 509              		.loc 1 405 0
 510 0010 A260     		str	r2, [r4, #8]
 511              		.loc 1 408 0
 512 0012 0C33     		adds	r3, r3, #12
 513              		.loc 1 406 0
 514 0014 0622     		movs	r2, #6
 515 0016 E260     		str	r2, [r4, #12]
 516              		.loc 1 408 0
 517 0018 6361     		str	r3, [r4, #20]
 518 001a 10BD     		pop	{r4, pc}
 519              	.L77:
 520              		.align	2
 521              	.L76:
 522 001c 00000000 		.word	.LANCHOR0
 523 0020 3C000000 		.word	_stm32_dma_streams+60
 524 0024 00440040 		.word	1073759232
 525              		.cfi_endproc
 526              	.LFE126:
 527              		.size	uart_lld_init, .-uart_lld_init
 528 0028 AFF30080 		.section	.text.uart_lld_start,"ax",%progbits
 528      AFF30080 
 529              		.align	2
 530              		.p2align 4,,15
 531              		.global	uart_lld_start
 532              		.thumb
 533              		.thumb_func
 534              		.type	uart_lld_start, %function
 535              	uart_lld_start:
 536              	.LFB127:
 537              		.loc 1 434 0
 538              		.cfi_startproc
 539              		@ args = 0, pretend = 0, frame = 0
 540              		@ frame_needed = 0, uses_anonymous_args = 0
 541              	.LVL36:
 542 0000 F8B5     		push	{r3, r4, r5, r6, r7, lr}
 543              	.LCFI6:
 544              		.cfi_def_cfa_offset 24
 545              		.cfi_offset 3, -24
 546              		.cfi_offset 4, -20
 547              		.cfi_offset 5, -16
 548              		.cfi_offset 6, -12
 549              		.cfi_offset 7, -8
 550              		.cfi_offset 14, -4
 551              		.loc 1 436 0
 552 0002 0378     		ldrb	r3, [r0, #0]	@ zero_extendqisi2
 553 0004 012B     		cmp	r3, #1
 554              		.loc 1 434 0
 555 0006 0446     		mov	r4, r0
 556              		.loc 1 436 0
 557 0008 30D0     		beq	.L88
 558 000a 8568     		ldr	r5, [r0, #8]
 559              	.LVL37:
 560              	.L79:
 561              		.loc 1 530 0
 562 000c 0023     		movs	r3, #0
 563 000e A370     		strb	r3, [r4, #2]
 564              		.loc 1 531 0
ARM GAS  C:\Users\LAB_ME~1\AppData\Local\Temp\ccPnnEr8.s 			page 11


 565 0010 6370     		strb	r3, [r4, #1]
 566              	.LVL38:
 567              	.LBB25:
 568              	.LBB26:
 569              		.loc 1 175 0
 570 0012 2046     		mov	r0, r4
 571 0014 FFF7FEFF 		bl	usart_stop
 572              	.LVL39:
 573              		.loc 1 179 0
 574 0018 A368     		ldr	r3, [r4, #8]
 575 001a 324A     		ldr	r2, .L91
 576 001c 9342     		cmp	r3, r2
 577 001e 3AD0     		beq	.L82
 578 0020 02F58062 		add	r2, r2, #1024
 579 0024 9342     		cmp	r3, r2
 580 0026 36D0     		beq	.L82
 581              		.loc 1 185 0
 582 0028 6368     		ldr	r3, [r4, #4]
 583 002a 2F49     		ldr	r1, .L91+4
 584 002c 5A69     		ldr	r2, [r3, #20]
 585 002e B1FBF2F2 		udiv	r2, r1, r2
 586 0032 2A81     		strh	r2, [r5, #8]	@ movhi
 587              	.L84:
 588              		.loc 1 197 0
 589 0034 5F68     		ldr	r7, [r3, #4]
 590              		.loc 1 202 0
 591 0036 188B     		ldrh	r0, [r3, #24]
 592              		.loc 1 194 0
 593 0038 598B     		ldrh	r1, [r3, #26]
 594              		.loc 1 195 0
 595 003a 9A8B     		ldrh	r2, [r3, #28]
 596              		.loc 1 188 0
 597 003c 2B88     		ldrh	r3, [r5, #0]
 598              		.loc 1 189 0
 599 003e AB88     		ldrh	r3, [r5, #4]
 600              		.loc 1 198 0
 601 0040 42F20C16 		movw	r6, #8460
 602 0044 42F24C13 		movw	r3, #8524
 603 0048 002F     		cmp	r7, #0
 604 004a 08BF     		it	eq
 605 004c 3346     		moveq	r3, r6
 606              	.LVL40:
 607              		.loc 1 202 0
 608 004e 0343     		orrs	r3, r3, r0
 609              	.LVL41:
 610              		.loc 1 190 0
 611 0050 0020     		movs	r0, #0
 612 0052 2880     		strh	r0, [r5, #0]	@ movhi
 613              		.loc 1 194 0
 614 0054 41F04001 		orr	r1, r1, #64
 615              		.loc 1 195 0
 616 0058 42F0C102 		orr	r2, r2, #193
 617              		.loc 1 205 0
 618 005c 2046     		mov	r0, r4
 619              		.loc 1 194 0
 620 005e 2982     		strh	r1, [r5, #16]	@ movhi
 621              		.loc 1 195 0
ARM GAS  C:\Users\LAB_ME~1\AppData\Local\Temp\ccPnnEr8.s 			page 12


 622 0060 AA82     		strh	r2, [r5, #20]	@ movhi
 623              		.loc 1 202 0
 624 0062 AB81     		strh	r3, [r5, #12]	@ movhi
 625              	.LBE26:
 626              	.LBE25:
 627              		.loc 1 533 0
 628 0064 BDE8F840 		pop	{r3, r4, r5, r6, r7, lr}
 629              	.LBB29:
 630              	.LBB27:
 631              		.loc 1 205 0
 632 0068 FFF7FEBF 		b	set_rx_idle_loop
 633              	.LVL42:
 634              	.L88:
 635              	.LBE27:
 636              	.LBE29:
 637              		.loc 1 459 0
 638 006c 1F4B     		ldr	r3, .L91+8
 639 006e 9842     		cmp	r0, r3
 640 0070 1DD0     		beq	.L89
 641              	.LVL43:
 642              	.L80:
 643              		.loc 1 523 0
 644 0072 6368     		ldr	r3, [r4, #4]
 645 0074 1B8B     		ldrh	r3, [r3, #24]
 646 0076 03F4A053 		and	r3, r3, #5120
 647 007a B3F5805F 		cmp	r3, #4096
 648 007e 11D0     		beq	.L90
 649              	.L81:
 650              		.loc 1 525 0
 651 0080 2269     		ldr	r2, [r4, #16]
 652              		.loc 1 526 0
 653 0082 6369     		ldr	r3, [r4, #20]
 654              		.loc 1 525 0
 655 0084 A568     		ldr	r5, [r4, #8]
 656 0086 1168     		ldr	r1, [r2, #0]
 657              		.loc 1 526 0
 658 0088 1A68     		ldr	r2, [r3, #0]
 659              		.loc 1 525 0
 660 008a 2B1D     		adds	r3, r5, #4
 661 008c 8B60     		str	r3, [r1, #8]
 662              		.loc 1 526 0
 663 008e 9360     		str	r3, [r2, #8]
 664              		.loc 1 527 0
 665 0090 0023     		movs	r3, #0
 666 0092 2383     		strh	r3, [r4, #24]	@ movhi
 667 0094 BAE7     		b	.L79
 668              	.LVL44:
 669              	.L82:
 670              	.LBB30:
 671              	.LBB28:
 672              		.loc 1 183 0
 673 0096 6368     		ldr	r3, [r4, #4]
 674 0098 1549     		ldr	r1, .L91+12
 675 009a 5A69     		ldr	r2, [r3, #20]
 676 009c B1FBF2F2 		udiv	r2, r1, r2
 677 00a0 2A81     		strh	r2, [r5, #8]	@ movhi
 678 00a2 C7E7     		b	.L84
ARM GAS  C:\Users\LAB_ME~1\AppData\Local\Temp\ccPnnEr8.s 			page 13


 679              	.LVL45:
 680              	.L90:
 681              	.LBE28:
 682              	.LBE30:
 683              		.loc 1 524 0
 684 00a4 E368     		ldr	r3, [r4, #12]
 685 00a6 43F42053 		orr	r3, r3, #10240
 686 00aa E360     		str	r3, [r4, #12]
 687 00ac E8E7     		b	.L81
 688              	.LVL46:
 689              	.L89:
 690              	.LBB31:
 691              		.loc 1 461 0
 692 00ae 0C21     		movs	r1, #12
 693 00b0 104A     		ldr	r2, .L91+16
 694 00b2 0069     		ldr	r0, [r0, #16]
 695              	.LVL47:
 696 00b4 2346     		mov	r3, r4
 697 00b6 FFF7FEFF 		bl	dmaStreamAllocate
 698              	.LVL48:
 699              		.loc 1 466 0
 700 00ba 0C21     		movs	r1, #12
 701 00bc 0E4A     		ldr	r2, .L91+20
 702 00be 6069     		ldr	r0, [r4, #20]
 703 00c0 2346     		mov	r3, r4
 704 00c2 FFF7FEFF 		bl	dmaStreamAllocate
 705              	.LVL49:
 706              		.loc 1 471 0
 707 00c6 0D4B     		ldr	r3, .L91+24
 708 00c8 1A6C     		ldr	r2, [r3, #64]
 709 00ca 42F40032 		orr	r2, r2, #131072
 710 00ce 1A64     		str	r2, [r3, #64]
 711              		.loc 1 472 0
 712 00d0 2620     		movs	r0, #38
 713 00d2 C021     		movs	r1, #192
 714 00d4 FFF7FEFF 		bl	nvicEnableVector
 715              	.LVL50:
 716              		.loc 1 474 0
 717 00d8 E368     		ldr	r3, [r4, #12]
 718 00da 43F00063 		orr	r3, r3, #134217728
 719 00de E360     		str	r3, [r4, #12]
 720 00e0 C7E7     		b	.L80
 721              	.L92:
 722 00e2 00BF     		.align	2
 723              	.L91:
 724 00e4 00100140 		.word	1073811456
 725 00e8 80DE8002 		.word	42000000
 726 00ec 00000000 		.word	.LANCHOR0
 727 00f0 00BD0105 		.word	84000000
 728 00f4 00000000 		.word	uart_lld_serve_rx_end_irq
 729 00f8 00000000 		.word	uart_lld_serve_tx_end_irq
 730 00fc 00380240 		.word	1073887232
 731              	.LBE31:
 732              		.cfi_endproc
 733              	.LFE127:
 734              		.size	uart_lld_start, .-uart_lld_start
 735              		.section	.text.uart_lld_stop,"ax",%progbits
ARM GAS  C:\Users\LAB_ME~1\AppData\Local\Temp\ccPnnEr8.s 			page 14


 736              		.align	2
 737              		.p2align 4,,15
 738              		.global	uart_lld_stop
 739              		.thumb
 740              		.thumb_func
 741              		.type	uart_lld_stop, %function
 742              	uart_lld_stop:
 743              	.LFB128:
 744              		.loc 1 542 0
 745              		.cfi_startproc
 746              		@ args = 0, pretend = 0, frame = 0
 747              		@ frame_needed = 0, uses_anonymous_args = 0
 748              	.LVL51:
 749              		.loc 1 544 0
 750 0000 0378     		ldrb	r3, [r0, #0]	@ zero_extendqisi2
 751 0002 022B     		cmp	r3, #2
 752              		.loc 1 542 0
 753 0004 10B5     		push	{r4, lr}
 754              	.LCFI7:
 755              		.cfi_def_cfa_offset 8
 756              		.cfi_offset 4, -8
 757              		.cfi_offset 14, -4
 758              		.loc 1 542 0
 759 0006 0446     		mov	r4, r0
 760              		.loc 1 544 0
 761 0008 00D0     		beq	.L97
 762              	.LVL52:
 763              	.L93:
 764 000a 10BD     		pop	{r4, pc}
 765              	.LVL53:
 766              	.L97:
 767              		.loc 1 545 0
 768 000c FFF7FEFF 		bl	usart_stop
 769              	.LVL54:
 770              		.loc 1 546 0
 771 0010 2069     		ldr	r0, [r4, #16]
 772 0012 FFF7FEFF 		bl	dmaStreamRelease
 773              	.LVL55:
 774              		.loc 1 547 0
 775 0016 6069     		ldr	r0, [r4, #20]
 776 0018 FFF7FEFF 		bl	dmaStreamRelease
 777              	.LVL56:
 778              		.loc 1 558 0
 779 001c 054B     		ldr	r3, .L98
 780 001e 9C42     		cmp	r4, r3
 781 0020 F3D1     		bne	.L93
 782              		.loc 1 559 0
 783 0022 2620     		movs	r0, #38
 784 0024 FFF7FEFF 		bl	nvicDisableVector
 785              	.LVL57:
 786              		.loc 1 560 0
 787 0028 034B     		ldr	r3, .L98+4
 788 002a 1A6C     		ldr	r2, [r3, #64]
 789 002c 22F40032 		bic	r2, r2, #131072
 790 0030 1A64     		str	r2, [r3, #64]
 791              		.loc 1 561 0
 792 0032 EAE7     		b	.L93
ARM GAS  C:\Users\LAB_ME~1\AppData\Local\Temp\ccPnnEr8.s 			page 15


 793              	.L99:
 794              		.align	2
 795              	.L98:
 796 0034 00000000 		.word	.LANCHOR0
 797 0038 00380240 		.word	1073887232
 798              		.cfi_endproc
 799              	.LFE128:
 800              		.size	uart_lld_stop, .-uart_lld_stop
 801 003c AFF30080 		.section	.text.uart_lld_start_send,"ax",%progbits
 802              		.align	2
 803              		.p2align 4,,15
 804              		.global	uart_lld_start_send
 805              		.thumb
 806              		.thumb_func
 807              		.type	uart_lld_start_send, %function
 808              	uart_lld_start_send:
 809              	.LFB129:
 810              		.loc 1 594 0
 811              		.cfi_startproc
 812              		@ args = 0, pretend = 0, frame = 0
 813              		@ frame_needed = 0, uses_anonymous_args = 0
 814              		@ link register save eliminated.
 815              	.LVL58:
 816              		.loc 1 597 0
 817 0000 4369     		ldr	r3, [r0, #20]
 818              		.loc 1 599 0
 819 0002 C068     		ldr	r0, [r0, #12]
 820              	.LVL59:
 821              		.loc 1 597 0
 822 0004 1B68     		ldr	r3, [r3, #0]
 823              		.loc 1 599 0
 824 0006 40F48A60 		orr	r0, r0, #1104
 825              		.loc 1 597 0
 826 000a DA60     		str	r2, [r3, #12]
 827              		.loc 1 598 0
 828 000c 5960     		str	r1, [r3, #4]
 829              		.loc 1 599 0
 830 000e 1860     		str	r0, [r3, #0]
 831              		.loc 1 601 0
 832 0010 1A68     		ldr	r2, [r3, #0]
 833              	.LVL60:
 834 0012 42F00102 		orr	r2, r2, #1
 835 0016 1A60     		str	r2, [r3, #0]
 836 0018 7047     		bx	lr
 837              		.cfi_endproc
 838              	.LFE129:
 839              		.size	uart_lld_start_send, .-uart_lld_start_send
 840 001a 00BFAFF3 		.section	.text.uart_lld_stop_send,"ax",%progbits
 840      0080
 841              		.align	2
 842              		.p2align 4,,15
 843              		.global	uart_lld_stop_send
 844              		.thumb
 845              		.thumb_func
 846              		.type	uart_lld_stop_send, %function
 847              	uart_lld_stop_send:
 848              	.LFB130:
ARM GAS  C:\Users\LAB_ME~1\AppData\Local\Temp\ccPnnEr8.s 			page 16


 849              		.loc 1 615 0
 850              		.cfi_startproc
 851              		@ args = 0, pretend = 0, frame = 0
 852              		@ frame_needed = 0, uses_anonymous_args = 0
 853              		@ link register save eliminated.
 854              	.LVL61:
 855              		.loc 1 617 0
 856 0000 4169     		ldr	r1, [r0, #20]
 857 0002 0A68     		ldr	r2, [r1, #0]
 858 0004 1368     		ldr	r3, [r2, #0]
 859 0006 23F00103 		bic	r3, r3, #1
 860 000a 1360     		str	r3, [r2, #0]
 861              	.LVL62:
 862              	.L102:
 863              		.loc 1 617 0 is_stmt 0 discriminator 1
 864 000c 1368     		ldr	r3, [r2, #0]
 865 000e D807     		lsls	r0, r3, #31
 866 0010 FCD4     		bmi	.L102
 867              		.loc 1 617 0 discriminator 2
 868 0012 087A     		ldrb	r0, [r1, #8]	@ zero_extendqisi2
 869 0014 4B68     		ldr	r3, [r1, #4]
 870 0016 3D21     		movs	r1, #61
 871 0018 01FA00F1 		lsl	r1, r1, r0
 872 001c 1960     		str	r1, [r3, #0]
 873              		.loc 1 618 0 is_stmt 1 discriminator 2
 874 001e 5068     		ldr	r0, [r2, #4]
 875              		.loc 1 619 0 discriminator 2
 876 0020 7047     		bx	lr
 877              		.cfi_endproc
 878              	.LFE130:
 879              		.size	uart_lld_stop_send, .-uart_lld_stop_send
 880 0022 00BFAFF3 		.section	.text.uart_lld_start_receive,"ax",%progbits
 880      0080AFF3 
 880      0080AFF3 
 880      0080
 881              		.align	2
 882              		.p2align 4,,15
 883              		.global	uart_lld_start_receive
 884              		.thumb
 885              		.thumb_func
 886              		.type	uart_lld_start_receive, %function
 887              	uart_lld_start_receive:
 888              	.LFB131:
 889              		.loc 1 632 0
 890              		.cfi_startproc
 891              		@ args = 0, pretend = 0, frame = 0
 892              		@ frame_needed = 0, uses_anonymous_args = 0
 893              		@ link register save eliminated.
 894              	.LVL63:
 895 0000 70B4     		push	{r4, r5, r6}
 896              	.LCFI8:
 897              		.cfi_def_cfa_offset 12
 898              		.cfi_offset 4, -12
 899              		.cfi_offset 5, -8
 900              		.cfi_offset 6, -4
 901              		.loc 1 635 0
 902 0002 0569     		ldr	r5, [r0, #16]
ARM GAS  C:\Users\LAB_ME~1\AppData\Local\Temp\ccPnnEr8.s 			page 17


 903 0004 2C68     		ldr	r4, [r5, #0]
 904 0006 2368     		ldr	r3, [r4, #0]
 905 0008 23F00103 		bic	r3, r3, #1
 906 000c 2360     		str	r3, [r4, #0]
 907              	.L105:
 908              		.loc 1 635 0 is_stmt 0 discriminator 1
 909 000e 2368     		ldr	r3, [r4, #0]
 910 0010 DE07     		lsls	r6, r3, #31
 911 0012 FCD4     		bmi	.L105
 912              		.loc 1 635 0 discriminator 2
 913 0014 2E7A     		ldrb	r6, [r5, #8]	@ zero_extendqisi2
 914 0016 6B68     		ldr	r3, [r5, #4]
 915 0018 3D25     		movs	r5, #61
 916 001a 05FA06F5 		lsl	r5, r5, r6
 917 001e 1D60     		str	r5, [r3, #0]
 918              		.loc 1 640 0 is_stmt 1 discriminator 2
 919 0020 C368     		ldr	r3, [r0, #12]
 920              		.loc 1 638 0 discriminator 2
 921 0022 E260     		str	r2, [r4, #12]
 922              		.loc 1 640 0 discriminator 2
 923 0024 43F48263 		orr	r3, r3, #1040
 924              		.loc 1 639 0 discriminator 2
 925 0028 6160     		str	r1, [r4, #4]
 926              		.loc 1 640 0 discriminator 2
 927 002a 2360     		str	r3, [r4, #0]
 928              		.loc 1 642 0 discriminator 2
 929 002c 2368     		ldr	r3, [r4, #0]
 930 002e 43F00103 		orr	r3, r3, #1
 931 0032 2360     		str	r3, [r4, #0]
 932              		.loc 1 643 0 discriminator 2
 933 0034 70BC     		pop	{r4, r5, r6}
 934 0036 7047     		bx	lr
 935              		.cfi_endproc
 936              	.LFE131:
 937              		.size	uart_lld_start_receive, .-uart_lld_start_receive
 938 0038 AFF30080 		.section	.text.uart_lld_stop_receive,"ax",%progbits
 938      AFF30080 
 939              		.align	2
 940              		.p2align 4,,15
 941              		.global	uart_lld_stop_receive
 942              		.thumb
 943              		.thumb_func
 944              		.type	uart_lld_stop_receive, %function
 945              	uart_lld_stop_receive:
 946              	.LFB132:
 947              		.loc 1 656 0
 948              		.cfi_startproc
 949              		@ args = 0, pretend = 0, frame = 0
 950              		@ frame_needed = 0, uses_anonymous_args = 0
 951              	.LVL64:
 952              		.loc 1 659 0
 953 0000 0169     		ldr	r1, [r0, #16]
 954 0002 0A68     		ldr	r2, [r1, #0]
 955 0004 1368     		ldr	r3, [r2, #0]
 956 0006 23F00103 		bic	r3, r3, #1
 957              		.loc 1 656 0
 958 000a 10B5     		push	{r4, lr}
ARM GAS  C:\Users\LAB_ME~1\AppData\Local\Temp\ccPnnEr8.s 			page 18


 959              	.LCFI9:
 960              		.cfi_def_cfa_offset 8
 961              		.cfi_offset 4, -8
 962              		.cfi_offset 14, -4
 963              		.loc 1 659 0
 964 000c 1360     		str	r3, [r2, #0]
 965              	.L108:
 966              		.loc 1 659 0 is_stmt 0 discriminator 1
 967 000e 1368     		ldr	r3, [r2, #0]
 968 0010 DB07     		lsls	r3, r3, #31
 969 0012 FCD4     		bmi	.L108
 970              		.loc 1 659 0 discriminator 2
 971 0014 0C7A     		ldrb	r4, [r1, #8]	@ zero_extendqisi2
 972 0016 4B68     		ldr	r3, [r1, #4]
 973 0018 3D21     		movs	r1, #61
 974 001a 01FA04F1 		lsl	r1, r1, r4
 975 001e 1960     		str	r1, [r3, #0]
 976              		.loc 1 660 0 is_stmt 1 discriminator 2
 977 0020 5468     		ldr	r4, [r2, #4]
 978              	.LVL65:
 979              		.loc 1 661 0 discriminator 2
 980 0022 FFF7FEFF 		bl	set_rx_idle_loop
 981              	.LVL66:
 982              		.loc 1 663 0 discriminator 2
 983 0026 2046     		mov	r0, r4
 984 0028 10BD     		pop	{r4, pc}
 985              		.cfi_endproc
 986              	.LFE132:
 987              		.size	uart_lld_stop_receive, .-uart_lld_stop_receive
 988              		.global	UARTD2
 989 002a 00BFAFF3 		.section	.bss.UARTD2,"aw",%nobits
 989      0080
 990              		.align	2
 991              		.set	.LANCHOR0,. + 0
 992              		.type	UARTD2, %object
 993              		.size	UARTD2, 28
 994              	UARTD2:
 995 0000 00000000 		.space	28
 995      00000000 
 995      00000000 
 995      00000000 
 995      00000000 
 996              		.text
 997              	.Letext0:
 998              		.file 2 "c:\\program files (x86)\\codesourcery\\sourcery_codebench_lite_for_arm_eabi\\bin\\../lib/
 999              		.file 3 "c:\\program files (x86)\\codesourcery\\sourcery_codebench_lite_for_arm_eabi\\bin\\../lib/
 1000              		.file 4 "../../os/ports/GCC/ARMCMx/chtypes.h"
 1001              		.file 5 "../../os/hal/platforms/STM32F4xx/stm32f4xx.h"
 1002              		.file 6 "../../os/hal/platforms/STM32F4xx/stm32_dma.h"
 1003              		.file 7 "../../os/hal/include/uart.h"
 1004              		.file 8 "../../os/hal/platforms/STM32/USARTv1/uart_lld.h"
 1005              		.file 9 "../../os/ports/common/ARMCMx/CMSIS/include/core_cm4.h"
 1006              		.file 10 "../../os/ports/GCC/ARMCMx/chcore_v7m.h"
 1007              		.file 11 "../../os/ports/common/ARMCMx/nvic.h"