ARM GAS  C:\Users\LAB_ME~1\AppData\Local\Temp\ccPnnEr8.s 			page 1


   1              		.syntax unified
   2              		.cpu cortex-m4
   3              		.fpu softvfp
   4              		.eabi_attribute 20, 1
   5              		.eabi_attribute 21, 1
   6              		.eabi_attribute 23, 3
   7              		.eabi_attribute 24, 1
   8              		.eabi_attribute 25, 1
   9              		.eabi_attribute 26, 1
  10              		.eabi_attribute 30, 2
  11              		.eabi_attribute 34, 1
  12              		.eabi_attribute 18, 4
  13              		.thumb
  14              		.file	"uart_lld.c"
  15              		.text
  16              	.Ltext0:
  17              		.cfi_sections	.debug_frame
  18              		.section	.text.set_rx_idle_loop,"ax",%progbits
  19              		.align	2
  20              		.p2align 4,,15
  21              		.thumb
  22              		.thumb_func
  23              		.type	set_rx_idle_loop, %function
  24              	set_rx_idle_loop:
  25              	.LFB119:
  26              		.file 1 "../../os/hal/platforms/STM32/USARTv1/uart_lld.c"
  27              		.loc 1 131 0
  28              		.cfi_startproc
  29              		@ args = 0, pretend = 0, frame = 0
  30              		@ frame_needed = 0, uses_anonymous_args = 0
  31              		@ link register save eliminated.
  32              	.LVL0:
  33              		.loc 1 136 0
  34 0000 4368     		ldr	r3, [r0, #4]
  35              		.loc 1 131 0
  36 0002 10B4     		push	{r4}
  37              	.LCFI0:
  38              		.cfi_def_cfa_offset 4
  39              		.cfi_offset 4, -4
  40              		.loc 1 140 0
  41 0004 0469     		ldr	r4, [r0, #16]
  42              		.loc 1 136 0
  43 0006 DA68     		ldr	r2, [r3, #12]
  44              		.loc 1 140 0
  45 0008 2368     		ldr	r3, [r4, #0]
  46 000a 00F11801 		add	r1, r0, #24
  47              		.loc 1 142 0
  48 000e C068     		ldr	r0, [r0, #12]
  49              	.LVL1:
  50              		.loc 1 140 0
  51 0010 D960     		str	r1, [r3, #12]
  52              		.loc 1 137 0
  53 0012 002A     		cmp	r2, #0
  54 0014 14BF     		ite	ne
  55 0016 4FF48872 		movne	r2, #272
  56 001a 4FF48072 		moveq	r2, #256
  57              	.LVL2:
ARM GAS  C:\Users\LAB_ME~1\AppData\Local\Temp\ccPnnEr8.s 			page 2


  58              		.loc 1 142 0
  59 001e 0243     		orrs	r2, r2, r0
  60              	.LVL3:
  61              		.loc 1 141 0
  62 0020 0121     		movs	r1, #1
  63              	.LVL4:
  64 0022 5960     		str	r1, [r3, #4]
  65              		.loc 1 142 0
  66 0024 1A60     		str	r2, [r3, #0]
  67              		.loc 1 143 0
  68 0026 1A68     		ldr	r2, [r3, #0]
  69 0028 0A43     		orrs	r2, r2, r1
  70 002a 1A60     		str	r2, [r3, #0]
  71              		.loc 1 144 0
  72 002c 10BC     		pop	{r4}
  73 002e 7047     		bx	lr
  74              		.cfi_endproc
  75              	.LFE119:
  76              		.size	set_rx_idle_loop, .-set_rx_idle_loop
  77              		.section	.text.usart_stop,"ax",%progbits
  78              		.align	2
  79              		.p2align 4,,15
  80              		.thumb
  81              		.thumb_func
  82              		.type	usart_stop, %function
  83              	usart_stop:
  84              	.LFB120:
  85              		.loc 1 152 0
  86              		.cfi_startproc
  87              		@ args = 0, pretend = 0, frame = 0
  88              		@ frame_needed = 0, uses_anonymous_args = 0
  89              		@ link register save eliminated.
  90              	.LVL5:
  91 0000 30B4     		push	{r4, r5}
  92              	.LCFI1:
  93              		.cfi_def_cfa_offset 8
  94              		.cfi_offset 4, -8
  95              		.cfi_offset 5, -4
  96              		.loc 1 155 0
  97 0002 0469     		ldr	r4, [r0, #16]
  98 0004 2268     		ldr	r2, [r4, #0]
  99 0006 1368     		ldr	r3, [r2, #0]
 100 0008 23F00103 		bic	r3, r3, #1
 101 000c 1360     		str	r3, [r2, #0]
 102              	.L5:
 103              		.loc 1 155 0 is_stmt 0 discriminator 1
 104 000e 1368     		ldr	r3, [r2, #0]
 105 0010 DB07     		lsls	r3, r3, #31
 106 0012 FCD4     		bmi	.L5
 107              		.loc 1 155 0 discriminator 2
 108 0014 257A     		ldrb	r5, [r4, #8]	@ zero_extendqisi2
 109              		.loc 1 156 0 is_stmt 1 discriminator 2
 110 0016 4169     		ldr	r1, [r0, #20]
 111              		.loc 1 155 0 discriminator 2
 112 0018 6368     		ldr	r3, [r4, #4]
 113              		.loc 1 156 0 discriminator 2
 114 001a 0A68     		ldr	r2, [r1, #0]
ARM GAS  C:\Users\LAB_ME~1\AppData\Local\Temp\ccPnnEr8.s 			page 3


 115              		.loc 1 155 0 discriminator 2
 116 001c 3D24     		movs	r4, #61
 117 001e 04FA05F4 		lsl	r4, r4, r5
 118 0022 1C60     		str	r4, [r3, #0]
 119              		.loc 1 156 0 discriminator 2
 120 0024 1368     		ldr	r3, [r2, #0]
 121 0026 23F00103 		bic	r3, r3, #1
 122 002a 1360     		str	r3, [r2, #0]
 123              	.L6:
 124              		.loc 1 156 0 is_stmt 0 discriminator 1
 125 002c 1368     		ldr	r3, [r2, #0]
 126 002e 13F00103 		ands	r3, r3, #1
 127 0032 FBD1     		bne	.L6
 128              		.loc 1 156 0 discriminator 2
 129 0034 0C7A     		ldrb	r4, [r1, #8]	@ zero_extendqisi2
 130              		.loc 1 159 0 is_stmt 1 discriminator 2
 131 0036 8268     		ldr	r2, [r0, #8]
 132              		.loc 1 156 0 discriminator 2
 133 0038 4968     		ldr	r1, [r1, #4]
 134 003a 3D20     		movs	r0, #61
 135              	.LVL6:
 136 003c 00FA04F0 		lsl	r0, r0, r4
 137 0040 0860     		str	r0, [r1, #0]
 138              		.loc 1 159 0 discriminator 2
 139 0042 9381     		strh	r3, [r2, #12]	@ movhi
 140              		.loc 1 160 0 discriminator 2
 141 0044 1382     		strh	r3, [r2, #16]	@ movhi
 142              		.loc 1 161 0 discriminator 2
 143 0046 9382     		strh	r3, [r2, #20]	@ movhi
 144              		.loc 1 162 0 discriminator 2
 145 0048 30BC     		pop	{r4, r5}
 146 004a 7047     		bx	lr
 147              		.cfi_endproc
 148              	.LFE120:
 149              		.size	usart_stop, .-usart_stop
 150 004c AFF30080 		.section	.text.uart_lld_serve_tx_end_irq,"ax",%progbits
 151              		.align	2
 152              		.p2align 4,,15
 153              		.thumb
 154              		.thumb_func
 155              		.type	uart_lld_serve_tx_end_irq, %function
 156              	uart_lld_serve_tx_end_irq:
 157              	.LFB123:
 158              		.loc 1 254 0
 159              		.cfi_startproc
 160              		@ args = 0, pretend = 0, frame = 0
 161              		@ frame_needed = 0, uses_anonymous_args = 0
 162              	.LVL7:
 163              		.loc 1 258 0
 164 0000 11F00C0F 		tst	r1, #12
 165              		.loc 1 254 0
 166 0004 10B5     		push	{r4, lr}
 167              	.LCFI2:
 168              		.cfi_def_cfa_offset 8
 169              		.cfi_offset 4, -8
 170              		.cfi_offset 14, -4
 171              		.loc 1 254 0
ARM GAS  C:\Users\LAB_ME~1\AppData\Local\Temp\ccPnnEr8.s 			page 4


 172 0006 0446     		mov	r4, r0
 173              		.loc 1 258 0
 174 0008 1CD1     		bne	.L23
 175              	.LVL8:
 176              	.L11:
 177              		.loc 1 265 0
 178 000a 6169     		ldr	r1, [r4, #20]
 179 000c 0A68     		ldr	r2, [r1, #0]
 180 000e 1368     		ldr	r3, [r2, #0]
 181 0010 23F00103 		bic	r3, r3, #1
 182 0014 1360     		str	r3, [r2, #0]
 183              	.L12:
 184              		.loc 1 265 0 is_stmt 0 discriminator 1
 185 0016 1368     		ldr	r3, [r2, #0]
 186 0018 D807     		lsls	r0, r3, #31
 187 001a FCD4     		bmi	.L12
 188              		.loc 1 265 0 discriminator 2
 189 001c 087A     		ldrb	r0, [r1, #8]	@ zero_extendqisi2
 190              		.loc 1 269 0 is_stmt 1 discriminator 2
 191 001e 6368     		ldr	r3, [r4, #4]
 192              		.loc 1 265 0 discriminator 2
 193 0020 4A68     		ldr	r2, [r1, #4]
 194              		.loc 1 269 0 discriminator 2
 195 0022 1B68     		ldr	r3, [r3, #0]
 196              		.loc 1 265 0 discriminator 2
 197 0024 3D21     		movs	r1, #61
 198 0026 01FA00F1 		lsl	r1, r1, r0
 199 002a 1160     		str	r1, [r2, #0]
 200              		.loc 1 268 0 discriminator 2
 201 002c 0222     		movs	r2, #2
 202 002e 6270     		strb	r2, [r4, #1]
 203              		.loc 1 269 0 discriminator 2
 204 0030 2BB1     		cbz	r3, .L15
 205              		.loc 1 270 0
 206 0032 2046     		mov	r0, r4
 207 0034 9847     		blx	r3
 208              	.LVL9:
 209              		.loc 1 274 0
 210 0036 6378     		ldrb	r3, [r4, #1]	@ zero_extendqisi2
 211 0038 022B     		cmp	r3, #2
 212 003a 00D0     		beq	.L15
 213 003c 10BD     		pop	{r4, pc}
 214              	.L15:
 215              		.loc 1 275 0
 216 003e 0023     		movs	r3, #0
 217 0040 6370     		strb	r3, [r4, #1]
 218 0042 10BD     		pop	{r4, pc}
 219              	.LVL10:
 220              	.L23:
 221              		.loc 1 259 0
 222 0044 FFF7FEFF 		bl	port_halt
 223              	.LVL11:
 224 0048 DFE7     		b	.L11
 225              		.cfi_endproc
 226              	.LFE123:
 227              		.size	uart_lld_serve_tx_end_irq, .-uart_lld_serve_tx_end_irq
 228 004a 00BFAFF3 		.section	.text.uart_lld_serve_rx_end_irq,"ax",%progbits
ARM GAS  C:\Users\LAB_ME~1\AppData\Local\Temp\ccPnnEr8.s 			page 5


 228      0080
 229              		.align	2
 230              		.p2align 4,,15
 231              		.thumb
 232              		.thumb_func
 233              		.type	uart_lld_serve_rx_end_irq, %function
 234              	uart_lld_serve_rx_end_irq:
 235              	.LFB122:
 236              		.loc 1 214 0
 237              		.cfi_startproc
 238              		@ args = 0, pretend = 0, frame = 0
 239              		@ frame_needed = 0, uses_anonymous_args = 0
 240              	.LVL12:
 241              		.loc 1 218 0
 242 0000 11F00C0F 		tst	r1, #12
 243              		.loc 1 214 0
 244 0004 10B5     		push	{r4, lr}
 245              	.LCFI3:
 246              		.cfi_def_cfa_offset 8
 247              		.cfi_offset 4, -8
 248              		.cfi_offset 14, -4
 249              		.loc 1 214 0
 250 0006 0446     		mov	r4, r0
 251              		.loc 1 218 0
 252 0008 23D1     		bne	.L40
 253              	.LVL13:
 254              	.L25:
 255              		.loc 1 225 0
 256 000a A378     		ldrb	r3, [r4, #2]	@ zero_extendqisi2
 257 000c 3BB9     		cbnz	r3, .L26
 258              		.loc 1 228 0
 259 000e 6368     		ldr	r3, [r4, #4]
 260 0010 DB68     		ldr	r3, [r3, #12]
 261 0012 EBB1     		cbz	r3, .L24
 262              		.loc 1 229 0
 263 0014 218B     		ldrh	r1, [r4, #24]
 264 0016 2046     		mov	r0, r4
 265 0018 89B2     		uxth	r1, r1
 266 001a 9847     		blx	r3
 267              	.LVL14:
 268 001c 10BD     		pop	{r4, pc}
 269              	.L26:
 270              	.LVL15:
 271              	.LBB4:
 272              	.LBB5:
 273              		.loc 1 234 0
 274 001e 2169     		ldr	r1, [r4, #16]
 275 0020 0A68     		ldr	r2, [r1, #0]
 276 0022 1368     		ldr	r3, [r2, #0]
 277 0024 23F00103 		bic	r3, r3, #1
 278 0028 1360     		str	r3, [r2, #0]
 279              	.L29:
 280 002a 1368     		ldr	r3, [r2, #0]
 281 002c DB07     		lsls	r3, r3, #31
 282 002e FCD4     		bmi	.L29
 283 0030 087A     		ldrb	r0, [r1, #8]	@ zero_extendqisi2
 284              		.loc 1 236 0
ARM GAS  C:\Users\LAB_ME~1\AppData\Local\Temp\ccPnnEr8.s 			page 6


 285 0032 6368     		ldr	r3, [r4, #4]
 286              		.loc 1 234 0
 287 0034 4A68     		ldr	r2, [r1, #4]
 288              		.loc 1 236 0
 289 0036 9B68     		ldr	r3, [r3, #8]
 290              		.loc 1 234 0
 291 0038 3D21     		movs	r1, #61
 292 003a 01FA00F1 		lsl	r1, r1, r0
 293 003e 1160     		str	r1, [r2, #0]
 294              		.loc 1 235 0
 295 0040 0222     		movs	r2, #2
 296 0042 A270     		strb	r2, [r4, #2]
 297              		.loc 1 236 0
 298 0044 43B1     		cbz	r3, .L31
 299              		.loc 1 237 0
 300 0046 2046     		mov	r0, r4
 301 0048 9847     		blx	r3
 302              	.LVL16:
 303              		.loc 1 241 0
 304 004a A378     		ldrb	r3, [r4, #2]	@ zero_extendqisi2
 305 004c 022B     		cmp	r3, #2
 306 004e 03D0     		beq	.L31
 307              	.LVL17:
 308              	.L24:
 309 0050 10BD     		pop	{r4, pc}
 310              	.LVL18:
 311              	.L40:
 312              	.LBE5:
 313              	.LBE4:
 314              		.loc 1 219 0
 315 0052 FFF7FEFF 		bl	port_halt
 316              	.LVL19:
 317 0056 D8E7     		b	.L25
 318              	.LVL20:
 319              	.L31:
 320              	.LBB8:
 321              	.LBB6:
 322              		.loc 1 242 0
 323 0058 0023     		movs	r3, #0
 324              		.loc 1 243 0
 325 005a 2046     		mov	r0, r4
 326              		.loc 1 242 0
 327 005c A370     		strb	r3, [r4, #2]
 328              	.LBE6:
 329              	.LBE8:
 330              		.loc 1 246 0
 331 005e BDE81040 		pop	{r4, lr}
 332              	.LBB9:
 333              	.LBB7:
 334              		.loc 1 243 0
 335 0062 FFF7FEBF 		b	set_rx_idle_loop
 336              	.LVL21:
 337              	.LBE7:
 338              	.LBE9:
 339              		.cfi_endproc
 340              	.LFE122:
 341              		.size	uart_lld_serve_rx_end_irq, .-uart_lld_serve_rx_end_irq
ARM GAS  C:\Users\LAB_ME~1\AppData\Local\Temp\ccPnnEr8.s 			page 7


 342 0066 00BFAFF3 		.section	.text.VectorD8,"ax",%progbits
 342      0080AFF3 
 342      0080
 343              		.align	2
 344              		.p2align 4,,15
 345              		.global	VectorD8
 346              		.thumb
 347              		.thumb_func
 348              		.type	VectorD8, %function
 349              	VectorD8:
 350              	.LFB125:
 351              		.loc 1 336 0
 352              		.cfi_startproc
 353              		@ args = 0, pretend = 0, frame = 0
 354              		@ frame_needed = 0, uses_anonymous_args = 0
 355              	.LVL22:
 356 0000 70B5     		push	{r4, r5, r6, lr}
 357              	.LCFI4:
 358              		.cfi_def_cfa_offset 16
 359              		.cfi_offset 4, -16
 360              		.cfi_offset 5, -12
 361              		.cfi_offset 6, -8
 362              		.cfi_offset 14, -4
 363              	.LBB14:
 364              	.LBB15:
 365              		.loc 1 285 0
 366 0002 1F4E     		ldr	r6, .L73
 367 0004 B568     		ldr	r5, [r6, #8]
 368              	.LVL23:
 369              		.loc 1 287 0
 370 0006 2C88     		ldrh	r4, [r5, #0]
 371              		.loc 1 288 0
 372 0008 AB88     		ldrh	r3, [r5, #4]
 373              		.loc 1 287 0
 374 000a A4B2     		uxth	r4, r4
 375              	.LVL24:
 376              		.loc 1 289 0
 377 000c 40F20F13 		movw	r3, #271
 378 0010 2340     		ands	r3, r3, r4
 379 0012 13B3     		cbz	r3, .L43
 380              		.loc 1 292 0
 381 0014 7368     		ldr	r3, [r6, #4]
 382 0016 1B69     		ldr	r3, [r3, #16]
 383              		.loc 1 291 0
 384 0018 4FF6FF62 		movw	r2, #65279
 385 001c 2A80     		strh	r2, [r5, #0]	@ movhi
 386              		.loc 1 292 0
 387 001e E3B1     		cbz	r3, .L43
 388              	.LVL25:
 389              	.LBB16:
 390              	.LBB17:
 391              		.loc 1 113 0
 392 0020 04F00801 		and	r1, r4, #8
 393 0024 89B2     		uxth	r1, r1
 394              		.loc 1 114 0
 395 0026 0029     		cmp	r1, #0
 396 0028 14BF     		ite	ne
ARM GAS  C:\Users\LAB_ME~1\AppData\Local\Temp\ccPnnEr8.s 			page 8


 397 002a 1021     		movne	r1, #16
 398 002c 0021     		moveq	r1, #0
 399              	.LVL26:
 400              		.loc 1 115 0
 401 002e E207     		lsls	r2, r4, #31
 402              		.loc 1 117 0
 403 0030 04F00202 		and	r2, r4, #2
 404 0034 92B2     		uxth	r2, r2
 405              		.loc 1 116 0
 406 0036 48BF     		it	mi
 407 0038 41F00401 		orrmi	r1, r1, #4
 408              	.LVL27:
 409              		.loc 1 117 0
 410 003c 0AB1     		cbz	r2, .L47
 411              		.loc 1 118 0
 412 003e 41F00801 		orr	r1, r1, #8
 413              	.LVL28:
 414              	.L47:
 415              		.loc 1 119 0
 416 0042 04F00402 		and	r2, r4, #4
 417 0046 92B2     		uxth	r2, r2
 418 0048 BAB9     		cbnz	r2, .L72
 419              	.L48:
 420              		.loc 1 121 0
 421 004a 04F48072 		and	r2, r4, #256
 422 004e 92B2     		uxth	r2, r2
 423 0050 0AB1     		cbz	r2, .L49
 424              		.loc 1 122 0
 425 0052 41F04001 		orr	r1, r1, #64
 426              	.LVL29:
 427              	.L49:
 428              	.LBE17:
 429              	.LBE16:
 430              		.loc 1 293 0
 431 0056 0A48     		ldr	r0, .L73
 432 0058 9847     		blx	r3
 433              	.LVL30:
 434              	.L43:
 435              		.loc 1 295 0
 436 005a 04F04004 		and	r4, r4, #64
 437              	.LVL31:
 438 005e A4B2     		uxth	r4, r4
 439 0060 3CB1     		cbz	r4, .L51
 440              		.loc 1 299 0
 441 0062 7368     		ldr	r3, [r6, #4]
 442 0064 5B68     		ldr	r3, [r3, #4]
 443              		.loc 1 296 0
 444 0066 4FF6BF72 		movw	r2, #65471
 445 006a 2A80     		strh	r2, [r5, #0]	@ movhi
 446              		.loc 1 299 0
 447 006c 0BB1     		cbz	r3, .L51
 448              		.loc 1 300 0
 449 006e 0448     		ldr	r0, .L73
 450 0070 9847     		blx	r3
 451              	.LVL32:
 452              	.L51:
 453              	.LBE15:
ARM GAS  C:\Users\LAB_ME~1\AppData\Local\Temp\ccPnnEr8.s 			page 9


 454              	.LBE14:
 455              		.loc 1 343 0
 456 0072 BDE87040 		pop	{r4, r5, r6, lr}
 457              		.loc 1 342 0
 458 0076 FFF7FEBF 		b	_port_irq_epilogue
 459              	.LVL33:
 460              	.L72:
 461              	.LBB21:
 462              	.LBB20:
 463              	.LBB19:
 464              	.LBB18:
 465              		.loc 1 120 0
 466 007a 41F02001 		orr	r1, r1, #32
 467              	.LVL34:
 468 007e E4E7     		b	.L48
 469              	.L74:
 470              		.align	2
 471              	.L73:
 472 0080 00000000 		.word	.LANCHOR0
 473              	.LBE18:
 474              	.LBE19:
 475              	.LBE20:
 476              	.LBE21:
 477              		.cfi_endproc
 478              	.LFE125:
 479              		.size	VectorD8, .-VectorD8
 480 0084 AFF30080 		.section	.text.uart_lld_init,"ax",%progbits
 480      AFF30080 
 480      AFF30080 
 481              		.align	2
 482              		.p2align 4,,15
 483              		.global	uart_lld_init
 484              		.thumb
 485              		.thumb_func
 486              		.type	uart_lld_init, %function
 487              	uart_lld_init:
 488              	.LFB126:
 489              		.loc 1 393 0
 490              		.cfi_startproc
 491              		@ args = 0, pretend = 0, frame = 0
 492              		@ frame_needed = 0, uses_anonymous_args = 0
 493 0000 10B5     		push	{r4, lr}
 494              	.LCFI5:
 495              		.cfi_def_cfa_offset 8
 496              		.cfi_offset 4, -8
 497              		.cfi_offset 14, -4
 498              		.loc 1 404 0
 499 0002 064C     		ldr	r4, .L76
 500 0004 2046     		mov	r0, r4
 501 0006 FFF7FEFF 		bl	uartObjectInit
 502              	.LVL35:
 503              		.loc 1 407 0
 504 000a 054B     		ldr	r3, .L76+4
 505              		.loc 1 405 0
 506 000c 054A     		ldr	r2, .L76+8
 507              		.loc 1 407 0
 508 000e 2361     		str	r3, [r4, #16]
ARM GAS  C:\Users\LAB_ME~1\AppData\Local\Temp\ccPnnEr8.s 			page 10


 509              		.loc 1 405 0
 510 0010 A260     		str	r2, [r4, #8]
 511              		.loc 1 408 0
 512 0012 0C33     		adds	r3, r3, #12
 513              		.loc 1 406 0
 514 0014 0622     		movs	r2, #6
 515 0016 E260     		str	r2, [r4, #12]
 516              		.loc 1 408 0
 517 0018 6361     		str	r3, [r4, #20]
 518 001a 10BD     		pop	{r4, pc}
 519              	.L77:
 520              		.align	2
 521              	.L76:
 522 001c 00000000 		.word	.LANCHOR0
 523 0020 3C000000 		.word	_stm32_dma_streams+60
 524 0024 00440040 		.word	1073759232
 525              		.cfi_endproc
 526              	.LFE126:
 527              		.size	uart_lld_init, .-uart_lld_init
 528 0028 AFF30080 		.section	.text.uart_lld_start,"ax",%progbits
 528      AFF30080 
 529              		.align	2
 530              		.p2align 4,,15
 531              		.global	uart_lld_start
 532              		.thumb
 533              		.thumb_func
 534              		.type	uart_lld_start, %function
 535              	uart_lld_start:
 536              	.LFB127:
 537              		.loc 1 434 0
 538              		.cfi_startproc
 539              		@ args = 0, pretend = 0, frame = 0
 540              		@ frame_needed = 0, uses_anonymous_args = 0
 541              	.LVL36:
 542 0000 F8B5     		push	{r3, r4, r5, r6, r7, lr}
 543              	.LCFI6:
 544              		.cfi_def_cfa_offset 24
 545              		.cfi_offset 3, -24
 546              		.cfi_offset 4, -20
 547              		.cfi_offset 5, -16
 548              		.cfi_offset 6, -12
 549              		.cfi_offset 7, -8
 550              		.cfi_offset 14, -4
 551              		.loc 1 436 0
 552 0002 0378     		ldrb	r3, [r0, #0]	@ zero_extendqisi2
 553 0004 012B     		cmp	r3, #1
 554              		.loc 1 434 0
 555 0006 0446     		mov	r4, r0
 556              		.loc 1 436 0
 557 0008 30D0     		beq	.L88
 558 000a 8568     		ldr	r5, [r0, #8]
 559              	.LVL37:
 560              	.L79:
 561              		.loc 1 530 0
 562 000c 0023     		movs	r3, #0
 563 000e A370     		strb	r3, [r4, #2]
 564              		.loc 1 531 0
ARM GAS  C:\Users\LAB_ME~1\AppData\Local\Temp\ccPnnEr8.s 			page 11


 565 0010 6370     		strb	r3, [r4, #1]
 566              	.LVL38:
 567              	.LBB25:
 568              	.LBB26:
 569              		.loc 1 175 0
 570 0012 2046     		mov	r0, r4
 571 0014 FFF7FEFF 		bl	usart_stop
 572              	.LVL39:
 573              		.loc 1 179 0
 574 0018 A368     		ldr	r3, [r4, #8]
 575 001a 324A     		ldr	r2, .L91
 576 001c 9342     		cmp	r3, r2
 577 001e 3AD0     		beq	.L82
 578 0020 02F58062 		add	r2, r2, #1024
 579 0024 9342     		cmp	r3, r2
 580 0026 36D0     		beq	.L82
 581              		.loc 1 185 0
 582 0028 6368     		ldr	r3, [r4, #4]
 583 002a 2F49     		ldr	r1, .L91+4
 584 002c 5A69     		ldr	r2, [r3, #20]
 585 002e B1FBF2F2 		udiv	r2, r1, r2
 586 0032 2A81     		strh	r2, [r5, #8]	@ movhi
 587              	.L84:
 588              		.loc 1 197 0
 589 0034 5F68     		ldr	r7, [r3, #4]
 590              		.loc 1 202 0
 591 0036 188B     		ldrh	r0, [r3, #24]
 592              		.loc 1 194 0
 593 0038 598B     		ldrh	r1, [r3, #26]
 594              		.loc 1 195 0
 595 003a 9A8B     		ldrh	r2, [r3, #28]
 596              		.loc 1 188 0
 597 003c 2B88     		ldrh	r3, [r5, #0]
 598              		.loc 1 189 0
 599 003e AB88     		ldrh	r3, [r5, #4]
 600              		.loc 1 198 0
 601 0040 42F20C16 		movw	r6, #8460
 602 0044 42F24C13 		movw	r3, #8524
 603 0048 002F     		cmp	r7, #0
 604 004a 08BF     		it	eq
 605 004c 3346     		moveq	r3, r6
 606              	.LVL40:
 607              		.loc 1 202 0
 608 004e 0343     		orrs	r3, r3, r0
 609              	.LVL41:
 610              		.loc 1 190 0
 611 0050 0020     		movs	r0, #0
 612 0052 2880     		strh	r0, [r5, #0]	@ movhi
 613              		.loc 1 194 0
 614 0054 41F04001 		orr	r1, r1, #64
 615              		.loc 1 195 0
 616 0058 42F0C102 		orr	r2, r2, #193
 617              		.loc 1 205 0
 618 005c 2046     		mov	r0, r4
 619              		.loc 1 194 0
 620 005e 2982     		strh	r1, [r5, #16]	@ movhi
 621              		.loc 1 195 0
ARM GAS  C:\Users\LAB_ME~1\AppData\Local\Temp\ccPnnEr8.s 			page 12


 622 0060 AA82     		strh	r2, [r5, #20]	@ movhi
 623              		.loc 1 202 0
 624 0062 AB81     		strh	r3, [r5, #12]	@ movhi
 625              	.LBE26:
 626              	.LBE25:
 627              		.loc 1 533 0
 628 0064 BDE8F840 		pop	{r3, r4, r5, r6, r7, lr}
 629              	.LBB29:
 630              	.LBB27:
 631              		.loc 1 205 0
 632 0068 FFF7FEBF 		b	set_rx_idle_loop
 633              	.LVL42:
 634              	.L88:
 635              	.LBE27:
 636              	.LBE29:
 637              		.loc 1 459 0
 638 006c 1F4B     		ldr	r3, .L91+8
 639 006e 9842     		cmp	r0, r3
 640 0070 1DD0     		beq	.L89
 641              	.LVL43:
 642              	.L80:
 643              		.loc 1 523 0
 644 0072 6368     		ldr	r3, [r4, #4]
 645 0074 1B8B     		ldrh	r3, [r3, #24]
 646 0076 03F4A053 		and	r3, r3, #5120
 647 007a B3F5805F 		cmp	r3, #4096
 648 007e 11D0     		beq	.L90
 649              	.L81:
 650              		.loc 1 525 0
 651 0080 2269     		ldr	r2, [r4, #16]
 652              		.loc 1 526 0
 653 0082 6369     		ldr	r3, [r4, #20]
 654              		.loc 1 525 0
 655 0084 A568     		ldr	r5, [r4, #8]
 656 0086 1168     		ldr	r1, [r2, #0]
 657              		.loc 1 526 0
 658 0088 1A68     		ldr	r2, [r3, #0]
 659              		.loc 1 525 0
 660 008a 2B1D     		adds	r3, r5, #4
 661 008c 8B60     		str	r3, [r1, #8]
 662              		.loc 1 526 0
 663 008e 9360     		str	r3, [r2, #8]
 664              		.loc 1 527 0
 665 0090 0023     		movs	r3, #0
 666 0092 2383     		strh	r3, [r4, #24]	@ movhi
 667 0094 BAE7     		b	.L79
 668              	.LVL44:
 669              	.L82:
 670              	.LBB30:
 671              	.LBB28:
 672              		.loc 1 183 0
 673 0096 6368     		ldr	r3, [r4, #4]
 674 0098 1549     		ldr	r1, .L91+12
 675 009a 5A69     		ldr	r2, [r3, #20]
 676 009c B1FBF2F2 		udiv	r2, r1, r2
 677 00a0 2A81     		strh	r2, [r5, #8]	@ movhi
 678 00a2 C7E7     		b	.L84
ARM GAS  C:\Users\LAB_ME~1\AppData\Local\Temp\ccPnnEr8.s 			page 13


 679              	.LVL45:
 680              	.L90:
 681              	.LBE28:
 682              	.LBE30:
 683              		.loc 1 524 0
 684 00a4 E368     		ldr	r3, [r4, #12]
 685 00a6 43F42053 		orr	r3, r3, #10240
 686 00aa E360     		str	r3, [r4, #12]
 687 00ac E8E7     		b	.L81
 688              	.LVL46:
 689              	.L89:
 690              	.LBB31:
 691              		.loc 1 461 0
 692 00ae 0C21     		movs	r1, #12
 693 00b0 104A     		ldr	r2, .L91+16
 694 00b2 0069     		ldr	r0, [r0, #16]
 695              	.LVL47:
 696 00b4 2346     		mov	r3, r4
 697 00b6 FFF7FEFF 		bl	dmaStreamAllocate
 698              	.LVL48:
 699              		.loc 1 466 0
 700 00ba 0C21     		movs	r1, #12
 701 00bc 0E4A     		ldr	r2, .L91+20
 702 00be 6069     		ldr	r0, [r4, #20]
 703 00c0 2346     		mov	r3, r4
 704 00c2 FFF7FEFF 		bl	dmaStreamAllocate
 705              	.LVL49:
 706              		.loc 1 471 0
 707 00c6 0D4B     		ldr	r3, .L91+24
 708 00c8 1A6C     		ldr	r2, [r3, #64]
 709 00ca 42F40032 		orr	r2, r2, #131072
 710 00ce 1A64     		str	r2, [r3, #64]
 711              		.loc 1 472 0
 712 00d0 2620     		movs	r0, #38
 713 00d2 C021     		movs	r1, #192
 714 00d4 FFF7FEFF 		bl	nvicEnableVector
 715              	.LVL50:
 716              		.loc 1 474 0
 717 00d8 E368     		ldr	r3, [r4, #12]
 718 00da 43F00063 		orr	r3, r3, #134217728
 719 00de E360     		str	r3, [r4, #12]
 720 00e0 C7E7     		b	.L80
 721              	.L92:
 722 00e2 00BF     		.align	2
 723              	.L91:
 724 00e4 00100140 		.word	1073811456
 725 00e8 80DE8002 		.word	42000000
 726 00ec 00000000 		.word	.LANCHOR0
 727 00f0 00BD0105 		.word	84000000
 728 00f4 00000000 		.word	uart_lld_serve_rx_end_irq
 729 00f8 00000000 		.word	uart_lld_serve_tx_end_irq
 730 00fc 00380240 		.word	1073887232
 731              	.LBE31:
 732              		.cfi_endproc
 733              	.LFE127:
 734              		.size	uart_lld_start, .-uart_lld_start
 735              		.section	.text.uart_lld_stop,"ax",%progbits
ARM GAS  C:\Users\LAB_ME~1\AppData\Local\Temp\ccPnnEr8.s 			page 14


 736              		.align	2
 737              		.p2align 4,,15
 738              		.global	uart_lld_stop
 739              		.thumb
 740              		.thumb_func
 741              		.type	uart_lld_stop, %function
 742              	uart_lld_stop:
 743              	.LFB128:
 744              		.loc 1 542 0
 745              		.cfi_startproc
 746              		@ args = 0, pretend = 0, frame = 0
 747              		@ frame_needed = 0, uses_anonymous_args = 0
 748              	.LVL51:
 749              		.loc 1 544 0
 750 0000 0378     		ldrb	r3, [r0, #0]	@ zero_extendqisi2
 751 0002 022B     		cmp	r3, #2
 752              		.loc 1 542 0
 753 0004 10B5     		push	{r4, lr}
 754              	.LCFI7:
 755              		.cfi_def_cfa_offset 8
 756              		.cfi_offset 4, -8
 757              		.cfi_offset 14, -4
 758              		.loc 1 542 0
 759 0006 0446     		mov	r4, r0
 760              		.loc 1 544 0
 761 0008 00D0     		beq	.L97
 762              	.LVL52:
 763              	.L93:
 764 000a 10BD     		pop	{r4, pc}
 765              	.LVL53:
 766              	.L97:
 767              		.loc 1 545 0
 768 000c FFF7FEFF 		bl	usart_stop
 769              	.LVL54:
 770              		.loc 1 546 0
 771 0010 2069     		ldr	r0, [r4, #16]
 772 0012 FFF7FEFF 		bl	dmaStreamRelease
 773              	.LVL55:
 774              		.loc 1 547 0
 775 0016 6069     		ldr	r0, [r4, #20]
 776 0018 FFF7FEFF 		bl	dmaStreamRelease
 777              	.LVL56:
 778              		.loc 1 558 0
 779 001c 054B     		ldr	r3, .L98
 780 001e 9C42     		cmp	r4, r3
 781 0020 F3D1     		bne	.L93
 782              		.loc 1 559 0
 783 0022 2620     		movs	r0, #38
 784 0024 FFF7FEFF 		bl	nvicDisableVector
 785              	.LVL57:
 786              		.loc 1 560 0
 787 0028 034B     		ldr	r3, .L98+4
 788 002a 1A6C     		ldr	r2, [r3, #64]
 789 002c 22F40032 		bic	r2, r2, #131072
 790 0030 1A64     		str	r2, [r3, #64]
 791              		.loc 1 561 0
 792 0032 EAE7     		b	.L93
ARM GAS  C:\Users\LAB_ME~1\AppData\Local\Temp\ccPnnEr8.s 			page 15


 793              	.L99:
 794              		.align	2
 795              	.L98:
 796 0034 00000000 		.word	.LANCHOR0
 797 0038 00380240 		.word	1073887232
 798              		.cfi_endproc
 799              	.LFE128:
 800              		.size	uart_lld_stop, .-uart_lld_stop
 801 003c AFF30080 		.section	.text.uart_lld_start_send,"ax",%progbits
 802              		.align	2
 803              		.p2align 4,,15
 804              		.global	uart_lld_start_send
 805              		.thumb
 806              		.thumb_func
 807              		.type	uart_lld_start_send, %function
 808              	uart_lld_start_send:
 809              	.LFB129:
 810              		.loc 1 594 0
 811              		.cfi_startproc
 812              		@ args = 0, pretend = 0, frame = 0
 813              		@ frame_needed = 0, uses_anonymous_args = 0
 814              		@ link register save eliminated.
 815              	.LVL58:
 816              		.loc 1 597 0
 817 0000 4369     		ldr	r3, [r0, #20]
 818              		.loc 1 599 0
 819 0002 C068     		ldr	r0, [r0, #12]
 820              	.LVL59:
 821              		.loc 1 597 0
 822 0004 1B68     		ldr	r3, [r3, #0]
 823              		.loc 1 599 0
 824 0006 40F48A60 		orr	r0, r0, #1104
 825              		.loc 1 597 0
 826 000a DA60     		str	r2, [r3, #12]
 827              		.loc 1 598 0
 828 000c 5960     		str	r1, [r3, #4]
 829              		.loc 1 599 0
 830 000e 1860     		str	r0, [r3, #0]
 831              		.loc 1 601 0
 832 0010 1A68     		ldr	r2, [r3, #0]
 833              	.LVL60:
 834 0012 42F00102 		orr	r2, r2, #1
 835 0016 1A60     		str	r2, [r3, #0]
 836 0018 7047     		bx	lr
 837              		.cfi_endproc
 838              	.LFE129:
 839              		.size	uart_lld_start_send, .-uart_lld_start_send
 840 001a 00BFAFF3 		.section	.text.uart_lld_stop_send,"ax",%progbits
 840      0080
 841              		.align	2
 842              		.p2align 4,,15
 843              		.global	uart_lld_stop_send
 844              		.thumb
 845              		.thumb_func
 846              		.type	uart_lld_stop_send, %function
 847              	uart_lld_stop_send:
 848              	.LFB130:
ARM GAS  C:\Users\LAB_ME~1\AppData\Local\Temp\ccPnnEr8.s 			page 16


 849              		.loc 1 615 0
 850              		.cfi_startproc
 851              		@ args = 0, pretend = 0, frame = 0
 852              		@ frame_needed = 0, uses_anonymous_args = 0
 853              		@ link register save eliminated.
 854              	.LVL61:
 855              		.loc 1 617 0
 856 0000 4169     		ldr	r1, [r0, #20]
 857 0002 0A68     		ldr	r2, [r1, #0]
 858 0004 1368     		ldr	r3, [r2, #0]
 859 0006 23F00103 		bic	r3, r3, #1
 860 000a 1360     		str	r3, [r2, #0]
 861              	.LVL62:
 862              	.L102:
 863              		.loc 1 617 0 is_stmt 0 discriminator 1
 864 000c 1368     		ldr	r3, [r2, #0]
 865 000e D807     		lsls	r0, r3, #31
 866 0010 FCD4     		bmi	.L102
 867              		.loc 1 617 0 discriminator 2
 868 0012 087A     		ldrb	r0, [r1, #8]	@ zero_extendqisi2
 869 0014 4B68     		ldr	r3, [r1, #4]
 870 0016 3D21     		movs	r1, #61
 871 0018 01FA00F1 		lsl	r1, r1, r0
 872 001c 1960     		str	r1, [r3, #0]
 873              		.loc 1 618 0 is_stmt 1 discriminator 2
 874 001e 5068     		ldr	r0, [r2, #4]
 875              		.loc 1 619 0 discriminator 2
 876 0020 7047     		bx	lr
 877              		.cfi_endproc
 878              	.LFE130:
 879              		.size	uart_lld_stop_send, .-uart_lld_stop_send
 880 0022 00BFAFF3 		.section	.text.uart_lld_start_receive,"ax",%progbits
 880      0080AFF3 
 880      0080AFF3 
 880      0080
 881              		.align	2
 882              		.p2align 4,,15
 883              		.global	uart_lld_start_receive
 884              		.thumb
 885              		.thumb_func
 886              		.type	uart_lld_start_receive, %function
 887              	uart_lld_start_receive:
 888              	.LFB131:
 889              		.loc 1 632 0
 890              		.cfi_startproc
 891              		@ args = 0, pretend = 0, frame = 0
 892              		@ frame_needed = 0, uses_anonymous_args = 0
 893              		@ link register save eliminated.
 894              	.LVL63:
 895 0000 70B4     		push	{r4, r5, r6}
 896              	.LCFI8:
 897              		.cfi_def_cfa_offset 12
 898              		.cfi_offset 4, -12
 899              		.cfi_offset 5, -8
 900              		.cfi_offset 6, -4
 901              		.loc 1 635 0
 902 0002 0569     		ldr	r5, [r0, #16]
ARM GAS  C:\Users\LAB_ME~1\AppData\Local\Temp\ccPnnEr8.s 			page 17


 903 0004 2C68     		ldr	r4, [r5, #0]
 904 0006 2368     		ldr	r3, [r4, #0]
 905 0008 23F00103 		bic	r3, r3, #1
 906 000c 2360     		str	r3, [r4, #0]
 907              	.L105:
 908              		.loc 1 635 0 is_stmt 0 discriminator 1
 909 000e 2368     		ldr	r3, [r4, #0]
 910 0010 DE07     		lsls	r6, r3, #31
 911 0012 FCD4     		bmi	.L105
 912              		.loc 1 635 0 discriminator 2
 913 0014 2E7A     		ldrb	r6, [r5, #8]	@ zero_extendqisi2
 914 0016 6B68     		ldr	r3, [r5, #4]
 915 0018 3D25     		movs	r5, #61
 916 001a 05FA06F5 		lsl	r5, r5, r6
 917 001e 1D60     		str	r5, [r3, #0]
 918              		.loc 1 640 0 is_stmt 1 discriminator 2
 919 0020 C368     		ldr	r3, [r0, #12]
 920              		.loc 1 638 0 discriminator 2
 921 0022 E260     		str	r2, [r4, #12]
 922              		.loc 1 640 0 discriminator 2
 923 0024 43F48263 		orr	r3, r3, #1040
 924              		.loc 1 639 0 discriminator 2
 925 0028 6160     		str	r1, [r4, #4]
 926              		.loc 1 640 0 discriminator 2
 927 002a 2360     		str	r3, [r4, #0]
 928              		.loc 1 642 0 discriminator 2
 929 002c 2368     		ldr	r3, [r4, #0]
 930 002e 43F00103 		orr	r3, r3, #1
 931 0032 2360     		str	r3, [r4, #0]
 932              		.loc 1 643 0 discriminator 2
 933 0034 70BC     		pop	{r4, r5, r6}
 934 0036 7047     		bx	lr
 935              		.cfi_endproc
 936              	.LFE131:
 937              		.size	uart_lld_start_receive, .-uart_lld_start_receive
 938 0038 AFF30080 		.section	.text.uart_lld_stop_receive,"ax",%progbits
 938      AFF30080 
 939              		.align	2
 940              		.p2align 4,,15
 941              		.global	uart_lld_stop_receive
 942              		.thumb
 943              		.thumb_func
 944              		.type	uart_lld_stop_receive, %function
 945              	uart_lld_stop_receive:
 946              	.LFB132:
 947              		.loc 1 656 0
 948              		.cfi_startproc
 949              		@ args = 0, pretend = 0, frame = 0
 950              		@ frame_needed = 0, uses_anonymous_args = 0
 951              	.LVL64:
 952              		.loc 1 659 0
 953 0000 0169     		ldr	r1, [r0, #16]
 954 0002 0A68     		ldr	r2, [r1, #0]
 955 0004 1368     		ldr	r3, [r2, #0]
 956 0006 23F00103 		bic	r3, r3, #1
 957              		.loc 1 656 0
 958 000a 10B5     		push	{r4, lr}
ARM GAS  C:\Users\LAB_ME~1\AppData\Local\Temp\ccPnnEr8.s 			page 18


 959              	.LCFI9:
 960              		.cfi_def_cfa_offset 8
 961              		.cfi_offset 4, -8
 962              		.cfi_offset 14, -4
 963              		.loc 1 659 0
 964 000c 1360     		str	r3, [r2, #0]
 965              	.L108:
 966              		.loc 1 659 0 is_stmt 0 discriminator 1
 967 000e 1368     		ldr	r3, [r2, #0]
 968 0010 DB07     		lsls	r3, r3, #31
 969 0012 FCD4     		bmi	.L108
 970              		.loc 1 659 0 discriminator 2
 971 0014 0C7A     		ldrb	r4, [r1, #8]	@ zero_extendqisi2
 972 0016 4B68     		ldr	r3, [r1, #4]
 973 0018 3D21     		movs	r1, #61
 974 001a 01FA04F1 		lsl	r1, r1, r4
 975 001e 1960     		str	r1, [r3, #0]
 976              		.loc 1 660 0 is_stmt 1 discriminator 2
 977 0020 5468     		ldr	r4, [r2, #4]
 978              	.LVL65:
 979              		.loc 1 661 0 discriminator 2
 980 0022 FFF7FEFF 		bl	set_rx_idle_loop
 981              	.LVL66:
 982              		.loc 1 663 0 discriminator 2
 983 0026 2046     		mov	r0, r4
 984 0028 10BD     		pop	{r4, pc}
 985              		.cfi_endproc
 986              	.LFE132:
 987              		.size	uart_lld_stop_receive, .-uart_lld_stop_receive
 988              		.global	UARTD2
 989 002a 00BFAFF3 		.section	.bss.UARTD2,"aw",%nobits
 989      0080
 990              		.align	2
 991              		.set	.LANCHOR0,. + 0
 992              		.type	UARTD2, %object
 993              		.size	UARTD2, 28
 994              	UARTD2:
 995 0000 00000000 		.space	28
 995      00000000 
 995      00000000 
 995      00000000 
 995      00000000 
 996              		.text
 997              	.Letext0:
 998              		.file 2 "c:\\program files (x86)\\codesourcery\\sourcery_codebench_lite_for_arm_eabi\\bin\\../lib/
 999              		.file 3 "c:\\program files (x86)\\codesourcery\\sourcery_codebench_lite_for_arm_eabi\\bin\\../lib/
 1000              		.file 4 "../../os/ports/GCC/ARMCMx/chtypes.h"
 1001              		.file 5 "../../os/hal/platforms/STM32F4xx/stm32f4xx.h"
 1002              		.file 6 "../../os/hal/platforms/STM32F4xx/stm32_dma.h"
 1003              		.file 7 "../../os/hal/include/uart.h"
 1004              		.file 8 "../../os/hal/platforms/STM32/USARTv1/uart_lld.h"
 1005              		.file 9 "../../os/ports/common/ARMCMx/CMSIS/include/core_cm4.h"
 1006              		.file 10 "../../os/ports/GCC/ARMCMx/chcore_v7m.h"
 1007              		.file 11 "../../os/ports/common/ARMCMx/nvic.h"
 1008              		.section	.debug_info,"",%progbits
 1009              	.Ldebug_info0:
 1010 0000 EE0E0000 		.4byte	0xeee
ARM GAS  C:\Users\LAB_ME~1\AppData\Local\Temp\ccPnnEr8.s 			page 19


 1011 0004 0200     		.2byte	0x2
 1012 0006 00000000 		.4byte	.Ldebug_abbrev0
 1013 000a 04       		.byte	0x4
 1014 000b 01       		.uleb128 0x1
 1015 000c 05060000 		.4byte	.LASF207
 1016 0010 01       		.byte	0x1
 1017 0011 91090000 		.4byte	.LASF208
 1018 0015 E9050000 		.4byte	.LASF209
 1019 0019 E0000000 		.4byte	.Ldebug_ranges0+0xe0
 1020 001d 00000000 		.4byte	0
 1021 0021 00000000 		.4byte	0
 1022 0025 00000000 		.4byte	.Ldebug_line0
 1023 0029 02       		.uleb128 0x2
 1024 002a 04       		.byte	0x4
 1025 002b 05       		.byte	0x5
 1026 002c 696E7400 		.ascii	"int\000"
 1027 0030 03       		.uleb128 0x3
 1028 0031 60000000 		.4byte	.LASF2
 1029 0035 02       		.byte	0x2
 1030 0036 D5       		.byte	0xd5
 1031 0037 3B000000 		.4byte	0x3b
 1032 003b 04       		.uleb128 0x4
 1033 003c 04       		.byte	0x4
 1034 003d 07       		.byte	0x7
 1035 003e 47030000 		.4byte	.LASF0
 1036 0042 04       		.uleb128 0x4
 1037 0043 01       		.byte	0x1
 1038 0044 06       		.byte	0x6
 1039 0045 A3010000 		.4byte	.LASF1
 1040 0049 03       		.uleb128 0x3
 1041 004a 5D090000 		.4byte	.LASF3
 1042 004e 03       		.byte	0x3
 1043 004f 2A       		.byte	0x2a
 1044 0050 54000000 		.4byte	0x54
 1045 0054 04       		.uleb128 0x4
 1046 0055 01       		.byte	0x1
 1047 0056 08       		.byte	0x8
 1048 0057 B3060000 		.4byte	.LASF4
 1049 005b 04       		.uleb128 0x4
 1050 005c 02       		.byte	0x2
 1051 005d 05       		.byte	0x5
 1052 005e 20070000 		.4byte	.LASF5
 1053 0062 03       		.uleb128 0x3
 1054 0063 45020000 		.4byte	.LASF6
 1055 0067 03       		.byte	0x3
 1056 0068 36       		.byte	0x36
 1057 0069 6D000000 		.4byte	0x6d
 1058 006d 04       		.uleb128 0x4
 1059 006e 02       		.byte	0x2
 1060 006f 07       		.byte	0x7
 1061 0070 08040000 		.4byte	.LASF7
 1062 0074 03       		.uleb128 0x3
 1063 0075 AB060000 		.4byte	.LASF8
 1064 0079 03       		.byte	0x3
 1065 007a 4F       		.byte	0x4f
 1066 007b 7F000000 		.4byte	0x7f
 1067 007f 04       		.uleb128 0x4
ARM GAS  C:\Users\LAB_ME~1\AppData\Local\Temp\ccPnnEr8.s 			page 20


 1068 0080 04       		.byte	0x4
 1069 0081 05       		.byte	0x5
 1070 0082 FD010000 		.4byte	.LASF9
 1071 0086 03       		.uleb128 0x3
 1072 0087 D8030000 		.4byte	.LASF10
 1073 008b 03       		.byte	0x3
 1074 008c 50       		.byte	0x50
 1075 008d 91000000 		.4byte	0x91
 1076 0091 04       		.uleb128 0x4
 1077 0092 04       		.byte	0x4
 1078 0093 07       		.byte	0x7
 1079 0094 B0030000 		.4byte	.LASF11
 1080 0098 04       		.uleb128 0x4
 1081 0099 08       		.byte	0x8
 1082 009a 05       		.byte	0x5
 1083 009b 95010000 		.4byte	.LASF12
 1084 009f 04       		.uleb128 0x4
 1085 00a0 08       		.byte	0x8
 1086 00a1 07       		.byte	0x7
 1087 00a2 4E020000 		.4byte	.LASF13
 1088 00a6 03       		.uleb128 0x3
 1089 00a7 DD000000 		.4byte	.LASF14
 1090 00ab 04       		.byte	0x4
 1091 00ac 27       		.byte	0x27
 1092 00ad 74000000 		.4byte	0x74
 1093 00b1 05       		.uleb128 0x5
 1094 00b2 04       		.byte	0x4
 1095 00b3 06       		.uleb128 0x6
 1096 00b4 86000000 		.4byte	0x86
 1097 00b8 04       		.uleb128 0x4
 1098 00b9 04       		.byte	0x4
 1099 00ba 07       		.byte	0x7
 1100 00bb 0E050000 		.4byte	.LASF15
 1101 00bf 04       		.uleb128 0x4
 1102 00c0 01       		.byte	0x1
 1103 00c1 08       		.byte	0x8
 1104 00c2 F5070000 		.4byte	.LASF16
 1105 00c6 07       		.uleb128 0x7
 1106 00c7 03050000 		.4byte	.LASF210
 1107 00cb 01       		.byte	0x1
 1108 00cc 05       		.byte	0x5
 1109 00cd 8C       		.byte	0x8c
 1110 00ce 01030000 		.4byte	0x301
 1111 00d2 08       		.uleb128 0x8
 1112 00d3 4F080000 		.4byte	.LASF17
 1113 00d7 72       		.sleb128 -14
 1114 00d8 08       		.uleb128 0x8
 1115 00d9 7E030000 		.4byte	.LASF18
 1116 00dd 74       		.sleb128 -12
 1117 00de 08       		.uleb128 0x8
 1118 00df 10080000 		.4byte	.LASF19
 1119 00e3 75       		.sleb128 -11
 1120 00e4 08       		.uleb128 0x8
 1121 00e5 B9070000 		.4byte	.LASF20
 1122 00e9 76       		.sleb128 -10
 1123 00ea 08       		.uleb128 0x8
 1124 00eb FC030000 		.4byte	.LASF21
ARM GAS  C:\Users\LAB_ME~1\AppData\Local\Temp\ccPnnEr8.s 			page 21


 1125 00ef 7B       		.sleb128 -5
 1126 00f0 08       		.uleb128 0x8
 1127 00f1 BE080000 		.4byte	.LASF22
 1128 00f5 7C       		.sleb128 -4
 1129 00f6 08       		.uleb128 0x8
 1130 00f7 A1020000 		.4byte	.LASF23
 1131 00fb 7E       		.sleb128 -2
 1132 00fc 08       		.uleb128 0x8
 1133 00fd B2040000 		.4byte	.LASF24
 1134 0101 7F       		.sleb128 -1
 1135 0102 08       		.uleb128 0x8
 1136 0103 43010000 		.4byte	.LASF25
 1137 0107 00       		.sleb128 0
 1138 0108 08       		.uleb128 0x8
 1139 0109 3B000000 		.4byte	.LASF26
 1140 010d 01       		.sleb128 1
 1141 010e 08       		.uleb128 0x8
 1142 010f 94080000 		.4byte	.LASF27
 1143 0113 02       		.sleb128 2
 1144 0114 08       		.uleb128 0x8
 1145 0115 2F010000 		.4byte	.LASF28
 1146 0119 03       		.sleb128 3
 1147 011a 08       		.uleb128 0x8
 1148 011b 87070000 		.4byte	.LASF29
 1149 011f 04       		.sleb128 4
 1150 0120 08       		.uleb128 0x8
 1151 0121 550A0000 		.4byte	.LASF30
 1152 0125 05       		.sleb128 5
 1153 0126 08       		.uleb128 0x8
 1154 0127 1E090000 		.4byte	.LASF31
 1155 012b 06       		.sleb128 6
 1156 012c 08       		.uleb128 0x8
 1157 012d 800A0000 		.4byte	.LASF32
 1158 0131 07       		.sleb128 7
 1159 0132 08       		.uleb128 0x8
 1160 0133 63070000 		.4byte	.LASF33
 1161 0137 08       		.sleb128 8
 1162 0138 08       		.uleb128 0x8
 1163 0139 9E050000 		.4byte	.LASF34
 1164 013d 09       		.sleb128 9
 1165 013e 08       		.uleb128 0x8
 1166 013f 07070000 		.4byte	.LASF35
 1167 0143 0A       		.sleb128 10
 1168 0144 08       		.uleb128 0x8
 1169 0145 8B0A0000 		.4byte	.LASF36
 1170 0149 0B       		.sleb128 11
 1171 014a 08       		.uleb128 0x8
 1172 014b 6B040000 		.4byte	.LASF37
 1173 014f 0C       		.sleb128 12
 1174 0150 08       		.uleb128 0x8
 1175 0151 B3050000 		.4byte	.LASF38
 1176 0155 0D       		.sleb128 13
 1177 0156 08       		.uleb128 0x8
 1178 0157 54030000 		.4byte	.LASF39
 1179 015b 0E       		.sleb128 14
 1180 015c 08       		.uleb128 0x8
 1181 015d 42050000 		.4byte	.LASF40
ARM GAS  C:\Users\LAB_ME~1\AppData\Local\Temp\ccPnnEr8.s 			page 22


 1182 0161 0F       		.sleb128 15
 1183 0162 08       		.uleb128 0x8
 1184 0163 18020000 		.4byte	.LASF41
 1185 0167 10       		.sleb128 16
 1186 0168 08       		.uleb128 0x8
 1187 0169 6C030000 		.4byte	.LASF42
 1188 016d 11       		.sleb128 17
 1189 016e 08       		.uleb128 0x8
 1190 016f FE090000 		.4byte	.LASF43
 1191 0173 12       		.sleb128 18
 1192 0174 08       		.uleb128 0x8
 1193 0175 3C040000 		.4byte	.LASF44
 1194 0179 13       		.sleb128 19
 1195 017a 08       		.uleb128 0x8
 1196 017b 2D000000 		.4byte	.LASF45
 1197 017f 14       		.sleb128 20
 1198 0180 08       		.uleb128 0x8
 1199 0181 190A0000 		.4byte	.LASF46
 1200 0185 15       		.sleb128 21
 1201 0186 08       		.uleb128 0x8
 1202 0187 270A0000 		.4byte	.LASF47
 1203 018b 16       		.sleb128 22
 1204 018c 08       		.uleb128 0x8
 1205 018d 2A020000 		.4byte	.LASF48
 1206 0191 17       		.sleb128 23
 1207 0192 08       		.uleb128 0x8
 1208 0193 D4060000 		.4byte	.LASF49
 1209 0197 18       		.sleb128 24
 1210 0198 08       		.uleb128 0x8
 1211 0199 F4060000 		.4byte	.LASF50
 1212 019d 19       		.sleb128 25
 1213 019e 08       		.uleb128 0x8
 1214 019f 3F070000 		.4byte	.LASF51
 1215 01a3 1A       		.sleb128 26
 1216 01a4 08       		.uleb128 0x8
 1217 01a5 BF040000 		.4byte	.LASF52
 1218 01a9 1B       		.sleb128 27
 1219 01aa 08       		.uleb128 0x8
 1220 01ab 14090000 		.4byte	.LASF53
 1221 01af 1C       		.sleb128 28
 1222 01b0 08       		.uleb128 0x8
 1223 01b1 6F0A0000 		.4byte	.LASF54
 1224 01b5 1D       		.sleb128 29
 1225 01b6 08       		.uleb128 0x8
 1226 01b7 1A010000 		.4byte	.LASF55
 1227 01bb 1E       		.sleb128 30
 1228 01bc 08       		.uleb128 0x8
 1229 01bd 8D000000 		.4byte	.LASF56
 1230 01c1 1F       		.sleb128 31
 1231 01c2 08       		.uleb128 0x8
 1232 01c3 F1090000 		.4byte	.LASF57
 1233 01c7 20       		.sleb128 32
 1234 01c8 08       		.uleb128 0x8
 1235 01c9 F5080000 		.4byte	.LASF58
 1236 01cd 21       		.sleb128 33
 1237 01ce 08       		.uleb128 0x8
 1238 01cf 0D010000 		.4byte	.LASF59
ARM GAS  C:\Users\LAB_ME~1\AppData\Local\Temp\ccPnnEr8.s 			page 23


 1239 01d3 22       		.sleb128 34
 1240 01d4 08       		.uleb128 0x8
 1241 01d5 61040000 		.4byte	.LASF60
 1242 01d9 23       		.sleb128 35
 1243 01da 08       		.uleb128 0x8
 1244 01db A9050000 		.4byte	.LASF61
 1245 01df 24       		.sleb128 36
 1246 01e0 08       		.uleb128 0x8
 1247 01e1 29090000 		.4byte	.LASF62
 1248 01e5 25       		.sleb128 37
 1249 01e6 08       		.uleb128 0x8
 1250 01e7 AD070000 		.4byte	.LASF63
 1251 01eb 26       		.sleb128 38
 1252 01ec 08       		.uleb128 0x8
 1253 01ed 02090000 		.4byte	.LASF64
 1254 01f1 27       		.sleb128 39
 1255 01f2 08       		.uleb128 0x8
 1256 01f3 52040000 		.4byte	.LASF65
 1257 01f7 28       		.sleb128 40
 1258 01f8 08       		.uleb128 0x8
 1259 01f9 E4000000 		.4byte	.LASF66
 1260 01fd 29       		.sleb128 41
 1261 01fe 08       		.uleb128 0x8
 1262 01ff 90020000 		.4byte	.LASF67
 1263 0203 2A       		.sleb128 42
 1264 0204 08       		.uleb128 0x8
 1265 0205 9E040000 		.4byte	.LASF68
 1266 0209 2B       		.sleb128 43
 1267 020a 08       		.uleb128 0x8
 1268 020b AD020000 		.4byte	.LASF69
 1269 020f 2C       		.sleb128 44
 1270 0210 08       		.uleb128 0x8
 1271 0211 DB040000 		.4byte	.LASF70
 1272 0215 2D       		.sleb128 45
 1273 0216 08       		.uleb128 0x8
 1274 0217 72010000 		.4byte	.LASF71
 1275 021b 2E       		.sleb128 46
 1276 021c 08       		.uleb128 0x8
 1277 021d E3070000 		.4byte	.LASF72
 1278 0221 2F       		.sleb128 47
 1279 0222 08       		.uleb128 0x8
 1280 0223 A1060000 		.4byte	.LASF73
 1281 0227 30       		.sleb128 48
 1282 0228 08       		.uleb128 0x8
 1283 0229 4D010000 		.4byte	.LASF74
 1284 022d 31       		.sleb128 49
 1285 022e 08       		.uleb128 0x8
 1286 022f 7A050000 		.4byte	.LASF75
 1287 0233 32       		.sleb128 50
 1288 0234 08       		.uleb128 0x8
 1289 0235 85060000 		.4byte	.LASF76
 1290 0239 33       		.sleb128 51
 1291 023a 08       		.uleb128 0x8
 1292 023b 85020000 		.4byte	.LASF77
 1293 023f 34       		.sleb128 52
 1294 0240 08       		.uleb128 0x8
 1295 0241 34070000 		.4byte	.LASF78
ARM GAS  C:\Users\LAB_ME~1\AppData\Local\Temp\ccPnnEr8.s 			page 24


 1296 0245 35       		.sleb128 53
 1297 0246 08       		.uleb128 0x8
 1298 0247 6F020000 		.4byte	.LASF79
 1299 024b 36       		.sleb128 54
 1300 024c 08       		.uleb128 0x8
 1301 024d 32080000 		.4byte	.LASF80
 1302 0251 37       		.sleb128 55
 1303 0252 08       		.uleb128 0x8
 1304 0253 D0080000 		.4byte	.LASF81
 1305 0257 38       		.sleb128 56
 1306 0258 08       		.uleb128 0x8
 1307 0259 070A0000 		.4byte	.LASF82
 1308 025d 39       		.sleb128 57
 1309 025e 08       		.uleb128 0x8
 1310 025f 54050000 		.4byte	.LASF83
 1311 0263 3A       		.sleb128 58
 1312 0264 08       		.uleb128 0x8
 1313 0265 FE020000 		.4byte	.LASF84
 1314 0269 3B       		.sleb128 59
 1315 026a 08       		.uleb128 0x8
 1316 026b 8F060000 		.4byte	.LASF85
 1317 026f 3C       		.sleb128 60
 1318 0270 08       		.uleb128 0x8
 1319 0271 17050000 		.4byte	.LASF86
 1320 0275 3D       		.sleb128 61
 1321 0276 08       		.uleb128 0x8
 1322 0277 37020000 		.4byte	.LASF87
 1323 027b 3E       		.sleb128 62
 1324 027c 08       		.uleb128 0x8
 1325 027d C5050000 		.4byte	.LASF88
 1326 0281 3F       		.sleb128 63
 1327 0282 08       		.uleb128 0x8
 1328 0283 44000000 		.4byte	.LASF89
 1329 0287 C000     		.sleb128 64
 1330 0289 08       		.uleb128 0x8
 1331 028a AF010000 		.4byte	.LASF90
 1332 028e C100     		.sleb128 65
 1333 0290 08       		.uleb128 0x8
 1334 0291 470A0000 		.4byte	.LASF91
 1335 0295 C200     		.sleb128 66
 1336 0297 08       		.uleb128 0x8
 1337 0298 97070000 		.4byte	.LASF92
 1338 029c C300     		.sleb128 67
 1339 029e 08       		.uleb128 0x8
 1340 029f A9000000 		.4byte	.LASF93
 1341 02a3 C400     		.sleb128 68
 1342 02a5 08       		.uleb128 0x8
 1343 02a6 DD010000 		.4byte	.LASF94
 1344 02aa C500     		.sleb128 69
 1345 02ac 08       		.uleb128 0x8
 1346 02ad 15030000 		.4byte	.LASF95
 1347 02b1 C600     		.sleb128 70
 1348 02b3 08       		.uleb128 0x8
 1349 02b4 66050000 		.4byte	.LASF96
 1350 02b8 C700     		.sleb128 71
 1351 02ba 08       		.uleb128 0x8
 1352 02bb A3030000 		.4byte	.LASF97
ARM GAS  C:\Users\LAB_ME~1\AppData\Local\Temp\ccPnnEr8.s 			page 25


 1353 02bf C800     		.sleb128 72
 1354 02c1 08       		.uleb128 0x8
 1355 02c2 71000000 		.4byte	.LASF98
 1356 02c6 C900     		.sleb128 73
 1357 02c8 08       		.uleb128 0x8
 1358 02c9 E8030000 		.4byte	.LASF99
 1359 02cd CA00     		.sleb128 74
 1360 02cf 08       		.uleb128 0x8
 1361 02d0 3C080000 		.4byte	.LASF100
 1362 02d4 CB00     		.sleb128 75
 1363 02d6 08       		.uleb128 0x8
 1364 02d7 5E0A0000 		.4byte	.LASF101
 1365 02db CC00     		.sleb128 76
 1366 02dd 08       		.uleb128 0x8
 1367 02de 1A060000 		.4byte	.LASF102
 1368 02e2 CD00     		.sleb128 77
 1369 02e4 08       		.uleb128 0x8
 1370 02e5 71090000 		.4byte	.LASF103
 1371 02e9 CE00     		.sleb128 78
 1372 02eb 08       		.uleb128 0x8
 1373 02ec BD010000 		.4byte	.LASF104
 1374 02f0 CF00     		.sleb128 79
 1375 02f2 08       		.uleb128 0x8
 1376 02f3 12070000 		.4byte	.LASF105
 1377 02f7 D000     		.sleb128 80
 1378 02f9 08       		.uleb128 0x8
 1379 02fa C1090000 		.4byte	.LASF106
 1380 02fe D100     		.sleb128 81
 1381 0300 00       		.byte	0
 1382 0301 09       		.uleb128 0x9
 1383 0302 86000000 		.4byte	0x86
 1384 0306 11030000 		.4byte	0x311
 1385 030a 0A       		.uleb128 0xa
 1386 030b B8000000 		.4byte	0xb8
 1387 030f 01       		.byte	0x1
 1388 0310 00       		.byte	0
 1389 0311 06       		.uleb128 0x6
 1390 0312 62000000 		.4byte	0x62
 1391 0316 06       		.uleb128 0x6
 1392 0317 74000000 		.4byte	0x74
 1393 031b 0B       		.uleb128 0xb
 1394 031c 18       		.byte	0x18
 1395 031d 05       		.byte	0x5
 1396 031e D301     		.2byte	0x1d3
 1397 0320 7E030000 		.4byte	0x37e
 1398 0324 0C       		.uleb128 0xc
 1399 0325 435200   		.ascii	"CR\000"
 1400 0328 05       		.byte	0x5
 1401 0329 D501     		.2byte	0x1d5
 1402 032b B3000000 		.4byte	0xb3
 1403 032f 02       		.byte	0x2
 1404 0330 23       		.byte	0x23
 1405 0331 00       		.uleb128 0
 1406 0332 0D       		.uleb128 0xd
 1407 0333 10030000 		.4byte	.LASF107
 1408 0337 05       		.byte	0x5
 1409 0338 D601     		.2byte	0x1d6
ARM GAS  C:\Users\LAB_ME~1\AppData\Local\Temp\ccPnnEr8.s 			page 26


 1410 033a B3000000 		.4byte	0xb3
 1411 033e 02       		.byte	0x2
 1412 033f 23       		.byte	0x23
 1413 0340 04       		.uleb128 0x4
 1414 0341 0C       		.uleb128 0xc
 1415 0342 50415200 		.ascii	"PAR\000"
 1416 0346 05       		.byte	0x5
 1417 0347 D701     		.2byte	0x1d7
 1418 0349 B3000000 		.4byte	0xb3
 1419 034d 02       		.byte	0x2
 1420 034e 23       		.byte	0x23
 1421 034f 08       		.uleb128 0x8
 1422 0350 0D       		.uleb128 0xd
 1423 0351 88000000 		.4byte	.LASF108
 1424 0355 05       		.byte	0x5
 1425 0356 D801     		.2byte	0x1d8
 1426 0358 B3000000 		.4byte	0xb3
 1427 035c 02       		.byte	0x2
 1428 035d 23       		.byte	0x23
 1429 035e 0C       		.uleb128 0xc
 1430 035f 0D       		.uleb128 0xd
 1431 0360 E2080000 		.4byte	.LASF109
 1432 0364 05       		.byte	0x5
 1433 0365 D901     		.2byte	0x1d9
 1434 0367 B3000000 		.4byte	0xb3
 1435 036b 02       		.byte	0x2
 1436 036c 23       		.byte	0x23
 1437 036d 10       		.uleb128 0x10
 1438 036e 0C       		.uleb128 0xc
 1439 036f 46435200 		.ascii	"FCR\000"
 1440 0373 05       		.byte	0x5
 1441 0374 DA01     		.2byte	0x1da
 1442 0376 B3000000 		.4byte	0xb3
 1443 037a 02       		.byte	0x2
 1444 037b 23       		.byte	0x23
 1445 037c 14       		.uleb128 0x14
 1446 037d 00       		.byte	0
 1447 037e 0E       		.uleb128 0xe
 1448 037f 79080000 		.4byte	.LASF110
 1449 0383 05       		.byte	0x5
 1450 0384 DB01     		.2byte	0x1db
 1451 0386 1B030000 		.4byte	0x31b
 1452 038a 0B       		.uleb128 0xb
 1453 038b 88       		.byte	0x88
 1454 038c 05       		.byte	0x5
 1455 038d DB02     		.2byte	0x2db
 1456 038f 57050000 		.4byte	0x557
 1457 0393 0C       		.uleb128 0xc
 1458 0394 435200   		.ascii	"CR\000"
 1459 0397 05       		.byte	0x5
 1460 0398 DD02     		.2byte	0x2dd
 1461 039a B3000000 		.4byte	0xb3
 1462 039e 02       		.byte	0x2
 1463 039f 23       		.byte	0x23
 1464 03a0 00       		.uleb128 0
 1465 03a1 0D       		.uleb128 0xd
 1466 03a2 7D020000 		.4byte	.LASF111
ARM GAS  C:\Users\LAB_ME~1\AppData\Local\Temp\ccPnnEr8.s 			page 27


 1467 03a6 05       		.byte	0x5
 1468 03a7 DE02     		.2byte	0x2de
 1469 03a9 B3000000 		.4byte	0xb3
 1470 03ad 02       		.byte	0x2
 1471 03ae 23       		.byte	0x23
 1472 03af 04       		.uleb128 0x4
 1473 03b0 0D       		.uleb128 0xd
 1474 03b1 CA090000 		.4byte	.LASF112
 1475 03b5 05       		.byte	0x5
 1476 03b6 DF02     		.2byte	0x2df
 1477 03b8 B3000000 		.4byte	0xb3
 1478 03bc 02       		.byte	0x2
 1479 03bd 23       		.byte	0x23
 1480 03be 08       		.uleb128 0x8
 1481 03bf 0C       		.uleb128 0xc
 1482 03c0 43495200 		.ascii	"CIR\000"
 1483 03c4 05       		.byte	0x5
 1484 03c5 E002     		.2byte	0x2e0
 1485 03c7 B3000000 		.4byte	0xb3
 1486 03cb 02       		.byte	0x2
 1487 03cc 23       		.byte	0x23
 1488 03cd 0C       		.uleb128 0xc
 1489 03ce 0D       		.uleb128 0xd
 1490 03cf C7010000 		.4byte	.LASF113
 1491 03d3 05       		.byte	0x5
 1492 03d4 E102     		.2byte	0x2e1
 1493 03d6 B3000000 		.4byte	0xb3
 1494 03da 02       		.byte	0x2
 1495 03db 23       		.byte	0x23
 1496 03dc 10       		.uleb128 0x10
 1497 03dd 0D       		.uleb128 0xd
 1498 03de DA020000 		.4byte	.LASF114
 1499 03e2 05       		.byte	0x5
 1500 03e3 E202     		.2byte	0x2e2
 1501 03e5 B3000000 		.4byte	0xb3
 1502 03e9 02       		.byte	0x2
 1503 03ea 23       		.byte	0x23
 1504 03eb 14       		.uleb128 0x14
 1505 03ec 0D       		.uleb128 0xd
 1506 03ed 49040000 		.4byte	.LASF115
 1507 03f1 05       		.byte	0x5
 1508 03f2 E302     		.2byte	0x2e3
 1509 03f4 B3000000 		.4byte	0xb3
 1510 03f8 02       		.byte	0x2
 1511 03f9 23       		.byte	0x23
 1512 03fa 18       		.uleb128 0x18
 1513 03fb 0D       		.uleb128 0xd
 1514 03fc 2C060000 		.4byte	.LASF116
 1515 0400 05       		.byte	0x5
 1516 0401 E402     		.2byte	0x2e4
 1517 0403 86000000 		.4byte	0x86
 1518 0407 02       		.byte	0x2
 1519 0408 23       		.byte	0x23
 1520 0409 1C       		.uleb128 0x1c
 1521 040a 0D       		.uleb128 0xd
 1522 040b 11060000 		.4byte	.LASF117
 1523 040f 05       		.byte	0x5
ARM GAS  C:\Users\LAB_ME~1\AppData\Local\Temp\ccPnnEr8.s 			page 28


 1524 0410 E502     		.2byte	0x2e5
 1525 0412 B3000000 		.4byte	0xb3
 1526 0416 02       		.byte	0x2
 1527 0417 23       		.byte	0x23
 1528 0418 20       		.uleb128 0x20
 1529 0419 0D       		.uleb128 0xd
 1530 041a 06020000 		.4byte	.LASF118
 1531 041e 05       		.byte	0x5
 1532 041f E602     		.2byte	0x2e6
 1533 0421 B3000000 		.4byte	0xb3
 1534 0425 02       		.byte	0x2
 1535 0426 23       		.byte	0x23
 1536 0427 24       		.uleb128 0x24
 1537 0428 0D       		.uleb128 0xd
 1538 0429 36060000 		.4byte	.LASF119
 1539 042d 05       		.byte	0x5
 1540 042e E702     		.2byte	0x2e7
 1541 0430 01030000 		.4byte	0x301
 1542 0434 02       		.byte	0x2
 1543 0435 23       		.byte	0x23
 1544 0436 28       		.uleb128 0x28
 1545 0437 0D       		.uleb128 0xd
 1546 0438 89090000 		.4byte	.LASF120
 1547 043c 05       		.byte	0x5
 1548 043d E802     		.2byte	0x2e8
 1549 043f B3000000 		.4byte	0xb3
 1550 0443 02       		.byte	0x2
 1551 0444 23       		.byte	0x23
 1552 0445 30       		.uleb128 0x30
 1553 0446 0D       		.uleb128 0xd
 1554 0447 8C080000 		.4byte	.LASF121
 1555 044b 05       		.byte	0x5
 1556 044c E902     		.2byte	0x2e9
 1557 044e B3000000 		.4byte	0xb3
 1558 0452 02       		.byte	0x2
 1559 0453 23       		.byte	0x23
 1560 0454 34       		.uleb128 0x34
 1561 0455 0D       		.uleb128 0xd
 1562 0456 72050000 		.4byte	.LASF122
 1563 045a 05       		.byte	0x5
 1564 045b EA02     		.2byte	0x2ea
 1565 045d B3000000 		.4byte	0xb3
 1566 0461 02       		.byte	0x2
 1567 0462 23       		.byte	0x23
 1568 0463 38       		.uleb128 0x38
 1569 0464 0D       		.uleb128 0xd
 1570 0465 40060000 		.4byte	.LASF123
 1571 0469 05       		.byte	0x5
 1572 046a EB02     		.2byte	0x2eb
 1573 046c 86000000 		.4byte	0x86
 1574 0470 02       		.byte	0x2
 1575 0471 23       		.byte	0x23
 1576 0472 3C       		.uleb128 0x3c
 1577 0473 0D       		.uleb128 0xd
 1578 0474 C9070000 		.4byte	.LASF124
 1579 0478 05       		.byte	0x5
 1580 0479 EC02     		.2byte	0x2ec
ARM GAS  C:\Users\LAB_ME~1\AppData\Local\Temp\ccPnnEr8.s 			page 29


 1581 047b B3000000 		.4byte	0xb3
 1582 047f 02       		.byte	0x2
 1583 0480 23       		.byte	0x23
 1584 0481 40       		.uleb128 0x40
 1585 0482 0D       		.uleb128 0xd
 1586 0483 6E070000 		.4byte	.LASF125
 1587 0487 05       		.byte	0x5
 1588 0488 ED02     		.2byte	0x2ed
 1589 048a B3000000 		.4byte	0xb3
 1590 048e 02       		.byte	0x2
 1591 048f 23       		.byte	0x23
 1592 0490 44       		.uleb128 0x44
 1593 0491 0D       		.uleb128 0xd
 1594 0492 4A060000 		.4byte	.LASF126
 1595 0496 05       		.byte	0x5
 1596 0497 EE02     		.2byte	0x2ee
 1597 0499 01030000 		.4byte	0x301
 1598 049d 02       		.byte	0x2
 1599 049e 23       		.byte	0x23
 1600 049f 48       		.uleb128 0x48
 1601 04a0 0D       		.uleb128 0xd
 1602 04a1 57010000 		.4byte	.LASF127
 1603 04a5 05       		.byte	0x5
 1604 04a6 EF02     		.2byte	0x2ef
 1605 04a8 B3000000 		.4byte	0xb3
 1606 04ac 02       		.byte	0x2
 1607 04ad 23       		.byte	0x23
 1608 04ae 50       		.uleb128 0x50
 1609 04af 0D       		.uleb128 0xd
 1610 04b0 D3000000 		.4byte	.LASF128
 1611 04b4 05       		.byte	0x5
 1612 04b5 F002     		.2byte	0x2f0
 1613 04b7 B3000000 		.4byte	0xb3
 1614 04bb 02       		.byte	0x2
 1615 04bc 23       		.byte	0x23
 1616 04bd 54       		.uleb128 0x54
 1617 04be 0D       		.uleb128 0xd
 1618 04bf 2A070000 		.4byte	.LASF129
 1619 04c3 05       		.byte	0x5
 1620 04c4 F102     		.2byte	0x2f1
 1621 04c6 B3000000 		.4byte	0xb3
 1622 04ca 02       		.byte	0x2
 1623 04cb 23       		.byte	0x23
 1624 04cc 58       		.uleb128 0x58
 1625 04cd 0D       		.uleb128 0xd
 1626 04ce 54060000 		.4byte	.LASF130
 1627 04d2 05       		.byte	0x5
 1628 04d3 F202     		.2byte	0x2f2
 1629 04d5 86000000 		.4byte	0x86
 1630 04d9 02       		.byte	0x2
 1631 04da 23       		.byte	0x23
 1632 04db 5C       		.uleb128 0x5c
 1633 04dc 0D       		.uleb128 0xd
 1634 04dd 17000000 		.4byte	.LASF131
 1635 04e1 05       		.byte	0x5
 1636 04e2 F302     		.2byte	0x2f3
 1637 04e4 B3000000 		.4byte	0xb3
ARM GAS  C:\Users\LAB_ME~1\AppData\Local\Temp\ccPnnEr8.s 			page 30


 1638 04e8 02       		.byte	0x2
 1639 04e9 23       		.byte	0x23
 1640 04ea 60       		.uleb128 0x60
 1641 04eb 0D       		.uleb128 0xd
 1642 04ec 8B040000 		.4byte	.LASF132
 1643 04f0 05       		.byte	0x5
 1644 04f1 F402     		.2byte	0x2f4
 1645 04f3 B3000000 		.4byte	0xb3
 1646 04f7 02       		.byte	0x2
 1647 04f8 23       		.byte	0x23
 1648 04f9 64       		.uleb128 0x64
 1649 04fa 0D       		.uleb128 0xd
 1650 04fb 5E060000 		.4byte	.LASF133
 1651 04ff 05       		.byte	0x5
 1652 0500 F502     		.2byte	0x2f5
 1653 0502 01030000 		.4byte	0x301
 1654 0506 02       		.byte	0x2
 1655 0507 23       		.byte	0x23
 1656 0508 68       		.uleb128 0x68
 1657 0509 0D       		.uleb128 0xd
 1658 050a 35090000 		.4byte	.LASF134
 1659 050e 05       		.byte	0x5
 1660 050f F602     		.2byte	0x2f6
 1661 0511 B3000000 		.4byte	0xb3
 1662 0515 02       		.byte	0x2
 1663 0516 23       		.byte	0x23
 1664 0517 70       		.uleb128 0x70
 1665 0518 0C       		.uleb128 0xc
 1666 0519 43535200 		.ascii	"CSR\000"
 1667 051d 05       		.byte	0x5
 1668 051e F702     		.2byte	0x2f7
 1669 0520 B3000000 		.4byte	0xb3
 1670 0524 02       		.byte	0x2
 1671 0525 23       		.byte	0x23
 1672 0526 74       		.uleb128 0x74
 1673 0527 0D       		.uleb128 0xd
 1674 0528 68060000 		.4byte	.LASF135
 1675 052c 05       		.byte	0x5
 1676 052d F802     		.2byte	0x2f8
 1677 052f 01030000 		.4byte	0x301
 1678 0533 02       		.byte	0x2
 1679 0534 23       		.byte	0x23
 1680 0535 78       		.uleb128 0x78
 1681 0536 0D       		.uleb128 0xd
 1682 0537 0E090000 		.4byte	.LASF136
 1683 053b 05       		.byte	0x5
 1684 053c F902     		.2byte	0x2f9
 1685 053e B3000000 		.4byte	0xb3
 1686 0542 03       		.byte	0x3
 1687 0543 23       		.byte	0x23
 1688 0544 8001     		.uleb128 0x80
 1689 0546 0D       		.uleb128 0xd
 1690 0547 31040000 		.4byte	.LASF137
 1691 054b 05       		.byte	0x5
 1692 054c FA02     		.2byte	0x2fa
 1693 054e B3000000 		.4byte	0xb3
 1694 0552 03       		.byte	0x3
ARM GAS  C:\Users\LAB_ME~1\AppData\Local\Temp\ccPnnEr8.s 			page 31


 1695 0553 23       		.byte	0x23
 1696 0554 8401     		.uleb128 0x84
 1697 0556 00       		.byte	0
 1698 0557 0E       		.uleb128 0xe
 1699 0558 CC030000 		.4byte	.LASF138
 1700 055c 05       		.byte	0x5
 1701 055d FB02     		.2byte	0x2fb
 1702 055f 8A030000 		.4byte	0x38a
 1703 0563 0B       		.uleb128 0xb
 1704 0564 1C       		.byte	0x1c
 1705 0565 05       		.byte	0x5
 1706 0566 9303     		.2byte	0x393
 1707 0568 3D060000 		.4byte	0x63d
 1708 056c 0C       		.uleb128 0xc
 1709 056d 535200   		.ascii	"SR\000"
 1710 0570 05       		.byte	0x5
 1711 0571 9503     		.2byte	0x395
 1712 0573 11030000 		.4byte	0x311
 1713 0577 02       		.byte	0x2
 1714 0578 23       		.byte	0x23
 1715 0579 00       		.uleb128 0
 1716 057a 0D       		.uleb128 0xd
 1717 057b 2C060000 		.4byte	.LASF116
 1718 057f 05       		.byte	0x5
 1719 0580 9603     		.2byte	0x396
 1720 0582 62000000 		.4byte	0x62
 1721 0586 02       		.byte	0x2
 1722 0587 23       		.byte	0x23
 1723 0588 02       		.uleb128 0x2
 1724 0589 0C       		.uleb128 0xc
 1725 058a 445200   		.ascii	"DR\000"
 1726 058d 05       		.byte	0x5
 1727 058e 9703     		.2byte	0x397
 1728 0590 11030000 		.4byte	0x311
 1729 0594 02       		.byte	0x2
 1730 0595 23       		.byte	0x23
 1731 0596 04       		.uleb128 0x4
 1732 0597 0D       		.uleb128 0xd
 1733 0598 36060000 		.4byte	.LASF119
 1734 059c 05       		.byte	0x5
 1735 059d 9803     		.2byte	0x398
 1736 059f 62000000 		.4byte	0x62
 1737 05a3 02       		.byte	0x2
 1738 05a4 23       		.byte	0x23
 1739 05a5 06       		.uleb128 0x6
 1740 05a6 0C       		.uleb128 0xc
 1741 05a7 42525200 		.ascii	"BRR\000"
 1742 05ab 05       		.byte	0x5
 1743 05ac 9903     		.2byte	0x399
 1744 05ae 11030000 		.4byte	0x311
 1745 05b2 02       		.byte	0x2
 1746 05b3 23       		.byte	0x23
 1747 05b4 08       		.uleb128 0x8
 1748 05b5 0D       		.uleb128 0xd
 1749 05b6 40060000 		.4byte	.LASF123
 1750 05ba 05       		.byte	0x5
 1751 05bb 9A03     		.2byte	0x39a
ARM GAS  C:\Users\LAB_ME~1\AppData\Local\Temp\ccPnnEr8.s 			page 32


 1752 05bd 62000000 		.4byte	0x62
 1753 05c1 02       		.byte	0x2
 1754 05c2 23       		.byte	0x23
 1755 05c3 0A       		.uleb128 0xa
 1756 05c4 0C       		.uleb128 0xc
 1757 05c5 43523100 		.ascii	"CR1\000"
 1758 05c9 05       		.byte	0x5
 1759 05ca 9B03     		.2byte	0x39b
 1760 05cc 11030000 		.4byte	0x311
 1761 05d0 02       		.byte	0x2
 1762 05d1 23       		.byte	0x23
 1763 05d2 0C       		.uleb128 0xc
 1764 05d3 0D       		.uleb128 0xd
 1765 05d4 4A060000 		.4byte	.LASF126
 1766 05d8 05       		.byte	0x5
 1767 05d9 9C03     		.2byte	0x39c
 1768 05db 62000000 		.4byte	0x62
 1769 05df 02       		.byte	0x2
 1770 05e0 23       		.byte	0x23
 1771 05e1 0E       		.uleb128 0xe
 1772 05e2 0C       		.uleb128 0xc
 1773 05e3 43523200 		.ascii	"CR2\000"
 1774 05e7 05       		.byte	0x5
 1775 05e8 9D03     		.2byte	0x39d
 1776 05ea 11030000 		.4byte	0x311
 1777 05ee 02       		.byte	0x2
 1778 05ef 23       		.byte	0x23
 1779 05f0 10       		.uleb128 0x10
 1780 05f1 0D       		.uleb128 0xd
 1781 05f2 54060000 		.4byte	.LASF130
 1782 05f6 05       		.byte	0x5
 1783 05f7 9E03     		.2byte	0x39e
 1784 05f9 62000000 		.4byte	0x62
 1785 05fd 02       		.byte	0x2
 1786 05fe 23       		.byte	0x23
 1787 05ff 12       		.uleb128 0x12
 1788 0600 0C       		.uleb128 0xc
 1789 0601 43523300 		.ascii	"CR3\000"
 1790 0605 05       		.byte	0x5
 1791 0606 9F03     		.2byte	0x39f
 1792 0608 11030000 		.4byte	0x311
 1793 060c 02       		.byte	0x2
 1794 060d 23       		.byte	0x23
 1795 060e 14       		.uleb128 0x14
 1796 060f 0D       		.uleb128 0xd
 1797 0610 5E060000 		.4byte	.LASF133
 1798 0614 05       		.byte	0x5
 1799 0615 A003     		.2byte	0x3a0
 1800 0617 62000000 		.4byte	0x62
 1801 061b 02       		.byte	0x2
 1802 061c 23       		.byte	0x23
 1803 061d 16       		.uleb128 0x16
 1804 061e 0D       		.uleb128 0xd
 1805 061f D0010000 		.4byte	.LASF139
 1806 0623 05       		.byte	0x5
 1807 0624 A103     		.2byte	0x3a1
 1808 0626 11030000 		.4byte	0x311
ARM GAS  C:\Users\LAB_ME~1\AppData\Local\Temp\ccPnnEr8.s 			page 33


 1809 062a 02       		.byte	0x2
 1810 062b 23       		.byte	0x23
 1811 062c 18       		.uleb128 0x18
 1812 062d 0D       		.uleb128 0xd
 1813 062e 68060000 		.4byte	.LASF135
 1814 0632 05       		.byte	0x5
 1815 0633 A203     		.2byte	0x3a2
 1816 0635 62000000 		.4byte	0x62
 1817 0639 02       		.byte	0x2
 1818 063a 23       		.byte	0x23
 1819 063b 1A       		.uleb128 0x1a
 1820 063c 00       		.byte	0
 1821 063d 0E       		.uleb128 0xe
 1822 063e 7D040000 		.4byte	.LASF140
 1823 0642 05       		.byte	0x5
 1824 0643 A303     		.2byte	0x3a3
 1825 0645 63050000 		.4byte	0x563
 1826 0649 0F       		.uleb128 0xf
 1827 064a 0C       		.byte	0xc
 1828 064b 06       		.byte	0x6
 1829 064c DE       		.byte	0xde
 1830 064d 98060000 		.4byte	0x698
 1831 0651 10       		.uleb128 0x10
 1832 0652 BB000000 		.4byte	.LASF141
 1833 0656 06       		.byte	0x6
 1834 0657 DF       		.byte	0xdf
 1835 0658 98060000 		.4byte	0x698
 1836 065c 02       		.byte	0x2
 1837 065d 23       		.byte	0x23
 1838 065e 00       		.uleb128 0
 1839 065f 10       		.uleb128 0x10
 1840 0660 92070000 		.4byte	.LASF142
 1841 0664 06       		.byte	0x6
 1842 0665 E0       		.byte	0xe0
 1843 0666 9E060000 		.4byte	0x69e
 1844 066a 02       		.byte	0x2
 1845 066b 23       		.byte	0x23
 1846 066c 04       		.uleb128 0x4
 1847 066d 10       		.uleb128 0x10
 1848 066e E1030000 		.4byte	.LASF143
 1849 0672 06       		.byte	0x6
 1850 0673 E1       		.byte	0xe1
 1851 0674 49000000 		.4byte	0x49
 1852 0678 02       		.byte	0x2
 1853 0679 23       		.byte	0x23
 1854 067a 08       		.uleb128 0x8
 1855 067b 10       		.uleb128 0x10
 1856 067c E3020000 		.4byte	.LASF144
 1857 0680 06       		.byte	0x6
 1858 0681 E3       		.byte	0xe3
 1859 0682 49000000 		.4byte	0x49
 1860 0686 02       		.byte	0x2
 1861 0687 23       		.byte	0x23
 1862 0688 09       		.uleb128 0x9
 1863 0689 10       		.uleb128 0x10
 1864 068a F3000000 		.4byte	.LASF145
 1865 068e 06       		.byte	0x6
ARM GAS  C:\Users\LAB_ME~1\AppData\Local\Temp\ccPnnEr8.s 			page 34


 1866 068f E4       		.byte	0xe4
 1867 0690 49000000 		.4byte	0x49
 1868 0694 02       		.byte	0x2
 1869 0695 23       		.byte	0x23
 1870 0696 0A       		.uleb128 0xa
 1871 0697 00       		.byte	0
 1872 0698 11       		.uleb128 0x11
 1873 0699 04       		.byte	0x4
 1874 069a 7E030000 		.4byte	0x37e
 1875 069e 11       		.uleb128 0x11
 1876 069f 04       		.byte	0x4
 1877 06a0 B3000000 		.4byte	0xb3
 1878 06a4 03       		.uleb128 0x3
 1879 06a5 72060000 		.4byte	.LASF146
 1880 06a9 06       		.byte	0x6
 1881 06aa E5       		.byte	0xe5
 1882 06ab 49060000 		.4byte	0x649
 1883 06af 03       		.uleb128 0x3
 1884 06b0 94030000 		.4byte	.LASF147
 1885 06b4 06       		.byte	0x6
 1886 06b5 EE       		.byte	0xee
 1887 06b6 BA060000 		.4byte	0x6ba
 1888 06ba 11       		.uleb128 0x11
 1889 06bb 04       		.byte	0x4
 1890 06bc C0060000 		.4byte	0x6c0
 1891 06c0 12       		.uleb128 0x12
 1892 06c1 01       		.byte	0x1
 1893 06c2 D1060000 		.4byte	0x6d1
 1894 06c6 13       		.uleb128 0x13
 1895 06c7 B1000000 		.4byte	0xb1
 1896 06cb 13       		.uleb128 0x13
 1897 06cc 86000000 		.4byte	0x86
 1898 06d0 00       		.byte	0
 1899 06d1 11       		.uleb128 0x11
 1900 06d2 04       		.byte	0x4
 1901 06d3 D7060000 		.4byte	0x6d7
 1902 06d7 14       		.uleb128 0x14
 1903 06d8 A4060000 		.4byte	0x6a4
 1904 06dc 11       		.uleb128 0x11
 1905 06dd 04       		.byte	0x4
 1906 06de 3D060000 		.4byte	0x63d
 1907 06e2 15       		.uleb128 0x15
 1908 06e3 01       		.byte	0x1
 1909 06e4 07       		.byte	0x7
 1910 06e5 41       		.byte	0x41
 1911 06e6 FD060000 		.4byte	0x6fd
 1912 06ea 08       		.uleb128 0x8
 1913 06eb 1B040000 		.4byte	.LASF148
 1914 06ef 00       		.sleb128 0
 1915 06f0 08       		.uleb128 0x8
 1916 06f1 27040000 		.4byte	.LASF149
 1917 06f5 01       		.sleb128 1
 1918 06f6 08       		.uleb128 0x8
 1919 06f7 27030000 		.4byte	.LASF150
 1920 06fb 02       		.sleb128 2
 1921 06fc 00       		.byte	0
 1922 06fd 03       		.uleb128 0x3
ARM GAS  C:\Users\LAB_ME~1\AppData\Local\Temp\ccPnnEr8.s 			page 35


 1923 06fe 57070000 		.4byte	.LASF151
 1924 0702 07       		.byte	0x7
 1925 0703 45       		.byte	0x45
 1926 0704 E2060000 		.4byte	0x6e2
 1927 0708 15       		.uleb128 0x15
 1928 0709 01       		.byte	0x1
 1929 070a 07       		.byte	0x7
 1930 070b 4A       		.byte	0x4a
 1931 070c 23070000 		.4byte	0x723
 1932 0710 08       		.uleb128 0x8
 1933 0711 63080000 		.4byte	.LASF152
 1934 0715 00       		.sleb128 0
 1935 0716 08       		.uleb128 0x8
 1936 0717 32030000 		.4byte	.LASF153
 1937 071b 01       		.sleb128 1
 1938 071c 08       		.uleb128 0x8
 1939 071d 76070000 		.4byte	.LASF154
 1940 0721 02       		.sleb128 2
 1941 0722 00       		.byte	0
 1942 0723 03       		.uleb128 0x3
 1943 0724 DB050000 		.4byte	.LASF155
 1944 0728 07       		.byte	0x7
 1945 0729 4E       		.byte	0x4e
 1946 072a 08070000 		.4byte	0x708
 1947 072e 15       		.uleb128 0x15
 1948 072f 01       		.byte	0x1
 1949 0730 07       		.byte	0x7
 1950 0731 53       		.byte	0x53
 1951 0732 49070000 		.4byte	0x749
 1952 0736 08       		.uleb128 0x8
 1953 0737 25080000 		.4byte	.LASF156
 1954 073b 00       		.sleb128 0
 1955 073c 08       		.uleb128 0x8
 1956 073d CC040000 		.4byte	.LASF157
 1957 0741 01       		.sleb128 1
 1958 0742 08       		.uleb128 0x8
 1959 0743 31050000 		.4byte	.LASF158
 1960 0747 02       		.sleb128 2
 1961 0748 00       		.byte	0
 1962 0749 03       		.uleb128 0x3
 1963 074a E7080000 		.4byte	.LASF159
 1964 074e 07       		.byte	0x7
 1965 074f 57       		.byte	0x57
 1966 0750 2E070000 		.4byte	0x72e
 1967 0754 0E       		.uleb128 0xe
 1968 0755 21000000 		.4byte	.LASF160
 1969 0759 08       		.byte	0x8
 1970 075a 6B01     		.2byte	0x16b
 1971 075c 86000000 		.4byte	0x86
 1972 0760 0E       		.uleb128 0xe
 1973 0761 CF020000 		.4byte	.LASF161
 1974 0765 08       		.byte	0x8
 1975 0766 7001     		.2byte	0x170
 1976 0768 6C070000 		.4byte	0x76c
 1977 076c 16       		.uleb128 0x16
 1978 076d CF020000 		.4byte	.LASF161
 1979 0771 1C       		.byte	0x1c
ARM GAS  C:\Users\LAB_ME~1\AppData\Local\Temp\ccPnnEr8.s 			page 36


 1980 0772 08       		.byte	0x8
 1981 0773 B801     		.2byte	0x1b8
 1982 0775 01080000 		.4byte	0x801
 1983 0779 0D       		.uleb128 0xd
 1984 077a EF010000 		.4byte	.LASF162
 1985 077e 08       		.byte	0x8
 1986 077f BC01     		.2byte	0x1bc
 1987 0781 FD060000 		.4byte	0x6fd
 1988 0785 02       		.byte	0x2
 1989 0786 23       		.byte	0x23
 1990 0787 00       		.uleb128 0
 1991 0788 0D       		.uleb128 0xd
 1992 0789 F5010000 		.4byte	.LASF163
 1993 078d 08       		.byte	0x8
 1994 078e C001     		.2byte	0x1c0
 1995 0790 23070000 		.4byte	0x723
 1996 0794 02       		.byte	0x2
 1997 0795 23       		.byte	0x23
 1998 0796 01       		.uleb128 0x1
 1999 0797 0D       		.uleb128 0xd
 2000 0798 D5010000 		.4byte	.LASF164
 2001 079c 08       		.byte	0x8
 2002 079d C401     		.2byte	0x1c4
 2003 079f 49070000 		.4byte	0x749
 2004 07a3 02       		.byte	0x2
 2005 07a4 23       		.byte	0x23
 2006 07a5 02       		.uleb128 0x2
 2007 07a6 0D       		.uleb128 0xd
 2008 07a7 1E080000 		.4byte	.LASF165
 2009 07ab 08       		.byte	0x8
 2010 07ac C801     		.2byte	0x1c8
 2011 07ae 08090000 		.4byte	0x908
 2012 07b2 02       		.byte	0x2
 2013 07b3 23       		.byte	0x23
 2014 07b4 04       		.uleb128 0x4
 2015 07b5 0D       		.uleb128 0xd
 2016 07b6 41030000 		.4byte	.LASF166
 2017 07ba 08       		.byte	0x8
 2018 07bb D001     		.2byte	0x1d0
 2019 07bd DC060000 		.4byte	0x6dc
 2020 07c1 02       		.byte	0x2
 2021 07c2 23       		.byte	0x23
 2022 07c3 08       		.uleb128 0x8
 2023 07c4 0D       		.uleb128 0xd
 2024 07c5 7B090000 		.4byte	.LASF167
 2025 07c9 08       		.byte	0x8
 2026 07ca D401     		.2byte	0x1d4
 2027 07cc 86000000 		.4byte	0x86
 2028 07d0 02       		.byte	0x2
 2029 07d1 23       		.byte	0x23
 2030 07d2 0C       		.uleb128 0xc
 2031 07d3 0D       		.uleb128 0xd
 2032 07d4 C2000000 		.4byte	.LASF168
 2033 07d8 08       		.byte	0x8
 2034 07d9 D801     		.2byte	0x1d8
 2035 07db D1060000 		.4byte	0x6d1
 2036 07df 02       		.byte	0x2
ARM GAS  C:\Users\LAB_ME~1\AppData\Local\Temp\ccPnnEr8.s 			page 37


 2037 07e0 23       		.byte	0x23
 2038 07e1 10       		.uleb128 0x10
 2039 07e2 0D       		.uleb128 0xd
 2040 07e3 26060000 		.4byte	.LASF169
 2041 07e7 08       		.byte	0x8
 2042 07e8 DC01     		.2byte	0x1dc
 2043 07ea D1060000 		.4byte	0x6d1
 2044 07ee 02       		.byte	0x2
 2045 07ef 23       		.byte	0x23
 2046 07f0 14       		.uleb128 0x14
 2047 07f1 0D       		.uleb128 0xd
 2048 07f2 3D010000 		.4byte	.LASF170
 2049 07f6 08       		.byte	0x8
 2050 07f7 E001     		.2byte	0x1e0
 2051 07f9 11030000 		.4byte	0x311
 2052 07fd 02       		.byte	0x2
 2053 07fe 23       		.byte	0x23
 2054 07ff 18       		.uleb128 0x18
 2055 0800 00       		.byte	0
 2056 0801 0E       		.uleb128 0xe
 2057 0802 0F020000 		.4byte	.LASF171
 2058 0806 08       		.byte	0x8
 2059 0807 7701     		.2byte	0x177
 2060 0809 0D080000 		.4byte	0x80d
 2061 080d 11       		.uleb128 0x11
 2062 080e 04       		.byte	0x4
 2063 080f 13080000 		.4byte	0x813
 2064 0813 12       		.uleb128 0x12
 2065 0814 01       		.byte	0x1
 2066 0815 1F080000 		.4byte	0x81f
 2067 0819 13       		.uleb128 0x13
 2068 081a 1F080000 		.4byte	0x81f
 2069 081e 00       		.byte	0
 2070 081f 11       		.uleb128 0x11
 2071 0820 04       		.byte	0x4
 2072 0821 60070000 		.4byte	0x760
 2073 0825 0E       		.uleb128 0xe
 2074 0826 7E000000 		.4byte	.LASF172
 2075 082a 08       		.byte	0x8
 2076 082b 7F01     		.2byte	0x17f
 2077 082d 31080000 		.4byte	0x831
 2078 0831 11       		.uleb128 0x11
 2079 0832 04       		.byte	0x4
 2080 0833 37080000 		.4byte	0x837
 2081 0837 12       		.uleb128 0x12
 2082 0838 01       		.byte	0x1
 2083 0839 48080000 		.4byte	0x848
 2084 083d 13       		.uleb128 0x13
 2085 083e 1F080000 		.4byte	0x81f
 2086 0842 13       		.uleb128 0x13
 2087 0843 62000000 		.4byte	0x62
 2088 0847 00       		.byte	0
 2089 0848 0E       		.uleb128 0xe
 2090 0849 C2030000 		.4byte	.LASF173
 2091 084d 08       		.byte	0x8
 2092 084e 8701     		.2byte	0x187
 2093 0850 54080000 		.4byte	0x854
ARM GAS  C:\Users\LAB_ME~1\AppData\Local\Temp\ccPnnEr8.s 			page 38


 2094 0854 11       		.uleb128 0x11
 2095 0855 04       		.byte	0x4
 2096 0856 5A080000 		.4byte	0x85a
 2097 085a 12       		.uleb128 0x12
 2098 085b 01       		.byte	0x1
 2099 085c 6B080000 		.4byte	0x86b
 2100 0860 13       		.uleb128 0x13
 2101 0861 1F080000 		.4byte	0x81f
 2102 0865 13       		.uleb128 0x13
 2103 0866 54070000 		.4byte	0x754
 2104 086a 00       		.byte	0
 2105 086b 0B       		.uleb128 0xb
 2106 086c 20       		.byte	0x20
 2107 086d 08       		.byte	0x8
 2108 086e 8D01     		.2byte	0x18d
 2109 0870 FC080000 		.4byte	0x8fc
 2110 0874 0D       		.uleb128 0xd
 2111 0875 A3070000 		.4byte	.LASF174
 2112 0879 08       		.byte	0x8
 2113 087a 9101     		.2byte	0x191
 2114 087c 01080000 		.4byte	0x801
 2115 0880 02       		.byte	0x2
 2116 0881 23       		.byte	0x23
 2117 0882 00       		.uleb128 0
 2118 0883 0D       		.uleb128 0xd
 2119 0884 4D090000 		.4byte	.LASF175
 2120 0888 08       		.byte	0x8
 2121 0889 9501     		.2byte	0x195
 2122 088b 01080000 		.4byte	0x801
 2123 088f 02       		.byte	0x2
 2124 0890 23       		.byte	0x23
 2125 0891 04       		.uleb128 0x4
 2126 0892 0D       		.uleb128 0xd
 2127 0893 D2050000 		.4byte	.LASF176
 2128 0897 08       		.byte	0x8
 2129 0898 9901     		.2byte	0x199
 2130 089a 01080000 		.4byte	0x801
 2131 089e 02       		.byte	0x2
 2132 089f 23       		.byte	0x23
 2133 08a0 08       		.uleb128 0x8
 2134 08a1 0D       		.uleb128 0xd
 2135 08a2 67000000 		.4byte	.LASF177
 2136 08a6 08       		.byte	0x8
 2137 08a7 9D01     		.2byte	0x19d
 2138 08a9 25080000 		.4byte	0x825
 2139 08ad 02       		.byte	0x2
 2140 08ae 23       		.byte	0x23
 2141 08af 0C       		.uleb128 0xc
 2142 08b0 0D       		.uleb128 0xd
 2143 08b1 95040000 		.4byte	.LASF178
 2144 08b5 08       		.byte	0x8
 2145 08b6 A101     		.2byte	0x1a1
 2146 08b8 48080000 		.4byte	0x848
 2147 08bc 02       		.byte	0x2
 2148 08bd 23       		.byte	0x23
 2149 08be 10       		.uleb128 0x10
 2150 08bf 0D       		.uleb128 0xd
ARM GAS  C:\Users\LAB_ME~1\AppData\Local\Temp\ccPnnEr8.s 			page 39


 2151 08c0 83090000 		.4byte	.LASF179
 2152 08c4 08       		.byte	0x8
 2153 08c5 A601     		.2byte	0x1a6
 2154 08c7 86000000 		.4byte	0x86
 2155 08cb 02       		.byte	0x2
 2156 08cc 23       		.byte	0x23
 2157 08cd 14       		.uleb128 0x14
 2158 08ce 0C       		.uleb128 0xc
 2159 08cf 63723100 		.ascii	"cr1\000"
 2160 08d3 08       		.byte	0x8
 2161 08d4 AA01     		.2byte	0x1aa
 2162 08d6 62000000 		.4byte	0x62
 2163 08da 02       		.byte	0x2
 2164 08db 23       		.byte	0x23
 2165 08dc 18       		.uleb128 0x18
 2166 08dd 0C       		.uleb128 0xc
 2167 08de 63723200 		.ascii	"cr2\000"
 2168 08e2 08       		.byte	0x8
 2169 08e3 AE01     		.2byte	0x1ae
 2170 08e5 62000000 		.4byte	0x62
 2171 08e9 02       		.byte	0x2
 2172 08ea 23       		.byte	0x23
 2173 08eb 1A       		.uleb128 0x1a
 2174 08ec 0C       		.uleb128 0xc
 2175 08ed 63723300 		.ascii	"cr3\000"
 2176 08f1 08       		.byte	0x8
 2177 08f2 B201     		.2byte	0x1b2
 2178 08f4 62000000 		.4byte	0x62
 2179 08f8 02       		.byte	0x2
 2180 08f9 23       		.byte	0x23
 2181 08fa 1C       		.uleb128 0x1c
 2182 08fb 00       		.byte	0
 2183 08fc 0E       		.uleb128 0xe
 2184 08fd 24010000 		.4byte	.LASF180
 2185 0901 08       		.byte	0x8
 2186 0902 B301     		.2byte	0x1b3
 2187 0904 6B080000 		.4byte	0x86b
 2188 0908 11       		.uleb128 0x11
 2189 0909 04       		.byte	0x4
 2190 090a 0E090000 		.4byte	0x90e
 2191 090e 14       		.uleb128 0x14
 2192 090f FC080000 		.4byte	0x8fc
 2193 0913 17       		.uleb128 0x17
 2194 0914 A4080000 		.4byte	.LASF183
 2195 0918 01       		.byte	0x1
 2196 0919 D6       		.byte	0xd6
 2197 091a 01       		.byte	0x1
 2198 091b 01       		.byte	0x1
 2199 091c 37090000 		.4byte	0x937
 2200 0920 18       		.uleb128 0x18
 2201 0921 08050000 		.4byte	.LASF181
 2202 0925 01       		.byte	0x1
 2203 0926 D6       		.byte	0xd6
 2204 0927 1F080000 		.4byte	0x81f
 2205 092b 18       		.uleb128 0x18
 2206 092c 57090000 		.4byte	.LASF182
 2207 0930 01       		.byte	0x1
ARM GAS  C:\Users\LAB_ME~1\AppData\Local\Temp\ccPnnEr8.s 			page 40


 2208 0931 D6       		.byte	0xd6
 2209 0932 86000000 		.4byte	0x86
 2210 0936 00       		.byte	0
 2211 0937 19       		.uleb128 0x19
 2212 0938 F3040000 		.4byte	.LASF184
 2213 093c 01       		.byte	0x1
 2214 093d 1B01     		.2byte	0x11b
 2215 093f 01       		.byte	0x1
 2216 0940 01       		.byte	0x1
 2217 0941 67090000 		.4byte	0x967
 2218 0945 1A       		.uleb128 0x1a
 2219 0946 08050000 		.4byte	.LASF181
 2220 094a 01       		.byte	0x1
 2221 094b 1B01     		.2byte	0x11b
 2222 094d 1F080000 		.4byte	0x81f
 2223 0951 1B       		.uleb128 0x1b
 2224 0952 737200   		.ascii	"sr\000"
 2225 0955 01       		.byte	0x1
 2226 0956 1C01     		.2byte	0x11c
 2227 0958 62000000 		.4byte	0x62
 2228 095c 1B       		.uleb128 0x1b
 2229 095d 7500     		.ascii	"u\000"
 2230 095f 01       		.byte	0x1
 2231 0960 1D01     		.2byte	0x11d
 2232 0962 DC060000 		.4byte	0x6dc
 2233 0966 00       		.byte	0
 2234 0967 1C       		.uleb128 0x1c
 2235 0968 ED020000 		.4byte	.LASF185
 2236 096c 01       		.byte	0x1
 2237 096d 83       		.byte	0x83
 2238 096e 01       		.byte	0x1
 2239 096f 00000000 		.4byte	.LFB119
 2240 0973 30000000 		.4byte	.LFE119
 2241 0977 00000000 		.4byte	.LLST0
 2242 097b 01       		.byte	0x1
 2243 097c 9F090000 		.4byte	0x99f
 2244 0980 1D       		.uleb128 0x1d
 2245 0981 08050000 		.4byte	.LASF181
 2246 0985 01       		.byte	0x1
 2247 0986 83       		.byte	0x83
 2248 0987 1F080000 		.4byte	0x81f
 2249 098b 20000000 		.4byte	.LLST1
 2250 098f 1E       		.uleb128 0x1e
 2251 0990 0B080000 		.4byte	.LASF198
 2252 0994 01       		.byte	0x1
 2253 0995 84       		.byte	0x84
 2254 0996 86000000 		.4byte	0x86
 2255 099a 50000000 		.4byte	.LLST2
 2256 099e 00       		.byte	0
 2257 099f 1C       		.uleb128 0x1c
 2258 09a0 C8000000 		.4byte	.LASF186
 2259 09a4 01       		.byte	0x1
 2260 09a5 98       		.byte	0x98
 2261 09a6 01       		.byte	0x1
 2262 09a7 00000000 		.4byte	.LFB120
 2263 09ab 4C000000 		.4byte	.LFE120
 2264 09af A2000000 		.4byte	.LLST3
ARM GAS  C:\Users\LAB_ME~1\AppData\Local\Temp\ccPnnEr8.s 			page 41


 2265 09b3 01       		.byte	0x1
 2266 09b4 C8090000 		.4byte	0x9c8
 2267 09b8 1D       		.uleb128 0x1d
 2268 09b9 08050000 		.4byte	.LASF181
 2269 09bd 01       		.byte	0x1
 2270 09be 98       		.byte	0x98
 2271 09bf 1F080000 		.4byte	0x81f
 2272 09c3 C2000000 		.4byte	.LLST4
 2273 09c7 00       		.byte	0
 2274 09c8 1C       		.uleb128 0x1c
 2275 09c9 84050000 		.4byte	.LASF187
 2276 09cd 01       		.byte	0x1
 2277 09ce FE       		.byte	0xfe
 2278 09cf 01       		.byte	0x1
 2279 09d0 00000000 		.4byte	.LFB123
 2280 09d4 4A000000 		.4byte	.LFE123
 2281 09d8 E3000000 		.4byte	.LLST5
 2282 09dc 01       		.byte	0x1
 2283 09dd 190A0000 		.4byte	0xa19
 2284 09e1 1D       		.uleb128 0x1d
 2285 09e2 08050000 		.4byte	.LASF181
 2286 09e6 01       		.byte	0x1
 2287 09e7 FE       		.byte	0xfe
 2288 09e8 1F080000 		.4byte	0x81f
 2289 09ec 03010000 		.4byte	.LLST6
 2290 09f0 1D       		.uleb128 0x1d
 2291 09f1 57090000 		.4byte	.LASF182
 2292 09f5 01       		.byte	0x1
 2293 09f6 FE       		.byte	0xfe
 2294 09f7 86000000 		.4byte	0x86
 2295 09fb 37010000 		.4byte	.LLST7
 2296 09ff 1F       		.uleb128 0x1f
 2297 0a00 36000000 		.4byte	.LVL9
 2298 0a04 0F0A0000 		.4byte	0xa0f
 2299 0a08 20       		.uleb128 0x20
 2300 0a09 01       		.byte	0x1
 2301 0a0a 50       		.byte	0x50
 2302 0a0b 02       		.byte	0x2
 2303 0a0c 74       		.byte	0x74
 2304 0a0d 00       		.sleb128 0
 2305 0a0e 00       		.byte	0
 2306 0a0f 21       		.uleb128 0x21
 2307 0a10 48000000 		.4byte	.LVL11
 2308 0a14 5F0E0000 		.4byte	0xe5f
 2309 0a18 00       		.byte	0
 2310 0a19 22       		.uleb128 0x22
 2311 0a1a 13090000 		.4byte	0x913
 2312 0a1e 00000000 		.4byte	.LFB122
 2313 0a22 66000000 		.4byte	.LFE122
 2314 0a26 71010000 		.4byte	.LLST8
 2315 0a2a 01       		.byte	0x1
 2316 0a2b A40A0000 		.4byte	0xaa4
 2317 0a2f 23       		.uleb128 0x23
 2318 0a30 20090000 		.4byte	0x920
 2319 0a34 91010000 		.4byte	.LLST9
 2320 0a38 23       		.uleb128 0x23
 2321 0a39 2B090000 		.4byte	0x92b
ARM GAS  C:\Users\LAB_ME~1\AppData\Local\Temp\ccPnnEr8.s 			page 42


 2322 0a3d C5010000 		.4byte	.LLST10
 2323 0a41 24       		.uleb128 0x24
 2324 0a42 13090000 		.4byte	0x913
 2325 0a46 1E000000 		.4byte	.LBB4
 2326 0a4a 00000000 		.4byte	.Ldebug_ranges0+0
 2327 0a4e 01       		.byte	0x1
 2328 0a4f D6       		.byte	0xd6
 2329 0a50 8A0A0000 		.4byte	0xa8a
 2330 0a54 23       		.uleb128 0x23
 2331 0a55 20090000 		.4byte	0x920
 2332 0a59 FF010000 		.4byte	.LLST11
 2333 0a5d 25       		.uleb128 0x25
 2334 0a5e 20000000 		.4byte	.Ldebug_ranges0+0x20
 2335 0a62 26       		.uleb128 0x26
 2336 0a63 2B090000 		.4byte	0x92b
 2337 0a67 1F       		.uleb128 0x1f
 2338 0a68 4A000000 		.4byte	.LVL16
 2339 0a6c 770A0000 		.4byte	0xa77
 2340 0a70 20       		.uleb128 0x20
 2341 0a71 01       		.byte	0x1
 2342 0a72 50       		.byte	0x50
 2343 0a73 02       		.byte	0x2
 2344 0a74 74       		.byte	0x74
 2345 0a75 00       		.sleb128 0
 2346 0a76 00       		.byte	0
 2347 0a77 27       		.uleb128 0x27
 2348 0a78 66000000 		.4byte	.LVL21
 2349 0a7c 01       		.byte	0x1
 2350 0a7d 67090000 		.4byte	0x967
 2351 0a81 20       		.uleb128 0x20
 2352 0a82 01       		.byte	0x1
 2353 0a83 50       		.byte	0x50
 2354 0a84 02       		.byte	0x2
 2355 0a85 74       		.byte	0x74
 2356 0a86 00       		.sleb128 0
 2357 0a87 00       		.byte	0
 2358 0a88 00       		.byte	0
 2359 0a89 00       		.byte	0
 2360 0a8a 1F       		.uleb128 0x1f
 2361 0a8b 1C000000 		.4byte	.LVL14
 2362 0a8f 9A0A0000 		.4byte	0xa9a
 2363 0a93 20       		.uleb128 0x20
 2364 0a94 01       		.byte	0x1
 2365 0a95 50       		.byte	0x50
 2366 0a96 02       		.byte	0x2
 2367 0a97 74       		.byte	0x74
 2368 0a98 00       		.sleb128 0
 2369 0a99 00       		.byte	0
 2370 0a9a 21       		.uleb128 0x21
 2371 0a9b 56000000 		.4byte	.LVL19
 2372 0a9f 5F0E0000 		.4byte	0xe5f
 2373 0aa3 00       		.byte	0
 2374 0aa4 28       		.uleb128 0x28
 2375 0aa5 20050000 		.4byte	.LASF211
 2376 0aa9 01       		.byte	0x1
 2377 0aaa 6E       		.byte	0x6e
 2378 0aab 01       		.byte	0x1
ARM GAS  C:\Users\LAB_ME~1\AppData\Local\Temp\ccPnnEr8.s 			page 43


 2379 0aac 54070000 		.4byte	0x754
 2380 0ab0 01       		.byte	0x1
 2381 0ab1 CB0A0000 		.4byte	0xacb
 2382 0ab5 29       		.uleb128 0x29
 2383 0ab6 737200   		.ascii	"sr\000"
 2384 0ab9 01       		.byte	0x1
 2385 0aba 6E       		.byte	0x6e
 2386 0abb 62000000 		.4byte	0x62
 2387 0abf 2A       		.uleb128 0x2a
 2388 0ac0 73747300 		.ascii	"sts\000"
 2389 0ac4 01       		.byte	0x1
 2390 0ac5 6F       		.byte	0x6f
 2391 0ac6 54070000 		.4byte	0x754
 2392 0aca 00       		.byte	0
 2393 0acb 2B       		.uleb128 0x2b
 2394 0acc 01       		.byte	0x1
 2395 0acd 70080000 		.4byte	.LASF188
 2396 0ad1 01       		.byte	0x1
 2397 0ad2 5001     		.2byte	0x150
 2398 0ad4 01       		.byte	0x1
 2399 0ad5 00000000 		.4byte	.LFB125
 2400 0ad9 84000000 		.4byte	.LFE125
 2401 0add 1D020000 		.4byte	.LLST12
 2402 0ae1 01       		.byte	0x1
 2403 0ae2 710B0000 		.4byte	0xb71
 2404 0ae6 2C       		.uleb128 0x2c
 2405 0ae7 37090000 		.4byte	0x937
 2406 0aeb 02000000 		.4byte	.LBB14
 2407 0aef 40000000 		.4byte	.Ldebug_ranges0+0x40
 2408 0af3 01       		.byte	0x1
 2409 0af4 5401     		.2byte	0x154
 2410 0af6 660B0000 		.4byte	0xb66
 2411 0afa 25       		.uleb128 0x25
 2412 0afb 58000000 		.4byte	.Ldebug_ranges0+0x58
 2413 0aff 2D       		.uleb128 0x2d
 2414 0b00 51090000 		.4byte	0x951
 2415 0b04 3D020000 		.4byte	.LLST13
 2416 0b08 2E       		.uleb128 0x2e
 2417 0b09 5C090000 		.4byte	0x95c
 2418 0b0d 01       		.byte	0x1
 2419 0b0e 55       		.byte	0x55
 2420 0b0f 2F       		.uleb128 0x2f
 2421 0b10 45090000 		.4byte	0x945
 2422 0b14 06       		.byte	0x6
 2423 0b15 03       		.byte	0x3
 2424 0b16 00000000 		.4byte	UARTD2
 2425 0b1a 9F       		.byte	0x9f
 2426 0b1b 2C       		.uleb128 0x2c
 2427 0b1c A40A0000 		.4byte	0xaa4
 2428 0b20 20000000 		.4byte	.LBB16
 2429 0b24 70000000 		.4byte	.Ldebug_ranges0+0x70
 2430 0b28 01       		.byte	0x1
 2431 0b29 2501     		.2byte	0x125
 2432 0b2b 480B0000 		.4byte	0xb48
 2433 0b2f 23       		.uleb128 0x23
 2434 0b30 B50A0000 		.4byte	0xab5
 2435 0b34 5B020000 		.4byte	.LLST14
ARM GAS  C:\Users\LAB_ME~1\AppData\Local\Temp\ccPnnEr8.s 			page 44


 2436 0b38 25       		.uleb128 0x25
 2437 0b39 88000000 		.4byte	.Ldebug_ranges0+0x88
 2438 0b3d 2D       		.uleb128 0x2d
 2439 0b3e BF0A0000 		.4byte	0xabf
 2440 0b42 79020000 		.4byte	.LLST15
 2441 0b46 00       		.byte	0
 2442 0b47 00       		.byte	0
 2443 0b48 1F       		.uleb128 0x1f
 2444 0b49 5A000000 		.4byte	.LVL30
 2445 0b4d 580B0000 		.4byte	0xb58
 2446 0b51 20       		.uleb128 0x20
 2447 0b52 01       		.byte	0x1
 2448 0b53 50       		.byte	0x50
 2449 0b54 02       		.byte	0x2
 2450 0b55 76       		.byte	0x76
 2451 0b56 00       		.sleb128 0
 2452 0b57 00       		.byte	0
 2453 0b58 30       		.uleb128 0x30
 2454 0b59 72000000 		.4byte	.LVL32
 2455 0b5d 20       		.uleb128 0x20
 2456 0b5e 01       		.byte	0x1
 2457 0b5f 50       		.byte	0x50
 2458 0b60 02       		.byte	0x2
 2459 0b61 76       		.byte	0x76
 2460 0b62 00       		.sleb128 0
 2461 0b63 00       		.byte	0
 2462 0b64 00       		.byte	0
 2463 0b65 00       		.byte	0
 2464 0b66 31       		.uleb128 0x31
 2465 0b67 7A000000 		.4byte	.LVL33
 2466 0b6b 01       		.byte	0x1
 2467 0b6c 6A0E0000 		.4byte	0xe6a
 2468 0b70 00       		.byte	0
 2469 0b71 2B       		.uleb128 0x2b
 2470 0b72 01       		.byte	0x1
 2471 0b73 52000000 		.4byte	.LASF189
 2472 0b77 01       		.byte	0x1
 2473 0b78 8901     		.2byte	0x189
 2474 0b7a 01       		.byte	0x1
 2475 0b7b 00000000 		.4byte	.LFB126
 2476 0b7f 28000000 		.4byte	.LFE126
 2477 0b83 A3020000 		.4byte	.LLST16
 2478 0b87 01       		.byte	0x1
 2479 0b88 9D0B0000 		.4byte	0xb9d
 2480 0b8c 32       		.uleb128 0x32
 2481 0b8d 0A000000 		.4byte	.LVL35
 2482 0b91 750E0000 		.4byte	0xe75
 2483 0b95 20       		.uleb128 0x20
 2484 0b96 01       		.byte	0x1
 2485 0b97 50       		.byte	0x50
 2486 0b98 02       		.byte	0x2
 2487 0b99 74       		.byte	0x74
 2488 0b9a 00       		.sleb128 0
 2489 0b9b 00       		.byte	0
 2490 0b9c 00       		.byte	0
 2491 0b9d 17       		.uleb128 0x17
 2492 0b9e 65090000 		.4byte	.LASF190
ARM GAS  C:\Users\LAB_ME~1\AppData\Local\Temp\ccPnnEr8.s 			page 45


 2493 0ba2 01       		.byte	0x1
 2494 0ba3 AA       		.byte	0xaa
 2495 0ba4 01       		.byte	0x1
 2496 0ba5 01       		.byte	0x1
 2497 0ba6 CA0B0000 		.4byte	0xbca
 2498 0baa 18       		.uleb128 0x18
 2499 0bab 08050000 		.4byte	.LASF181
 2500 0baf 01       		.byte	0x1
 2501 0bb0 AA       		.byte	0xaa
 2502 0bb1 1F080000 		.4byte	0x81f
 2503 0bb5 2A       		.uleb128 0x2a
 2504 0bb6 63723100 		.ascii	"cr1\000"
 2505 0bba 01       		.byte	0x1
 2506 0bbb AB       		.byte	0xab
 2507 0bbc 62000000 		.4byte	0x62
 2508 0bc0 2A       		.uleb128 0x2a
 2509 0bc1 7500     		.ascii	"u\000"
 2510 0bc3 01       		.byte	0x1
 2511 0bc4 AC       		.byte	0xac
 2512 0bc5 DC060000 		.4byte	0x6dc
 2513 0bc9 00       		.byte	0
 2514 0bca 2B       		.uleb128 0x2b
 2515 0bcb 01       		.byte	0x1
 2516 0bcc C0020000 		.4byte	.LASF191
 2517 0bd0 01       		.byte	0x1
 2518 0bd1 B201     		.2byte	0x1b2
 2519 0bd3 01       		.byte	0x1
 2520 0bd4 00000000 		.4byte	.LFB127
 2521 0bd8 00010000 		.4byte	.LFE127
 2522 0bdc C3020000 		.4byte	.LLST17
 2523 0be0 01       		.byte	0x1
 2524 0be1 BF0C0000 		.4byte	0xcbf
 2525 0be5 33       		.uleb128 0x33
 2526 0be6 08050000 		.4byte	.LASF181
 2527 0bea 01       		.byte	0x1
 2528 0beb B201     		.2byte	0x1b2
 2529 0bed 1F080000 		.4byte	0x81f
 2530 0bf1 E3020000 		.4byte	.LLST18
 2531 0bf5 2C       		.uleb128 0x2c
 2532 0bf6 9D0B0000 		.4byte	0xb9d
 2533 0bfa 12000000 		.4byte	.LBB25
 2534 0bfe A0000000 		.4byte	.Ldebug_ranges0+0xa0
 2535 0c02 01       		.byte	0x1
 2536 0c03 1402     		.2byte	0x214
 2537 0c05 500C0000 		.4byte	0xc50
 2538 0c09 23       		.uleb128 0x23
 2539 0c0a AA0B0000 		.4byte	0xbaa
 2540 0c0e 2D030000 		.4byte	.LLST19
 2541 0c12 25       		.uleb128 0x25
 2542 0c13 C0000000 		.4byte	.Ldebug_ranges0+0xc0
 2543 0c17 2D       		.uleb128 0x2d
 2544 0c18 B50B0000 		.4byte	0xbb5
 2545 0c1c 4B030000 		.4byte	.LLST20
 2546 0c20 2D       		.uleb128 0x2d
 2547 0c21 C00B0000 		.4byte	0xbc0
 2548 0c25 77030000 		.4byte	.LLST21
 2549 0c29 34       		.uleb128 0x34
ARM GAS  C:\Users\LAB_ME~1\AppData\Local\Temp\ccPnnEr8.s 			page 46


 2550 0c2a 18000000 		.4byte	.LVL39
 2551 0c2e 9F090000 		.4byte	0x99f
 2552 0c32 3D0C0000 		.4byte	0xc3d
 2553 0c36 20       		.uleb128 0x20
 2554 0c37 01       		.byte	0x1
 2555 0c38 50       		.byte	0x50
 2556 0c39 02       		.byte	0x2
 2557 0c3a 74       		.byte	0x74
 2558 0c3b 00       		.sleb128 0
 2559 0c3c 00       		.byte	0
 2560 0c3d 27       		.uleb128 0x27
 2561 0c3e 6C000000 		.4byte	.LVL42
 2562 0c42 01       		.byte	0x1
 2563 0c43 67090000 		.4byte	0x967
 2564 0c47 20       		.uleb128 0x20
 2565 0c48 01       		.byte	0x1
 2566 0c49 50       		.byte	0x50
 2567 0c4a 02       		.byte	0x2
 2568 0c4b 74       		.byte	0x74
 2569 0c4c 00       		.sleb128 0
 2570 0c4d 00       		.byte	0
 2571 0c4e 00       		.byte	0
 2572 0c4f 00       		.byte	0
 2573 0c50 35       		.uleb128 0x35
 2574 0c51 AE000000 		.4byte	.LBB31
 2575 0c55 00010000 		.4byte	.LBE31
 2576 0c59 1B       		.uleb128 0x1b
 2577 0c5a 6200     		.ascii	"b\000"
 2578 0c5c 01       		.byte	0x1
 2579 0c5d CC01     		.2byte	0x1cc
 2580 0c5f A6000000 		.4byte	0xa6
 2581 0c63 34       		.uleb128 0x34
 2582 0c64 BA000000 		.4byte	.LVL48
 2583 0c68 890E0000 		.4byte	0xe89
 2584 0c6c 850C0000 		.4byte	0xc85
 2585 0c70 20       		.uleb128 0x20
 2586 0c71 01       		.byte	0x1
 2587 0c72 53       		.byte	0x53
 2588 0c73 02       		.byte	0x2
 2589 0c74 74       		.byte	0x74
 2590 0c75 00       		.sleb128 0
 2591 0c76 20       		.uleb128 0x20
 2592 0c77 01       		.byte	0x1
 2593 0c78 52       		.byte	0x52
 2594 0c79 05       		.byte	0x5
 2595 0c7a 03       		.byte	0x3
 2596 0c7b 00000000 		.4byte	uart_lld_serve_rx_end_irq
 2597 0c7f 20       		.uleb128 0x20
 2598 0c80 01       		.byte	0x1
 2599 0c81 51       		.byte	0x51
 2600 0c82 01       		.byte	0x1
 2601 0c83 3C       		.byte	0x3c
 2602 0c84 00       		.byte	0
 2603 0c85 34       		.uleb128 0x34
 2604 0c86 C6000000 		.4byte	.LVL49
 2605 0c8a 890E0000 		.4byte	0xe89
 2606 0c8e A70C0000 		.4byte	0xca7
ARM GAS  C:\Users\LAB_ME~1\AppData\Local\Temp\ccPnnEr8.s 			page 47


 2607 0c92 20       		.uleb128 0x20
 2608 0c93 01       		.byte	0x1
 2609 0c94 53       		.byte	0x53
 2610 0c95 02       		.byte	0x2
 2611 0c96 74       		.byte	0x74
 2612 0c97 00       		.sleb128 0
 2613 0c98 20       		.uleb128 0x20
 2614 0c99 01       		.byte	0x1
 2615 0c9a 52       		.byte	0x52
 2616 0c9b 05       		.byte	0x5
 2617 0c9c 03       		.byte	0x3
 2618 0c9d 00000000 		.4byte	uart_lld_serve_tx_end_irq
 2619 0ca1 20       		.uleb128 0x20
 2620 0ca2 01       		.byte	0x1
 2621 0ca3 51       		.byte	0x51
 2622 0ca4 01       		.byte	0x1
 2623 0ca5 3C       		.byte	0x3c
 2624 0ca6 00       		.byte	0
 2625 0ca7 32       		.uleb128 0x32
 2626 0ca8 D8000000 		.4byte	.LVL50
 2627 0cac B10E0000 		.4byte	0xeb1
 2628 0cb0 20       		.uleb128 0x20
 2629 0cb1 01       		.byte	0x1
 2630 0cb2 51       		.byte	0x51
 2631 0cb3 02       		.byte	0x2
 2632 0cb4 08       		.byte	0x8
 2633 0cb5 C0       		.byte	0xc0
 2634 0cb6 20       		.uleb128 0x20
 2635 0cb7 01       		.byte	0x1
 2636 0cb8 50       		.byte	0x50
 2637 0cb9 02       		.byte	0x2
 2638 0cba 08       		.byte	0x8
 2639 0cbb 26       		.byte	0x26
 2640 0cbc 00       		.byte	0
 2641 0cbd 00       		.byte	0
 2642 0cbe 00       		.byte	0
 2643 0cbf 2B       		.uleb128 0x2b
 2644 0cc0 01       		.byte	0x1
 2645 0cc1 E3090000 		.4byte	.LASF192
 2646 0cc5 01       		.byte	0x1
 2647 0cc6 1E02     		.2byte	0x21e
 2648 0cc8 01       		.byte	0x1
 2649 0cc9 00000000 		.4byte	.LFB128
 2650 0ccd 3C000000 		.4byte	.LFE128
 2651 0cd1 95030000 		.4byte	.LLST22
 2652 0cd5 01       		.byte	0x1
 2653 0cd6 160D0000 		.4byte	0xd16
 2654 0cda 33       		.uleb128 0x33
 2655 0cdb 08050000 		.4byte	.LASF181
 2656 0cdf 01       		.byte	0x1
 2657 0ce0 1E02     		.2byte	0x21e
 2658 0ce2 1F080000 		.4byte	0x81f
 2659 0ce6 B5030000 		.4byte	.LLST23
 2660 0cea 21       		.uleb128 0x21
 2661 0ceb 10000000 		.4byte	.LVL54
 2662 0cef 9F090000 		.4byte	0x99f
 2663 0cf3 21       		.uleb128 0x21
ARM GAS  C:\Users\LAB_ME~1\AppData\Local\Temp\ccPnnEr8.s 			page 48


 2664 0cf4 16000000 		.4byte	.LVL55
 2665 0cf8 CB0E0000 		.4byte	0xecb
 2666 0cfc 21       		.uleb128 0x21
 2667 0cfd 1C000000 		.4byte	.LVL56
 2668 0d01 CB0E0000 		.4byte	0xecb
 2669 0d05 32       		.uleb128 0x32
 2670 0d06 28000000 		.4byte	.LVL57
 2671 0d0a E00E0000 		.4byte	0xee0
 2672 0d0e 20       		.uleb128 0x20
 2673 0d0f 01       		.byte	0x1
 2674 0d10 50       		.byte	0x50
 2675 0d11 02       		.byte	0x2
 2676 0d12 08       		.byte	0x8
 2677 0d13 26       		.byte	0x26
 2678 0d14 00       		.byte	0
 2679 0d15 00       		.byte	0
 2680 0d16 36       		.uleb128 0x36
 2681 0d17 01       		.byte	0x1
 2682 0d18 CF090000 		.4byte	.LASF193
 2683 0d1c 01       		.byte	0x1
 2684 0d1d 5202     		.2byte	0x252
 2685 0d1f 01       		.byte	0x1
 2686 0d20 00000000 		.4byte	.LFB129
 2687 0d24 1A000000 		.4byte	.LFE129
 2688 0d28 02       		.byte	0x2
 2689 0d29 7D       		.byte	0x7d
 2690 0d2a 00       		.sleb128 0
 2691 0d2b 01       		.byte	0x1
 2692 0d2c 5D0D0000 		.4byte	0xd5d
 2693 0d30 33       		.uleb128 0x33
 2694 0d31 08050000 		.4byte	.LASF181
 2695 0d35 01       		.byte	0x1
 2696 0d36 5202     		.2byte	0x252
 2697 0d38 1F080000 		.4byte	0x81f
 2698 0d3c E9030000 		.4byte	.LLST24
 2699 0d40 37       		.uleb128 0x37
 2700 0d41 6E00     		.ascii	"n\000"
 2701 0d43 01       		.byte	0x1
 2702 0d44 5202     		.2byte	0x252
 2703 0d46 30000000 		.4byte	0x30
 2704 0d4a 01       		.byte	0x1
 2705 0d4b 51       		.byte	0x51
 2706 0d4c 33       		.uleb128 0x33
 2707 0d4d 66030000 		.4byte	.LASF194
 2708 0d51 01       		.byte	0x1
 2709 0d52 5202     		.2byte	0x252
 2710 0d54 5D0D0000 		.4byte	0xd5d
 2711 0d58 0A040000 		.4byte	.LLST25
 2712 0d5c 00       		.byte	0
 2713 0d5d 11       		.uleb128 0x11
 2714 0d5e 04       		.byte	0x4
 2715 0d5f 630D0000 		.4byte	0xd63
 2716 0d63 38       		.uleb128 0x38
 2717 0d64 39       		.uleb128 0x39
 2718 0d65 01       		.byte	0x1
 2719 0d66 C1060000 		.4byte	.LASF196
 2720 0d6a 01       		.byte	0x1
ARM GAS  C:\Users\LAB_ME~1\AppData\Local\Temp\ccPnnEr8.s 			page 49


 2721 0d6b 6702     		.2byte	0x267
 2722 0d6d 01       		.byte	0x1
 2723 0d6e 30000000 		.4byte	0x30
 2724 0d72 00000000 		.4byte	.LFB130
 2725 0d76 22000000 		.4byte	.LFE130
 2726 0d7a 02       		.byte	0x2
 2727 0d7b 7D       		.byte	0x7d
 2728 0d7c 00       		.sleb128 0
 2729 0d7d 01       		.byte	0x1
 2730 0d7e 930D0000 		.4byte	0xd93
 2731 0d82 33       		.uleb128 0x33
 2732 0d83 08050000 		.4byte	.LASF181
 2733 0d87 01       		.byte	0x1
 2734 0d88 6702     		.2byte	0x267
 2735 0d8a 1F080000 		.4byte	0x81f
 2736 0d8e 29040000 		.4byte	.LLST26
 2737 0d92 00       		.byte	0
 2738 0d93 2B       		.uleb128 0x2b
 2739 0d94 01       		.byte	0x1
 2740 0d95 00000000 		.4byte	.LASF195
 2741 0d99 01       		.byte	0x1
 2742 0d9a 7802     		.2byte	0x278
 2743 0d9c 01       		.byte	0x1
 2744 0d9d 00000000 		.4byte	.LFB131
 2745 0da1 38000000 		.4byte	.LFE131
 2746 0da5 4A040000 		.4byte	.LLST27
 2747 0da9 01       		.byte	0x1
 2748 0daa D70D0000 		.4byte	0xdd7
 2749 0dae 3A       		.uleb128 0x3a
 2750 0daf 08050000 		.4byte	.LASF181
 2751 0db3 01       		.byte	0x1
 2752 0db4 7802     		.2byte	0x278
 2753 0db6 1F080000 		.4byte	0x81f
 2754 0dba 01       		.byte	0x1
 2755 0dbb 50       		.byte	0x50
 2756 0dbc 37       		.uleb128 0x37
 2757 0dbd 6E00     		.ascii	"n\000"
 2758 0dbf 01       		.byte	0x1
 2759 0dc0 7802     		.2byte	0x278
 2760 0dc2 30000000 		.4byte	0x30
 2761 0dc6 01       		.byte	0x1
 2762 0dc7 51       		.byte	0x51
 2763 0dc8 3A       		.uleb128 0x3a
 2764 0dc9 3D010000 		.4byte	.LASF170
 2765 0dcd 01       		.byte	0x1
 2766 0dce 7802     		.2byte	0x278
 2767 0dd0 B1000000 		.4byte	0xb1
 2768 0dd4 01       		.byte	0x1
 2769 0dd5 52       		.byte	0x52
 2770 0dd6 00       		.byte	0
 2771 0dd7 3B       		.uleb128 0x3b
 2772 0dd8 01       		.byte	0x1
 2773 0dd9 7F010000 		.4byte	.LASF197
 2774 0ddd 01       		.byte	0x1
 2775 0dde 9002     		.2byte	0x290
 2776 0de0 01       		.byte	0x1
 2777 0de1 30000000 		.4byte	0x30
ARM GAS  C:\Users\LAB_ME~1\AppData\Local\Temp\ccPnnEr8.s 			page 50


 2778 0de5 00000000 		.4byte	.LFB132
 2779 0de9 2A000000 		.4byte	.LFE132
 2780 0ded 6A040000 		.4byte	.LLST28
 2781 0df1 01       		.byte	0x1
 2782 0df2 1C0E0000 		.4byte	0xe1c
 2783 0df6 33       		.uleb128 0x33
 2784 0df7 08050000 		.4byte	.LASF181
 2785 0dfb 01       		.byte	0x1
 2786 0dfc 9002     		.2byte	0x290
 2787 0dfe 1F080000 		.4byte	0x81f
 2788 0e02 8A040000 		.4byte	.LLST29
 2789 0e06 3C       		.uleb128 0x3c
 2790 0e07 6E00     		.ascii	"n\000"
 2791 0e09 01       		.byte	0x1
 2792 0e0a 9102     		.2byte	0x291
 2793 0e0c 30000000 		.4byte	0x30
 2794 0e10 01       		.byte	0x1
 2795 0e11 54       		.byte	0x54
 2796 0e12 21       		.uleb128 0x21
 2797 0e13 26000000 		.4byte	.LVL66
 2798 0e17 67090000 		.4byte	0x967
 2799 0e1b 00       		.byte	0
 2800 0e1c 3D       		.uleb128 0x3d
 2801 0e1d E7060000 		.4byte	.LASF199
 2802 0e21 09       		.byte	0x9
 2803 0e22 9806     		.2byte	0x698
 2804 0e24 16030000 		.4byte	0x316
 2805 0e28 01       		.byte	0x1
 2806 0e29 01       		.byte	0x1
 2807 0e2a 09       		.uleb128 0x9
 2808 0e2b A4060000 		.4byte	0x6a4
 2809 0e2f 3A0E0000 		.4byte	0xe3a
 2810 0e33 0A       		.uleb128 0xa
 2811 0e34 B8000000 		.4byte	0xb8
 2812 0e38 0F       		.byte	0xf
 2813 0e39 00       		.byte	0
 2814 0e3a 3D       		.uleb128 0x3d
 2815 0e3b FA000000 		.4byte	.LASF200
 2816 0e3f 06       		.byte	0x6
 2817 0e40 BB01     		.2byte	0x1bb
 2818 0e42 480E0000 		.4byte	0xe48
 2819 0e46 01       		.byte	0x1
 2820 0e47 01       		.byte	0x1
 2821 0e48 14       		.uleb128 0x14
 2822 0e49 2A0E0000 		.4byte	0xe2a
 2823 0e4d 3E       		.uleb128 0x3e
 2824 0e4e 790A0000 		.4byte	.LASF201
 2825 0e52 01       		.byte	0x1
 2826 0e53 51       		.byte	0x51
 2827 0e54 60070000 		.4byte	0x760
 2828 0e58 01       		.byte	0x1
 2829 0e59 05       		.byte	0x5
 2830 0e5a 03       		.byte	0x3
 2831 0e5b 00000000 		.4byte	UARTD2
 2832 0e5f 3F       		.uleb128 0x3f
 2833 0e60 01       		.byte	0x1
 2834 0e61 65020000 		.4byte	.LASF202
ARM GAS  C:\Users\LAB_ME~1\AppData\Local\Temp\ccPnnEr8.s 			page 51


 2835 0e65 0A       		.byte	0xa
 2836 0e66 FA01     		.2byte	0x1fa
 2837 0e68 01       		.byte	0x1
 2838 0e69 01       		.byte	0x1
 2839 0e6a 3F       		.uleb128 0x3f
 2840 0e6b 01       		.byte	0x1
 2841 0e6c 3A090000 		.4byte	.LASF203
 2842 0e70 0A       		.byte	0xa
 2843 0e71 FC01     		.2byte	0x1fc
 2844 0e73 01       		.byte	0x1
 2845 0e74 01       		.byte	0x1
 2846 0e75 40       		.uleb128 0x40
 2847 0e76 01       		.byte	0x1
 2848 0e77 9A000000 		.4byte	.LASF204
 2849 0e7b 07       		.byte	0x7
 2850 0e7c 67       		.byte	0x67
 2851 0e7d 01       		.byte	0x1
 2852 0e7e 01       		.byte	0x1
 2853 0e7f 890E0000 		.4byte	0xe89
 2854 0e83 13       		.uleb128 0x13
 2855 0e84 1F080000 		.4byte	0x81f
 2856 0e88 00       		.byte	0
 2857 0e89 41       		.uleb128 0x41
 2858 0e8a 01       		.byte	0x1
 2859 0e8b 350A0000 		.4byte	.LASF212
 2860 0e8f 06       		.byte	0x6
 2861 0e90 C201     		.2byte	0x1c2
 2862 0e92 01       		.byte	0x1
 2863 0e93 A6000000 		.4byte	0xa6
 2864 0e97 01       		.byte	0x1
 2865 0e98 B10E0000 		.4byte	0xeb1
 2866 0e9c 13       		.uleb128 0x13
 2867 0e9d D1060000 		.4byte	0x6d1
 2868 0ea1 13       		.uleb128 0x13
 2869 0ea2 86000000 		.4byte	0x86
 2870 0ea6 13       		.uleb128 0x13
 2871 0ea7 AF060000 		.4byte	0x6af
 2872 0eab 13       		.uleb128 0x13
 2873 0eac B1000000 		.4byte	0xb1
 2874 0eb0 00       		.byte	0
 2875 0eb1 42       		.uleb128 0x42
 2876 0eb2 01       		.byte	0x1
 2877 0eb3 61010000 		.4byte	.LASF205
 2878 0eb7 0B       		.byte	0xb
 2879 0eb8 1C01     		.2byte	0x11c
 2880 0eba 01       		.byte	0x1
 2881 0ebb 01       		.byte	0x1
 2882 0ebc CB0E0000 		.4byte	0xecb
 2883 0ec0 13       		.uleb128 0x13
 2884 0ec1 86000000 		.4byte	0x86
 2885 0ec5 13       		.uleb128 0x13
 2886 0ec6 86000000 		.4byte	0x86
 2887 0eca 00       		.byte	0
 2888 0ecb 42       		.uleb128 0x42
 2889 0ecc 01       		.byte	0x1
 2890 0ecd FA070000 		.4byte	.LASF206
 2891 0ed1 06       		.byte	0x6
ARM GAS  C:\Users\LAB_ME~1\AppData\Local\Temp\ccPnnEr8.s 			page 52


 2892 0ed2 C601     		.2byte	0x1c6
 2893 0ed4 01       		.byte	0x1
 2894 0ed5 01       		.byte	0x1
 2895 0ed6 E00E0000 		.4byte	0xee0
 2896 0eda 13       		.uleb128 0x13
 2897 0edb D1060000 		.4byte	0x6d1
 2898 0edf 00       		.byte	0
 2899 0ee0 43       		.uleb128 0x43
 2900 0ee1 01       		.byte	0x1
 2901 0ee2 D1070000 		.4byte	.LASF213
 2902 0ee6 0B       		.byte	0xb
 2903 0ee7 1D01     		.2byte	0x11d
 2904 0ee9 01       		.byte	0x1
 2905 0eea 01       		.byte	0x1
 2906 0eeb 13       		.uleb128 0x13
 2907 0eec 86000000 		.4byte	0x86
 2908 0ef0 00       		.byte	0
 2909 0ef1 00       		.byte	0
 2910              		.section	.debug_abbrev,"",%progbits
 2911              	.Ldebug_abbrev0:
 2912 0000 01       		.uleb128 0x1
 2913 0001 11       		.uleb128 0x11
 2914 0002 01       		.byte	0x1
 2915 0003 25       		.uleb128 0x25
 2916 0004 0E       		.uleb128 0xe
 2917 0005 13       		.uleb128 0x13
 2918 0006 0B       		.uleb128 0xb
 2919 0007 03       		.uleb128 0x3
 2920 0008 0E       		.uleb128 0xe
 2921 0009 1B       		.uleb128 0x1b
 2922 000a 0E       		.uleb128 0xe
 2923 000b 55       		.uleb128 0x55
 2924 000c 06       		.uleb128 0x6
 2925 000d 11       		.uleb128 0x11
 2926 000e 01       		.uleb128 0x1
 2927 000f 52       		.uleb128 0x52
 2928 0010 01       		.uleb128 0x1
 2929 0011 10       		.uleb128 0x10
 2930 0012 06       		.uleb128 0x6
 2931 0013 00       		.byte	0
 2932 0014 00       		.byte	0
 2933 0015 02       		.uleb128 0x2
 2934 0016 24       		.uleb128 0x24
 2935 0017 00       		.byte	0
 2936 0018 0B       		.uleb128 0xb
 2937 0019 0B       		.uleb128 0xb
 2938 001a 3E       		.uleb128 0x3e
 2939 001b 0B       		.uleb128 0xb
 2940 001c 03       		.uleb128 0x3
 2941 001d 08       		.uleb128 0x8
 2942 001e 00       		.byte	0
 2943 001f 00       		.byte	0
 2944 0020 03       		.uleb128 0x3
 2945 0021 16       		.uleb128 0x16
 2946 0022 00       		.byte	0
 2947 0023 03       		.uleb128 0x3
 2948 0024 0E       		.uleb128 0xe
ARM GAS  C:\Users\LAB_ME~1\AppData\Local\Temp\ccPnnEr8.s 			page 53


 2949 0025 3A       		.uleb128 0x3a
 2950 0026 0B       		.uleb128 0xb
 2951 0027 3B       		.uleb128 0x3b
 2952 0028 0B       		.uleb128 0xb
 2953 0029 49       		.uleb128 0x49
 2954 002a 13       		.uleb128 0x13
 2955 002b 00       		.byte	0
 2956 002c 00       		.byte	0
 2957 002d 04       		.uleb128 0x4
 2958 002e 24       		.uleb128 0x24
 2959 002f 00       		.byte	0
 2960 0030 0B       		.uleb128 0xb
 2961 0031 0B       		.uleb128 0xb
 2962 0032 3E       		.uleb128 0x3e
 2963 0033 0B       		.uleb128 0xb
 2964 0034 03       		.uleb128 0x3
 2965 0035 0E       		.uleb128 0xe
 2966 0036 00       		.byte	0
 2967 0037 00       		.byte	0
 2968 0038 05       		.uleb128 0x5
 2969 0039 0F       		.uleb128 0xf
 2970 003a 00       		.byte	0
 2971 003b 0B       		.uleb128 0xb
 2972 003c 0B       		.uleb128 0xb
 2973 003d 00       		.byte	0
 2974 003e 00       		.byte	0
 2975 003f 06       		.uleb128 0x6
 2976 0040 35       		.uleb128 0x35
 2977 0041 00       		.byte	0
 2978 0042 49       		.uleb128 0x49
 2979 0043 13       		.uleb128 0x13
 2980 0044 00       		.byte	0
 2981 0045 00       		.byte	0
 2982 0046 07       		.uleb128 0x7
 2983 0047 04       		.uleb128 0x4
 2984 0048 01       		.byte	0x1
 2985 0049 03       		.uleb128 0x3
 2986 004a 0E       		.uleb128 0xe
 2987 004b 0B       		.uleb128 0xb
 2988 004c 0B       		.uleb128 0xb
 2989 004d 3A       		.uleb128 0x3a
 2990 004e 0B       		.uleb128 0xb
 2991 004f 3B       		.uleb128 0x3b
 2992 0050 0B       		.uleb128 0xb
 2993 0051 01       		.uleb128 0x1
 2994 0052 13       		.uleb128 0x13
 2995 0053 00       		.byte	0
 2996 0054 00       		.byte	0
 2997 0055 08       		.uleb128 0x8
 2998 0056 28       		.uleb128 0x28
 2999 0057 00       		.byte	0
 3000 0058 03       		.uleb128 0x3
 3001 0059 0E       		.uleb128 0xe
 3002 005a 1C       		.uleb128 0x1c
 3003 005b 0D       		.uleb128 0xd
 3004 005c 00       		.byte	0
 3005 005d 00       		.byte	0
ARM GAS  C:\Users\LAB_ME~1\AppData\Local\Temp\ccPnnEr8.s 			page 54


 3006 005e 09       		.uleb128 0x9
 3007 005f 01       		.uleb128 0x1
 3008 0060 01       		.byte	0x1
 3009 0061 49       		.uleb128 0x49
 3010 0062 13       		.uleb128 0x13
 3011 0063 01       		.uleb128 0x1
 3012 0064 13       		.uleb128 0x13
 3013 0065 00       		.byte	0
 3014 0066 00       		.byte	0
 3015 0067 0A       		.uleb128 0xa
 3016 0068 21       		.uleb128 0x21
 3017 0069 00       		.byte	0
 3018 006a 49       		.uleb128 0x49
 3019 006b 13       		.uleb128 0x13
 3020 006c 2F       		.uleb128 0x2f
 3021 006d 0B       		.uleb128 0xb
 3022 006e 00       		.byte	0
 3023 006f 00       		.byte	0
 3024 0070 0B       		.uleb128 0xb
 3025 0071 13       		.uleb128 0x13
 3026 0072 01       		.byte	0x1
 3027 0073 0B       		.uleb128 0xb
 3028 0074 0B       		.uleb128 0xb
 3029 0075 3A       		.uleb128 0x3a
 3030 0076 0B       		.uleb128 0xb
 3031 0077 3B       		.uleb128 0x3b
 3032 0078 05       		.uleb128 0x5
 3033 0079 01       		.uleb128 0x1
 3034 007a 13       		.uleb128 0x13
 3035 007b 00       		.byte	0
 3036 007c 00       		.byte	0
 3037 007d 0C       		.uleb128 0xc
 3038 007e 0D       		.uleb128 0xd
 3039 007f 00       		.byte	0
 3040 0080 03       		.uleb128 0x3
 3041 0081 08       		.uleb128 0x8
 3042 0082 3A       		.uleb128 0x3a
 3043 0083 0B       		.uleb128 0xb
 3044 0084 3B       		.uleb128 0x3b
 3045 0085 05       		.uleb128 0x5
 3046 0086 49       		.uleb128 0x49
 3047 0087 13       		.uleb128 0x13
 3048 0088 38       		.uleb128 0x38
 3049 0089 0A       		.uleb128 0xa
 3050 008a 00       		.byte	0
 3051 008b 00       		.byte	0
 3052 008c 0D       		.uleb128 0xd
 3053 008d 0D       		.uleb128 0xd
 3054 008e 00       		.byte	0
 3055 008f 03       		.uleb128 0x3
 3056 0090 0E       		.uleb128 0xe
 3057 0091 3A       		.uleb128 0x3a
 3058 0092 0B       		.uleb128 0xb
 3059 0093 3B       		.uleb128 0x3b
 3060 0094 05       		.uleb128 0x5
 3061 0095 49       		.uleb128 0x49
 3062 0096 13       		.uleb128 0x13
ARM GAS  C:\Users\LAB_ME~1\AppData\Local\Temp\ccPnnEr8.s 			page 55


 3063 0097 38       		.uleb128 0x38
 3064 0098 0A       		.uleb128 0xa
 3065 0099 00       		.byte	0
 3066 009a 00       		.byte	0
 3067 009b 0E       		.uleb128 0xe
 3068 009c 16       		.uleb128 0x16
 3069 009d 00       		.byte	0
 3070 009e 03       		.uleb128 0x3
 3071 009f 0E       		.uleb128 0xe
 3072 00a0 3A       		.uleb128 0x3a
 3073 00a1 0B       		.uleb128 0xb
 3074 00a2 3B       		.uleb128 0x3b
 3075 00a3 05       		.uleb128 0x5
 3076 00a4 49       		.uleb128 0x49
 3077 00a5 13       		.uleb128 0x13
 3078 00a6 00       		.byte	0
 3079 00a7 00       		.byte	0
 3080 00a8 0F       		.uleb128 0xf
 3081 00a9 13       		.uleb128 0x13
 3082 00aa 01       		.byte	0x1
 3083 00ab 0B       		.uleb128 0xb
 3084 00ac 0B       		.uleb128 0xb
 3085 00ad 3A       		.uleb128 0x3a
 3086 00ae 0B       		.uleb128 0xb
 3087 00af 3B       		.uleb128 0x3b
 3088 00b0 0B       		.uleb128 0xb
 3089 00b1 01       		.uleb128 0x1
 3090 00b2 13       		.uleb128 0x13
 3091 00b3 00       		.byte	0
 3092 00b4 00       		.byte	0
 3093 00b5 10       		.uleb128 0x10
 3094 00b6 0D       		.uleb128 0xd
 3095 00b7 00       		.byte	0
 3096 00b8 03       		.uleb128 0x3
 3097 00b9 0E       		.uleb128 0xe
 3098 00ba 3A       		.uleb128 0x3a
 3099 00bb 0B       		.uleb128 0xb
 3100 00bc 3B       		.uleb128 0x3b
 3101 00bd 0B       		.uleb128 0xb
 3102 00be 49       		.uleb128 0x49
 3103 00bf 13       		.uleb128 0x13
 3104 00c0 38       		.uleb128 0x38
 3105 00c1 0A       		.uleb128 0xa
 3106 00c2 00       		.byte	0
 3107 00c3 00       		.byte	0
 3108 00c4 11       		.uleb128 0x11
 3109 00c5 0F       		.uleb128 0xf
 3110 00c6 00       		.byte	0
 3111 00c7 0B       		.uleb128 0xb
 3112 00c8 0B       		.uleb128 0xb
 3113 00c9 49       		.uleb128 0x49
 3114 00ca 13       		.uleb128 0x13
 3115 00cb 00       		.byte	0
 3116 00cc 00       		.byte	0
 3117 00cd 12       		.uleb128 0x12
 3118 00ce 15       		.uleb128 0x15
 3119 00cf 01       		.byte	0x1
ARM GAS  C:\Users\LAB_ME~1\AppData\Local\Temp\ccPnnEr8.s 			page 56


 3120 00d0 27       		.uleb128 0x27
 3121 00d1 0C       		.uleb128 0xc
 3122 00d2 01       		.uleb128 0x1
 3123 00d3 13       		.uleb128 0x13
 3124 00d4 00       		.byte	0
 3125 00d5 00       		.byte	0
 3126 00d6 13       		.uleb128 0x13
 3127 00d7 05       		.uleb128 0x5
 3128 00d8 00       		.byte	0
 3129 00d9 49       		.uleb128 0x49
 3130 00da 13       		.uleb128 0x13
 3131 00db 00       		.byte	0
 3132 00dc 00       		.byte	0
 3133 00dd 14       		.uleb128 0x14
 3134 00de 26       		.uleb128 0x26
 3135 00df 00       		.byte	0
 3136 00e0 49       		.uleb128 0x49
 3137 00e1 13       		.uleb128 0x13
 3138 00e2 00       		.byte	0
 3139 00e3 00       		.byte	0
 3140 00e4 15       		.uleb128 0x15
 3141 00e5 04       		.uleb128 0x4
 3142 00e6 01       		.byte	0x1
 3143 00e7 0B       		.uleb128 0xb
 3144 00e8 0B       		.uleb128 0xb
 3145 00e9 3A       		.uleb128 0x3a
 3146 00ea 0B       		.uleb128 0xb
 3147 00eb 3B       		.uleb128 0x3b
 3148 00ec 0B       		.uleb128 0xb
 3149 00ed 01       		.uleb128 0x1
 3150 00ee 13       		.uleb128 0x13
 3151 00ef 00       		.byte	0
 3152 00f0 00       		.byte	0
 3153 00f1 16       		.uleb128 0x16
 3154 00f2 13       		.uleb128 0x13
 3155 00f3 01       		.byte	0x1
 3156 00f4 03       		.uleb128 0x3
 3157 00f5 0E       		.uleb128 0xe
 3158 00f6 0B       		.uleb128 0xb
 3159 00f7 0B       		.uleb128 0xb
 3160 00f8 3A       		.uleb128 0x3a
 3161 00f9 0B       		.uleb128 0xb
 3162 00fa 3B       		.uleb128 0x3b
 3163 00fb 05       		.uleb128 0x5
 3164 00fc 01       		.uleb128 0x1
 3165 00fd 13       		.uleb128 0x13
 3166 00fe 00       		.byte	0
 3167 00ff 00       		.byte	0
 3168 0100 17       		.uleb128 0x17
 3169 0101 2E       		.uleb128 0x2e
 3170 0102 01       		.byte	0x1
 3171 0103 03       		.uleb128 0x3
 3172 0104 0E       		.uleb128 0xe
 3173 0105 3A       		.uleb128 0x3a
 3174 0106 0B       		.uleb128 0xb
 3175 0107 3B       		.uleb128 0x3b
 3176 0108 0B       		.uleb128 0xb
ARM GAS  C:\Users\LAB_ME~1\AppData\Local\Temp\ccPnnEr8.s 			page 57


 3177 0109 27       		.uleb128 0x27
 3178 010a 0C       		.uleb128 0xc
 3179 010b 20       		.uleb128 0x20
 3180 010c 0B       		.uleb128 0xb
 3181 010d 01       		.uleb128 0x1
 3182 010e 13       		.uleb128 0x13
 3183 010f 00       		.byte	0
 3184 0110 00       		.byte	0
 3185 0111 18       		.uleb128 0x18
 3186 0112 05       		.uleb128 0x5
 3187 0113 00       		.byte	0
 3188 0114 03       		.uleb128 0x3
 3189 0115 0E       		.uleb128 0xe
 3190 0116 3A       		.uleb128 0x3a
 3191 0117 0B       		.uleb128 0xb
 3192 0118 3B       		.uleb128 0x3b
 3193 0119 0B       		.uleb128 0xb
 3194 011a 49       		.uleb128 0x49
 3195 011b 13       		.uleb128 0x13
 3196 011c 00       		.byte	0
 3197 011d 00       		.byte	0
 3198 011e 19       		.uleb128 0x19
 3199 011f 2E       		.uleb128 0x2e
 3200 0120 01       		.byte	0x1
 3201 0121 03       		.uleb128 0x3
 3202 0122 0E       		.uleb128 0xe
 3203 0123 3A       		.uleb128 0x3a
 3204 0124 0B       		.uleb128 0xb
 3205 0125 3B       		.uleb128 0x3b
 3206 0126 05       		.uleb128 0x5
 3207 0127 27       		.uleb128 0x27
 3208 0128 0C       		.uleb128 0xc
 3209 0129 20       		.uleb128 0x20
 3210 012a 0B       		.uleb128 0xb
 3211 012b 01       		.uleb128 0x1
 3212 012c 13       		.uleb128 0x13
 3213 012d 00       		.byte	0
 3214 012e 00       		.byte	0
 3215 012f 1A       		.uleb128 0x1a
 3216 0130 05       		.uleb128 0x5
 3217 0131 00       		.byte	0
 3218 0132 03       		.uleb128 0x3
 3219 0133 0E       		.uleb128 0xe
 3220 0134 3A       		.uleb128 0x3a
 3221 0135 0B       		.uleb128 0xb
 3222 0136 3B       		.uleb128 0x3b
 3223 0137 05       		.uleb128 0x5
 3224 0138 49       		.uleb128 0x49
 3225 0139 13       		.uleb128 0x13
 3226 013a 00       		.byte	0
 3227 013b 00       		.byte	0
 3228 013c 1B       		.uleb128 0x1b
 3229 013d 34       		.uleb128 0x34
 3230 013e 00       		.byte	0
 3231 013f 03       		.uleb128 0x3
 3232 0140 08       		.uleb128 0x8
 3233 0141 3A       		.uleb128 0x3a
ARM GAS  C:\Users\LAB_ME~1\AppData\Local\Temp\ccPnnEr8.s 			page 58


 3234 0142 0B       		.uleb128 0xb
 3235 0143 3B       		.uleb128 0x3b
 3236 0144 05       		.uleb128 0x5
 3237 0145 49       		.uleb128 0x49
 3238 0146 13       		.uleb128 0x13
 3239 0147 00       		.byte	0
 3240 0148 00       		.byte	0
 3241 0149 1C       		.uleb128 0x1c
 3242 014a 2E       		.uleb128 0x2e
 3243 014b 01       		.byte	0x1
 3244 014c 03       		.uleb128 0x3
 3245 014d 0E       		.uleb128 0xe
 3246 014e 3A       		.uleb128 0x3a
 3247 014f 0B       		.uleb128 0xb
 3248 0150 3B       		.uleb128 0x3b
 3249 0151 0B       		.uleb128 0xb
 3250 0152 27       		.uleb128 0x27
 3251 0153 0C       		.uleb128 0xc
 3252 0154 11       		.uleb128 0x11
 3253 0155 01       		.uleb128 0x1
 3254 0156 12       		.uleb128 0x12
 3255 0157 01       		.uleb128 0x1
 3256 0158 40       		.uleb128 0x40
 3257 0159 06       		.uleb128 0x6
 3258 015a 9742     		.uleb128 0x2117
 3259 015c 0C       		.uleb128 0xc
 3260 015d 01       		.uleb128 0x1
 3261 015e 13       		.uleb128 0x13
 3262 015f 00       		.byte	0
 3263 0160 00       		.byte	0
 3264 0161 1D       		.uleb128 0x1d
 3265 0162 05       		.uleb128 0x5
 3266 0163 00       		.byte	0
 3267 0164 03       		.uleb128 0x3
 3268 0165 0E       		.uleb128 0xe
 3269 0166 3A       		.uleb128 0x3a
 3270 0167 0B       		.uleb128 0xb
 3271 0168 3B       		.uleb128 0x3b
 3272 0169 0B       		.uleb128 0xb
 3273 016a 49       		.uleb128 0x49
 3274 016b 13       		.uleb128 0x13
 3275 016c 02       		.uleb128 0x2
 3276 016d 06       		.uleb128 0x6
 3277 016e 00       		.byte	0
 3278 016f 00       		.byte	0
 3279 0170 1E       		.uleb128 0x1e
 3280 0171 34       		.uleb128 0x34
 3281 0172 00       		.byte	0
 3282 0173 03       		.uleb128 0x3
 3283 0174 0E       		.uleb128 0xe
 3284 0175 3A       		.uleb128 0x3a
 3285 0176 0B       		.uleb128 0xb
 3286 0177 3B       		.uleb128 0x3b
 3287 0178 0B       		.uleb128 0xb
 3288 0179 49       		.uleb128 0x49
 3289 017a 13       		.uleb128 0x13
 3290 017b 02       		.uleb128 0x2
ARM GAS  C:\Users\LAB_ME~1\AppData\Local\Temp\ccPnnEr8.s 			page 59


 3291 017c 06       		.uleb128 0x6
 3292 017d 00       		.byte	0
 3293 017e 00       		.byte	0
 3294 017f 1F       		.uleb128 0x1f
 3295 0180 898201   		.uleb128 0x4109
 3296 0183 01       		.byte	0x1
 3297 0184 11       		.uleb128 0x11
 3298 0185 01       		.uleb128 0x1
 3299 0186 01       		.uleb128 0x1
 3300 0187 13       		.uleb128 0x13
 3301 0188 00       		.byte	0
 3302 0189 00       		.byte	0
 3303 018a 20       		.uleb128 0x20
 3304 018b 8A8201   		.uleb128 0x410a
 3305 018e 00       		.byte	0
 3306 018f 02       		.uleb128 0x2
 3307 0190 0A       		.uleb128 0xa
 3308 0191 9142     		.uleb128 0x2111
 3309 0193 0A       		.uleb128 0xa
 3310 0194 00       		.byte	0
 3311 0195 00       		.byte	0
 3312 0196 21       		.uleb128 0x21
 3313 0197 898201   		.uleb128 0x4109
 3314 019a 00       		.byte	0
 3315 019b 11       		.uleb128 0x11
 3316 019c 01       		.uleb128 0x1
 3317 019d 31       		.uleb128 0x31
 3318 019e 13       		.uleb128 0x13
 3319 019f 00       		.byte	0
 3320 01a0 00       		.byte	0
 3321 01a1 22       		.uleb128 0x22
 3322 01a2 2E       		.uleb128 0x2e
 3323 01a3 01       		.byte	0x1
 3324 01a4 31       		.uleb128 0x31
 3325 01a5 13       		.uleb128 0x13
 3326 01a6 11       		.uleb128 0x11
 3327 01a7 01       		.uleb128 0x1
 3328 01a8 12       		.uleb128 0x12
 3329 01a9 01       		.uleb128 0x1
 3330 01aa 40       		.uleb128 0x40
 3331 01ab 06       		.uleb128 0x6
 3332 01ac 9742     		.uleb128 0x2117
 3333 01ae 0C       		.uleb128 0xc
 3334 01af 01       		.uleb128 0x1
 3335 01b0 13       		.uleb128 0x13
 3336 01b1 00       		.byte	0
 3337 01b2 00       		.byte	0
 3338 01b3 23       		.uleb128 0x23
 3339 01b4 05       		.uleb128 0x5
 3340 01b5 00       		.byte	0
 3341 01b6 31       		.uleb128 0x31
 3342 01b7 13       		.uleb128 0x13
 3343 01b8 02       		.uleb128 0x2
 3344 01b9 06       		.uleb128 0x6
 3345 01ba 00       		.byte	0
 3346 01bb 00       		.byte	0
 3347 01bc 24       		.uleb128 0x24
ARM GAS  C:\Users\LAB_ME~1\AppData\Local\Temp\ccPnnEr8.s 			page 60


 3348 01bd 1D       		.uleb128 0x1d
 3349 01be 01       		.byte	0x1
 3350 01bf 31       		.uleb128 0x31
 3351 01c0 13       		.uleb128 0x13
 3352 01c1 52       		.uleb128 0x52
 3353 01c2 01       		.uleb128 0x1
 3354 01c3 55       		.uleb128 0x55
 3355 01c4 06       		.uleb128 0x6
 3356 01c5 58       		.uleb128 0x58
 3357 01c6 0B       		.uleb128 0xb
 3358 01c7 59       		.uleb128 0x59
 3359 01c8 0B       		.uleb128 0xb
 3360 01c9 01       		.uleb128 0x1
 3361 01ca 13       		.uleb128 0x13
 3362 01cb 00       		.byte	0
 3363 01cc 00       		.byte	0
 3364 01cd 25       		.uleb128 0x25
 3365 01ce 0B       		.uleb128 0xb
 3366 01cf 01       		.byte	0x1
 3367 01d0 55       		.uleb128 0x55
 3368 01d1 06       		.uleb128 0x6
 3369 01d2 00       		.byte	0
 3370 01d3 00       		.byte	0
 3371 01d4 26       		.uleb128 0x26
 3372 01d5 05       		.uleb128 0x5
 3373 01d6 00       		.byte	0
 3374 01d7 31       		.uleb128 0x31
 3375 01d8 13       		.uleb128 0x13
 3376 01d9 00       		.byte	0
 3377 01da 00       		.byte	0
 3378 01db 27       		.uleb128 0x27
 3379 01dc 898201   		.uleb128 0x4109
 3380 01df 01       		.byte	0x1
 3381 01e0 11       		.uleb128 0x11
 3382 01e1 01       		.uleb128 0x1
 3383 01e2 9542     		.uleb128 0x2115
 3384 01e4 0C       		.uleb128 0xc
 3385 01e5 31       		.uleb128 0x31
 3386 01e6 13       		.uleb128 0x13
 3387 01e7 00       		.byte	0
 3388 01e8 00       		.byte	0
 3389 01e9 28       		.uleb128 0x28
 3390 01ea 2E       		.uleb128 0x2e
 3391 01eb 01       		.byte	0x1
 3392 01ec 03       		.uleb128 0x3
 3393 01ed 0E       		.uleb128 0xe
 3394 01ee 3A       		.uleb128 0x3a
 3395 01ef 0B       		.uleb128 0xb
 3396 01f0 3B       		.uleb128 0x3b
 3397 01f1 0B       		.uleb128 0xb
 3398 01f2 27       		.uleb128 0x27
 3399 01f3 0C       		.uleb128 0xc
 3400 01f4 49       		.uleb128 0x49
 3401 01f5 13       		.uleb128 0x13
 3402 01f6 20       		.uleb128 0x20
 3403 01f7 0B       		.uleb128 0xb
 3404 01f8 01       		.uleb128 0x1
ARM GAS  C:\Users\LAB_ME~1\AppData\Local\Temp\ccPnnEr8.s 			page 61


 3405 01f9 13       		.uleb128 0x13
 3406 01fa 00       		.byte	0
 3407 01fb 00       		.byte	0
 3408 01fc 29       		.uleb128 0x29
 3409 01fd 05       		.uleb128 0x5
 3410 01fe 00       		.byte	0
 3411 01ff 03       		.uleb128 0x3
 3412 0200 08       		.uleb128 0x8
 3413 0201 3A       		.uleb128 0x3a
 3414 0202 0B       		.uleb128 0xb
 3415 0203 3B       		.uleb128 0x3b
 3416 0204 0B       		.uleb128 0xb
 3417 0205 49       		.uleb128 0x49
 3418 0206 13       		.uleb128 0x13
 3419 0207 00       		.byte	0
 3420 0208 00       		.byte	0
 3421 0209 2A       		.uleb128 0x2a
 3422 020a 34       		.uleb128 0x34
 3423 020b 00       		.byte	0
 3424 020c 03       		.uleb128 0x3
 3425 020d 08       		.uleb128 0x8
 3426 020e 3A       		.uleb128 0x3a
 3427 020f 0B       		.uleb128 0xb
 3428 0210 3B       		.uleb128 0x3b
 3429 0211 0B       		.uleb128 0xb
 3430 0212 49       		.uleb128 0x49
 3431 0213 13       		.uleb128 0x13
 3432 0214 00       		.byte	0
 3433 0215 00       		.byte	0
 3434 0216 2B       		.uleb128 0x2b
 3435 0217 2E       		.uleb128 0x2e
 3436 0218 01       		.byte	0x1
 3437 0219 3F       		.uleb128 0x3f
 3438 021a 0C       		.uleb128 0xc
 3439 021b 03       		.uleb128 0x3
 3440 021c 0E       		.uleb128 0xe
 3441 021d 3A       		.uleb128 0x3a
 3442 021e 0B       		.uleb128 0xb
 3443 021f 3B       		.uleb128 0x3b
 3444 0220 05       		.uleb128 0x5
 3445 0221 27       		.uleb128 0x27
 3446 0222 0C       		.uleb128 0xc
 3447 0223 11       		.uleb128 0x11
 3448 0224 01       		.uleb128 0x1
 3449 0225 12       		.uleb128 0x12
 3450 0226 01       		.uleb128 0x1
 3451 0227 40       		.uleb128 0x40
 3452 0228 06       		.uleb128 0x6
 3453 0229 9742     		.uleb128 0x2117
 3454 022b 0C       		.uleb128 0xc
 3455 022c 01       		.uleb128 0x1
 3456 022d 13       		.uleb128 0x13
 3457 022e 00       		.byte	0
 3458 022f 00       		.byte	0
 3459 0230 2C       		.uleb128 0x2c
 3460 0231 1D       		.uleb128 0x1d
 3461 0232 01       		.byte	0x1
ARM GAS  C:\Users\LAB_ME~1\AppData\Local\Temp\ccPnnEr8.s 			page 62


 3462 0233 31       		.uleb128 0x31
 3463 0234 13       		.uleb128 0x13
 3464 0235 52       		.uleb128 0x52
 3465 0236 01       		.uleb128 0x1
 3466 0237 55       		.uleb128 0x55
 3467 0238 06       		.uleb128 0x6
 3468 0239 58       		.uleb128 0x58
 3469 023a 0B       		.uleb128 0xb
 3470 023b 59       		.uleb128 0x59
 3471 023c 05       		.uleb128 0x5
 3472 023d 01       		.uleb128 0x1
 3473 023e 13       		.uleb128 0x13
 3474 023f 00       		.byte	0
 3475 0240 00       		.byte	0
 3476 0241 2D       		.uleb128 0x2d
 3477 0242 34       		.uleb128 0x34
 3478 0243 00       		.byte	0
 3479 0244 31       		.uleb128 0x31
 3480 0245 13       		.uleb128 0x13
 3481 0246 02       		.uleb128 0x2
 3482 0247 06       		.uleb128 0x6
 3483 0248 00       		.byte	0
 3484 0249 00       		.byte	0
 3485 024a 2E       		.uleb128 0x2e
 3486 024b 34       		.uleb128 0x34
 3487 024c 00       		.byte	0
 3488 024d 31       		.uleb128 0x31
 3489 024e 13       		.uleb128 0x13
 3490 024f 02       		.uleb128 0x2
 3491 0250 0A       		.uleb128 0xa
 3492 0251 00       		.byte	0
 3493 0252 00       		.byte	0
 3494 0253 2F       		.uleb128 0x2f
 3495 0254 05       		.uleb128 0x5
 3496 0255 00       		.byte	0
 3497 0256 31       		.uleb128 0x31
 3498 0257 13       		.uleb128 0x13
 3499 0258 02       		.uleb128 0x2
 3500 0259 0A       		.uleb128 0xa
 3501 025a 00       		.byte	0
 3502 025b 00       		.byte	0
 3503 025c 30       		.uleb128 0x30
 3504 025d 898201   		.uleb128 0x4109
 3505 0260 01       		.byte	0x1
 3506 0261 11       		.uleb128 0x11
 3507 0262 01       		.uleb128 0x1
 3508 0263 00       		.byte	0
 3509 0264 00       		.byte	0
 3510 0265 31       		.uleb128 0x31
 3511 0266 898201   		.uleb128 0x4109
 3512 0269 00       		.byte	0
 3513 026a 11       		.uleb128 0x11
 3514 026b 01       		.uleb128 0x1
 3515 026c 9542     		.uleb128 0x2115
 3516 026e 0C       		.uleb128 0xc
 3517 026f 31       		.uleb128 0x31
 3518 0270 13       		.uleb128 0x13
ARM GAS  C:\Users\LAB_ME~1\AppData\Local\Temp\ccPnnEr8.s 			page 63


 3519 0271 00       		.byte	0
 3520 0272 00       		.byte	0
 3521 0273 32       		.uleb128 0x32
 3522 0274 898201   		.uleb128 0x4109
 3523 0277 01       		.byte	0x1
 3524 0278 11       		.uleb128 0x11
 3525 0279 01       		.uleb128 0x1
 3526 027a 31       		.uleb128 0x31
 3527 027b 13       		.uleb128 0x13
 3528 027c 00       		.byte	0
 3529 027d 00       		.byte	0
 3530 027e 33       		.uleb128 0x33
 3531 027f 05       		.uleb128 0x5
 3532 0280 00       		.byte	0
 3533 0281 03       		.uleb128 0x3
 3534 0282 0E       		.uleb128 0xe
 3535 0283 3A       		.uleb128 0x3a
 3536 0284 0B       		.uleb128 0xb
 3537 0285 3B       		.uleb128 0x3b
 3538 0286 05       		.uleb128 0x5
 3539 0287 49       		.uleb128 0x49
 3540 0288 13       		.uleb128 0x13
 3541 0289 02       		.uleb128 0x2
 3542 028a 06       		.uleb128 0x6
 3543 028b 00       		.byte	0
 3544 028c 00       		.byte	0
 3545 028d 34       		.uleb128 0x34
 3546 028e 898201   		.uleb128 0x4109
 3547 0291 01       		.byte	0x1
 3548 0292 11       		.uleb128 0x11
 3549 0293 01       		.uleb128 0x1
 3550 0294 31       		.uleb128 0x31
 3551 0295 13       		.uleb128 0x13
 3552 0296 01       		.uleb128 0x1
 3553 0297 13       		.uleb128 0x13
 3554 0298 00       		.byte	0
 3555 0299 00       		.byte	0
 3556 029a 35       		.uleb128 0x35
 3557 029b 0B       		.uleb128 0xb
 3558 029c 01       		.byte	0x1
 3559 029d 11       		.uleb128 0x11
 3560 029e 01       		.uleb128 0x1
 3561 029f 12       		.uleb128 0x12
 3562 02a0 01       		.uleb128 0x1
 3563 02a1 00       		.byte	0
 3564 02a2 00       		.byte	0
 3565 02a3 36       		.uleb128 0x36
 3566 02a4 2E       		.uleb128 0x2e
 3567 02a5 01       		.byte	0x1
 3568 02a6 3F       		.uleb128 0x3f
 3569 02a7 0C       		.uleb128 0xc
 3570 02a8 03       		.uleb128 0x3
 3571 02a9 0E       		.uleb128 0xe
 3572 02aa 3A       		.uleb128 0x3a
 3573 02ab 0B       		.uleb128 0xb
 3574 02ac 3B       		.uleb128 0x3b
 3575 02ad 05       		.uleb128 0x5
ARM GAS  C:\Users\LAB_ME~1\AppData\Local\Temp\ccPnnEr8.s 			page 64


 3576 02ae 27       		.uleb128 0x27
 3577 02af 0C       		.uleb128 0xc
 3578 02b0 11       		.uleb128 0x11
 3579 02b1 01       		.uleb128 0x1
 3580 02b2 12       		.uleb128 0x12
 3581 02b3 01       		.uleb128 0x1
 3582 02b4 40       		.uleb128 0x40
 3583 02b5 0A       		.uleb128 0xa
 3584 02b6 9742     		.uleb128 0x2117
 3585 02b8 0C       		.uleb128 0xc
 3586 02b9 01       		.uleb128 0x1
 3587 02ba 13       		.uleb128 0x13
 3588 02bb 00       		.byte	0
 3589 02bc 00       		.byte	0
 3590 02bd 37       		.uleb128 0x37
 3591 02be 05       		.uleb128 0x5
 3592 02bf 00       		.byte	0
 3593 02c0 03       		.uleb128 0x3
 3594 02c1 08       		.uleb128 0x8
 3595 02c2 3A       		.uleb128 0x3a
 3596 02c3 0B       		.uleb128 0xb
 3597 02c4 3B       		.uleb128 0x3b
 3598 02c5 05       		.uleb128 0x5
 3599 02c6 49       		.uleb128 0x49
 3600 02c7 13       		.uleb128 0x13
 3601 02c8 02       		.uleb128 0x2
 3602 02c9 0A       		.uleb128 0xa
 3603 02ca 00       		.byte	0
 3604 02cb 00       		.byte	0
 3605 02cc 38       		.uleb128 0x38
 3606 02cd 26       		.uleb128 0x26
 3607 02ce 00       		.byte	0
 3608 02cf 00       		.byte	0
 3609 02d0 00       		.byte	0
 3610 02d1 39       		.uleb128 0x39
 3611 02d2 2E       		.uleb128 0x2e
 3612 02d3 01       		.byte	0x1
 3613 02d4 3F       		.uleb128 0x3f
 3614 02d5 0C       		.uleb128 0xc
 3615 02d6 03       		.uleb128 0x3
 3616 02d7 0E       		.uleb128 0xe
 3617 02d8 3A       		.uleb128 0x3a
 3618 02d9 0B       		.uleb128 0xb
 3619 02da 3B       		.uleb128 0x3b
 3620 02db 05       		.uleb128 0x5
 3621 02dc 27       		.uleb128 0x27
 3622 02dd 0C       		.uleb128 0xc
 3623 02de 49       		.uleb128 0x49
 3624 02df 13       		.uleb128 0x13
 3625 02e0 11       		.uleb128 0x11
 3626 02e1 01       		.uleb128 0x1
 3627 02e2 12       		.uleb128 0x12
 3628 02e3 01       		.uleb128 0x1
 3629 02e4 40       		.uleb128 0x40
 3630 02e5 0A       		.uleb128 0xa
 3631 02e6 9742     		.uleb128 0x2117
 3632 02e8 0C       		.uleb128 0xc
ARM GAS  C:\Users\LAB_ME~1\AppData\Local\Temp\ccPnnEr8.s 			page 65


 3633 02e9 01       		.uleb128 0x1
 3634 02ea 13       		.uleb128 0x13
 3635 02eb 00       		.byte	0
 3636 02ec 00       		.byte	0
 3637 02ed 3A       		.uleb128 0x3a
 3638 02ee 05       		.uleb128 0x5
 3639 02ef 00       		.byte	0
 3640 02f0 03       		.uleb128 0x3
 3641 02f1 0E       		.uleb128 0xe
 3642 02f2 3A       		.uleb128 0x3a
 3643 02f3 0B       		.uleb128 0xb
 3644 02f4 3B       		.uleb128 0x3b
 3645 02f5 05       		.uleb128 0x5
 3646 02f6 49       		.uleb128 0x49
 3647 02f7 13       		.uleb128 0x13
 3648 02f8 02       		.uleb128 0x2
 3649 02f9 0A       		.uleb128 0xa
 3650 02fa 00       		.byte	0
 3651 02fb 00       		.byte	0
 3652 02fc 3B       		.uleb128 0x3b
 3653 02fd 2E       		.uleb128 0x2e
 3654 02fe 01       		.byte	0x1
 3655 02ff 3F       		.uleb128 0x3f
 3656 0300 0C       		.uleb128 0xc
 3657 0301 03       		.uleb128 0x3
 3658 0302 0E       		.uleb128 0xe
 3659 0303 3A       		.uleb128 0x3a
 3660 0304 0B       		.uleb128 0xb
 3661 0305 3B       		.uleb128 0x3b
 3662 0306 05       		.uleb128 0x5
 3663 0307 27       		.uleb128 0x27
 3664 0308 0C       		.uleb128 0xc
 3665 0309 49       		.uleb128 0x49
 3666 030a 13       		.uleb128 0x13
 3667 030b 11       		.uleb128 0x11
 3668 030c 01       		.uleb128 0x1
 3669 030d 12       		.uleb128 0x12
 3670 030e 01       		.uleb128 0x1
 3671 030f 40       		.uleb128 0x40
 3672 0310 06       		.uleb128 0x6
 3673 0311 9742     		.uleb128 0x2117
 3674 0313 0C       		.uleb128 0xc
 3675 0314 01       		.uleb128 0x1
 3676 0315 13       		.uleb128 0x13
 3677 0316 00       		.byte	0
 3678 0317 00       		.byte	0
 3679 0318 3C       		.uleb128 0x3c
 3680 0319 34       		.uleb128 0x34
 3681 031a 00       		.byte	0
 3682 031b 03       		.uleb128 0x3
 3683 031c 08       		.uleb128 0x8
 3684 031d 3A       		.uleb128 0x3a
 3685 031e 0B       		.uleb128 0xb
 3686 031f 3B       		.uleb128 0x3b
 3687 0320 05       		.uleb128 0x5
 3688 0321 49       		.uleb128 0x49
 3689 0322 13       		.uleb128 0x13
ARM GAS  C:\Users\LAB_ME~1\AppData\Local\Temp\ccPnnEr8.s 			page 66


 3690 0323 02       		.uleb128 0x2
 3691 0324 0A       		.uleb128 0xa
 3692 0325 00       		.byte	0
 3693 0326 00       		.byte	0
 3694 0327 3D       		.uleb128 0x3d
 3695 0328 34       		.uleb128 0x34
 3696 0329 00       		.byte	0
 3697 032a 03       		.uleb128 0x3
 3698 032b 0E       		.uleb128 0xe
 3699 032c 3A       		.uleb128 0x3a
 3700 032d 0B       		.uleb128 0xb
 3701 032e 3B       		.uleb128 0x3b
 3702 032f 05       		.uleb128 0x5
 3703 0330 49       		.uleb128 0x49
 3704 0331 13       		.uleb128 0x13
 3705 0332 3F       		.uleb128 0x3f
 3706 0333 0C       		.uleb128 0xc
 3707 0334 3C       		.uleb128 0x3c
 3708 0335 0C       		.uleb128 0xc
 3709 0336 00       		.byte	0
 3710 0337 00       		.byte	0
 3711 0338 3E       		.uleb128 0x3e
 3712 0339 34       		.uleb128 0x34
 3713 033a 00       		.byte	0
 3714 033b 03       		.uleb128 0x3
 3715 033c 0E       		.uleb128 0xe
 3716 033d 3A       		.uleb128 0x3a
 3717 033e 0B       		.uleb128 0xb
 3718 033f 3B       		.uleb128 0x3b
 3719 0340 0B       		.uleb128 0xb
 3720 0341 49       		.uleb128 0x49
 3721 0342 13       		.uleb128 0x13
 3722 0343 3F       		.uleb128 0x3f
 3723 0344 0C       		.uleb128 0xc
 3724 0345 02       		.uleb128 0x2
 3725 0346 0A       		.uleb128 0xa
 3726 0347 00       		.byte	0
 3727 0348 00       		.byte	0
 3728 0349 3F       		.uleb128 0x3f
 3729 034a 2E       		.uleb128 0x2e
 3730 034b 00       		.byte	0
 3731 034c 3F       		.uleb128 0x3f
 3732 034d 0C       		.uleb128 0xc
 3733 034e 03       		.uleb128 0x3
 3734 034f 0E       		.uleb128 0xe
 3735 0350 3A       		.uleb128 0x3a
 3736 0351 0B       		.uleb128 0xb
 3737 0352 3B       		.uleb128 0x3b
 3738 0353 05       		.uleb128 0x5
 3739 0354 27       		.uleb128 0x27
 3740 0355 0C       		.uleb128 0xc
 3741 0356 3C       		.uleb128 0x3c
 3742 0357 0C       		.uleb128 0xc
 3743 0358 00       		.byte	0
 3744 0359 00       		.byte	0
 3745 035a 40       		.uleb128 0x40
 3746 035b 2E       		.uleb128 0x2e
ARM GAS  C:\Users\LAB_ME~1\AppData\Local\Temp\ccPnnEr8.s 			page 67


 3747 035c 01       		.byte	0x1
 3748 035d 3F       		.uleb128 0x3f
 3749 035e 0C       		.uleb128 0xc
 3750 035f 03       		.uleb128 0x3
 3751 0360 0E       		.uleb128 0xe
 3752 0361 3A       		.uleb128 0x3a
 3753 0362 0B       		.uleb128 0xb
 3754 0363 3B       		.uleb128 0x3b
 3755 0364 0B       		.uleb128 0xb
 3756 0365 27       		.uleb128 0x27
 3757 0366 0C       		.uleb128 0xc
 3758 0367 3C       		.uleb128 0x3c
 3759 0368 0C       		.uleb128 0xc
 3760 0369 01       		.uleb128 0x1
 3761 036a 13       		.uleb128 0x13
 3762 036b 00       		.byte	0
 3763 036c 00       		.byte	0
 3764 036d 41       		.uleb128 0x41
 3765 036e 2E       		.uleb128 0x2e
 3766 036f 01       		.byte	0x1
 3767 0370 3F       		.uleb128 0x3f
 3768 0371 0C       		.uleb128 0xc
 3769 0372 03       		.uleb128 0x3
 3770 0373 0E       		.uleb128 0xe
 3771 0374 3A       		.uleb128 0x3a
 3772 0375 0B       		.uleb128 0xb
 3773 0376 3B       		.uleb128 0x3b
 3774 0377 05       		.uleb128 0x5
 3775 0378 27       		.uleb128 0x27
 3776 0379 0C       		.uleb128 0xc
 3777 037a 49       		.uleb128 0x49
 3778 037b 13       		.uleb128 0x13
 3779 037c 3C       		.uleb128 0x3c
 3780 037d 0C       		.uleb128 0xc
 3781 037e 01       		.uleb128 0x1
 3782 037f 13       		.uleb128 0x13
 3783 0380 00       		.byte	0
 3784 0381 00       		.byte	0
 3785 0382 42       		.uleb128 0x42
 3786 0383 2E       		.uleb128 0x2e
 3787 0384 01       		.byte	0x1
 3788 0385 3F       		.uleb128 0x3f
 3789 0386 0C       		.uleb128 0xc
 3790 0387 03       		.uleb128 0x3
 3791 0388 0E       		.uleb128 0xe
 3792 0389 3A       		.uleb128 0x3a
 3793 038a 0B       		.uleb128 0xb
 3794 038b 3B       		.uleb128 0x3b
 3795 038c 05       		.uleb128 0x5
 3796 038d 27       		.uleb128 0x27
 3797 038e 0C       		.uleb128 0xc
 3798 038f 3C       		.uleb128 0x3c
 3799 0390 0C       		.uleb128 0xc
 3800 0391 01       		.uleb128 0x1
 3801 0392 13       		.uleb128 0x13
 3802 0393 00       		.byte	0
 3803 0394 00       		.byte	0
ARM GAS  C:\Users\LAB_ME~1\AppData\Local\Temp\ccPnnEr8.s 			page 68


 3804 0395 43       		.uleb128 0x43
 3805 0396 2E       		.uleb128 0x2e
 3806 0397 01       		.byte	0x1
 3807 0398 3F       		.uleb128 0x3f
 3808 0399 0C       		.uleb128 0xc
 3809 039a 03       		.uleb128 0x3
 3810 039b 0E       		.uleb128 0xe
 3811 039c 3A       		.uleb128 0x3a
 3812 039d 0B       		.uleb128 0xb
 3813 039e 3B       		.uleb128 0x3b
 3814 039f 05       		.uleb128 0x5
 3815 03a0 27       		.uleb128 0x27
 3816 03a1 0C       		.uleb128 0xc
 3817 03a2 3C       		.uleb128 0x3c
 3818 03a3 0C       		.uleb128 0xc
 3819 03a4 00       		.byte	0
 3820 03a5 00       		.byte	0
 3821 03a6 00       		.byte	0
 3822              		.section	.debug_loc,"",%progbits
 3823              	.Ldebug_loc0:
 3824              	.LLST0:
 3825 0000 00000000 		.4byte	.LFB119
 3826 0004 04000000 		.4byte	.LCFI0
 3827 0008 0200     		.2byte	0x2
 3828 000a 7D       		.byte	0x7d
 3829 000b 00       		.sleb128 0
 3830 000c 04000000 		.4byte	.LCFI0
 3831 0010 30000000 		.4byte	.LFE119
 3832 0014 0200     		.2byte	0x2
 3833 0016 7D       		.byte	0x7d
 3834 0017 04       		.sleb128 4
 3835 0018 00000000 		.4byte	0
 3836 001c 00000000 		.4byte	0
 3837              	.LLST1:
 3838 0020 00000000 		.4byte	.LVL0
 3839 0024 10000000 		.4byte	.LVL1
 3840 0028 0100     		.2byte	0x1
 3841 002a 50       		.byte	0x50
 3842 002b 10000000 		.4byte	.LVL1
 3843 002f 22000000 		.4byte	.LVL4
 3844 0033 0300     		.2byte	0x3
 3845 0035 71       		.byte	0x71
 3846 0036 68       		.sleb128 -24
 3847 0037 9F       		.byte	0x9f
 3848 0038 22000000 		.4byte	.LVL4
 3849 003c 30000000 		.4byte	.LFE119
 3850 0040 0600     		.2byte	0x6
 3851 0042 73       		.byte	0x73
 3852 0043 0C       		.sleb128 12
 3853 0044 06       		.byte	0x6
 3854 0045 48       		.byte	0x48
 3855 0046 1C       		.byte	0x1c
 3856 0047 9F       		.byte	0x9f
 3857 0048 00000000 		.4byte	0
 3858 004c 00000000 		.4byte	0
 3859              	.LLST2:
 3860 0050 1E000000 		.4byte	.LVL2
ARM GAS  C:\Users\LAB_ME~1\AppData\Local\Temp\ccPnnEr8.s 			page 69


 3861 0054 20000000 		.4byte	.LVL3
 3862 0058 0100     		.2byte	0x1
 3863 005a 52       		.byte	0x52
 3864 005b 20000000 		.4byte	.LVL3
 3865 005f 22000000 		.4byte	.LVL4
 3866 0063 1400     		.2byte	0x14
 3867 0065 0A       		.byte	0xa
 3868 0066 1001     		.2byte	0x110
 3869 0068 0A       		.byte	0xa
 3870 0069 0001     		.2byte	0x100
 3871 006b 71       		.byte	0x71
 3872 006c 6C       		.sleb128 -20
 3873 006d 06       		.byte	0x6
 3874 006e 23       		.byte	0x23
 3875 006f 0C       		.uleb128 0xc
 3876 0070 06       		.byte	0x6
 3877 0071 30       		.byte	0x30
 3878 0072 2E       		.byte	0x2e
 3879 0073 28       		.byte	0x28
 3880 0074 0100     		.2byte	0x1
 3881 0076 16       		.byte	0x16
 3882 0077 13       		.byte	0x13
 3883 0078 9F       		.byte	0x9f
 3884 0079 22000000 		.4byte	.LVL4
 3885 007d 30000000 		.4byte	.LFE119
 3886 0081 1700     		.2byte	0x17
 3887 0083 0A       		.byte	0xa
 3888 0084 1001     		.2byte	0x110
 3889 0086 0A       		.byte	0xa
 3890 0087 0001     		.2byte	0x100
 3891 0089 73       		.byte	0x73
 3892 008a 0C       		.sleb128 12
 3893 008b 06       		.byte	0x6
 3894 008c 44       		.byte	0x44
 3895 008d 1C       		.byte	0x1c
 3896 008e 06       		.byte	0x6
 3897 008f 23       		.byte	0x23
 3898 0090 0C       		.uleb128 0xc
 3899 0091 06       		.byte	0x6
 3900 0092 30       		.byte	0x30
 3901 0093 2E       		.byte	0x2e
 3902 0094 28       		.byte	0x28
 3903 0095 0100     		.2byte	0x1
 3904 0097 16       		.byte	0x16
 3905 0098 13       		.byte	0x13
 3906 0099 9F       		.byte	0x9f
 3907 009a 00000000 		.4byte	0
 3908 009e 00000000 		.4byte	0
 3909              	.LLST3:
 3910 00a2 00000000 		.4byte	.LFB120
 3911 00a6 02000000 		.4byte	.LCFI1
 3912 00aa 0200     		.2byte	0x2
 3913 00ac 7D       		.byte	0x7d
 3914 00ad 00       		.sleb128 0
 3915 00ae 02000000 		.4byte	.LCFI1
 3916 00b2 4C000000 		.4byte	.LFE120
 3917 00b6 0200     		.2byte	0x2
ARM GAS  C:\Users\LAB_ME~1\AppData\Local\Temp\ccPnnEr8.s 			page 70


 3918 00b8 7D       		.byte	0x7d
 3919 00b9 08       		.sleb128 8
 3920 00ba 00000000 		.4byte	0
 3921 00be 00000000 		.4byte	0
 3922              	.LLST4:
 3923 00c2 00000000 		.4byte	.LVL5
 3924 00c6 3C000000 		.4byte	.LVL6
 3925 00ca 0100     		.2byte	0x1
 3926 00cc 50       		.byte	0x50
 3927 00cd 3C000000 		.4byte	.LVL6
 3928 00d1 4C000000 		.4byte	.LFE120
 3929 00d5 0400     		.2byte	0x4
 3930 00d7 F3       		.byte	0xf3
 3931 00d8 01       		.uleb128 0x1
 3932 00d9 50       		.byte	0x50
 3933 00da 9F       		.byte	0x9f
 3934 00db 00000000 		.4byte	0
 3935 00df 00000000 		.4byte	0
 3936              	.LLST5:
 3937 00e3 00000000 		.4byte	.LFB123
 3938 00e7 06000000 		.4byte	.LCFI2
 3939 00eb 0200     		.2byte	0x2
 3940 00ed 7D       		.byte	0x7d
 3941 00ee 00       		.sleb128 0
 3942 00ef 06000000 		.4byte	.LCFI2
 3943 00f3 4A000000 		.4byte	.LFE123
 3944 00f7 0200     		.2byte	0x2
 3945 00f9 7D       		.byte	0x7d
 3946 00fa 08       		.sleb128 8
 3947 00fb 00000000 		.4byte	0
 3948 00ff 00000000 		.4byte	0
 3949              	.LLST6:
 3950 0103 00000000 		.4byte	.LVL7
 3951 0107 0A000000 		.4byte	.LVL8
 3952 010b 0100     		.2byte	0x1
 3953 010d 50       		.byte	0x50
 3954 010e 0A000000 		.4byte	.LVL8
 3955 0112 44000000 		.4byte	.LVL10
 3956 0116 0100     		.2byte	0x1
 3957 0118 54       		.byte	0x54
 3958 0119 44000000 		.4byte	.LVL10
 3959 011d 47000000 		.4byte	.LVL11-1
 3960 0121 0100     		.2byte	0x1
 3961 0123 50       		.byte	0x50
 3962 0124 47000000 		.4byte	.LVL11-1
 3963 0128 4A000000 		.4byte	.LFE123
 3964 012c 0100     		.2byte	0x1
 3965 012e 54       		.byte	0x54
 3966 012f 00000000 		.4byte	0
 3967 0133 00000000 		.4byte	0
 3968              	.LLST7:
 3969 0137 00000000 		.4byte	.LVL7
 3970 013b 0A000000 		.4byte	.LVL8
 3971 013f 0100     		.2byte	0x1
 3972 0141 51       		.byte	0x51
 3973 0142 0A000000 		.4byte	.LVL8
 3974 0146 44000000 		.4byte	.LVL10
ARM GAS  C:\Users\LAB_ME~1\AppData\Local\Temp\ccPnnEr8.s 			page 71


 3975 014a 0400     		.2byte	0x4
 3976 014c F3       		.byte	0xf3
 3977 014d 01       		.uleb128 0x1
 3978 014e 51       		.byte	0x51
 3979 014f 9F       		.byte	0x9f
 3980 0150 44000000 		.4byte	.LVL10
 3981 0154 47000000 		.4byte	.LVL11-1
 3982 0158 0100     		.2byte	0x1
 3983 015a 51       		.byte	0x51
 3984 015b 47000000 		.4byte	.LVL11-1
 3985 015f 4A000000 		.4byte	.LFE123
 3986 0163 0400     		.2byte	0x4
 3987 0165 F3       		.byte	0xf3
 3988 0166 01       		.uleb128 0x1
 3989 0167 51       		.byte	0x51
 3990 0168 9F       		.byte	0x9f
 3991 0169 00000000 		.4byte	0
 3992 016d 00000000 		.4byte	0
 3993              	.LLST8:
 3994 0171 00000000 		.4byte	.LFB122
 3995 0175 06000000 		.4byte	.LCFI3
 3996 0179 0200     		.2byte	0x2
 3997 017b 7D       		.byte	0x7d
 3998 017c 00       		.sleb128 0
 3999 017d 06000000 		.4byte	.LCFI3
 4000 0181 66000000 		.4byte	.LFE122
 4001 0185 0200     		.2byte	0x2
 4002 0187 7D       		.byte	0x7d
 4003 0188 08       		.sleb128 8
 4004 0189 00000000 		.4byte	0
 4005 018d 00000000 		.4byte	0
 4006              	.LLST9:
 4007 0191 00000000 		.4byte	.LVL12
 4008 0195 0A000000 		.4byte	.LVL13
 4009 0199 0100     		.2byte	0x1
 4010 019b 50       		.byte	0x50
 4011 019c 0A000000 		.4byte	.LVL13
 4012 01a0 52000000 		.4byte	.LVL18
 4013 01a4 0100     		.2byte	0x1
 4014 01a6 54       		.byte	0x54
 4015 01a7 52000000 		.4byte	.LVL18
 4016 01ab 55000000 		.4byte	.LVL19-1
 4017 01af 0100     		.2byte	0x1
 4018 01b1 50       		.byte	0x50
 4019 01b2 55000000 		.4byte	.LVL19-1
 4020 01b6 66000000 		.4byte	.LFE122
 4021 01ba 0100     		.2byte	0x1
 4022 01bc 54       		.byte	0x54
 4023 01bd 00000000 		.4byte	0
 4024 01c1 00000000 		.4byte	0
 4025              	.LLST10:
 4026 01c5 00000000 		.4byte	.LVL12
 4027 01c9 0A000000 		.4byte	.LVL13
 4028 01cd 0100     		.2byte	0x1
 4029 01cf 51       		.byte	0x51
 4030 01d0 0A000000 		.4byte	.LVL13
 4031 01d4 52000000 		.4byte	.LVL18
ARM GAS  C:\Users\LAB_ME~1\AppData\Local\Temp\ccPnnEr8.s 			page 72


 4032 01d8 0400     		.2byte	0x4
 4033 01da F3       		.byte	0xf3
 4034 01db 01       		.uleb128 0x1
 4035 01dc 51       		.byte	0x51
 4036 01dd 9F       		.byte	0x9f
 4037 01de 52000000 		.4byte	.LVL18
 4038 01e2 55000000 		.4byte	.LVL19-1
 4039 01e6 0100     		.2byte	0x1
 4040 01e8 51       		.byte	0x51
 4041 01e9 55000000 		.4byte	.LVL19-1
 4042 01ed 66000000 		.4byte	.LFE122
 4043 01f1 0400     		.2byte	0x4
 4044 01f3 F3       		.byte	0xf3
 4045 01f4 01       		.uleb128 0x1
 4046 01f5 51       		.byte	0x51
 4047 01f6 9F       		.byte	0x9f
 4048 01f7 00000000 		.4byte	0
 4049 01fb 00000000 		.4byte	0
 4050              	.LLST11:
 4051 01ff 1E000000 		.4byte	.LVL15
 4052 0203 50000000 		.4byte	.LVL17
 4053 0207 0100     		.2byte	0x1
 4054 0209 54       		.byte	0x54
 4055 020a 58000000 		.4byte	.LVL20
 4056 020e 66000000 		.4byte	.LFE122
 4057 0212 0100     		.2byte	0x1
 4058 0214 54       		.byte	0x54
 4059 0215 00000000 		.4byte	0
 4060 0219 00000000 		.4byte	0
 4061              	.LLST12:
 4062 021d 00000000 		.4byte	.LFB125
 4063 0221 02000000 		.4byte	.LCFI4
 4064 0225 0200     		.2byte	0x2
 4065 0227 7D       		.byte	0x7d
 4066 0228 00       		.sleb128 0
 4067 0229 02000000 		.4byte	.LCFI4
 4068 022d 84000000 		.4byte	.LFE125
 4069 0231 0200     		.2byte	0x2
 4070 0233 7D       		.byte	0x7d
 4071 0234 10       		.sleb128 16
 4072 0235 00000000 		.4byte	0
 4073 0239 00000000 		.4byte	0
 4074              	.LLST13:
 4075 023d 0C000000 		.4byte	.LVL24
 4076 0241 5E000000 		.4byte	.LVL31
 4077 0245 0100     		.2byte	0x1
 4078 0247 54       		.byte	0x54
 4079 0248 7A000000 		.4byte	.LVL33
 4080 024c 84000000 		.4byte	.LFE125
 4081 0250 0100     		.2byte	0x1
 4082 0252 54       		.byte	0x54
 4083 0253 00000000 		.4byte	0
 4084 0257 00000000 		.4byte	0
 4085              	.LLST14:
 4086 025b 20000000 		.4byte	.LVL25
 4087 025f 5A000000 		.4byte	.LVL30
 4088 0263 0100     		.2byte	0x1
ARM GAS  C:\Users\LAB_ME~1\AppData\Local\Temp\ccPnnEr8.s 			page 73


 4089 0265 54       		.byte	0x54
 4090 0266 7A000000 		.4byte	.LVL33
 4091 026a 84000000 		.4byte	.LFE125
 4092 026e 0100     		.2byte	0x1
 4093 0270 54       		.byte	0x54
 4094 0271 00000000 		.4byte	0
 4095 0275 00000000 		.4byte	0
 4096              	.LLST15:
 4097 0279 20000000 		.4byte	.LVL25
 4098 027d 2E000000 		.4byte	.LVL26
 4099 0281 0200     		.2byte	0x2
 4100 0283 30       		.byte	0x30
 4101 0284 9F       		.byte	0x9f
 4102 0285 2E000000 		.4byte	.LVL26
 4103 0289 59000000 		.4byte	.LVL30-1
 4104 028d 0100     		.2byte	0x1
 4105 028f 51       		.byte	0x51
 4106 0290 7A000000 		.4byte	.LVL33
 4107 0294 84000000 		.4byte	.LFE125
 4108 0298 0100     		.2byte	0x1
 4109 029a 51       		.byte	0x51
 4110 029b 00000000 		.4byte	0
 4111 029f 00000000 		.4byte	0
 4112              	.LLST16:
 4113 02a3 00000000 		.4byte	.LFB126
 4114 02a7 02000000 		.4byte	.LCFI5
 4115 02ab 0200     		.2byte	0x2
 4116 02ad 7D       		.byte	0x7d
 4117 02ae 00       		.sleb128 0
 4118 02af 02000000 		.4byte	.LCFI5
 4119 02b3 28000000 		.4byte	.LFE126
 4120 02b7 0200     		.2byte	0x2
 4121 02b9 7D       		.byte	0x7d
 4122 02ba 08       		.sleb128 8
 4123 02bb 00000000 		.4byte	0
 4124 02bf 00000000 		.4byte	0
 4125              	.LLST17:
 4126 02c3 00000000 		.4byte	.LFB127
 4127 02c7 02000000 		.4byte	.LCFI6
 4128 02cb 0200     		.2byte	0x2
 4129 02cd 7D       		.byte	0x7d
 4130 02ce 00       		.sleb128 0
 4131 02cf 02000000 		.4byte	.LCFI6
 4132 02d3 00010000 		.4byte	.LFE127
 4133 02d7 0200     		.2byte	0x2
 4134 02d9 7D       		.byte	0x7d
 4135 02da 18       		.sleb128 24
 4136 02db 00000000 		.4byte	0
 4137 02df 00000000 		.4byte	0
 4138              	.LLST18:
 4139 02e3 00000000 		.4byte	.LVL36
 4140 02e7 0C000000 		.4byte	.LVL37
 4141 02eb 0100     		.2byte	0x1
 4142 02ed 50       		.byte	0x50
 4143 02ee 0C000000 		.4byte	.LVL37
 4144 02f2 6C000000 		.4byte	.LVL42
 4145 02f6 0100     		.2byte	0x1
ARM GAS  C:\Users\LAB_ME~1\AppData\Local\Temp\ccPnnEr8.s 			page 74


 4146 02f8 54       		.byte	0x54
 4147 02f9 6C000000 		.4byte	.LVL42
 4148 02fd 72000000 		.4byte	.LVL43
 4149 0301 0100     		.2byte	0x1
 4150 0303 50       		.byte	0x50
 4151 0304 72000000 		.4byte	.LVL43
 4152 0308 AE000000 		.4byte	.LVL46
 4153 030c 0100     		.2byte	0x1
 4154 030e 54       		.byte	0x54
 4155 030f AE000000 		.4byte	.LVL46
 4156 0313 B4000000 		.4byte	.LVL47
 4157 0317 0100     		.2byte	0x1
 4158 0319 50       		.byte	0x50
 4159 031a B4000000 		.4byte	.LVL47
 4160 031e 00010000 		.4byte	.LFE127
 4161 0322 0100     		.2byte	0x1
 4162 0324 54       		.byte	0x54
 4163 0325 00000000 		.4byte	0
 4164 0329 00000000 		.4byte	0
 4165              	.LLST19:
 4166 032d 12000000 		.4byte	.LVL38
 4167 0331 6C000000 		.4byte	.LVL42
 4168 0335 0100     		.2byte	0x1
 4169 0337 54       		.byte	0x54
 4170 0338 96000000 		.4byte	.LVL44
 4171 033c A4000000 		.4byte	.LVL45
 4172 0340 0100     		.2byte	0x1
 4173 0342 54       		.byte	0x54
 4174 0343 00000000 		.4byte	0
 4175 0347 00000000 		.4byte	0
 4176              	.LLST20:
 4177 034b 4E000000 		.4byte	.LVL40
 4178 034f 50000000 		.4byte	.LVL41
 4179 0353 0100     		.2byte	0x1
 4180 0355 53       		.byte	0x53
 4181 0356 50000000 		.4byte	.LVL41
 4182 035a 6C000000 		.4byte	.LVL42
 4183 035e 0F00     		.2byte	0xf
 4184 0360 0A       		.byte	0xa
 4185 0361 4C21     		.2byte	0x214c
 4186 0363 76       		.byte	0x76
 4187 0364 00       		.sleb128 0
 4188 0365 77       		.byte	0x77
 4189 0366 00       		.sleb128 0
 4190 0367 30       		.byte	0x30
 4191 0368 2E       		.byte	0x2e
 4192 0369 28       		.byte	0x28
 4193 036a 0100     		.2byte	0x1
 4194 036c 16       		.byte	0x16
 4195 036d 13       		.byte	0x13
 4196 036e 9F       		.byte	0x9f
 4197 036f 00000000 		.4byte	0
 4198 0373 00000000 		.4byte	0
 4199              	.LLST21:
 4200 0377 12000000 		.4byte	.LVL38
 4201 037b 6C000000 		.4byte	.LVL42
 4202 037f 0100     		.2byte	0x1
ARM GAS  C:\Users\LAB_ME~1\AppData\Local\Temp\ccPnnEr8.s 			page 75


 4203 0381 55       		.byte	0x55
 4204 0382 96000000 		.4byte	.LVL44
 4205 0386 A4000000 		.4byte	.LVL45
 4206 038a 0100     		.2byte	0x1
 4207 038c 55       		.byte	0x55
 4208 038d 00000000 		.4byte	0
 4209 0391 00000000 		.4byte	0
 4210              	.LLST22:
 4211 0395 00000000 		.4byte	.LFB128
 4212 0399 06000000 		.4byte	.LCFI7
 4213 039d 0200     		.2byte	0x2
 4214 039f 7D       		.byte	0x7d
 4215 03a0 00       		.sleb128 0
 4216 03a1 06000000 		.4byte	.LCFI7
 4217 03a5 3C000000 		.4byte	.LFE128
 4218 03a9 0200     		.2byte	0x2
 4219 03ab 7D       		.byte	0x7d
 4220 03ac 08       		.sleb128 8
 4221 03ad 00000000 		.4byte	0
 4222 03b1 00000000 		.4byte	0
 4223              	.LLST23:
 4224 03b5 00000000 		.4byte	.LVL51
 4225 03b9 0A000000 		.4byte	.LVL52
 4226 03bd 0100     		.2byte	0x1
 4227 03bf 50       		.byte	0x50
 4228 03c0 0A000000 		.4byte	.LVL52
 4229 03c4 0C000000 		.4byte	.LVL53
 4230 03c8 0100     		.2byte	0x1
 4231 03ca 54       		.byte	0x54
 4232 03cb 0C000000 		.4byte	.LVL53
 4233 03cf 0F000000 		.4byte	.LVL54-1
 4234 03d3 0100     		.2byte	0x1
 4235 03d5 50       		.byte	0x50
 4236 03d6 0F000000 		.4byte	.LVL54-1
 4237 03da 3C000000 		.4byte	.LFE128
 4238 03de 0100     		.2byte	0x1
 4239 03e0 54       		.byte	0x54
 4240 03e1 00000000 		.4byte	0
 4241 03e5 00000000 		.4byte	0
 4242              	.LLST24:
 4243 03e9 00000000 		.4byte	.LVL58
 4244 03ed 04000000 		.4byte	.LVL59
 4245 03f1 0100     		.2byte	0x1
 4246 03f3 50       		.byte	0x50
 4247 03f4 04000000 		.4byte	.LVL59
 4248 03f8 1A000000 		.4byte	.LFE129
 4249 03fc 0400     		.2byte	0x4
 4250 03fe F3       		.byte	0xf3
 4251 03ff 01       		.uleb128 0x1
 4252 0400 50       		.byte	0x50
 4253 0401 9F       		.byte	0x9f
 4254 0402 00000000 		.4byte	0
 4255 0406 00000000 		.4byte	0
 4256              	.LLST25:
 4257 040a 00000000 		.4byte	.LVL58
 4258 040e 12000000 		.4byte	.LVL60
 4259 0412 0100     		.2byte	0x1
ARM GAS  C:\Users\LAB_ME~1\AppData\Local\Temp\ccPnnEr8.s 			page 76


 4260 0414 52       		.byte	0x52
 4261 0415 12000000 		.4byte	.LVL60
 4262 0419 1A000000 		.4byte	.LFE129
 4263 041d 0200     		.2byte	0x2
 4264 041f 73       		.byte	0x73
 4265 0420 0C       		.sleb128 12
 4266 0421 00000000 		.4byte	0
 4267 0425 00000000 		.4byte	0
 4268              	.LLST26:
 4269 0429 00000000 		.4byte	.LVL61
 4270 042d 0C000000 		.4byte	.LVL62
 4271 0431 0100     		.2byte	0x1
 4272 0433 50       		.byte	0x50
 4273 0434 0C000000 		.4byte	.LVL62
 4274 0438 22000000 		.4byte	.LFE130
 4275 043c 0400     		.2byte	0x4
 4276 043e F3       		.byte	0xf3
 4277 043f 01       		.uleb128 0x1
 4278 0440 50       		.byte	0x50
 4279 0441 9F       		.byte	0x9f
 4280 0442 00000000 		.4byte	0
 4281 0446 00000000 		.4byte	0
 4282              	.LLST27:
 4283 044a 00000000 		.4byte	.LFB131
 4284 044e 02000000 		.4byte	.LCFI8
 4285 0452 0200     		.2byte	0x2
 4286 0454 7D       		.byte	0x7d
 4287 0455 00       		.sleb128 0
 4288 0456 02000000 		.4byte	.LCFI8
 4289 045a 38000000 		.4byte	.LFE131
 4290 045e 0200     		.2byte	0x2
 4291 0460 7D       		.byte	0x7d
 4292 0461 0C       		.sleb128 12
 4293 0462 00000000 		.4byte	0
 4294 0466 00000000 		.4byte	0
 4295              	.LLST28:
 4296 046a 00000000 		.4byte	.LFB132
 4297 046e 0C000000 		.4byte	.LCFI9
 4298 0472 0200     		.2byte	0x2
 4299 0474 7D       		.byte	0x7d
 4300 0475 00       		.sleb128 0
 4301 0476 0C000000 		.4byte	.LCFI9
 4302 047a 2A000000 		.4byte	.LFE132
 4303 047e 0200     		.2byte	0x2
 4304 0480 7D       		.byte	0x7d
 4305 0481 08       		.sleb128 8
 4306 0482 00000000 		.4byte	0
 4307 0486 00000000 		.4byte	0
 4308              	.LLST29:
 4309 048a 00000000 		.4byte	.LVL64
 4310 048e 25000000 		.4byte	.LVL66-1
 4311 0492 0100     		.2byte	0x1
 4312 0494 50       		.byte	0x50
 4313 0495 25000000 		.4byte	.LVL66-1
 4314 0499 2A000000 		.4byte	.LFE132
 4315 049d 0400     		.2byte	0x4
 4316 049f F3       		.byte	0xf3
ARM GAS  C:\Users\LAB_ME~1\AppData\Local\Temp\ccPnnEr8.s 			page 77


 4317 04a0 01       		.uleb128 0x1
 4318 04a1 50       		.byte	0x50
 4319 04a2 9F       		.byte	0x9f
 4320 04a3 00000000 		.4byte	0
 4321 04a7 00000000 		.4byte	0
 4322              		.section	.debug_aranges,"",%progbits
 4323 0000 74000000 		.4byte	0x74
 4324 0004 0200     		.2byte	0x2
 4325 0006 00000000 		.4byte	.Ldebug_info0
 4326 000a 04       		.byte	0x4
 4327 000b 00       		.byte	0
 4328 000c 0000     		.2byte	0
 4329 000e 0000     		.2byte	0
 4330 0010 00000000 		.4byte	.LFB119
 4331 0014 30000000 		.4byte	.LFE119-.LFB119
 4332 0018 00000000 		.4byte	.LFB120
 4333 001c 4C000000 		.4byte	.LFE120-.LFB120
 4334 0020 00000000 		.4byte	.LFB123
 4335 0024 4A000000 		.4byte	.LFE123-.LFB123
 4336 0028 00000000 		.4byte	.LFB122
 4337 002c 66000000 		.4byte	.LFE122-.LFB122
 4338 0030 00000000 		.4byte	.LFB125
 4339 0034 84000000 		.4byte	.LFE125-.LFB125
 4340 0038 00000000 		.4byte	.LFB126
 4341 003c 28000000 		.4byte	.LFE126-.LFB126
 4342 0040 00000000 		.4byte	.LFB127
 4343 0044 00010000 		.4byte	.LFE127-.LFB127
 4344 0048 00000000 		.4byte	.LFB128
 4345 004c 3C000000 		.4byte	.LFE128-.LFB128
 4346 0050 00000000 		.4byte	.LFB129
 4347 0054 1A000000 		.4byte	.LFE129-.LFB129
 4348 0058 00000000 		.4byte	.LFB130
 4349 005c 22000000 		.4byte	.LFE130-.LFB130
 4350 0060 00000000 		.4byte	.LFB131
 4351 0064 38000000 		.4byte	.LFE131-.LFB131
 4352 0068 00000000 		.4byte	.LFB132
 4353 006c 2A000000 		.4byte	.LFE132-.LFB132
 4354 0070 00000000 		.4byte	0
 4355 0074 00000000 		.4byte	0
 4356              		.section	.debug_ranges,"",%progbits
 4357              	.Ldebug_ranges0:
 4358 0000 1E000000 		.4byte	.LBB4
 4359 0004 52000000 		.4byte	.LBE4
 4360 0008 58000000 		.4byte	.LBB8
 4361 000c 5E000000 		.4byte	.LBE8
 4362 0010 62000000 		.4byte	.LBB9
 4363 0014 66000000 		.4byte	.LBE9
 4364 0018 00000000 		.4byte	0
 4365 001c 00000000 		.4byte	0
 4366 0020 1E000000 		.4byte	.LBB5
 4367 0024 52000000 		.4byte	.LBE5
 4368 0028 58000000 		.4byte	.LBB6
 4369 002c 5E000000 		.4byte	.LBE6
 4370 0030 62000000 		.4byte	.LBB7
 4371 0034 66000000 		.4byte	.LBE7
 4372 0038 00000000 		.4byte	0
 4373 003c 00000000 		.4byte	0
ARM GAS  C:\Users\LAB_ME~1\AppData\Local\Temp\ccPnnEr8.s 			page 78


 4374 0040 02000000 		.4byte	.LBB14
 4375 0044 72000000 		.4byte	.LBE14
 4376 0048 7A000000 		.4byte	.LBB21
 4377 004c 84000000 		.4byte	.LBE21
 4378 0050 00000000 		.4byte	0
 4379 0054 00000000 		.4byte	0
 4380 0058 02000000 		.4byte	.LBB15
 4381 005c 72000000 		.4byte	.LBE15
 4382 0060 7A000000 		.4byte	.LBB20
 4383 0064 84000000 		.4byte	.LBE20
 4384 0068 00000000 		.4byte	0
 4385 006c 00000000 		.4byte	0
 4386 0070 20000000 		.4byte	.LBB16
 4387 0074 56000000 		.4byte	.LBE16
 4388 0078 7A000000 		.4byte	.LBB19
 4389 007c 84000000 		.4byte	.LBE19
 4390 0080 00000000 		.4byte	0
 4391 0084 00000000 		.4byte	0
 4392 0088 20000000 		.4byte	.LBB17
 4393 008c 56000000 		.4byte	.LBE17
 4394 0090 7A000000 		.4byte	.LBB18
 4395 0094 84000000 		.4byte	.LBE18
 4396 0098 00000000 		.4byte	0
 4397 009c 00000000 		.4byte	0
 4398 00a0 12000000 		.4byte	.LBB25
 4399 00a4 64000000 		.4byte	.LBE25
 4400 00a8 68000000 		.4byte	.LBB29
 4401 00ac 6C000000 		.4byte	.LBE29
 4402 00b0 96000000 		.4byte	.LBB30
 4403 00b4 A4000000 		.4byte	.LBE30
 4404 00b8 00000000 		.4byte	0
 4405 00bc 00000000 		.4byte	0
 4406 00c0 12000000 		.4byte	.LBB26
 4407 00c4 64000000 		.4byte	.LBE26
 4408 00c8 68000000 		.4byte	.LBB27
 4409 00cc 6C000000 		.4byte	.LBE27
 4410 00d0 96000000 		.4byte	.LBB28
 4411 00d4 A4000000 		.4byte	.LBE28
 4412 00d8 00000000 		.4byte	0
 4413 00dc 00000000 		.4byte	0
 4414 00e0 00000000 		.4byte	.LFB119
 4415 00e4 30000000 		.4byte	.LFE119
 4416 00e8 00000000 		.4byte	.LFB120
 4417 00ec 4C000000 		.4byte	.LFE120
 4418 00f0 00000000 		.4byte	.LFB123
 4419 00f4 4A000000 		.4byte	.LFE123
 4420 00f8 00000000 		.4byte	.LFB122
 4421 00fc 66000000 		.4byte	.LFE122
 4422 0100 00000000 		.4byte	.LFB125
 4423 0104 84000000 		.4byte	.LFE125
 4424 0108 00000000 		.4byte	.LFB126
 4425 010c 28000000 		.4byte	.LFE126
 4426 0110 00000000 		.4byte	.LFB127
 4427 0114 00010000 		.4byte	.LFE127
 4428 0118 00000000 		.4byte	.LFB128
 4429 011c 3C000000 		.4byte	.LFE128
 4430 0120 00000000 		.4byte	.LFB129
ARM GAS  C:\Users\LAB_ME~1\AppData\Local\Temp\ccPnnEr8.s 			page 79


 4431 0124 1A000000 		.4byte	.LFE129
 4432 0128 00000000 		.4byte	.LFB130
 4433 012c 22000000 		.4byte	.LFE130
 4434 0130 00000000 		.4byte	.LFB131
 4435 0134 38000000 		.4byte	.LFE131
 4436 0138 00000000 		.4byte	.LFB132
 4437 013c 2A000000 		.4byte	.LFE132
 4438 0140 00000000 		.4byte	0
 4439 0144 00000000 		.4byte	0
 4440              		.section	.debug_line,"",%progbits
 4441              	.Ldebug_line0:
 4442 0000 D4040000 		.section	.debug_str,"MS",%progbits,1
 4442      02006302 
 4442      00000201 
 4442      FB0E0D00 
 4442      01010101 
 4443              	.LASF195:
 4444 0000 75617274 		.ascii	"uart_lld_start_receive\000"
 4444      5F6C6C64 
 4444      5F737461 
 4444      72745F72 
 4444      65636569 
 4445              	.LASF131:
 4446 0017 41504231 		.ascii	"APB1LPENR\000"
 4446      4C50454E 
 4446      5200
 4447              	.LASF160:
 4448 0021 75617274 		.ascii	"uartflags_t\000"
 4448      666C6167 
 4448      735F7400 
 4449              	.LASF45:
 4450 002d 43414E31 		.ascii	"CAN1_RX0_IRQn\000"
 4450      5F525830 
 4450      5F495251 
 4450      6E00
 4451              	.LASF26:
 4452 003b 5056445F 		.ascii	"PVD_IRQn\000"
 4452      4952516E 
 4452      00
 4453              	.LASF89:
 4454 0044 43414E32 		.ascii	"CAN2_RX0_IRQn\000"
 4454      5F525830 
 4454      5F495251 
 4454      6E00
 4455              	.LASF189:
 4456 0052 75617274 		.ascii	"uart_lld_init\000"
 4456      5F6C6C64 
 4456      5F696E69 
 4456      7400
 4457              	.LASF2:
 4458 0060 73697A65 		.ascii	"size_t\000"
 4458      5F7400
 4459              	.LASF177:
 4460 0067 72786368 		.ascii	"rxchar_cb\000"
 4460      61725F63 
 4460      6200
 4461              	.LASF98:
ARM GAS  C:\Users\LAB_ME~1\AppData\Local\Temp\ccPnnEr8.s 			page 80


 4462 0071 49324333 		.ascii	"I2C3_ER_IRQn\000"
 4462      5F45525F 
 4462      4952516E 
 4462      00
 4463              	.LASF172:
 4464 007e 75617274 		.ascii	"uartccb_t\000"
 4464      6363625F 
 4464      7400
 4465              	.LASF108:
 4466 0088 4D304152 		.ascii	"M0AR\000"
 4466      00
 4467              	.LASF56:
 4468 008d 49324331 		.ascii	"I2C1_EV_IRQn\000"
 4468      5F45565F 
 4468      4952516E 
 4468      00
 4469              	.LASF204:
 4470 009a 75617274 		.ascii	"uartObjectInit\000"
 4470      4F626A65 
 4470      6374496E 
 4470      697400
 4471              	.LASF93:
 4472 00a9 444D4132 		.ascii	"DMA2_Stream5_IRQn\000"
 4472      5F537472 
 4472      65616D35 
 4472      5F495251 
 4472      6E00
 4473              	.LASF141:
 4474 00bb 73747265 		.ascii	"stream\000"
 4474      616D00
 4475              	.LASF168:
 4476 00c2 646D6172 		.ascii	"dmarx\000"
 4476      7800
 4477              	.LASF186:
 4478 00c8 75736172 		.ascii	"usart_stop\000"
 4478      745F7374 
 4478      6F7000
 4479              	.LASF128:
 4480 00d3 41484232 		.ascii	"AHB2LPENR\000"
 4480      4C50454E 
 4480      5200
 4481              	.LASF14:
 4482 00dd 626F6F6C 		.ascii	"bool_t\000"
 4482      5F7400
 4483              	.LASF66:
 4484 00e4 5254435F 		.ascii	"RTC_Alarm_IRQn\000"
 4484      416C6172 
 4484      6D5F4952 
 4484      516E00
 4485              	.LASF145:
 4486 00f3 76656374 		.ascii	"vector\000"
 4486      6F7200
 4487              	.LASF200:
 4488 00fa 5F73746D 		.ascii	"_stm32_dma_streams\000"
 4488      33325F64 
 4488      6D615F73 
 4488      74726561 
ARM GAS  C:\Users\LAB_ME~1\AppData\Local\Temp\ccPnnEr8.s 			page 81


 4488      6D7300
 4489              	.LASF59:
 4490 010d 49324332 		.ascii	"I2C2_ER_IRQn\000"
 4490      5F45525F 
 4490      4952516E 
 4490      00
 4491              	.LASF55:
 4492 011a 54494D34 		.ascii	"TIM4_IRQn\000"
 4492      5F495251 
 4492      6E00
 4493              	.LASF180:
 4494 0124 55415254 		.ascii	"UARTConfig\000"
 4494      436F6E66 
 4494      696700
 4495              	.LASF28:
 4496 012f 5254435F 		.ascii	"RTC_WKUP_IRQn\000"
 4496      574B5550 
 4496      5F495251 
 4496      6E00
 4497              	.LASF170:
 4498 013d 72786275 		.ascii	"rxbuf\000"
 4498      6600
 4499              	.LASF25:
 4500 0143 57574447 		.ascii	"WWDG_IRQn\000"
 4500      5F495251 
 4500      6E00
 4501              	.LASF74:
 4502 014d 5344494F 		.ascii	"SDIO_IRQn\000"
 4502      5F495251 
 4502      6E00
 4503              	.LASF127:
 4504 0157 41484231 		.ascii	"AHB1LPENR\000"
 4504      4C50454E 
 4504      5200
 4505              	.LASF205:
 4506 0161 6E766963 		.ascii	"nvicEnableVector\000"
 4506      456E6162 
 4506      6C655665 
 4506      63746F72 
 4506      00
 4507              	.LASF71:
 4508 0172 54494D38 		.ascii	"TIM8_CC_IRQn\000"
 4508      5F43435F 
 4508      4952516E 
 4508      00
 4509              	.LASF197:
 4510 017f 75617274 		.ascii	"uart_lld_stop_receive\000"
 4510      5F6C6C64 
 4510      5F73746F 
 4510      705F7265 
 4510      63656976 
 4511              	.LASF12:
 4512 0195 6C6F6E67 		.ascii	"long long int\000"
 4512      206C6F6E 
 4512      6720696E 
 4512      7400
 4513              	.LASF1:
ARM GAS  C:\Users\LAB_ME~1\AppData\Local\Temp\ccPnnEr8.s 			page 82


 4514 01a3 7369676E 		.ascii	"signed char\000"
 4514      65642063 
 4514      68617200 
 4515              	.LASF90:
 4516 01af 43414E32 		.ascii	"CAN2_RX1_IRQn\000"
 4516      5F525831 
 4516      5F495251 
 4516      6E00
 4517              	.LASF104:
 4518 01bd 43525950 		.ascii	"CRYP_IRQn\000"
 4518      5F495251 
 4518      6E00
 4519              	.LASF113:
 4520 01c7 41484231 		.ascii	"AHB1RSTR\000"
 4520      52535452 
 4520      00
 4521              	.LASF139:
 4522 01d0 47545052 		.ascii	"GTPR\000"
 4522      00
 4523              	.LASF164:
 4524 01d5 72787374 		.ascii	"rxstate\000"
 4524      61746500 
 4525              	.LASF94:
 4526 01dd 444D4132 		.ascii	"DMA2_Stream6_IRQn\000"
 4526      5F537472 
 4526      65616D36 
 4526      5F495251 
 4526      6E00
 4527              	.LASF162:
 4528 01ef 73746174 		.ascii	"state\000"
 4528      6500
 4529              	.LASF163:
 4530 01f5 74787374 		.ascii	"txstate\000"
 4530      61746500 
 4531              	.LASF9:
 4532 01fd 6C6F6E67 		.ascii	"long int\000"
 4532      20696E74 
 4532      00
 4533              	.LASF118:
 4534 0206 41504232 		.ascii	"APB2RSTR\000"
 4534      52535452 
 4534      00
 4535              	.LASF171:
 4536 020f 75617274 		.ascii	"uartcb_t\000"
 4536      63625F74 
 4536      00
 4537              	.LASF41:
 4538 0218 444D4131 		.ascii	"DMA1_Stream5_IRQn\000"
 4538      5F537472 
 4538      65616D35 
 4538      5F495251 
 4538      6E00
 4539              	.LASF48:
 4540 022a 45585449 		.ascii	"EXTI9_5_IRQn\000"
 4540      395F355F 
 4540      4952516E 
 4540      00
ARM GAS  C:\Users\LAB_ME~1\AppData\Local\Temp\ccPnnEr8.s 			page 83


 4541              	.LASF87:
 4542 0237 4554485F 		.ascii	"ETH_WKUP_IRQn\000"
 4542      574B5550 
 4542      5F495251 
 4542      6E00
 4543              	.LASF6:
 4544 0245 75696E74 		.ascii	"uint16_t\000"
 4544      31365F74 
 4544      00
 4545              	.LASF13:
 4546 024e 6C6F6E67 		.ascii	"long long unsigned int\000"
 4546      206C6F6E 
 4546      6720756E 
 4546      7369676E 
 4546      65642069 
 4547              	.LASF202:
 4548 0265 706F7274 		.ascii	"port_halt\000"
 4548      5F68616C 
 4548      7400
 4549              	.LASF79:
 4550 026f 54494D36 		.ascii	"TIM6_DAC_IRQn\000"
 4550      5F444143 
 4550      5F495251 
 4550      6E00
 4551              	.LASF111:
 4552 027d 504C4C43 		.ascii	"PLLCFGR\000"
 4552      46475200 
 4553              	.LASF77:
 4554 0285 55415254 		.ascii	"UART4_IRQn\000"
 4554      345F4952 
 4554      516E00
 4555              	.LASF67:
 4556 0290 4F54475F 		.ascii	"OTG_FS_WKUP_IRQn\000"
 4556      46535F57 
 4556      4B55505F 
 4556      4952516E 
 4556      00
 4557              	.LASF23:
 4558 02a1 50656E64 		.ascii	"PendSV_IRQn\000"
 4558      53565F49 
 4558      52516E00 
 4559              	.LASF69:
 4560 02ad 54494D38 		.ascii	"TIM8_UP_TIM13_IRQn\000"
 4560      5F55505F 
 4560      54494D31 
 4560      335F4952 
 4560      516E00
 4561              	.LASF191:
 4562 02c0 75617274 		.ascii	"uart_lld_start\000"
 4562      5F6C6C64 
 4562      5F737461 
 4562      727400
 4563              	.LASF161:
 4564 02cf 55415254 		.ascii	"UARTDriver\000"
 4564      44726976 
 4564      657200
 4565              	.LASF114:
ARM GAS  C:\Users\LAB_ME~1\AppData\Local\Temp\ccPnnEr8.s 			page 84


 4566 02da 41484232 		.ascii	"AHB2RSTR\000"
 4566      52535452 
 4566      00
 4567              	.LASF144:
 4568 02e3 73656C66 		.ascii	"selfindex\000"
 4568      696E6465 
 4568      7800
 4569              	.LASF185:
 4570 02ed 7365745F 		.ascii	"set_rx_idle_loop\000"
 4570      72785F69 
 4570      646C655F 
 4570      6C6F6F70 
 4570      00
 4571              	.LASF84:
 4572 02fe 444D4132 		.ascii	"DMA2_Stream3_IRQn\000"
 4572      5F537472 
 4572      65616D33 
 4572      5F495251 
 4572      6E00
 4573              	.LASF107:
 4574 0310 4E445452 		.ascii	"NDTR\000"
 4574      00
 4575              	.LASF95:
 4576 0315 444D4132 		.ascii	"DMA2_Stream7_IRQn\000"
 4576      5F537472 
 4576      65616D37 
 4576      5F495251 
 4576      6E00
 4577              	.LASF150:
 4578 0327 55415254 		.ascii	"UART_READY\000"
 4578      5F524541 
 4578      445900
 4579              	.LASF153:
 4580 0332 55415254 		.ascii	"UART_TX_ACTIVE\000"
 4580      5F54585F 
 4580      41435449 
 4580      564500
 4581              	.LASF166:
 4582 0341 75736172 		.ascii	"usart\000"
 4582      7400
 4583              	.LASF0:
 4584 0347 756E7369 		.ascii	"unsigned int\000"
 4584      676E6564 
 4584      20696E74 
 4584      00
 4585              	.LASF39:
 4586 0354 444D4131 		.ascii	"DMA1_Stream3_IRQn\000"
 4586      5F537472 
 4586      65616D33 
 4586      5F495251 
 4586      6E00
 4587              	.LASF194:
 4588 0366 74786275 		.ascii	"txbuf\000"
 4588      6600
 4589              	.LASF42:
 4590 036c 444D4131 		.ascii	"DMA1_Stream6_IRQn\000"
 4590      5F537472 
ARM GAS  C:\Users\LAB_ME~1\AppData\Local\Temp\ccPnnEr8.s 			page 85


 4590      65616D36 
 4590      5F495251 
 4590      6E00
 4591              	.LASF18:
 4592 037e 4D656D6F 		.ascii	"MemoryManagement_IRQn\000"
 4592      72794D61 
 4592      6E616765 
 4592      6D656E74 
 4592      5F495251 
 4593              	.LASF147:
 4594 0394 73746D33 		.ascii	"stm32_dmaisr_t\000"
 4594      325F646D 
 4594      61697372 
 4594      5F7400
 4595              	.LASF97:
 4596 03a3 49324333 		.ascii	"I2C3_EV_IRQn\000"
 4596      5F45565F 
 4596      4952516E 
 4596      00
 4597              	.LASF11:
 4598 03b0 6C6F6E67 		.ascii	"long unsigned int\000"
 4598      20756E73 
 4598      69676E65 
 4598      6420696E 
 4598      7400
 4599              	.LASF173:
 4600 03c2 75617274 		.ascii	"uartecb_t\000"
 4600      6563625F 
 4600      7400
 4601              	.LASF138:
 4602 03cc 5243435F 		.ascii	"RCC_TypeDef\000"
 4602      54797065 
 4602      44656600 
 4603              	.LASF10:
 4604 03d8 75696E74 		.ascii	"uint32_t\000"
 4604      33325F74 
 4604      00
 4605              	.LASF143:
 4606 03e1 69736869 		.ascii	"ishift\000"
 4606      667400
 4607              	.LASF99:
 4608 03e8 4F54475F 		.ascii	"OTG_HS_EP1_OUT_IRQn\000"
 4608      48535F45 
 4608      50315F4F 
 4608      55545F49 
 4608      52516E00 
 4609              	.LASF21:
 4610 03fc 53564361 		.ascii	"SVCall_IRQn\000"
 4610      6C6C5F49 
 4610      52516E00 
 4611              	.LASF7:
 4612 0408 73686F72 		.ascii	"short unsigned int\000"
 4612      7420756E 
 4612      7369676E 
 4612      65642069 
 4612      6E7400
 4613              	.LASF148:
ARM GAS  C:\Users\LAB_ME~1\AppData\Local\Temp\ccPnnEr8.s 			page 86


 4614 041b 55415254 		.ascii	"UART_UNINIT\000"
 4614      5F554E49 
 4614      4E495400 
 4615              	.LASF149:
 4616 0427 55415254 		.ascii	"UART_STOP\000"
 4616      5F53544F 
 4616      5000
 4617              	.LASF137:
 4618 0431 504C4C49 		.ascii	"PLLI2SCFGR\000"
 4618      32534346 
 4618      475200
 4619              	.LASF44:
 4620 043c 43414E31 		.ascii	"CAN1_TX_IRQn\000"
 4620      5F54585F 
 4620      4952516E 
 4620      00
 4621              	.LASF115:
 4622 0449 41484233 		.ascii	"AHB3RSTR\000"
 4622      52535452 
 4622      00
 4623              	.LASF65:
 4624 0452 45585449 		.ascii	"EXTI15_10_IRQn\000"
 4624      31355F31 
 4624      305F4952 
 4624      516E00
 4625              	.LASF60:
 4626 0461 53504931 		.ascii	"SPI1_IRQn\000"
 4626      5F495251 
 4626      6E00
 4627              	.LASF37:
 4628 046b 444D4131 		.ascii	"DMA1_Stream1_IRQn\000"
 4628      5F537472 
 4628      65616D31 
 4628      5F495251 
 4628      6E00
 4629              	.LASF140:
 4630 047d 55534152 		.ascii	"USART_TypeDef\000"
 4630      545F5479 
 4630      70654465 
 4630      6600
 4631              	.LASF132:
 4632 048b 41504232 		.ascii	"APB2LPENR\000"
 4632      4C50454E 
 4632      5200
 4633              	.LASF178:
 4634 0495 72786572 		.ascii	"rxerr_cb\000"
 4634      725F6362 
 4634      00
 4635              	.LASF68:
 4636 049e 54494D38 		.ascii	"TIM8_BRK_TIM12_IRQn\000"
 4636      5F42524B 
 4636      5F54494D 
 4636      31325F49 
 4636      52516E00 
 4637              	.LASF24:
 4638 04b2 53797354 		.ascii	"SysTick_IRQn\000"
 4638      69636B5F 
ARM GAS  C:\Users\LAB_ME~1\AppData\Local\Temp\ccPnnEr8.s 			page 87


 4638      4952516E 
 4638      00
 4639              	.LASF52:
 4640 04bf 54494D31 		.ascii	"TIM1_CC_IRQn\000"
 4640      5F43435F 
 4640      4952516E 
 4640      00
 4641              	.LASF157:
 4642 04cc 55415254 		.ascii	"UART_RX_ACTIVE\000"
 4642      5F52585F 
 4642      41435449 
 4642      564500
 4643              	.LASF70:
 4644 04db 54494D38 		.ascii	"TIM8_TRG_COM_TIM14_IRQn\000"
 4644      5F545247 
 4644      5F434F4D 
 4644      5F54494D 
 4644      31345F49 
 4645              	.LASF184:
 4646 04f3 73657276 		.ascii	"serve_usart_irq\000"
 4646      655F7573 
 4646      6172745F 
 4646      69727100 
 4647              	.LASF210:
 4648 0503 4952516E 		.ascii	"IRQn\000"
 4648      00
 4649              	.LASF181:
 4650 0508 75617274 		.ascii	"uartp\000"
 4650      7000
 4651              	.LASF15:
 4652 050e 73697A65 		.ascii	"sizetype\000"
 4652      74797065 
 4652      00
 4653              	.LASF86:
 4654 0517 4554485F 		.ascii	"ETH_IRQn\000"
 4654      4952516E 
 4654      00
 4655              	.LASF211:
 4656 0520 7472616E 		.ascii	"translate_errors\000"
 4656      736C6174 
 4656      655F6572 
 4656      726F7273 
 4656      00
 4657              	.LASF158:
 4658 0531 55415254 		.ascii	"UART_RX_COMPLETE\000"
 4658      5F52585F 
 4658      434F4D50 
 4658      4C455445 
 4658      00
 4659              	.LASF40:
 4660 0542 444D4131 		.ascii	"DMA1_Stream4_IRQn\000"
 4660      5F537472 
 4660      65616D34 
 4660      5F495251 
 4660      6E00
 4661              	.LASF83:
 4662 0554 444D4132 		.ascii	"DMA2_Stream2_IRQn\000"
ARM GAS  C:\Users\LAB_ME~1\AppData\Local\Temp\ccPnnEr8.s 			page 88


 4662      5F537472 
 4662      65616D32 
 4662      5F495251 
 4662      6E00
 4663              	.LASF96:
 4664 0566 55534152 		.ascii	"USART6_IRQn\000"
 4664      54365F49 
 4664      52516E00 
 4665              	.LASF122:
 4666 0572 41484233 		.ascii	"AHB3ENR\000"
 4666      454E5200 
 4667              	.LASF75:
 4668 057a 54494D35 		.ascii	"TIM5_IRQn\000"
 4668      5F495251 
 4668      6E00
 4669              	.LASF187:
 4670 0584 75617274 		.ascii	"uart_lld_serve_tx_end_irq\000"
 4670      5F6C6C64 
 4670      5F736572 
 4670      76655F74 
 4670      785F656E 
 4671              	.LASF34:
 4672 059e 45585449 		.ascii	"EXTI3_IRQn\000"
 4672      335F4952 
 4672      516E00
 4673              	.LASF61:
 4674 05a9 53504932 		.ascii	"SPI2_IRQn\000"
 4674      5F495251 
 4674      6E00
 4675              	.LASF38:
 4676 05b3 444D4131 		.ascii	"DMA1_Stream2_IRQn\000"
 4676      5F537472 
 4676      65616D32 
 4676      5F495251 
 4676      6E00
 4677              	.LASF88:
 4678 05c5 43414E32 		.ascii	"CAN2_TX_IRQn\000"
 4678      5F54585F 
 4678      4952516E 
 4678      00
 4679              	.LASF176:
 4680 05d2 7278656E 		.ascii	"rxend_cb\000"
 4680      645F6362 
 4680      00
 4681              	.LASF155:
 4682 05db 75617274 		.ascii	"uarttxstate_t\000"
 4682      74787374 
 4682      6174655F 
 4682      7400
 4683              	.LASF209:
 4684 05e9 433A5C43 		.ascii	"C:\\Chibios\\demos\\FirmwareV2\000"
 4684      68696269 
 4684      6F735C64 
 4684      656D6F73 
 4684      5C466972 
 4685              	.LASF207:
 4686 0605 474E5520 		.ascii	"GNU C 4.7.2\000"
ARM GAS  C:\Users\LAB_ME~1\AppData\Local\Temp\ccPnnEr8.s 			page 89


 4686      4320342E 
 4686      372E3200 
 4687              	.LASF117:
 4688 0611 41504231 		.ascii	"APB1RSTR\000"
 4688      52535452 
 4688      00
 4689              	.LASF102:
 4690 061a 4F54475F 		.ascii	"OTG_HS_IRQn\000"
 4690      48535F49 
 4690      52516E00 
 4691              	.LASF169:
 4692 0626 646D6174 		.ascii	"dmatx\000"
 4692      7800
 4693              	.LASF116:
 4694 062c 52455345 		.ascii	"RESERVED0\000"
 4694      52564544 
 4694      3000
 4695              	.LASF119:
 4696 0636 52455345 		.ascii	"RESERVED1\000"
 4696      52564544 
 4696      3100
 4697              	.LASF123:
 4698 0640 52455345 		.ascii	"RESERVED2\000"
 4698      52564544 
 4698      3200
 4699              	.LASF126:
 4700 064a 52455345 		.ascii	"RESERVED3\000"
 4700      52564544 
 4700      3300
 4701              	.LASF130:
 4702 0654 52455345 		.ascii	"RESERVED4\000"
 4702      52564544 
 4702      3400
 4703              	.LASF133:
 4704 065e 52455345 		.ascii	"RESERVED5\000"
 4704      52564544 
 4704      3500
 4705              	.LASF135:
 4706 0668 52455345 		.ascii	"RESERVED6\000"
 4706      52564544 
 4706      3600
 4707              	.LASF146:
 4708 0672 73746D33 		.ascii	"stm32_dma_stream_t\000"
 4708      325F646D 
 4708      615F7374 
 4708      7265616D 
 4708      5F7400
 4709              	.LASF76:
 4710 0685 53504933 		.ascii	"SPI3_IRQn\000"
 4710      5F495251 
 4710      6E00
 4711              	.LASF85:
 4712 068f 444D4132 		.ascii	"DMA2_Stream4_IRQn\000"
 4712      5F537472 
 4712      65616D34 
 4712      5F495251 
 4712      6E00
ARM GAS  C:\Users\LAB_ME~1\AppData\Local\Temp\ccPnnEr8.s 			page 90


 4713              	.LASF73:
 4714 06a1 46534D43 		.ascii	"FSMC_IRQn\000"
 4714      5F495251 
 4714      6E00
 4715              	.LASF8:
 4716 06ab 696E7433 		.ascii	"int32_t\000"
 4716      325F7400 
 4717              	.LASF4:
 4718 06b3 756E7369 		.ascii	"unsigned char\000"
 4718      676E6564 
 4718      20636861 
 4718      7200
 4719              	.LASF196:
 4720 06c1 75617274 		.ascii	"uart_lld_stop_send\000"
 4720      5F6C6C64 
 4720      5F73746F 
 4720      705F7365 
 4720      6E6400
 4721              	.LASF49:
 4722 06d4 54494D31 		.ascii	"TIM1_BRK_TIM9_IRQn\000"
 4722      5F42524B 
 4722      5F54494D 
 4722      395F4952 
 4722      516E00
 4723              	.LASF199:
 4724 06e7 49544D5F 		.ascii	"ITM_RxBuffer\000"
 4724      52784275 
 4724      66666572 
 4724      00
 4725              	.LASF50:
 4726 06f4 54494D31 		.ascii	"TIM1_UP_TIM10_IRQn\000"
 4726      5F55505F 
 4726      54494D31 
 4726      305F4952 
 4726      516E00
 4727              	.LASF35:
 4728 0707 45585449 		.ascii	"EXTI4_IRQn\000"
 4728      345F4952 
 4728      516E00
 4729              	.LASF105:
 4730 0712 48415348 		.ascii	"HASH_RNG_IRQn\000"
 4730      5F524E47 
 4730      5F495251 
 4730      6E00
 4731              	.LASF5:
 4732 0720 73686F72 		.ascii	"short int\000"
 4732      7420696E 
 4732      7400
 4733              	.LASF129:
 4734 072a 41484233 		.ascii	"AHB3LPENR\000"
 4734      4C50454E 
 4734      5200
 4735              	.LASF78:
 4736 0734 55415254 		.ascii	"UART5_IRQn\000"
 4736      355F4952 
 4736      516E00
 4737              	.LASF51:
ARM GAS  C:\Users\LAB_ME~1\AppData\Local\Temp\ccPnnEr8.s 			page 91


 4738 073f 54494D31 		.ascii	"TIM1_TRG_COM_TIM11_IRQn\000"
 4738      5F545247 
 4738      5F434F4D 
 4738      5F54494D 
 4738      31315F49 
 4739              	.LASF151:
 4740 0757 75617274 		.ascii	"uartstate_t\000"
 4740      73746174 
 4740      655F7400 
 4741              	.LASF33:
 4742 0763 45585449 		.ascii	"EXTI2_IRQn\000"
 4742      325F4952 
 4742      516E00
 4743              	.LASF125:
 4744 076e 41504232 		.ascii	"APB2ENR\000"
 4744      454E5200 
 4745              	.LASF154:
 4746 0776 55415254 		.ascii	"UART_TX_COMPLETE\000"
 4746      5F54585F 
 4746      434F4D50 
 4746      4C455445 
 4746      00
 4747              	.LASF29:
 4748 0787 464C4153 		.ascii	"FLASH_IRQn\000"
 4748      485F4952 
 4748      516E00
 4749              	.LASF142:
 4750 0792 69666372 		.ascii	"ifcr\000"
 4750      00
 4751              	.LASF92:
 4752 0797 4F54475F 		.ascii	"OTG_FS_IRQn\000"
 4752      46535F49 
 4752      52516E00 
 4753              	.LASF174:
 4754 07a3 7478656E 		.ascii	"txend1_cb\000"
 4754      64315F63 
 4754      6200
 4755              	.LASF63:
 4756 07ad 55534152 		.ascii	"USART2_IRQn\000"
 4756      54325F49 
 4756      52516E00 
 4757              	.LASF20:
 4758 07b9 55736167 		.ascii	"UsageFault_IRQn\000"
 4758      65466175 
 4758      6C745F49 
 4758      52516E00 
 4759              	.LASF124:
 4760 07c9 41504231 		.ascii	"APB1ENR\000"
 4760      454E5200 
 4761              	.LASF213:
 4762 07d1 6E766963 		.ascii	"nvicDisableVector\000"
 4762      44697361 
 4762      626C6556 
 4762      6563746F 
 4762      7200
 4763              	.LASF72:
 4764 07e3 444D4131 		.ascii	"DMA1_Stream7_IRQn\000"
ARM GAS  C:\Users\LAB_ME~1\AppData\Local\Temp\ccPnnEr8.s 			page 92


 4764      5F537472 
 4764      65616D37 
 4764      5F495251 
 4764      6E00
 4765              	.LASF16:
 4766 07f5 63686172 		.ascii	"char\000"
 4766      00
 4767              	.LASF206:
 4768 07fa 646D6153 		.ascii	"dmaStreamRelease\000"
 4768      74726561 
 4768      6D52656C 
 4768      65617365 
 4768      00
 4769              	.LASF198:
 4770 080b 6D6F6465 		.ascii	"mode\000"
 4770      00
 4771              	.LASF19:
 4772 0810 42757346 		.ascii	"BusFault_IRQn\000"
 4772      61756C74 
 4772      5F495251 
 4772      6E00
 4773              	.LASF165:
 4774 081e 636F6E66 		.ascii	"config\000"
 4774      696700
 4775              	.LASF156:
 4776 0825 55415254 		.ascii	"UART_RX_IDLE\000"
 4776      5F52585F 
 4776      49444C45 
 4776      00
 4777              	.LASF80:
 4778 0832 54494D37 		.ascii	"TIM7_IRQn\000"
 4778      5F495251 
 4778      6E00
 4779              	.LASF100:
 4780 083c 4F54475F 		.ascii	"OTG_HS_EP1_IN_IRQn\000"
 4780      48535F45 
 4780      50315F49 
 4780      4E5F4952 
 4780      516E00
 4781              	.LASF17:
 4782 084f 4E6F6E4D 		.ascii	"NonMaskableInt_IRQn\000"
 4782      61736B61 
 4782      626C6549 
 4782      6E745F49 
 4782      52516E00 
 4783              	.LASF152:
 4784 0863 55415254 		.ascii	"UART_TX_IDLE\000"
 4784      5F54585F 
 4784      49444C45 
 4784      00
 4785              	.LASF188:
 4786 0870 56656374 		.ascii	"VectorD8\000"
 4786      6F724438 
 4786      00
 4787              	.LASF110:
 4788 0879 444D415F 		.ascii	"DMA_Stream_TypeDef\000"
 4788      53747265 
ARM GAS  C:\Users\LAB_ME~1\AppData\Local\Temp\ccPnnEr8.s 			page 93


 4788      616D5F54 
 4788      79706544 
 4788      656600
 4789              	.LASF121:
 4790 088c 41484232 		.ascii	"AHB2ENR\000"
 4790      454E5200 
 4791              	.LASF27:
 4792 0894 54414D50 		.ascii	"TAMP_STAMP_IRQn\000"
 4792      5F535441 
 4792      4D505F49 
 4792      52516E00 
 4793              	.LASF183:
 4794 08a4 75617274 		.ascii	"uart_lld_serve_rx_end_irq\000"
 4794      5F6C6C64 
 4794      5F736572 
 4794      76655F72 
 4794      785F656E 
 4795              	.LASF22:
 4796 08be 44656275 		.ascii	"DebugMonitor_IRQn\000"
 4796      674D6F6E 
 4796      69746F72 
 4796      5F495251 
 4796      6E00
 4797              	.LASF81:
 4798 08d0 444D4132 		.ascii	"DMA2_Stream0_IRQn\000"
 4798      5F537472 
 4798      65616D30 
 4798      5F495251 
 4798      6E00
 4799              	.LASF109:
 4800 08e2 4D314152 		.ascii	"M1AR\000"
 4800      00
 4801              	.LASF159:
 4802 08e7 75617274 		.ascii	"uartrxstate_t\000"
 4802      72787374 
 4802      6174655F 
 4802      7400
 4803              	.LASF58:
 4804 08f5 49324332 		.ascii	"I2C2_EV_IRQn\000"
 4804      5F45565F 
 4804      4952516E 
 4804      00
 4805              	.LASF64:
 4806 0902 55534152 		.ascii	"USART3_IRQn\000"
 4806      54335F49 
 4806      52516E00 
 4807              	.LASF136:
 4808 090e 53534347 		.ascii	"SSCGR\000"
 4808      5200
 4809              	.LASF53:
 4810 0914 54494D32 		.ascii	"TIM2_IRQn\000"
 4810      5F495251 
 4810      6E00
 4811              	.LASF31:
 4812 091e 45585449 		.ascii	"EXTI0_IRQn\000"
 4812      305F4952 
 4812      516E00
ARM GAS  C:\Users\LAB_ME~1\AppData\Local\Temp\ccPnnEr8.s 			page 94


 4813              	.LASF62:
 4814 0929 55534152 		.ascii	"USART1_IRQn\000"
 4814      54315F49 
 4814      52516E00 
 4815              	.LASF134:
 4816 0935 42444352 		.ascii	"BDCR\000"
 4816      00
 4817              	.LASF203:
 4818 093a 5F706F72 		.ascii	"_port_irq_epilogue\000"
 4818      745F6972 
 4818      715F6570 
 4818      696C6F67 
 4818      756500
 4819              	.LASF175:
 4820 094d 7478656E 		.ascii	"txend2_cb\000"
 4820      64325F63 
 4820      6200
 4821              	.LASF182:
 4822 0957 666C6167 		.ascii	"flags\000"
 4822      7300
 4823              	.LASF3:
 4824 095d 75696E74 		.ascii	"uint8_t\000"
 4824      385F7400 
 4825              	.LASF190:
 4826 0965 75736172 		.ascii	"usart_start\000"
 4826      745F7374 
 4826      61727400 
 4827              	.LASF103:
 4828 0971 44434D49 		.ascii	"DCMI_IRQn\000"
 4828      5F495251 
 4828      6E00
 4829              	.LASF167:
 4830 097b 646D616D 		.ascii	"dmamode\000"
 4830      6F646500 
 4831              	.LASF179:
 4832 0983 73706565 		.ascii	"speed\000"
 4832      6400
 4833              	.LASF120:
 4834 0989 41484231 		.ascii	"AHB1ENR\000"
 4834      454E5200 
 4835              	.LASF208:
 4836 0991 2E2E2F2E 		.ascii	"../../os/hal/platforms/STM32/USARTv1/uart_lld.c\000"
 4836      2E2F6F73 
 4836      2F68616C 
 4836      2F706C61 
 4836      74666F72 
 4837              	.LASF106:
 4838 09c1 4650555F 		.ascii	"FPU_IRQn\000"
 4838      4952516E 
 4838      00
 4839              	.LASF112:
 4840 09ca 43464752 		.ascii	"CFGR\000"
 4840      00
 4841              	.LASF193:
 4842 09cf 75617274 		.ascii	"uart_lld_start_send\000"
 4842      5F6C6C64 
 4842      5F737461 
ARM GAS  C:\Users\LAB_ME~1\AppData\Local\Temp\ccPnnEr8.s 			page 95


 4842      72745F73 
 4842      656E6400 
 4843              	.LASF192:
 4844 09e3 75617274 		.ascii	"uart_lld_stop\000"
 4844      5F6C6C64 
 4844      5F73746F 
 4844      7000
 4845              	.LASF57:
 4846 09f1 49324331 		.ascii	"I2C1_ER_IRQn\000"
 4846      5F45525F 
 4846      4952516E 
 4846      00
 4847              	.LASF43:
 4848 09fe 4144435F 		.ascii	"ADC_IRQn\000"
 4848      4952516E 
 4848      00
 4849              	.LASF82:
 4850 0a07 444D4132 		.ascii	"DMA2_Stream1_IRQn\000"
 4850      5F537472 
 4850      65616D31 
 4850      5F495251 
 4850      6E00
 4851              	.LASF46:
 4852 0a19 43414E31 		.ascii	"CAN1_RX1_IRQn\000"
 4852      5F525831 
 4852      5F495251 
 4852      6E00
 4853              	.LASF47:
 4854 0a27 43414E31 		.ascii	"CAN1_SCE_IRQn\000"
 4854      5F534345 
 4854      5F495251 
 4854      6E00
 4855              	.LASF212:
 4856 0a35 646D6153 		.ascii	"dmaStreamAllocate\000"
 4856      74726561 
 4856      6D416C6C 
 4856      6F636174 
 4856      6500
 4857              	.LASF91:
 4858 0a47 43414E32 		.ascii	"CAN2_SCE_IRQn\000"
 4858      5F534345 
 4858      5F495251 
 4858      6E00
 4859              	.LASF30:
 4860 0a55 5243435F 		.ascii	"RCC_IRQn\000"
 4860      4952516E 
 4860      00
 4861              	.LASF101:
 4862 0a5e 4F54475F 		.ascii	"OTG_HS_WKUP_IRQn\000"
 4862      48535F57 
 4862      4B55505F 
 4862      4952516E 
 4862      00
 4863              	.LASF54:
 4864 0a6f 54494D33 		.ascii	"TIM3_IRQn\000"
 4864      5F495251 
 4864      6E00
ARM GAS  C:\Users\LAB_ME~1\AppData\Local\Temp\ccPnnEr8.s 			page 96


 4865              	.LASF201:
 4866 0a79 55415254 		.ascii	"UARTD2\000"
 4866      443200
 4867              	.LASF32:
 4868 0a80 45585449 		.ascii	"EXTI1_IRQn\000"
 4868      315F4952 
 4868      516E00
 4869              	.LASF36:
 4870 0a8b 444D4131 		.ascii	"DMA1_Stream0_IRQn\000"
 4870      5F537472 
 4870      65616D30 
 4870      5F495251 
 4870      6E00
 4871              		.ident	"GCC: (Sourcery CodeBench Lite 2012.09-63) 4.7.2"
ARM GAS  C:\Users\LAB_ME~1\AppData\Local\Temp\ccPnnEr8.s 			page 97


DEFINED SYMBOLS
                            *ABS*:00000000 uart_lld.c
C:\Users\LAB_ME~1\AppData\Local\Temp\ccPnnEr8.s:19     .text.set_rx_idle_loop:00000000 $t
C:\Users\LAB_ME~1\AppData\Local\Temp\ccPnnEr8.s:24     .text.set_rx_idle_loop:00000000 set_rx_idle_loop
C:\Users\LAB_ME~1\AppData\Local\Temp\ccPnnEr8.s:78     .text.usart_stop:00000000 $t
C:\Users\LAB_ME~1\AppData\Local\Temp\ccPnnEr8.s:83     .text.usart_stop:00000000 usart_stop
C:\Users\LAB_ME~1\AppData\Local\Temp\ccPnnEr8.s:151    .text.uart_lld_serve_tx_end_irq:00000000 $t
C:\Users\LAB_ME~1\AppData\Local\Temp\ccPnnEr8.s:156    .text.uart_lld_serve_tx_end_irq:00000000 uart_lld_serve_tx_end_irq
C:\Users\LAB_ME~1\AppData\Local\Temp\ccPnnEr8.s:229    .text.uart_lld_serve_rx_end_irq:00000000 $t
C:\Users\LAB_ME~1\AppData\Local\Temp\ccPnnEr8.s:234    .text.uart_lld_serve_rx_end_irq:00000000 uart_lld_serve_rx_end_irq
C:\Users\LAB_ME~1\AppData\Local\Temp\ccPnnEr8.s:343    .text.VectorD8:00000000 $t
C:\Users\LAB_ME~1\AppData\Local\Temp\ccPnnEr8.s:349    .text.VectorD8:00000000 VectorD8
C:\Users\LAB_ME~1\AppData\Local\Temp\ccPnnEr8.s:472    .text.VectorD8:00000080 $d
C:\Users\LAB_ME~1\AppData\Local\Temp\ccPnnEr8.s:481    .text.uart_lld_init:00000000 $t
C:\Users\LAB_ME~1\AppData\Local\Temp\ccPnnEr8.s:487    .text.uart_lld_init:00000000 uart_lld_init
C:\Users\LAB_ME~1\AppData\Local\Temp\ccPnnEr8.s:522    .text.uart_lld_init:0000001c $d
C:\Users\LAB_ME~1\AppData\Local\Temp\ccPnnEr8.s:529    .text.uart_lld_start:00000000 $t
C:\Users\LAB_ME~1\AppData\Local\Temp\ccPnnEr8.s:535    .text.uart_lld_start:00000000 uart_lld_start
C:\Users\LAB_ME~1\AppData\Local\Temp\ccPnnEr8.s:724    .text.uart_lld_start:000000e4 $d
C:\Users\LAB_ME~1\AppData\Local\Temp\ccPnnEr8.s:736    .text.uart_lld_stop:00000000 $t
C:\Users\LAB_ME~1\AppData\Local\Temp\ccPnnEr8.s:742    .text.uart_lld_stop:00000000 uart_lld_stop
C:\Users\LAB_ME~1\AppData\Local\Temp\ccPnnEr8.s:796    .text.uart_lld_stop:00000034 $d
C:\Users\LAB_ME~1\AppData\Local\Temp\ccPnnEr8.s:802    .text.uart_lld_start_send:00000000 $t
C:\Users\LAB_ME~1\AppData\Local\Temp\ccPnnEr8.s:808    .text.uart_lld_start_send:00000000 uart_lld_start_send
C:\Users\LAB_ME~1\AppData\Local\Temp\ccPnnEr8.s:841    .text.uart_lld_stop_send:00000000 $t
C:\Users\LAB_ME~1\AppData\Local\Temp\ccPnnEr8.s:847    .text.uart_lld_stop_send:00000000 uart_lld_stop_send
C:\Users\LAB_ME~1\AppData\Local\Temp\ccPnnEr8.s:881    .text.uart_lld_start_receive:00000000 $t
C:\Users\LAB_ME~1\AppData\Local\Temp\ccPnnEr8.s:887    .text.uart_lld_start_receive:00000000 uart_lld_start_receive
C:\Users\LAB_ME~1\AppData\Local\Temp\ccPnnEr8.s:939    .text.uart_lld_stop_receive:00000000 $t
C:\Users\LAB_ME~1\AppData\Local\Temp\ccPnnEr8.s:945    .text.uart_lld_stop_receive:00000000 uart_lld_stop_receive
C:\Users\LAB_ME~1\AppData\Local\Temp\ccPnnEr8.s:994    .bss.UARTD2:00000000 UARTD2
C:\Users\LAB_ME~1\AppData\Local\Temp\ccPnnEr8.s:990    .bss.UARTD2:00000000 $d
                     .debug_frame:00000010 $d
C:\Users\LAB_ME~1\AppData\Local\Temp\ccPnnEr8.s:480    .text.VectorD8:00000084 $t
C:\Users\LAB_ME~1\AppData\Local\Temp\ccPnnEr8.s:528    .text.uart_lld_init:00000028 $t
C:\Users\LAB_ME~1\AppData\Local\Temp\ccPnnEr8.s:801    .text.uart_lld_stop:0000003c $t

UNDEFINED SYMBOLS
port_halt
_port_irq_epilogue
uartObjectInit
_stm32_dma_streams
dmaStreamAllocate
nvicEnableVector
dmaStreamRelease
nvicDisableVector
